(lp0
(S'ajax (programming)'
p1
cnumpy.core.multiarray
scalar
p2
(cnumpy
dtype
p3
(S'f8'
p4
I0
I1
tp5
Rp6
(I3
S'<'
p7
NNNI-1
I-1
I0
tp8
bS'\xff\xff\xff\xff\xff\xff\xef?'
p9
tp10
Rp11
tp12
a(S'hijax'
p13
g2
(g6
S'K\xd7\xa3\xac\x7f\xf9\xe6?'
p14
tp15
Rp16
tp17
a(S'ajax'
p18
g2
(g6
S'\x0c\x82\nU"%\xe6?'
p19
tp20
Rp21
tp22
a(S'list of ajax frameworks'
p23
g2
(g6
S'B\xb6\xca\xbcL\xda\xe5?'
p24
tp25
Rp26
tp27
a(S'ajax, ontario'
p28
g2
(g6
S'\x01\xac_\xca\x13\xe8\xe3?'
p29
tp30
Rp31
tp32
a(S'history of afc ajax'
p33
g2
(g6
S'\xaa\xd5\xb1\xf0=s\xe3?'
p34
tp35
Rp36
tp37
a(S'ajax (mythology)'
p38
g2
(g6
S'IB\xc5\x9c\x18e\xe3?'
p39
tp40
Rp41
tp42
a(S'david endt'
p43
g2
(g6
S'\x0f\xa5\x12\xbc\x11\r\xe3?'
p44
tp45
Rp46
tp47
a(S'ajax hellas youth academy'
p48
g2
(g6
S'\xe3K,\x8d3\xf9\xe2?'
p49
tp50
Rp51
tp52
a(S'richfaces'
p53
g2
(g6
S'J\x90\x13"\xdd\xf2\xe2?'
p54
tp55
Rp56
tp57
a(S'amsterdam tournament'
p58
g2
(g6
S'\x93=\xf5T\xcd\x7f\xe2?'
p59
tp60
Rp61
tp62
a(S'ajax-nieuws'
p63
g2
(g6
S'.\xd1\xc0\x98t\x1e\xe2?'
p64
tp65
Rp66
tp67
a(S'openajax alliance'
p68
g2
(g6
S'\x1a\xf1\xa2\xd3\xe3\x1a\xe2?'
p69
tp70
Rp71
tp72
a(S'afc ajax n.v.'
p73
g2
(g6
S'"\xb2S\xa8|\x11\xe2?'
p74
tp75
Rp76
tp77
a(S'sportpark de toekomst'
p78
g2
(g6
S'\x00\x93|\x93\xc4\xfc\xe1?'
p79
tp80
Rp81
tp82
a(S'ajax records'
p83
g2
(g6
S'\xcf\xf3\xc5\x8f\xb8\xfc\xe1?'
p84
tp85
Rp86
tp87
a(S'afc ajax'
p88
g2
(g6
S')\xfd\x9e\xbb\x8b\xbd\xe1?'
p89
tp90
Rp91
tp92
a(S'2001\xe2\x80\x9302 afc ajax season'
p93
g2
(g6
S'\x95\x7f\\\xdf\x8c\xb8\xe1?'
p94
tp95
Rp96
tp97
a(S'asp.net ajax'
p98
g2
(g6
S'\xf7\xd8l\x1fQ\xb8\xe1?'
p99
tp100
Rp101
tp102
a(S'gabriel mofokeng'
p103
g2
(g6
S'tg\n\xdeG\xa4\xe1?'
p104
tp105
Rp106
tp107
a(S'ajax the lesser'
p108
g2
(g6
S'\x1a\xb1\xf3\x1ec\xa2\xe1?'
p109
tp110
Rp111
tp112
a(S'ajax (cleaning product)'
p113
g2
(g6
S'\xe9_\xc9\xd4\x8e\x8b\xe1?'
p114
tp115
Rp116
tp117
a(S'matthijs de ligt'
p118
g2
(g6
S'-6\xbd\x81\x97N\xe1?'
p119
tp120
Rp121
tp122
a(S'hms ajax (22)'
p123
g2
(g6
S'\x8e\x1a\xee\x87\n;\xe1?'
p124
tp125
Rp126
tp127
a(S'jpspan'
p128
g2
(g6
S'\xa5R\xe3\xd1\x95\x11\xe1?'
p129
tp130
Rp131
tp132
a(S'theo brokmann'
p133
g2
(g6
S'<&A\xefI\xec\xe0?'
p134
tp135
Rp136
tp137
a(S'list of afc ajax affiliated clubs'
p138
g2
(g6
S'\xbaN\xe5\x15#\xe5\xe0?'
p139
tp140
Rp141
tp142
a(S'hms ajax (1798)'
p143
g2
(g6
S'\xb5\x8b\xf8\x99+\xdd\xe0?'
p144
tp145
Rp146
tp147
a(S'1999\xe2\x80\x932000 afc ajax season'
p148
g2
(g6
S'b\xdbCk\x04\xd8\xe0?'
p149
tp150
Rp151
tp152
a(S'f-side'
p153
g2
(g6
S'\xb1w\xb4\x82\xf6\xa3\xe0?'
p154
tp155
Rp156
tp157
a(S'ajax transit'
p158
g2
(g6
S'\x0e\xee\x00\x84)\x9e\xe0?'
p159
tp160
Rp161
tp162
a(S'wij zijn ajax'
p163
g2
(g6
S'\xab&\xea\xf5W\x98\xe0?'
p164
tp165
Rp166
tp167
a(S'ajax, louisiana'
p168
g2
(g6
S'\xaa3\xf9\xab\xb9w\xe0?'
p169
tp170
Rp171
tp172
a(S'supportersvereniging ajax'
p173
g2
(g6
S'\x97bD\xb3\xf6o\xe0?'
p174
tp175
Rp176
tp177
a(S'ajax high school'
p178
g2
(g6
S'\xe95\x98F\x85M\xe0?'
p179
tp180
Rp181
tp182
a(S'bobby haarms'
p183
g2
(g6
S'\xc1b\\?\x95K\xe0?'
p184
tp185
Rp186
tp187
a(S'dick schoenaker'
p188
g2
(g6
S'\x14S\xbb\xc7\xd4I\xe0?'
p189
tp190
Rp191
tp192
a(S'itsnat'
p193
g2
(g6
S'R\x05\xf1\xe5kH\xe0?'
p194
tp195
Rp196
tp197
a(S'gerrit fischer'
p198
g2
(g6
S'\xa6{1\xecw;\xe0?'
p199
tp200
Rp201
tp202
a(S'ajax kenitra'
p203
g2
(g6
S'\x84P\xf8\x00P;\xe0?'
p204
tp205
Rp206
tp207
a(S'marvin h\xc3\xb6ner'
p208
g2
(g6
S'U"&\xfa\xb24\xe0?'
p209
tp210
Rp211
tp212
a(S'ajax-mars'
p213
g2
(g6
S'\xd9<\x1fE\x10/\xe0?'
p214
tp215
Rp216
tp217
a(S'dwr (java)'
p218
g2
(g6
S'q\xbd\xa1\x8aS&\xe0?'
p219
tp220
Rp221
tp222
a(S'klaas nuninga'
p223
g2
(g6
S'|\x94\x8d/w"\xe0?'
p224
tp225
Rp226
tp227
a(S'ajax experience'
p228
g2
(g6
S'v\xbb\xa4<K\x1f\xe0?'
p229
tp230
Rp231
tp232
a(S'superjews'
p233
g2
(g6
S'\xa11\x90>\xc6\x0e\xe0?'
p234
tp235
Rp236
tp237
a(S'ajax engines'
p238
g2
(g6
S'fU=\xed\x86\t\xe0?'
p239
tp240
Rp241
tp242
a(S'dutch footballer of the year'
p243
g2
(g6
S'\xe9\x918{\x10\x06\xe0?'
p244
tp245
Rp246
tp247
a(S'sinan keskin'
p248
g2
(g6
S'f\xbd/\x91\xcb\x02\xe0?'
p249
tp250
Rp251
tp252
a(S'ajax animator'
p253
g2
(g6
S'\xe0O\x90\xb9}\xfa\xdf?'
p254
tp255
Rp256
tp257
a(S'ajax (play)'
p258
g2
(g6
S'\xae\x83\x96\xb0\xbb\xee\xdf?'
p259
tp260
Rp261
tp262
a(S'gery vink'
p263
g2
(g6
S'wA\xc7\x065\xee\xdf?'
p264
tp265
Rp266
tp267
a(S'fabian sporkslede'
p268
g2
(g6
S'\x00\xf6IV\x88\xe4\xdf?'
p269
tp270
Rp271
tp272
a(S'jan potharst'
p273
g2
(g6
S'w\x97>H\xe7\xa5\xdf?'
p274
tp275
Rp276
tp277
a(S'ajax (locomotive)'
p278
g2
(g6
S'\x0e\x1b|\xcb\xae\x9d\xdf?'
p279
tp280
Rp281
tp282
a(S'icefaces'
p283
g2
(g6
S'\xff\xf2p<\xa4\x9c\xdf?'
p284
tp285
Rp286
tp287
a(S'nathani\xc3\xabl will'
p288
g2
(g6
S'\xb5\x88\xc5\xf3\x9aD\xdf?'
p289
tp290
Rp291
tp292
a(S'jong ajax'
p293
g2
(g6
S'\xa4\xcd\x0b\x1d,\x1c\xdf?'
p294
tp295
Rp296
tp297
a(S'floris stempel'
p298
g2
(g6
S'\xcc\x7f\xe3\xc6E\x14\xdf?'
p299
tp300
Rp301
tp302
a(S'single-page application'
p303
g2
(g6
S'`\xd2\xcc\xe3x\x0b\xdf?'
p304
tp305
Rp306
tp307
a(S'xajax'
p308
g2
(g6
S'\xcf\xdeL!\xc7\xf8\xde?'
p309
tp310
Rp311
tp312
a(S'thulani serero'
p313
g2
(g6
S'\xea8\x13\xcdd\xf1\xde?'
p314
tp315
Rp316
tp317
a(S'ajax (electoral district)'
p318
g2
(g6
S'\x83\xb3\x93\x86\x1d\xd9\xde?'
p319
tp320
Rp321
tp322
a(S'ajax (american automobile)'
p323
g2
(g6
S'\x92?+bI\xd7\xde?'
p324
tp325
Rp326
tp327
a(S'ajax sportsman combinatie'
p328
g2
(g6
S'\xd6\xbb\xeb\xca\xd2\xc7\xde?'
p329
tp330
Rp331
tp332
a(S'uss ajax (ar-6)'
p333
g2
(g6
S'oF\xf8W5\xc6\xde?'
p334
tp335
Rp336
tp337
a(S'1900 (magazine)'
p338
g2
(g6
S'\xf9Hts$\xb5\xde?'
p339
tp340
Rp341
tp342
a(S'peter boeve'
p343
g2
(g6
S'\xba\x96\xcc\x9di\x9b\xde?'
p344
tp345
Rp346
tp347
a(S'daley blind'
p348
g2
(g6
S'\x9b\x7fa\xb6t\x9a\xde?'
p349
tp350
Rp351
tp352
a(S'quicknet'
p353
g2
(g6
S'. #\x99\x86\x8c\xde?'
p354
tp355
Rp356
tp357
a(S'french ship ajax (1779)'
p358
g2
(g6
S'<\x99\xa4q\xe8\x8b\xde?'
p359
tp360
Rp361
tp362
a(S'damon mirani'
p363
g2
(g6
S'\x8f\x83\xcc\xe5nj\xde?'
p364
tp365
Rp366
tp367
a(S'jan-arie van der heijden'
p368
g2
(g6
S'\x95\xaa\xa2R\xfdb\xde?'
p369
tp370
Rp371
tp372
a(S'dick been'
p373
g2
(g6
S'\x94\xe2\x82\x85\x04E\xde?'
p374
tp375
Rp376
tp377
a(S'world of ajax'
p378
g2
(g6
S'\x8e^\xf8\xa3g\xe9\xdd?'
p379
tp380
Rp381
tp382
a(S'nicolai boilesen'
p383
g2
(g6
S'\xaf\x8dexK\xc8\xdd?'
p384
tp385
Rp386
tp387
a(S'staafincident'
p388
g2
(g6
S'\xb6\x1a\x9fQ\xfa\xc3\xdd?'
p389
tp390
Rp391
tp392
a(S'ajax: hark the herald angel sings'
p393
g2
(g6
S'\xac\xa2\xb3\xc7G\xbd\xdd?'
p394
tp395
Rp396
tp397
a(S'ajax, utah'
p398
g2
(g6
S'O\x17\xde\xbdR\xa8\xdd?'
p399
tp400
Rp401
tp402
a(S'1994\xe2\x80\x9395 afc ajax season'
p403
g2
(g6
S',6WV@\xa6\xdd?'
p404
tp405
Rp406
tp407
a(S'south crew'
p408
g2
(g6
S'm\xc6\x96\x9f7\x9e\xdd?'
p409
tp410
Rp411
tp412
a(S'prototype javascript framework'
p413
g2
(g6
S"\xe24\x85\xfb'\x9d\xdd?"
p414
tp415
Rp416
tp417
a(S'vak410'
p418
g2
(g6
S'%\xc8\xb9\x92B\x98\xdd?'
p419
tp420
Rp421
tp422
a(S'ajax cape town f.c.'
p423
g2
(g6
S'\xab)\xa7u\xb4\x90\xdd?'
p424
tp425
Rp426
tp427
a(S'ja\xc3\xafro riedewald'
p428
g2
(g6
S'\x8d\xe6\xd4DA\x8a\xdd?'
p429
tp430
Rp431
tp432
a(S'jquery'
p433
g2
(g6
S'\xe3\xc2J;\x1a\x89\xdd?'
p434
tp435
Rp436
tp437
a(S'ajax life'
p438
g2
(g6
S'\xd9:\x9e\xb5#\x80\xdd?'
p439
tp440
Rp441
tp442
a(S'ajax (crane barge)'
p443
g2
(g6
S'\xad\x059\x86\xb6v\xdd?'
p444
tp445
Rp446
tp447
a(S'ajax 5\xe2\x80\x931 liverpool (1966)'
p448
g2
(g6
S'3\xa7\x10\x89\xfcd\xdd?'
p449
tp450
Rp451
tp452
a(S'brett evans'
p453
g2
(g6
S'\xe8\xca\xd2\xf4\x1c^\xdd?'
p454
tp455
Rp456
tp457
a(S'future cup'
p458
g2
(g6
S'\x00S]\xbc\x957\xdd?'
p459
tp460
Rp461
tp462
a(S'ajax magazine'
p463
g2
(g6
S'\x1c\xa8\xda\x9e\x1a*\xdd?'
p464
tp465
Rp466
tp467
a(S'ajax football club'
p468
g2
(g6
S'0\xe5 \x06t&\xdd?'
p469
tp470
Rp471
tp472
a(S'afca supportersclub'
p473
g2
(g6
S'\xd5\x0f\x85\xd8_\xff\xdc?'
p474
tp475
Rp476
tp477
a(S'hms ajax (1809)'
p478
g2
(g6
S'\xb2!\xd8\x7f=\xe3\xdc?'
p479
tp480
Rp481
tp482
a(S'noussair mazraoui'
p483
g2
(g6
S'X\xa8/\xc0\x13\xc6\xdc?'
p484
tp485
Rp486
tp487
a(S'jan de boer (footballer)'
p488
g2
(g6
S'\xb7\xd4\x1eN\x0e\xa8\xdc?'
p489
tp490
Rp491
tp492
a(S'adham el idrissi'
p493
g2
(g6
S'(\xe5\xd6{\xc2\xa7\xdc?'
p494
tp495
Rp496
tp497
a(S'ajax4jsf'
p498
g2
(g6
S'\x99\xb1\xc6`\xf4\x90\xdc?'
p499
tp500
Rp501
tp502
a(S'riechedly bazoer'
p503
g2
(g6
S'.\xc7\xb9\xaes\x83\xdc?'
p504
tp505
Rp506
tp507
a(S'sjaak swart'
p508
g2
(g6
S'\xe8hG\x8a\xe1H\xdc?'
p509
tp510
Rp511
tp512
a(S'deyovaisio zeefuik'
p513
g2
(g6
S'\xa6\t\xd6\xdf\xf6>\xdc?'
p514
tp515
Rp516
tp517
a(S'morfik'
p518
g2
(g6
S'*$\xf1x$:\xdc?'
p519
tp520
Rp521
tp522
a(S'crawljax'
p523
g2
(g6
S'\xbb\xca\x94\xa9-"\xdc?'
p524
tp525
Rp526
tp527
a(S'apache xap'
p528
g2
(g6
S's\xe1.o\x14\x1d\xdc?'
p529
tp530
Rp531
tp532
a(S'robert muri\xc4\x87'
p533
g2
(g6
S'\x1e\xf601\xd3\x18\xdc?'
p534
tp535
Rp536
tp537
a(S'ajax (comics)'
p538
g2
(g6
S'\rP\xfe\x92\x12\n\xdc?'
p539
tp540
Rp541
tp542
a(S'hms ajax (f114)'
p543
g2
(g6
S'\xc5$\xca\x08\xad\xdb\xdb?'
p544
tp545
Rp546
tp547
a(S'jo\xc3\xabl veltman'
p548
g2
(g6
S'\xc6\xeac!\x05\xa1\xdb?'
p549
tp550
Rp551
tp552
a(S'chiel kramer'
p553
g2
(g6
S'\xa3\x9cR#\x1f\x89\xdb?'
p554
tp555
Rp556
tp557
a(S'ajax merchants'
p558
g2
(g6
S'\x9c\xc9\xca\xf4\xde\x84\xdb?'
p559
tp560
Rp561
tp562
a(S'north up alliance'
p563
g2
(g6
S'A\n\xd1\xdc\xc5W\xdb?'
p564
tp565
Rp566
tp567
a(S'de klassieker'
p568
g2
(g6
S'\x95\x7f\x99G\x86?\xdb?'
p569
tp570
Rp571
tp572
a(S'tecmessa'
p573
g2
(g6
S'\x86\xe3-\xb6\xd1#\xdb?'
p574
tp575
Rp576
tp577
a(S'hans vonk (footballer)'
p578
g2
(g6
S'+\xe1,\x06\xb1\x17\xdb?'
p579
tp580
Rp581
tp582
a(S'barry hulshoff'
p583
g2
(g6
S'O\x1e\n%W\n\xdb?'
p584
tp585
Rp586
tp587
a(S'mitchell dijks'
p588
g2
(g6
S'r\xf1\xe6\x93\x17\x06\xdb?'
p589
tp590
Rp591
tp592
a(S'gert bals'
p593
g2
(g6
S'\xa5\x04\x86\xaf\xad\x05\xdb?'
p594
tp595
Rp596
tp597
a(S'dynamic web page'
p598
g2
(g6
S'\x97}s\x97t\xee\xda?'
p599
tp600
Rp601
tp602
a(S'web application'
p603
g2
(g6
S'\x1fq`\x94`\xed\xda?'
p604
tp605
Rp606
tp607
a(S'fred wiegman'
p608
g2
(g6
S'\xf7\xa2\x9c\x98\x83\xd8\xda?'
p609
tp610
Rp611
tp612
a(S'nicolae mitea'
p613
g2
(g6
S'\xd8:\xf9\x7f\xe7\xbb\xda?'
p614
tp615
Rp616
tp617
a(S'ajax tv'
p618
g2
(g6
S'\xa3\x9a\x9a\\\x84\xb6\xda?'
p619
tp620
Rp621
tp622
a(S'2000\xe2\x80\x9301 afc ajax season'
p623
g2
(g6
S'\x1e\x19\xea\xbbL\xb5\xda?'
p624
tp625
Rp626
tp627
a(S'klaas bakker'
p628
g2
(g6
S'\xc8\xe1\x9c<\xee\xb1\xda?'
p629
tp630
Rp631
tp632
a(S'ronald de boer'
p633
g2
(g6
S'\xab\x13>\xe1L\xab\xda?'
p634
tp635
Rp636
tp637
a(S'han dade'
p638
g2
(g6
S'\xa7\x00\xdbF\xf7\xa5\xda?'
p639
tp640
Rp641
tp642
a(S'ajax (horse)'
p643
g2
(g6
S'\xad\x15GO\xe8\xa0\xda?'
p644
tp645
Rp646
tp647
a(S'donovan slijngard'
p648
g2
(g6
S'r_\x16{\xb8\x88\xda?'
p649
tp650
Rp651
tp652
a(S'iman dozy'
p653
g2
(g6
S'\xa0\xbc\xd7\x15]\x82\xda?'
p654
tp655
Rp656
tp657
a(S'ricardo kishna'
p658
g2
(g6
S'}+\xdft!\x81\xda?'
p659
tp660
Rp661
tp662
a(S'fred grim'
p663
g2
(g6
S'\x984\x15*\xb3h\xda?'
p664
tp665
Rp666
tp667
a(S'stadiums of afc ajax'
p668
g2
(g6
S'\x0ek\x81\xc8\xc2X\xda?'
p669
tp670
Rp671
tp672
a(S'whitney sharpe'
p673
g2
(g6
S'c\xaaf\x9d\xb9T\xda?'
p674
tp675
Rp676
tp677
a(S'stan van bladeren'
p678
g2
(g6
S'f\xb7\x81\x1abT\xda?'
p679
tp680
Rp681
tp682
a(S'jan vertonghen'
p683
g2
(g6
S'\r\x18\x1b\x10\x93R\xda?'
p684
tp685
Rp686
tp687
a(S'abdel malek el hasnaoui'
p688
g2
(g6
S'\xe1\xec\xfc\x80\x007\xda?'
p689
tp690
Rp691
tp692
a(S'oileus'
p693
g2
(g6
S'k\x8d6~\x8f1\xda?'
p694
tp695
Rp696
tp697
a(S'maarten stekelenburg (footballer, born 1972)'
p698
g2
(g6
S'/\xbb/\xfc\x950\xda?'
p699
tp700
Rp701
tp702
a(S'wim bleijenberg'
p703
g2
(g6
S'\xd5\x10q\x13\t0\xda?'
p704
tp705
Rp706
tp707
a(S'leeroy owusu'
p708
g2
(g6
S'\xb2j\xf1\xe2\xe9+\xda?'
p709
tp710
Rp711
tp712
a(S'lucky lynx'
p713
g2
(g6
S'\xfb\\\xb8K\xdb\x1a\xda?'
p714
tp715
Rp716
tp717
a(S'jack reynolds (footballer, born 1881)'
p718
g2
(g6
S'\x8d2[!M\x16\xda?'
p719
tp720
Rp721
tp722
a(S'ilan boccara'
p723
g2
(g6
S'\t\x9d}4\xed\x12\xda?'
p724
tp725
Rp726
tp727
a(S'ger van mourik'
p728
g2
(g6
S'\xdfr\x82a5\x10\xda?'
p729
tp730
Rp731
tp732
a(S'abbubaker mobara'
p733
g2
(g6
S'\x17Qj\xbd&\xff\xd9?'
p734
tp735
Rp736
tp737
a(S'eyong enoh'
p738
g2
(g6
S'[ E^&\xff\xd9?'
p739
tp740
Rp741
tp742
a(S'ajax bay'
p743
g2
(g6
S'\x97\xd4#7\xe2\xec\xd9?'
p744
tp745
Rp746
tp747
a(S'ajax.oop'
p748
g2
(g6
S'\x04\x82\rW\xc7\xe6\xd9?'
p749
tp750
Rp751
tp752
a(S'bryan roy'
p753
g2
(g6
S'9\x00\xcb\x124\xe3\xd9?'
p754
tp755
Rp756
tp757
a(S'mauro savastano'
p758
g2
(g6
S'\x9f\xb2S\xf9\xde\xd3\xd9?'
p759
tp760
Rp761
tp762
a(S'v\xc3\xa1clav \xc4\x8cern\xc3\xbd (footballer)'
p763
g2
(g6
S'\x87\xbd\x06\x9e\xde\xcd\xd9?'
p764
tp765
Rp766
tp767
a(S'uss ajax (1864)'
p768
g2
(g6
S'*i\xdc\x07L\xc3\xd9?'
p769
tp770
Rp771
tp772
a(S'andre petim'
p773
g2
(g6
S'\xa98e\x84\x11\xbb\xd9?'
p774
tp775
Rp776
tp777
a(S'afc ajax\xe2\x80\x93psv eindhoven rivalry'
p778
g2
(g6
S'\xba\xb9\xb1\x80"\xae\xd9?'
p779
tp780
Rp781
tp782
a(S'davy klaassen'
p783
g2
(g6
S'\xf0I\x85\xfa\n\xad\xd9?'
p784
tp785
Rp786
tp787
a(S'htmlunit'
p788
g2
(g6
S'\xb2\xa5\xb2P\xe1\xa5\xd9?'
p789
tp790
Rp791
tp792
a(S'dikilu bageta'
p793
g2
(g6
S'\xb7\xe87\x80\xc4\x9e\xd9?'
p794
tp795
Rp796
tp797
a(S'wamberto de jesus sousa campos'
p798
g2
(g6
S'\xbf\xc8\xb3\x0e\x01\x9a\xd9?'
p799
tp800
Rp801
tp802
a(S'web 2.0'
p803
g2
(g6
S'=p\xa6MC\x99\xd9?'
p804
tp805
Rp806
tp807
a(S'amsterdam derby'
p808
g2
(g6
S'\x04\xe1cj<\x92\xd9?'
p809
tp810
Rp811
tp812
a(S'remote scripting'
p813
g2
(g6
S'\xb1\x04F\x7f\x8dt\xd9?'
p814
tp815
Rp816
tp817
a(S'comet (programming)'
p818
g2
(g6
S'\xa4\xf0\x14\x80\xa9q\xd9?'
p819
tp820
Rp821
tp822
a(S'elton acolatse'
p823
g2
(g6
S'\x96\xdd\x12\x99\x08n\xd9?'
p824
tp825
Rp826
tp827
a(S'tafadzwa rusike'
p828
g2
(g6
S'\xcd\xe8\xd1\xf9\xa8j\xd9?'
p829
tp830
Rp831
tp832
a(S'xforms'
p833
g2
(g6
S'\xe1\xb6\xc9f^h\xd9?'
p834
tp835
Rp836
tp837
a(S'jasper cillessen'
p838
g2
(g6
S'\xc6\xcfS\x18C;\xd9?'
p839
tp840
Rp841
tp842
a(S'melvin vissers'
p843
g2
(g6
S'p\xbdG)\xc5*\xd9?'
p844
tp845
Rp846
tp847
a(S'derk boerrigter'
p848
g2
(g6
S'<\xba!w\x10(\xd9?'
p849
tp850
Rp851
tp852
a(S'arnold scholten'
p853
g2
(g6
S'\x80m\x97\x8a~%\xd9?'
p854
tp855
Rp856
tp857
a(S'ezra walian'
p858
g2
(g6
S'\xde,\x93\x07\xb2!\xd9?'
p859
tp860
Rp861
tp862
a(S'tschen la ling'
p863
g2
(g6
S'RK\xbd\x97\x03\x12\xd9?'
p864
tp865
Rp866
tp867
a(S'eddy hamel'
p868
g2
(g6
S'\xfb\x16y\x1a\xba\n\xd9?'
p869
tp870
Rp871
tp872
a(S'javeline platform'
p873
g2
(g6
S'\x06k\xc1\xc74\n\xd9?'
p874
tp875
Rp876
tp877
a(S'indy groothuizen'
p878
g2
(g6
S'\x93\xb0\xfdD\xe0\x01\xd9?'
p879
tp880
Rp881
tp882
a(S'edgar manucharyan'
p883
g2
(g6
S'A|\x1cQ\xaf\xfe\xd8?'
p884
tp885
Rp886
tp887
a(S'emmanuel boakye'
p888
g2
(g6
S'\x07"\xac<\xb2\xfc\xd8?'
p889
tp890
Rp891
tp892
a(S'jan pruijn'
p893
g2
(g6
S'A\x00\xcb\x02\xf1\xf6\xd8?'
p894
tp895
Rp896
tp897
a(S'terry lartey sanniez'
p898
g2
(g6
S'\xdf\x9f\xe1>\xee\xf2\xd8?'
p899
tp900
Rp901
tp902
a(S'donald duck and the gorilla'
p903
g2
(g6
S'\xfb\x92\xa9N\xd8\xd4\xd8?'
p904
tp905
Rp906
tp907
a(S'dynamic html'
p908
g2
(g6
S'\xfe\xccJ~\xa5\xd1\xd8?'
p909
tp910
Rp911
tp912
a(S'sun web developer pack'
p913
g2
(g6
S'D@E\x93\x07\xd1\xd8?'
p914
tp915
Rp916
tp917
a(S'het houten stadion'
p918
g2
(g6
S'\x9b\xfcl7\x8f\xcd\xd8?'
p919
tp920
Rp921
tp922
a(S'ajax stakes'
p923
g2
(g6
S'\xae\xe0>\x81#\xb9\xd8?'
p924
tp925
Rp926
tp927
a(S'list of dutch football champions'
p928
g2
(g6
S'\x19~\xac\xfd\x9c\xa1\xd8?'
p929
tp930
Rp931
tp932
a(S'queensy menig'
p933
g2
(g6
S'\rV\x05\x83\x18\x8e\xd8?'
p934
tp935
Rp936
tp937
a(S'vince gino dekker'
p938
g2
(g6
S'\xc2\xb7\xf6\xe9\x94|\xd8?'
p939
tp940
Rp941
tp942
a(S'vincent vermeij'
p943
g2
(g6
S'\x8d\xa7\x88\xabt{\xd8?'
p944
tp945
Rp946
tp947
a(S'ajax downs'
p948
g2
(g6
S'\xec\x0c\xfdg\xb2k\xd8?'
p949
tp950
Rp951
tp952
a(S'abdelhak nouri'
p953
g2
(g6
S'\xe7\xc6jE;a\xd8?'
p954
tp955
Rp956
tp957
a(S'branco van den boomen'
p958
g2
(g6
S'zWb\r\xde^\xd8?'
p959
tp960
Rp961
tp962
a(S'web page'
p963
g2
(g6
S'\xfc\xd0\xd3\x8a+]\xd8?'
p964
tp965
Rp966
tp967
a(S'ajax\xe2\x80\x94pickering (provincial electoral district)'
p968
g2
(g6
S'\x8f\xb4w\xe5*[\xd8?'
p969
tp970
Rp971
tp972
a(S'nick de bondt'
p973
g2
(g6
S'\xaf\xd6jf\xdbQ\xd8?'
p974
tp975
Rp976
tp977
a(S'2001 amsterdam tournament'
p978
g2
(g6
S'2\x00\xe0\xd1\xa1J\xd8?'
p979
tp980
Rp981
tp982
a(S'fons pelser'
p983
g2
(g6
S'\xa1\xcf@m\x1bF\xd8?'
p984
tp985
Rp986
tp987
a(S'javascript'
p988
g2
(g6
S'J\x16\xcc\xab\xf7:\xd8?'
p989
tp990
Rp991
tp992
a(S'web framework'
p993
g2
(g6
S'\xba\xc7_H\xd2%\xd8?'
p994
tp995
Rp996
tp997
a(S'mickey van der hart'
p998
g2
(g6
S'r\x9b\xc3\xdbc!\xd8?'
p999
tp1000
Rp1001
tp1002
a(S'stanton lewis (footballer, born 1987)'
p1003
g2
(g6
S' \xbdszL\x1a\xd8?'
p1004
tp1005
Rp1006
tp1007
a(S'sven nieuwpoort'
p1008
g2
(g6
S'q0\x95\x93u\x15\xd8?'
p1009
tp1010
Rp1011
tp1012
a(S'joeri de kamps'
p1013
g2
(g6
S'#\xdb\x91\xc8\x8e\x0c\xd8?'
p1014
tp1015
Rp1016
tp1017
a(S'fireworks incident'
p1018
g2
(g6
S'U\xe8\x95\x96.\t\xd8?'
p1019
tp1020
Rp1021
tp1022
a(S'javascript library'
p1023
g2
(g6
S'f]\x7f\xf4E\xf2\xd7?'
p1024
tp1025
Rp1026
tp1027
a(S'anton pronk'
p1028
g2
(g6
S']JY \xfc\xee\xd7?'
p1029
tp1030
Rp1031
tp1032
a(S'document update markup language'
p1033
g2
(g6
S'\xf4\x0c\xb2\x1c:\xed\xd7?'
p1034
tp1035
Rp1036
tp1037
a(S'2002 amsterdam tournament'
p1038
g2
(g6
S'\x9f\xea\xdc\xeb\r\xea\xd7?'
p1039
tp1040
Rp1041
tp1042
a(S'markus bay'
p1043
g2
(g6
S'is`\xd7\x92\xe9\xd7?'
p1044
tp1045
Rp1046
tp1047
a(S'viktor fischer'
p1048
g2
(g6
S'q\x06k\x0eB\xb3\xd7?'
p1049
tp1050
Rp1051
tp1052
a(S'ajax go station'
p1053
g2
(g6
S'p=el\x8c\xae\xd7?'
p1054
tp1055
Rp1056
tp1057
a(S'2011\xe2\x80\x9312 afc ajax season'
p1058
g2
(g6
S'\x1d\xca\xed\xd1\x04\xae\xd7?'
p1059
tp1060
Rp1061
tp1062
a(S'henk hordijk'
p1063
g2
(g6
S'1I\xe9\x91n\xa9\xd7?'
p1064
tp1065
Rp1066
tp1067
a(S'tom noordhoff'
p1068
g2
(g6
S'\xcd\x0ea}5\xa9\xd7?'
p1069
tp1070
Rp1071
tp1072
a(S'joe dickson'
p1073
g2
(g6
S'd\x94\xfe\xb7(\xa2\xd7?'
p1074
tp1075
Rp1076
tp1077
a(S'smartclient'
p1078
g2
(g6
S'\xd4\xd8E<\xbe\x91\xd7?'
p1079
tp1080
Rp1081
tp1082
a(S'the contention of ajax and ulysses'
p1083
g2
(g6
S' [C.C\x91\xd7?'
p1084
tp1085
Rp1086
tp1087
a(S'zakaria el azzouzi'
p1088
g2
(g6
S'3!"\x0e\t\x80\xd7?'
p1089
tp1090
Rp1091
tp1092
a(S'uss ajax'
p1093
g2
(g6
S'^\xc0\x8d\x88\x1bx\xd7?'
p1094
tp1095
Rp1096
tp1097
a(S'toby alderweireld'
p1098
g2
(g6
S'\xfe\xa7u\xd5CZ\xd7?'
p1099
tp1100
Rp1101
tp1102
a(S'jwt (java web toolkit)'
p1103
g2
(g6
S'A6\x8b;\xfaJ\xd7?'
p1104
tp1105
Rp1106
tp1107
a(S'swfaddress'
p1108
g2
(g6
S'4\xee\xda\x03\x92E\xd7?'
p1109
tp1110
Rp1111
tp1112
a(S'rich internet application'
p1113
g2
(g6
S'\xf5\xcb8\xa5\xb1C\xd7?'
p1114
tp1115
Rp1116
tp1117
a(S'marijn sterk'
p1118
g2
(g6
S'\x84\xdb.@\xa5C\xd7?'
p1119
tp1120
Rp1121
tp1122
a(S'wim volkers'
p1123
g2
(g6
S'@6\xef\x1au@\xd7?'
p1124
tp1125
Rp1126
tp1127
a(S'ajax sportsplex'
p1128
g2
(g6
S'\xa13\x9b\xb9_>\xd7?'
p1129
tp1130
Rp1131
tp1132
a(S'hms ajax (s125)'
p1133
g2
(g6
S'i\xe2\xb8\x8986\xd7?'
p1134
tp1135
Rp1136
tp1137
a(S'diederik boer'
p1138
g2
(g6
S'\xe3\xb4\xae\x8a\xef0\xd7?'
p1139
tp1140
Rp1141
tp1142
a(S'richairo \xc5\xbdivkovi\xc4\x87'
p1143
g2
(g6
S'\xd8\xdb\x8f\xff\xbd+\xd7?'
p1144
tp1145
Rp1146
tp1147
a(S'damil dankerlui'
p1148
g2
(g6
S"\xa1\x0bpf\x06'\xd7?"
p1149
tp1150
Rp1151
tp1152
a(S'zk (framework)'
p1153
g2
(g6
S'\x07\x96\xb7\xeb\x82\xfd\xd6?'
p1154
tp1155
Rp1156
tp1157
a(S'riyaad norodien'
p1158
g2
(g6
S'H\x0b3\xb2\x7f\xf1\xd6?'
p1159
tp1160
Rp1161
tp1162
a(S'dutch football transfer record'
p1163
g2
(g6
S'.\n\x9d\x9bZ\xec\xd6?'
p1164
tp1165
Rp1166
tp1167
a(S'justin kluivert'
p1168
g2
(g6
S'\xefR\xc7=o\xe9\xd6?'
p1169
tp1170
Rp1171
tp1172
a(S'bob de klerk'
p1173
g2
(g6
S'S\xfd\xafXF\xe3\xd6?'
p1174
tp1175
Rp1176
tp1177
a(S'copa amsterdam'
p1178
g2
(g6
S'5\xb2\xb1\x88\xb8\xcd\xd6?'
p1179
tp1180
Rp1181
tp1182
a(S'2004 amsterdam tournament'
p1183
g2
(g6
S'\xcf\x06_V4\xcb\xd6?'
p1184
tp1185
Rp1186
tp1187
a(S'dragi\xc5\xa1a gudelj'
p1188
g2
(g6
S'\x18S\xf9\xda\x84\xc7\xd6?'
p1189
tp1190
Rp1191
tp1192
a(S'roderick asciak'
p1193
g2
(g6
S'\x14M=U\xde\xc0\xd6?'
p1194
tp1195
Rp1196
tp1197
a(S'olaf lindenbergh'
p1198
g2
(g6
S'*\xb2J\xa1F\xab\xd6?'
p1199
tp1200
Rp1201
tp1202
a(S'marco bizot'
p1203
g2
(g6
S'\xca\x83,\rA\x90\xd6?'
p1204
tp1205
Rp1206
tp1207
a(S'kasper dolberg'
p1208
g2
(g6
S'\xb2\x7f;\xb2\xdf\x8f\xd6?'
p1209
tp1210
Rp1211
tp1212
a(S'aron winter'
p1213
g2
(g6
S'!\x13\x95\xb0h\x88\xd6?'
p1214
tp1215
Rp1216
tp1217
a(S'nhlanhla vilakazi'
p1218
g2
(g6
S'C\xbae\xcb\xd2\x85\xd6?'
p1219
tp1220
Rp1221
tp1222
a(S'2003 amsterdam tournament'
p1223
g2
(g6
S'\xab\xe46\x0bK\x83\xd6?'
p1224
tp1225
Rp1226
tp1227
a(S'remote application platform'
p1228
g2
(g6
S'>\xc7i\xf7z{\xd6?'
p1229
tp1230
Rp1231
tp1232
a(S'boban lazi\xc4\x87'
p1233
g2
(g6
S' q\x85\xbe\x8cy\xd6?'
p1234
tp1235
Rp1236
tp1237
a(S'prince nxumalo'
p1238
g2
(g6
S'6\xff\x02\xde@n\xd6?'
p1239
tp1240
Rp1241
tp1242
a(S'ajax is niet dood!'
p1243
g2
(g6
S'i\xcb"\xf8\xe3m\xd6?'
p1244
tp1245
Rp1246
tp1247
a(S'web desktop'
p1248
g2
(g6
S'\xa4\xf9\xfb=\xf3l\xd6?'
p1249
tp1250
Rp1251
tp1252
a(S'unobtrusive javascript'
p1253
g2
(g6
S'\x98\xeb\xf6\xdf\x9ek\xd6?'
p1254
tp1255
Rp1256
tp1257
a(S'world wide web'
p1258
g2
(g6
S'\x8e\x9c\x07=6k\xd6?'
p1259
tp1260
Rp1261
tp1262
a(S'axsjax'
p1263
g2
(g6
S'%\xbf\xed;\xc3_\xd6?'
p1264
tp1265
Rp1266
tp1267
a(S'sajax'
p1268
g2
(g6
S'D\x07\x1f\x0e1I\xd6?'
p1269
tp1270
Rp1271
tp1272
a(S'johan cruyff shield'
p1273
g2
(g6
S'\x83\xa8\x0b\xef\xc4A\xd6?'
p1274
tp1275
Rp1276
tp1277
a(S'danny blind'
p1278
g2
(g6
S'\xd5\x1da\x7f\xec?\xd6?'
p1279
tp1280
Rp1281
tp1282
a(S'sonny silooy'
p1283
g2
(g6
S'<\xfaIb:>\xd6?'
p1284
tp1285
Rp1286
tp1287
a(S'yuri rose'
p1288
g2
(g6
S'*\xfd\x00\xa7\xc6;\xd6?'
p1289
tp1290
Rp1291
tp1292
a(S'ajax (scout sv)'
p1293
g2
(g6
S'\x9f\xd5f\xf2X8\xd6?'
p1294
tp1295
Rp1296
tp1297
a(S'mats rits'
p1298
g2
(g6
S'\xc3\xe8&B\xa7&\xd6?'
p1299
tp1300
Rp1301
tp1302
a(S'dolf van kol'
p1303
g2
(g6
S'\x9e^\x97D#\x1f\xd6?'
p1304
tp1305
Rp1306
tp1307
a(S'jordi bitter'
p1308
g2
(g6
S'\x9dV#\x8a\xdc\x1e\xd6?'
p1309
tp1310
Rp1311
tp1312
a(S'jsonp'
p1313
g2
(g6
S'_\x9cU\x8c\x8f\x1c\xd6?'
p1314
tp1315
Rp1316
tp1317
a(S'charterways transportation limited'
p1318
g2
(g6
S'\xe4\xa3\x0e\xb93\x18\xd6?'
p1319
tp1320
Rp1321
tp1322
a(S'keje molenaar'
p1323
g2
(g6
S'\xd3yheR\x12\xd6?'
p1324
tp1325
Rp1326
tp1327
a(S'headless browser'
p1328
g2
(g6
S'\xda\xfe\r\x1b\xe3\x11\xd6?'
p1329
tp1330
Rp1331
tp1332
a(S'gerrie kleton'
p1333
g2
(g6
S'K\xbc\xf3\x16\x16\r\xd6?'
p1334
tp1335
Rp1336
tp1337
a(S'andr\xc3\xa9 onana'
p1338
g2
(g6
S'\x14\xdb\x06t@\x07\xd6?'
p1339
tp1340
Rp1341
tp1342
a(S'javascript data components'
p1343
g2
(g6
S'\xcc\x1c\x08{S\x03\xd6?'
p1344
tp1345
Rp1346
tp1347
a(S'2013\xe2\x80\x9314 afc ajax season'
p1348
g2
(g6
S'\xec,\x8b\xda\xbc\x02\xd6?'
p1349
tp1350
Rp1351
tp1352
a(S'2005\xe2\x80\x9306 afc ajax season'
p1353
g2
(g6
S'Yg\x19\xda\xc1\xfc\xd5?'
p1354
tp1355
Rp1356
tp1357
a(S'alcardo van graan'
p1358
g2
(g6
S'zY\xdd\xedJ\xf5\xd5?'
p1359
tp1360
Rp1361
tp1362
a(S'daley sinkgraven'
p1363
g2
(g6
S'Q\x06\x98\xb9"\xf1\xd5?'
p1364
tp1365
Rp1366
tp1367
a(S'vurnon anita'
p1368
g2
(g6
S'\xecIRP\xd6\xe4\xd5?'
p1369
tp1370
Rp1371
tp1372
a(S'dhtmlx'
p1373
g2
(g6
S'B\x975\x07}\xe4\xd5?'
p1374
tp1375
Rp1376
tp1377
a(S'uri coronel'
p1378
g2
(g6
S'\xebx\xc8\x04\xdc\xdf\xd5?'
p1379
tp1380
Rp1381
tp1382
a(S'tokyo (hans vandenburg song)'
p1383
g2
(g6
S'\xbd=u\x93\x93\xcd\xd5?'
p1384
tp1385
Rp1386
tp1387
a(S'hms ajax'
p1388
g2
(g6
S'\xa6\x89\x18c\x9c\xca\xd5?'
p1389
tp1390
Rp1391
tp1392
a(S'ajax hva'
p1393
g2
(g6
S'~\xb0\x8ey\xd3\xc4\xd5?'
p1394
tp1395
Rp1396
tp1397
a(S'isma\xc3\xafl aissati'
p1398
g2
(g6
S'\xa3\x01)\xb4k\xbb\xd5?'
p1399
tp1400
Rp1401
tp1402
a(S'ss ajax (1904)'
p1403
g2
(g6
S'ss\t\xd2$\xba\xd5?'
p1404
tp1405
Rp1406
tp1407
a(S'vaadin'
p1408
g2
(g6
S'\x8d4d\xc5n\xb0\xd5?'
p1409
tp1410
Rp1411
tp1412
a(S'rabat ajax f.c.'
p1413
g2
(g6
S'x8wL\xe3\xae\xd5?'
p1414
tp1415
Rp1416
tp1417
a(S'narcissus pseudonarcissus'
p1418
g2
(g6
S'h\xb2\x80\x832\xae\xd5?'
p1419
tp1420
Rp1421
tp1422
a(S'frank de boer'
p1423
g2
(g6
S'\xf4\x13\x91j\xd7\xaa\xd5?'
p1424
tp1425
Rp1426
tp1427
a(S'xmlhttprequest'
p1428
g2
(g6
S'w\x873\xeb\xae\xa0\xd5?'
p1429
tp1430
Rp1431
tp1432
a(S'ricardo van rhijn'
p1433
g2
(g6
S'\xda_y\xa7\x98\x98\xd5?'
p1434
tp1435
Rp1436
tp1437
a(S'dejan meleg'
p1438
g2
(g6
S'k\x95<b\xd9\x84\xd5?'
p1439
tp1440
Rp1441
tp1442
a(S'hms ajax (1880)'
p1443
g2
(g6
S'\xbf\xe0T\xd9^\x84\xd5?'
p1444
tp1445
Rp1446
tp1447
a(S'2008\xe2\x80\x9309 afc ajax season'
p1448
g2
(g6
S'\x9d**\xe8\xe0\x83\xd5?'
p1449
tp1450
Rp1451
tp1452
a(S'jsonml'
p1453
g2
(g6
S'\x84\xc0\xab\x9b\xac\x81\xd5?'
p1454
tp1455
Rp1456
tp1457
a(S'eurysaces'
p1458
g2
(g6
S'\x90\x91\xe2\xdc\xdd{\xd5?'
p1459
tp1460
Rp1461
tp1462
a(S'rivaldo coetzee'
p1463
g2
(g6
S'\xd04V+\xc0v\xd5?'
p1464
tp1465
Rp1466
tp1467
a(S'aptana'
p1468
g2
(g6
S'\x84\xf0|\xbb\xbaj\xd5?'
p1469
tp1470
Rp1471
tp1472
a(S'jeremy keith (web developer)'
p1473
g2
(g6
S'\xac\xdd\xbd+>h\xd5?'
p1474
tp1475
Rp1476
tp1477
a(S'jeroen verhoeven'
p1478
g2
(g6
S'J\xd6\x96+bU\xd5?'
p1479
tp1480
Rp1481
tp1482
a(S'rouge valley health system'
p1483
g2
(g6
S'\xc0l\x87\x1f\xbcI\xd5?'
p1484
tp1485
Rp1486
tp1487
a(S'joop pelser'
p1488
g2
(g6
S'\xa0`\r\xba\x87H\xd5?'
p1489
tp1490
Rp1491
tp1492
a(S'craig rosslee'
p1493
g2
(g6
S'\x19\xac*\x84\xec@\xd5?'
p1494
tp1495
Rp1496
tp1497
a(S'client-side persistent data'
p1498
g2
(g6
S'n\x013\xa9\xda;\xd5?'
p1499
tp1500
Rp1501
tp1502
a(S'rhoiteion'
p1503
g2
(g6
S'K \t\x01\xa5;\xd5?'
p1504
tp1505
Rp1506
tp1507
a(S'2010\xe2\x80\x9311 afc ajax season'
p1508
g2
(g6
S'\x9bgC=Y"\xd5?'
p1509
tp1510
Rp1511
tp1512
a.