(lp0
(S'apache lucene'
p1
cnumpy.core.multiarray
scalar
p2
(cnumpy
dtype
p3
(S'f8'
p4
I0
I1
tp5
Rp6
(I3
S'<'
p7
NNNI-1
I-1
I0
tp8
bS'\x02\x00\x00\x00\x00\x00\xf0?'
p9
tp10
Rp11
tp12
a(S'apache solr'
p13
g2
(g6
S'\xda\x03?\xe4\x05\t\xe3?'
p14
tp15
Rp16
tp17
a(S'list of search engine software'
p18
g2
(g6
S'\x90nj(X\x1f\xdf?'
p19
tp20
Rp21
tp22
a(S'apache http server'
p23
g2
(g6
S'\x95\xa1\xae\xa9\x11\xb9\xde?'
p24
tp25
Rp26
tp27
a(S'ken coar'
p28
g2
(g6
S'm\x08e:\xbb\xab\xde?'
p29
tp30
Rp31
tp32
a(S'mod ssl'
p33
g2
(g6
S'V\xb2\x04\x8bR\x04\xdd?'
p34
tp35
Rp36
tp37
a(S'apache (disambiguation)'
p38
g2
(g6
S'i\x9c\xfbO\xb2\xdf\xdc?'
p39
tp40
Rp41
tp42
a(S'apache samza'
p43
g2
(g6
S'NWL\xba\xf8\xc3\xdc?'
p44
tp45
Rp46
tp47
a(S'apache tomee'
p48
g2
(g6
S'\xd4\xdf\x8aYw\x93\xdc?'
p49
tp50
Rp51
tp52
a(S'list of apache modules'
p53
g2
(g6
S'2\xe25e\xa2t\xdc?'
p54
tp55
Rp56
tp57
a(S'apachecon'
p58
g2
(g6
S'\x07\x92\xbe\x15\x9dW\xdc?'
p59
tp60
Rp61
tp62
a(S'apache nutch'
p63
g2
(g6
S'\x06\xee:\x99\x8a\xf8\xdb?'
p64
tp65
Rp66
tp67
a(S'james strachan (programmer)'
p68
g2
(g6
S'n\x82\xb1\xac\xcb\xf0\xdb?'
p69
tp70
Rp71
tp72
a(S'stormcrawler'
p73
g2
(g6
S'\xbdN\xdaH\xd2s\xdb?'
p74
tp75
Rp76
tp77
a(S'apache chemistry'
p78
g2
(g6
S'\x0b\xd2\xa2oAi\xdb?'
p79
tp80
Rp81
tp82
a(S'apache software foundation'
p83
g2
(g6
S'/>\x1ey\xe6[\xdb?'
p84
tp85
Rp86
tp87
a(S'beanshell'
p88
g2
(g6
S'c\xfa\xa8\x08\x85Q\xdb?'
p89
tp90
Rp91
tp92
a(S'apache servicemix'
p93
g2
(g6
S'\x01\x81g4B7\xdb?'
p94
tp95
Rp96
tp97
a(S'apache attic'
p98
g2
(g6
S'cG\x8c\xa3\xf2\xf1\xda?'
p99
tp100
Rp101
tp102
a(S'mod proxy'
p103
g2
(g6
S'\xf1\x8a\xf6@\xbf\xe1\xda?'
p104
tp105
Rp106
tp107
a(S'apache phoenix'
p108
g2
(g6
S'\x10\xa3\xdai>\xdb\xda?'
p109
tp110
Rp111
tp112
a(S'apache flink'
p113
g2
(g6
S'q\xc5\xfa\x91*\xc4\xda?'
p114
tp115
Rp116
tp117
a(S'apache vxquery'
p118
g2
(g6
S'oL+\x9f\xa0\x80\xda?'
p119
tp120
Rp121
tp122
a(S'apache\xe2\x80\x93mexico wars'
p123
g2
(g6
S'\xc8\xa7\xecK\x07D\xda?'
p124
tp125
Rp126
tp127
a(S'apache accumulo'
p128
g2
(g6
S'\x9f\xed\x81=\x1a9\xda?'
p129
tp130
Rp131
tp132
a(S'full-text search'
p133
g2
(g6
S'\xad\xf2\xc5\xad\xaa\x14\xda?'
p134
tp135
Rp136
tp137
a(S'apache directory'
p138
g2
(g6
S'\x92\x92a\xacG\x03\xda?'
p139
tp140
Rp141
tp142
a(S'mod perl'
p143
g2
(g6
S'\x1f\xfbeMZ\xbc\xd9?'
p144
tp145
Rp146
tp147
a(S'axkit'
p148
g2
(g6
S'\\\xb3\x00n\xa5\xb4\xd9?'
p149
tp150
Rp151
tp152
a(S'apache ofbiz'
p153
g2
(g6
S'\xfe.SY\x9a\x8b\xd9?'
p154
tp155
Rp156
tp157
a(S'list of enterprise search vendors'
p158
g2
(g6
S'\xa6\x94i\xebp\x8b\xd9?'
p159
tp160
Rp161
tp162
a(S'apache gora'
p163
g2
(g6
S'\xf6\xbd\x84e9w\xd9?'
p164
tp165
Rp166
tp167
a(S'outline of search engines'
p168
g2
(g6
S'\x0b1\xf4a\r\\\xd9?'
p169
tp170
Rp171
tp172
a(S'western apache language'
p173
g2
(g6
S'r\x15uB\x16U\xd9?'
p174
tp175
Rp176
tp177
a(S'apache serf'
p178
g2
(g6
S'\x0f\x8co\xbc\xfd4\xd9?'
p179
tp180
Rp181
tp182
a(S'fort apache indian reservation'
p183
g2
(g6
S'\xea\xba\x92\xb8\xb9\xc0\xd8?'
p184
tp185
Rp186
tp187
a(S'hue (hadoop)'
p188
g2
(g6
S',\xd5&1\xc5\xb2\xd8?'
p189
tp190
Rp191
tp192
a(S'mod python'
p193
g2
(g6
S'e\x7fkl\xb7\x99\xd8?'
p194
tp195
Rp196
tp197
a(S'apache activemq'
p198
g2
(g6
S'd\x9dM\x05\x1d\x86\xd8?'
p199
tp200
Rp201
tp202
a(S'uss apache (atf-67)'
p203
g2
(g6
S'\xd6\xce*)\xd0w\xd8?'
p204
tp205
Rp206
tp207
a(S'apache'
p208
g2
(g6
S'@^\x05\xf0jt\xd8?'
p209
tp210
Rp211
tp212
a(S'apache harmony'
p213
g2
(g6
S'\xb6C\xca\x02\x8bp\xd8?'
p214
tp215
Rp216
tp217
a(S'faby apache'
p218
g2
(g6
S'X\xf1\xb3u\xfb)\xd8?'
p219
tp220
Rp221
tp222
a(S'list of apache software foundation projects'
p223
g2
(g6
S'fz\xca\xfb\xff(\xd8?'
p224
tp225
Rp226
tp227
a(S'search as a service'
p228
g2
(g6
S'@\xfa\r\x9a\xae&\xd8?'
p229
tp230
Rp231
tp232
a(S'mod gzip'
p233
g2
(g6
S'\x0c\x0b\xe5\x82\x9c!\xd8?'
p234
tp235
Rp236
tp237
a(S'apache marmotta'
p238
g2
(g6
S'Tz`\xd9\x8c\x0f\xd8?'
p239
tp240
Rp241
tp242
a(S'apache corporation'
p243
g2
(g6
S'`\xea)\xa4s\xfc\xd7?'
p244
tp245
Rp246
tp247
a(S'sanjiva weerawarana'
p248
g2
(g6
S'k\xa0Q~\xb7\xeb\xd7?'
p249
tp250
Rp251
tp252
a(S'apache hbase'
p253
g2
(g6
S'i\x0c\xef\xf1\xca\xd2\xd7?'
p254
tp255
Rp256
tp257
a(S'yacy'
p258
g2
(g6
S'\x998=\xd6E\xcd\xd7?'
p259
tp260
Rp261
tp262
a(S'apache incubator'
p263
g2
(g6
S'\xd6n\xfb\xe1T\xc9\xd7?'
p264
tp265
Rp266
tp267
a(S'database search engine'
p268
g2
(g6
S'i|G\xb0\x7f\xc4\xd7?'
p269
tp270
Rp271
tp272
a(S'fort apache'
p273
g2
(g6
S'\xdb\xc3U\x0e~\xa0\xd7?'
p274
tp275
Rp276
tp277
a(S'plains apache language'
p278
g2
(g6
S'%=\xdd\xd4\xb7\x8f\xd7?'
p279
tp280
Rp281
tp282
a(S'apache nifi'
p283
g2
(g6
S'\xe5\x8c\x10\xfd$\x8e\xd7?'
p284
tp285
Rp286
tp287
a(S'apache lenya'
p288
g2
(g6
S'o\x92Y\xdf\xfcz\xd7?'
p289
tp290
Rp291
tp292
a(S'western apache people'
p293
g2
(g6
S'j\xd6C\x87Bu\xd7?'
p294
tp295
Rp296
tp297
a(S'apache trail'
p298
g2
(g6
S'?/\xdc\x86\xe4p\xd7?'
p299
tp300
Rp301
tp302
a(S'apache plaza'
p303
g2
(g6
S'\xaa,\xc0\x11Vh\xd7?'
p304
tp305
Rp306
tp307
a(S'web search engine'
p308
g2
(g6
S'\x97a\xfe\x0fog\xd7?'
p309
tp310
Rp311
tp312
a(S'xerces'
p313
g2
(g6
S'\x9e\xce\xde\xac\xa8a\xd7?'
p314
tp315
Rp316
tp317
a(S'apache (dance)'
p318
g2
(g6
S'3y\xd5\xaekH\xd7?'
p319
tp320
Rp321
tp322
a(S'search engine technology'
p323
g2
(g6
S'\xad\x0c)\x97AH\xd7?'
p324
tp325
Rp326
tp327
a(S'apache muse'
p328
g2
(g6
S'\x14aS\xb9\xadA\xd7?'
p329
tp330
Rp331
tp332
a(S'apache stanbol'
p333
g2
(g6
S'\xb4\xa2\x07\xfc\xdf?\xd7?'
p334
tp335
Rp336
tp337
a(S'enterprise search'
p338
g2
(g6
S' \xa9T\xdbK3\xd7?'
p339
tp340
Rp341
tp342
a(S'jim jagielski'
p343
g2
(g6
S'\x8b\x89\xe53\x03/\xd7?'
p344
tp345
Rp346
tp347
a(S'citeseerx'
p348
g2
(g6
S'\x82c\xc5\xa5\x9a%\xd7?'
p349
tp350
Rp351
tp352
a(S'search engine (disambiguation)'
p353
g2
(g6
S'\xc0u\xb2\xc6\xb8\x1b\xd7?'
p354
tp355
Rp356
tp357
a(S'wikia search'
p358
g2
(g6
S'\x9a\xac\xdb\xc5\xa0\x17\xd7?'
p359
tp360
Rp361
tp362
a(S'algolia'
p363
g2
(g6
S'\xd7w\xc0It\x17\xd7?'
p364
tp365
Rp366
tp367
a(S'san carlos apache indian reservation'
p368
g2
(g6
S'\xed[\xe0\xd2\x8c\n\xd7?'
p369
tp370
Rp371
tp372
a(S'apache fortress'
p373
g2
(g6
S'>\xcf\x04\xdaN\x05\xd7?'
p374
tp375
Rp376
tp377
a(S'search engine (computing)'
p378
g2
(g6
S'\xd6-/\xd6u\xd8\xd6?'
p379
tp380
Rp381
tp382
a(S'apache wars'
p383
g2
(g6
S'R"\x0e\x9c\xa8\xc8\xd6?'
p384
tp385
Rp386
tp387
a(S'ifilter'
p388
g2
(g6
S'Q\xf3\xf0}\xfd\xbf\xd6?'
p389
tp390
Rp391
tp392
a(S'apache pdfbox'
p393
g2
(g6
S'>\t\x87\xf9W\xad\xd6?'
p394
tp395
Rp396
tp397
a(S'apache james'
p398
g2
(g6
S'\x83\xa7\xc1\x8a\xf1\xab\xd6?'
p399
tp400
Rp401
tp402
a(S'namazu (search engine)'
p403
g2
(g6
S'\xfe\x0b\x05\x9cn\xa7\xd6?'
p404
tp405
Rp406
tp407
a(S'apache rampart module'
p408
g2
(g6
S'd\x98c\x19\xe5\xa2\xd6?'
p409
tp410
Rp411
tp412
a(S'apache axis'
p413
g2
(g6
S'\x92\xe3\x88\x17T\x7f\xd6?'
p414
tp415
Rp416
tp417
a(S'apache bloodhound'
p418
g2
(g6
S'\x0b\xacr\x93^x\xd6?'
p419
tp420
Rp421
tp422
a(S'wso2'
p423
g2
(g6
S'\x7fl=Umg\xd6?'
p424
tp425
Rp426
tp427
a(S'apache (instrumental)'
p428
g2
(g6
S'\xe1,\xe8\x16Rg\xd6?'
p429
tp430
Rp431
tp432
a(S'lucidworks'
p433
g2
(g6
S'\x01\xfd\x89,\xd8[\xd6?'
p434
tp435
Rp436
tp437
a(S'mod deflate'
p438
g2
(g6
S'fJ\x14\xfb\xda2\xd6?'
p439
tp440
Rp441
tp442
a(S'datastax'
p443
g2
(g6
S'0Q\x7f\xb9\xce\x19\xd6?'
p444
tp445
Rp446
tp447
a(S'brian behlendorf'
p448
g2
(g6
S'y\\\xa7\xe62\n\xd6?'
p449
tp450
Rp451
tp452
a(S'blacklight (software)'
p453
g2
(g6
S'\x9d\x90\xe9\xe7y\xeb\xd5?'
p454
tp455
Rp456
tp457
a(S'apache sling'
p458
g2
(g6
S'\xe8\xc0\xadF\xef\xe9\xd5?'
p459
tp460
Rp461
tp462
a(S'apache creek, new mexico'
p463
g2
(g6
S'\xcfI\xe5\xc0X\xe4\xd5?'
p464
tp465
Rp466
tp467
a(S'agustawestland apache'
p468
g2
(g6
S'\xb7\x08\x17\x12k\xd8\xd5?'
p469
tp470
Rp471
tp472
a(S'battle of fort apache'
p473
g2
(g6
S'\xc7*\x9bVa\xd0\xd5?'
p474
tp475
Rp476
tp477
a(S'cjan'
p478
g2
(g6
S'94\x82\xd3\xcf\x8f\xd5?'
p479
tp480
Rp481
tp482
a(S'brs/search'
p483
g2
(g6
S'\xb5\r\x8a\xb5\xa0\x8a\xd5?'
p484
tp485
Rp486
tp487
a(S'lookeen'
p488
g2
(g6
S'\xa9\xbf\x8fJ\x1e\x81\xd5?'
p489
tp490
Rp491
tp492
a(S'mindbreeze'
p493
g2
(g6
S'\xad\x93{\xa4\x02|\xd5?'
p494
tp495
Rp496
tp497
a(S'jkool'
p498
g2
(g6
S'#\xc0\xad0\xa8y\xd5?'
p499
tp500
Rp501
tp502
a(S'xapian'
p503
g2
(g6
S'\x01\xe5\x80\xc7\x1en\xd5?'
p504
tp505
Rp506
tp507
a(S'apache camel'
p508
g2
(g6
S'\xee2\xf4\xf4\xb1j\xd5?'
p509
tp510
Rp511
tp512
a(S'comparison of structured storage software'
p513
g2
(g6
S'\x1c\xfe\x9a\xa7Ee\xd5?'
p514
tp515
Rp516
tp517
a(S'apache geronimo'
p518
g2
(g6
S'i\xab\xc2\x1b\x96b\xd5?'
p519
tp520
Rp521
tp522
a(S'local search (internet)'
p523
g2
(g6
S'\xf9\t\x0b>\x19^\xd5?'
p524
tp525
Rp526
tp527
a(S'multisearch'
p528
g2
(g6
S'\xa6\x0f\x99?\xf1\\\xd5?'
p529
tp530
Rp531
tp532
a(S'munax'
p533
g2
(g6
S'\xafM\xaa\x01IY\xd5?'
p534
tp535
Rp536
tp537
a(S'apache jserv protocol'
p538
g2
(g6
S'w\xc3\xc6\xca\xe6S\xd5?'
p539
tp540
Rp541
tp542
a(S'apache forrest'
p543
g2
(g6
S'\xc2\xcb\xfb\x95\xcdO\xd5?'
p544
tp545
Rp546
tp547
a(S'wibidata'
p548
g2
(g6
S'\x1dA\x88$\r5\xd5?'
p549
tp550
Rp551
tp552
a(S'southern apache museum'
p553
g2
(g6
S'\xfd\xa1X\x1c\x074\xd5?'
p554
tp555
Rp556
tp557
a(S'timeline of web search engines'
p558
g2
(g6
S'\xae\x0cBc.+\xd5?'
p559
tp560
Rp561
tp562
a(S'visual search engine'
p563
g2
(g6
S"Q'\x91\xdao)\xd5?"
p564
tp565
Rp566
tp567
a(S'list of search engines'
p568
g2
(g6
S'&\x1e"\xe8\x0f\x11\xd5?'
p569
tp570
Rp571
tp572
a(S'idel fuschini'
p573
g2
(g6
S'\xea\xfc\xcbP\xe5\x0f\xd5?'
p574
tp575
Rp576
tp577
a(S'apache excalibur'
p578
g2
(g6
S'\xa6\xb4U#\xca\x0f\xd5?'
p579
tp580
Rp581
tp582
a(S'mari apache'
p583
g2
(g6
S'\xd2\xbd\xc8;\x1f\x05\xd5?'
p584
tp585
Rp586
tp587
a(S'searchdaimon'
p588
g2
(g6
S'\x03}\xb8\x1cD\x01\xd5?'
p589
tp590
Rp591
tp592
a(S'couchdb'
p593
g2
(g6
S'\x961\xab\xdfj\x00\xd5?'
p594
tp595
Rp596
tp597
a(S'desktop search'
p598
g2
(g6
S'E\x13RC`\xff\xd4?'
p599
tp600
Rp601
tp602
a(S'funnelback'
p603
g2
(g6
S'\\\x81\x95\xee\xa2\xfd\xd4?'
p604
tp605
Rp606
tp607
a(S'list of column-oriented dbmses'
p608
g2
(g6
S'\x00wY\xea\x8d\xfc\xd4?'
p609
tp610
Rp611
tp612
a(S'comparison of enterprise search software'
p613
g2
(g6
S'\xe0\xf7(\xc5\xb5\xcb\xd4?'
p614
tp615
Rp616
tp617
a(S'ibatis'
p618
g2
(g6
S'7\xa0\xf3\xdc\xa4\xc6\xd4?'
p619
tp620
Rp621
tp622
a(S'sigar (software)'
p623
g2
(g6
S'W\xe2dv\x05\xc4\xd4?'
p624
tp625
Rp626
tp627
a(S'lars eilebrecht'
p628
g2
(g6
S'\xe1\xd9\x0e\x92\xe2\xb5\xd4?'
p629
tp630
Rp631
tp632
a(S'walhello'
p633
g2
(g6
S'\xb2`\xa3\x85\x9e\xae\xd4?'
p634
tp635
Rp636
tp637
a(S'massai'
p638
g2
(g6
S'\xcd\xc1Jz\xc0\xa7\xd4?'
p639
tp640
Rp641
tp642
a(S'bylas, arizona'
p643
g2
(g6
S'\xb0\x02\xfab$\x8a\xd4?'
p644
tp645
Rp646
tp647
a(S'microsoft search server'
p648
g2
(g6
S'\x12-D\xfc\xd3\x85\xd4?'
p649
tp650
Rp651
tp652
a(S'apache axis2'
p653
g2
(g6
S'\xc4\xc0\xf7\x8c\x8d\x84\xd4?'
p654
tp655
Rp656
tp657
a(S'southern athabaskan languages'
p658
g2
(g6
S'T\x8d\x85\x8e\xe2\x82\xd4?'
p659
tp660
Rp661
tp662
a(S'base (search engine)'
p663
g2
(g6
S'@\x1ca\x98s\x81\xd4?'
p664
tp665
Rp666
tp667
a(S'fort apache historic park'
p668
g2
(g6
S"'\x0c|\x1f}|\xd4?"
p669
tp670
Rp671
tp672
a(S'apache derby'
p673
g2
(g6
S'+\xd2\xc6\xc0Qz\xd4?'
p674
tp675
Rp676
tp677
a(S'kinishba ruins'
p678
g2
(g6
S'P\xcf\xbfL\xa7k\xd4?'
p679
tp680
Rp681
tp682
a(S'search engine indexing'
p683
g2
(g6
S'\x91\x00b_\t`\xd4?'
p684
tp685
Rp686
tp687
a(S'search box'
p688
g2
(g6
S'H\x1bl\xb9\x94_\xd4?'
p689
tp690
Rp691
tp692
a(S'metasearch engine'
p693
g2
(g6
S'T\xc0\x8fYf]\xd4?'
p694
tp695
Rp696
tp697
a(S'social search'
p698
g2
(g6
S'\xf3l.\xb7\x12V\xd4?'
p699
tp700
Rp701
tp702
a(S'xgboost'
p703
g2
(g6
S'.T\xfd\x18\xf5I\xd4?'
p704
tp705
Rp706
tp707
a(S'apache fiddle'
p708
g2
(g6
S'w\x9bT9\xad7\xd4?'
p709
tp710
Rp711
tp712
a(S'apache lake (arizona)'
p713
g2
(g6
S'\xf0\x01\x01\xc6\x867\xd4?'
p714
tp715
Rp716
tp717
a(S'apache openoffice'
p718
g2
(g6
S'\x8c\xdb\x9e*\x821\xd4?'
p719
tp720
Rp721
tp722
a(S'apache, oklahoma'
p723
g2
(g6
S'2\x19\x8c\x9cl%\xd4?'
p724
tp725
Rp726
tp727
a(S'apache synapse'
p728
g2
(g6
S'+\xf9\x1b\x82\x1f!\xd4?'
p729
tp730
Rp731
tp732
a(S'apache ii'
p733
g2
(g6
S'I\xfa7\x94\xfe\x1e\xd4?'
p734
tp735
Rp736
tp737
a(S'isys search software'
p738
g2
(g6
S'\x1b\xb2\xde2\xd3\x1a\xd4?'
p739
tp740
Rp741
tp742
a(S'arcv-n'
p743
g2
(g6
S'{X\xfdT\xa5\x14\xd4?'
p744
tp745
Rp746
tp747
a(S'lamp (software bundle)'
p748
g2
(g6
S']\xa9\xd1\xdc,\x07\xd4?'
p749
tp750
Rp751
tp752
a(S'image meta search'
p753
g2
(g6
S'\x99)\xf6\xe7\x03\xff\xd3?'
p754
tp755
Rp756
tp757
a(S'apache shale'
p758
g2
(g6
S'3\xce\x99r\xfb\xfe\xd3?'
p759
tp760
Rp761
tp762
a(S'search technologies'
p763
g2
(g6
S'6`n\xaa\xad\xec\xd3?'
p764
tp765
Rp766
tp767
a(S'yafra'
p768
g2
(g6
S'E\x0cId\x10\xe9\xd3?'
p769
tp770
Rp771
tp772
a(S'dogpile'
p773
g2
(g6
S'\x19\x8fe\xee0\xe8\xd3?'
p774
tp775
Rp776
tp777
a(S'suexec'
p778
g2
(g6
S'd\xcf\xd6\x8b\xfd\xe7\xd3?'
p779
tp780
Rp781
tp782
a(S'uportal'
p783
g2
(g6
S'\x13\x0c4.-\xd5\xd3?'
p784
tp785
Rp786
tp787
a(S'duckduckgo'
p788
g2
(g6
S'\xc6\xaeJXJ\xcb\xd3?'
p789
tp790
Rp791
tp792
a(S'intergator'
p793
g2
(g6
S'\xa1\xcc\x0cG\x05\xc7\xd3?'
p794
tp795
Rp796
tp797
a(S'selection-based search'
p798
g2
(g6
S'G\xedWv\x96\xc2\xd3?'
p799
tp800
Rp801
tp802
a(S'comparison of project management software'
p803
g2
(g6
S'w\xbcy\x96\xd6\xaa\xd3?'
p804
tp805
Rp806
tp807
a(S'apache kid'
p808
g2
(g6
S'U\x03#|\xec\xa7\xd3?'
p809
tp810
Rp811
tp812
a(S'video search engine'
p813
g2
(g6
S'J{G+9\xa7\xd3?'
p814
tp815
Rp816
tp817
a(S'fort apache, arizona'
p818
g2
(g6
S'\xa0&4\x04P\x9f\xd3?'
p819
tp820
Rp821
tp822
a(S'apache rocks the bottom!'
p823
g2
(g6
S'y\x12\x83\xfb\xec\x95\xd3?'
p824
tp825
Rp826
tp827
a(S'uss apache'
p828
g2
(g6
S'\xf6B\xe9C\xdd\x81\xd3?'
p829
tp830
Rp831
tp832
a(S'aaa world mixed tag team championship'
p833
g2
(g6
S'\x96#\x01E\xf4v\xd3?'
p834
tp835
Rp836
tp837
a(S'chesley goseyun wilson'
p838
g2
(g6
S'\xd6Y7\xf6\xa0v\xd3?'
p839
tp840
Rp841
tp842
a(S'yandex search'
p843
g2
(g6
S'\x07\xc2\x11\x18\xffu\xd3?'
p844
tp845
Rp846
tp847
a(S'apache mesos'
p848
g2
(g6
S'\xf9\x92:\x1d0n\xd3?'
p849
tp850
Rp851
tp852
a(S'usrc apache (1891)'
p853
g2
(g6
S"\xd6\x1eB'\xd4i\xd3?"
p854
tp855
Rp856
tp857
a(S'formatting objects processor'
p858
g2
(g6
S'\t\xd0\xb6\xb1\xe9b\xd3?'
p859
tp860
Rp861
tp862
a(S'hotbot'
p863
g2
(g6
S'z?\xc1\x9f\xd5O\xd3?'
p864
tp865
Rp866
tp867
a(S'apache pass'
p868
g2
(g6
S'L\xac\x08p\x9dJ\xd3?'
p869
tp870
Rp871
tp872
a(S'apache parquet'
p873
g2
(g6
S'\xf1\xd2\x07.^F\xd3?'
p874
tp875
Rp876
tp877
a(S'search engine optimization'
p878
g2
(g6
S'\xdenIL\xb3C\xd3?'
p879
tp880
Rp881
tp882
a(S'multimedia search'
p883
g2
(g6
S'T\x9c\xaf\x19yB\xd3?'
p884
tp885
Rp886
tp887
a(S'wisenut'
p888
g2
(g6
S's\x91?\xfb\xc1)\xd3?'
p889
tp890
Rp891
tp892
a(S'audio search engine'
p893
g2
(g6
S'3@W!T)\xd3?'
p894
tp895
Rp896
tp897
a(S'apache cxf'
p898
g2
(g6
S'\x18\xec\xf7\x824%\xd3?'
p899
tp900
Rp901
tp902
a(S'hortonworks'
p903
g2
(g6
S'tq\xf1F\r\x1a\xd3?'
p904
tp905
Rp906
tp907
a(S'ncsa httpd'
p908
g2
(g6
S'F\xb7?\xdd\xd0\x15\xd3?'
p909
tp910
Rp911
tp912
a(S'phrase search'
p913
g2
(g6
S'\xb7o\xb9\xf3\xb8\x12\xd3?'
p914
tp915
Rp916
tp917
a(S'tvs apache'
p918
g2
(g6
S'\x88\xd8\xef>\xe1\x10\xd3?'
p919
tp920
Rp921
tp922
a(S'distributed search engine'
p923
g2
(g6
S'\xa5\x01b\xe3\xd6\x04\xd3?'
p924
tp925
Rp926
tp927
a(S'apache license'
p928
g2
(g6
S'\xd30k\xeb\x92\x02\xd3?'
p929
tp930
Rp931
tp932
a(S'modsecurity'
p933
g2
(g6
S'\x1a\xc7\xb1\xde\x84\xfa\xd2?'
p934
tp935
Rp936
tp937
a(S'jakarta project'
p938
g2
(g6
S'\x98\xbe\x927B\xfa\xd2?'
p939
tp940
Rp941
tp942
a(S'ibm websphere application server community edition'
p943
g2
(g6
S'\xa8\xae1w\xdc\xe9\xd2?'
p944
tp945
Rp946
tp947
a(S'tonto apache'
p948
g2
(g6
S"'\xb1\xe9\xec\xe5\xdb\xd2?"
p949
tp950
Rp951
tp952
a(S'gigablast'
p953
g2
(g6
S'$Y\x82y\xd8\xda\xd2?'
p954
tp955
Rp956
tp957
a(S'java view technologies and frameworks'
p958
g2
(g6
S'Z\x94\x9f\xaf\xdc\xd1\xd2?'
p959
tp960
Rp961
tp962
a(S'isearch'
p963
g2
(g6
S'XL\xb4\xca\xd8\xd0\xd2?'
p964
tp965
Rp966
tp967
a(S'windows search'
p968
g2
(g6
S'I\x7f\x06G\xea\xce\xd2?'
p969
tp970
Rp971
tp972
a(S'object oriented data technology'
p973
g2
(g6
S'w\xd2\x95\x91\x92\xce\xd2?'
p974
tp975
Rp976
tp977
a(S'search analytics'
p978
g2
(g6
S'D39\x81\xff\xcc\xd2?'
p979
tp980
Rp981
tp982
a(S'polycola'
p983
g2
(g6
S'+\r.\xff\xef\xca\xd2?'
p984
tp985
Rp986
tp987
a(S'apache felix'
p988
g2
(g6
S'K\xc0\xa7\x83\x8e\xbd\xd2?'
p989
tp990
Rp991
tp992
a(S'twing'
p993
g2
(g6
S'\xef\x03)]\xfc\xb3\xd2?'
p994
tp995
Rp996
tp997
a(S'webcrawler'
p998
g2
(g6
S'\xc6q\xa9Q\x05\xb2\xd2?'
p999
tp1000
Rp1001
tp1002
a(S'apache-sitgreaves national forest'
p1003
g2
(g6
S'\x04\xc1U=h\xa9\xd2?'
p1004
tp1005
Rp1006
tp1007
a(S'fort sill apache tribe'
p1008
g2
(g6
S'l\xef\x00(A\xa8\xd2?'
p1009
tp1010
Rp1011
tp1012
a(S'doug cutting'
p1013
g2
(g6
S'i[7\x02\xb6\x9b\xd2?'
p1014
tp1015
Rp1016
tp1017
a(S'chiricahua'
p1018
g2
(g6
S'\xfa\x9c\x9f\x03\xb9\x99\xd2?'
p1019
tp1020
Rp1021
tp1022
a(S'yandex'
p1023
g2
(g6
S'\xbc)~O\xc5\x8e\xd2?'
p1024
tp1025
Rp1026
tp1027
a(S'mugurdy'
p1028
g2
(g6
S'\x00\xa0b\x9e\r\x88\xd2?'
p1029
tp1030
Rp1031
tp1032
a(S'apache indian'
p1033
g2
(g6
S'bU\xf3\x03[\x87\xd2?'
p1034
tp1035
Rp1036
tp1037
a(S'norconex'
p1038
g2
(g6
S'TS\xb4\xd8\xe8\x84\xd2?'
p1039
tp1040
Rp1041
tp1042
a(S'apache beam'
p1043
g2
(g6
S'\xb7X\xa3[Z\x81\xd2?'
p1044
tp1045
Rp1046
tp1047
a(S'gridgain systems'
p1048
g2
(g6
S'&\xf6\x9a\xce\tz\xd2?'
p1049
tp1050
Rp1051
tp1052
a(S'picollator'
p1053
g2
(g6
S'\xb6\xf71\xa7\xdey\xd2?'
p1054
tp1055
Rp1056
tp1057
a(S'swiftype'
p1058
g2
(g6
S'\x0fL\xaf\x8dYv\xd2?'
p1059
tp1060
Rp1061
tp1062
a(S'danny sullivan (technologist)'
p1063
g2
(g6
S'+\xb2t\x93.u\xd2?'
p1064
tp1065
Rp1066
tp1067
a(S'matei zaharia'
p1068
g2
(g6
S'`\xa9\xf0C\ti\xd2?'
p1069
tp1070
Rp1071
tp1072
a(S'the search (disambiguation)'
p1073
g2
(g6
S'\xa4\x83\xc1\xff`h\xd2?'
p1074
tp1075
Rp1076
tp1077
a(S'ross gardler'
p1078
g2
(g6
S'|$\xa5e\x8af\xd2?'
p1079
tp1080
Rp1081
tp1082
a(S'seeks'
p1083
g2
(g6
S'\x91\x84q*\x8af\xd2?'
p1084
tp1085
Rp1086
tp1087
a(S'cloudera'
p1088
g2
(g6
S'\xc7\x13U\x19\xf0c\xd2?'
p1089
tp1090
Rp1091
tp1092
a(S'list of commercial open-source applications and services'
p1093
g2
(g6
S'\xcd\xe7c%\xc9b\xd2?'
p1094
tp1095
Rp1096
tp1097
a(S'tokyo apache'
p1098
g2
(g6
S'\xf8\xa1\xf2\xa41]\xd2?'
p1099
tp1100
Rp1101
tp1102
a(S'apache pivot'
p1103
g2
(g6
S'\xd9\x89 \xf5\x82X\xd2?'
p1104
tp1105
Rp1106
tp1107
a(S'vertical search'
p1108
g2
(g6
S'\xca\x0f\x92\xb4\xc5T\xd2?'
p1109
tp1110
Rp1111
tp1112
a(S'apache shiro'
p1113
g2
(g6
S'\xe1p\xadb\x7fM\xd2?'
p1114
tp1115
Rp1116
tp1117
a(S'dtsearch'
p1118
g2
(g6
S'\x03\x9aP\x00!M\xd2?'
p1119
tp1120
Rp1121
tp1122
a(S'comparison of object-relational mapping software'
p1123
g2
(g6
S'Q4f\xa4|L\xd2?'
p1124
tp1125
Rp1126
tp1127
a(S'cloudant'
p1128
g2
(g6
S'E\xce\xbe\n\x1eK\xd2?'
p1129
tp1130
Rp1131
tp1132
a(S'douglas miles'
p1133
g2
(g6
S'\xe7\xab\xd6#\x1e@\xd2?'
p1134
tp1135
Rp1136
tp1137
a(S'sesam'
p1138
g2
(g6
S'6mD[p=\xd2?'
p1139
tp1140
Rp1141
tp1142
a(S'apache c++ standard library'
p1143
g2
(g6
S'qQ\xfb\x89r7\xd2?'
p1144
tp1145
Rp1146
tp1147
a(S'live search academic'
p1148
g2
(g6
S'm\xe9g\x04H,\xd2?'
p1149
tp1150
Rp1151
tp1152
a(S'fort apache (hostile place)'
p1153
g2
(g6
S'\xfd\xfd\xc2\x8b\xbe+\xd2?'
p1154
tp1155
Rp1156
tp1157
a(S'list of free and open-source software packages'
p1158
g2
(g6
S'\xb1\x9epW\x8b+\xd2?'
p1159
tp1160
Rp1161
tp1162
a(S'apachebench'
p1163
g2
(g6
S'nS\xc9\xa3\x86)\xd2?'
p1164
tp1165
Rp1166
tp1167
a(S'jicarilla apache'
p1168
g2
(g6
S'Z\x90\xf7\xeb\xe8%\xd2?'
p1169
tp1170
Rp1171
tp1172
a(S'jakarta slide'
p1173
g2
(g6
S'\xf0\xddmZ\xbb\x0c\xd2?'
p1174
tp1175
Rp1176
tp1177
a(S'x1 (software company)'
p1178
g2
(g6
S'\xfdbtJ\xed\t\xd2?'
p1179
tp1180
Rp1181
tp1182
a(S'apache jackrabbit'
p1183
g2
(g6
S'\x04\x16\xa9\xd3\x0e\x02\xd2?'
p1184
tp1185
Rp1186
tp1187
a(S'enterprise sign on engine'
p1188
g2
(g6
S'\x06\xa3\xe2\x96^\xf7\xd1?'
p1189
tp1190
Rp1191
tp1192
a(S'apache mahout'
p1193
g2
(g6
S'NZE=\x1a\xf5\xd1?'
p1194
tp1195
Rp1196
tp1197
a(S'ali ghodsi'
p1198
g2
(g6
S'\xe0\xeb\xd7iH\xf4\xd1?'
p1199
tp1200
Rp1201
tp1202
a(S'hypertable'
p1203
g2
(g6
S'\xb1\x02[92\xf2\xd1?'
p1204
tp1205
Rp1206
tp1207
a(S'apache skies'
p1208
g2
(g6
S'\xb1\xfd\xdbI\x02\xe6\xd1?'
p1209
tp1210
Rp1211
tp1212
a(S'apache hivemind'
p1213
g2
(g6
S'-z\x9ez\xe4\xe1\xd1?'
p1214
tp1215
Rp1216
tp1217
a(S'a9.com'
p1218
g2
(g6
S'\xff\xa0\xb4\xa3}\xe1\xd1?'
p1219
tp1220
Rp1221
tp1222
a(S'apache allura'
p1223
g2
(g6
S'\x03\xcb\xb4\x1d8\xe0\xd1?'
p1224
tp1225
Rp1226
tp1227
a(S'san carlos apache police department'
p1228
g2
(g6
S'8\x1a||\x88\xd7\xd1?'
p1229
tp1230
Rp1231
tp1232
a(S'dieselpoint, inc.'
p1233
g2
(g6
S'\x05\xd3\xbbnf\xd4\xd1?'
p1234
tp1235
Rp1236
tp1237
a(S'apache pizza'
p1238
g2
(g6
S'\x11[\xe8\xcf\xdf\xd3\xd1?'
p1239
tp1240
Rp1241
tp1242
a(S'sam ruby'
p1243
g2
(g6
S'Vbn\xb9/\xcc\xd1?'
p1244
tp1245
Rp1246
tp1247
a(S'ognl'
p1248
g2
(g6
S'S7am$\xc8\xd1?'
p1249
tp1250
Rp1251
tp1252
a(S'genieknows'
p1253
g2
(g6
S'\x9c\xb5\x10q\xd9\xc4\xd1?'
p1254
tp1255
Rp1256
tp1257
a(S'apache apex'
p1258
g2
(g6
S'\x1a\xbb\\|g\xc0\xd1?'
p1259
tp1260
Rp1261
tp1262
a(S'solution stack'
p1263
g2
(g6
S'\xf8\xa8\x8d%F\xbc\xd1?'
p1264
tp1265
Rp1266
tp1267
a(S'iona technologies'
p1268
g2
(g6
S'\xb5\xa8]\x9b\x1f\xba\xd1?'
p1269
tp1270
Rp1271
tp1272
a(S'agorum core'
p1273
g2
(g6
S'\xe0j\xf7\x8c\x08\xba\xd1?'
p1274
tp1275
Rp1276
tp1277
a(S'apache trout'
p1278
g2
(g6
S'\x19\x13B\xd1\xc9\xb5\xd1?'
p1279
tp1280
Rp1281
tp1282
a(S'john c. cremony'
p1283
g2
(g6
S'\x11\x9c\t;C\xb3\xd1?'
p1284
tp1285
Rp1286
tp1287
a(S'apache (rapper)'
p1288
g2
(g6
S'\xbe\x11U\xc3\xd9\xaf\xd1?'
p1289
tp1290
Rp1291
tp1292
a(S'search plugin'
p1293
g2
(g6
S'\x8a\xf8\xa4\xfb\xcb\xaf\xd1?'
p1294
tp1295
Rp1296
tp1297
a(S'xmlbeansxx'
p1298
g2
(g6
S'\x90\x0eqo\xe9\xa9\xd1?'
p1299
tp1300
Rp1301
tp1302
a(S'human search engine'
p1303
g2
(g6
S'\xa8\xe5\xf9\x07\t\x92\xd1?'
p1304
tp1305
Rp1306
tp1307
a(S'act apache 1'
p1308
g2
(g6
S'\xe9\xd7\x0e\x88\xb5\x8b\xd1?'
p1309
tp1310
Rp1311
tp1312
a(S'plains apache'
p1313
g2
(g6
S'\xc7\xdf~\xd3\xaf\x86\xd1?'
p1314
tp1315
Rp1316
tp1317
a(S'moinmoin'
p1318
g2
(g6
S'*\xd9\xa8\x1bi\x85\xd1?'
p1319
tp1320
Rp1321
tp1322
a(S'james kirker'
p1323
g2
(g6
S'o\x1eE\xa2\x88\x83\xd1?'
p1324
tp1325
Rp1326
tp1327
a(S'webmacro'
p1328
g2
(g6
S'\x92\xbf>\xa1B\x7f\xd1?'
p1329
tp1330
Rp1331
tp1332
a(S'exalead'
p1333
g2
(g6
S'^\x8f;/+\x7f\xd1?'
p1334
tp1335
Rp1336
tp1337
a(S'mod wsgi'
p1338
g2
(g6
S'.B\xc6\x0f\x82~\xd1?'
p1339
tp1340
Rp1341
tp1342
a(S'mapr'
p1343
g2
(g6
S'\xc7\x13`\x90\xa8{\xd1?'
p1344
tp1345
Rp1346
tp1347
a(S'mod mono'
p1348
g2
(g6
S'\xd4x\xb0Wqu\xd1?'
p1349
tp1350
Rp1351
tp1352
a(S'cloud computing comparison'
p1353
g2
(g6
S'\xa8\x16R\xa0`j\xd1?'
p1354
tp1355
Rp1356
tp1357
a(S'search-based application'
p1358
g2
(g6
S'e-Pu\xb3h\xd1?'
p1359
tp1360
Rp1361
tp1362
a(S'apache cordova'
p1363
g2
(g6
S'\xde/iI\x12e\xd1?'
p1364
tp1365
Rp1366
tp1367
a(S'yasni'
p1368
g2
(g6
S'N\xff4\xa6\tT\xd1?'
p1369
tp1370
Rp1371
tp1372
a(S'azure search'
p1373
g2
(g6
S'\xb1\xb0\x9a\x91\xd5H\xd1?'
p1374
tp1375
Rp1376
tp1377
a(S'alltheweb'
p1378
g2
(g6
S'$\xd47\x1f\xc3H\xd1?'
p1379
tp1380
Rp1381
tp1382
a(S'snotunes'
p1383
g2
(g6
S'"o\xa1\xa8|E\xd1?'
p1384
tp1385
Rp1386
tp1387
a(S'mangas coloradas'
p1388
g2
(g6
S'+{\xb0\xe9;A\xd1?'
p1389
tp1390
Rp1391
tp1392
a(S'rollyo'
p1393
g2
(g6
S'$\xd9\xc1t\xd37\xd1?'
p1394
tp1395
Rp1396
tp1397
a(S'nike-apache'
p1398
g2
(g6
S'@\xbfUD\xf86\xd1?'
p1399
tp1400
Rp1401
tp1402
a(S'searching'
p1403
g2
(g6
S'\x00\xc27\x06G5\xd1?'
p1404
tp1405
Rp1406
tp1407
a(S'alchesay high school'
p1408
g2
(g6
S'G\xfe\x93Y\xfa1\xd1?'
p1409
tp1410
Rp1411
tp1412
a(S'mod ruby'
p1413
g2
(g6
S'\xfe\xb8u?\xa4)\xd1?'
p1414
tp1415
Rp1416
tp1417
a(S'apache brooklyn'
p1418
g2
(g6
S'\x16\xd2\xd7\xc2\xa2\x1a\xd1?'
p1419
tp1420
Rp1421
tp1422
a(S'apache national forest'
p1423
g2
(g6
S'R>\x12\x97\x9b\x1a\xd1?'
p1424
tp1425
Rp1426
tp1427
a(S'yebol'
p1428
g2
(g6
S'\xfd\xd0\xaa5g\x1a\xd1?'
p1429
tp1430
Rp1431
tp1432
a(S'search neutrality'
p1433
g2
(g6
S'\xfd\xbc|X\x17\x19\xd1?'
p1434
tp1435
Rp1436
tp1437
a(S'apaches (subculture)'
p1438
g2
(g6
S'\xe8j[q^\x17\xd1?'
p1439
tp1440
Rp1441
tp1442
a(S'chemxseer'
p1443
g2
(g6
S'\xeaM\xf7\xc4\x89\x14\xd1?'
p1444
tp1445
Rp1446
tp1447
a(S'apache giraph'
p1448
g2
(g6
S'6\x04\x0e\x04\x94\r\xd1?'
p1449
tp1450
Rp1451
tp1452
a(S'apache cat'
p1453
g2
(g6
S'8&\x8c\tk\r\xd1?'
p1454
tp1455
Rp1456
tp1457
a(S'direct hit technologies'
p1458
g2
(g6
S'\x01\xa1,\x9aS\x04\xd1?'
p1459
tp1460
Rp1461
tp1462
a(S'blekko'
p1463
g2
(g6
S'U\x9cj\x98=\x00\xd1?'
p1464
tp1465
Rp1466
tp1467
a(S'similarity search'
p1468
g2
(g6
S'\xe1\xb1\xb66\x7f\xfe\xd0?'
p1469
tp1470
Rp1471
tp1472
a(S'document-oriented database'
p1473
g2
(g6
S'<\xe2\xee\xe49\xfe\xd0?'
p1474
tp1475
Rp1476
tp1477
a(S'fastcgi'
p1478
g2
(g6
S'\xa6\x065I#\xf7\xd0?'
p1479
tp1480
Rp1481
tp1482
a(S'multimodal search'
p1483
g2
(g6
S'\xe9\x03\x04M\x81\xf3\xd0?'
p1484
tp1485
Rp1486
tp1487
a(S'proximity search (text)'
p1488
g2
(g6
S'\xe0\x7f\x08\xea\n\xf2\xd0?'
p1489
tp1490
Rp1491
tp1492
a(S'apache kid (comics)'
p1493
g2
(g6
S'\xf8#P[\xbd\xf1\xd0?'
p1494
tp1495
Rp1496
tp1497
a(S'lady apache'
p1498
g2
(g6
S'\xb8\x9e\xa0\xc7s\xef\xd0?'
p1499
tp1500
Rp1501
tp1502
a(S'mozdex'
p1503
g2
(g6
S'\xd5=\xd7\x1c\xc9\xee\xd0?'
p1504
tp1505
Rp1506
tp1507
a(S'eb-eye'
p1508
g2
(g6
S'\xeb\x81\xd6\xd7k\xee\xd0?'
p1509
tp1510
Rp1511
tp1512
a.