(lp0
(S'apx'
p1
cnumpy.core.multiarray
scalar
p2
(cnumpy
dtype
p3
(S'f8'
p4
I0
I1
tp5
Rp6
(I3
S'<'
p7
NNNI-1
I-1
I0
tp8
bS'\x02\x00\x00\x00\x00\x00\xf0?'
p9
tp10
Rp11
tp12
a(S'approximation algorithm'
p13
g2
(g6
S'\xbaZX\xc8\x85\xea\xe6?'
p14
tp15
Rp16
tp17
a(S'hardness of approximation'
p18
g2
(g6
S'\xa7\xc7\xad\xed\xbd\x10\xe5?'
p19
tp20
Rp21
tp22
a(S'polynomial-time approximation scheme'
p23
g2
(g6
S'\xc9\xe4Q\x90\xfbD\xe4?'
p24
tp25
Rp26
tp27
a(S'exact algorithm'
p28
g2
(g6
S';\x9152-%\xe2?'
p29
tp30
Rp31
tp32
a(S'ptas reduction'
p33
g2
(g6
S'\xbc\x93~\xc64\x94\xe1?'
p34
tp35
Rp36
tp37
a(S'polynomial-time reduction'
p38
g2
(g6
S'\x90\xe5\x18C\xe6\x9d\xe0?'
p39
tp40
Rp41
tp42
a(S'maximum cut'
p43
g2
(g6
S'=\x98\xdf\xe4R\x85\xe0?'
p44
tp45
Rp46
tp47
a(S'l-reduction'
p48
g2
(g6
S',<\xaf\x1bb}\xe0?'
p49
tp50
Rp51
tp52
a(S'facility location problem'
p53
g2
(g6
S'>\xbd\xea\x8fyf\xe0?'
p54
tp55
Rp56
tp57
a(S'approximation-preserving reduction'
p58
g2
(g6
S'f0j\x1f^(\xe0?'
p59
tp60
Rp61
tp62
a(S'set cover problem'
p63
g2
(g6
S'\xc1h\xe3\xb8W\x1a\xdf?'
p64
tp65
Rp66
tp67
a(S'optimization problem'
p68
g2
(g6
S'\xc4\xb9\xdfB\xbe\xd6\xde?'
p69
tp70
Rp71
tp72
a(S'sharp-p-complete'
p73
g2
(g6
S'\xb3\x81p\xffcU\xde?'
p74
tp75
Rp76
tp77
a(S'metric k-center'
p78
g2
(g6
S'\t\x93\x8db\x85\xa4\xdd?'
p79
tp80
Rp81
tp82
a(S'time complexity'
p83
g2
(g6
S's\xad\xd9K\xb7\x9c\xdd?'
p84
tp85
Rp86
tp87
a(S'reduction (complexity)'
p88
g2
(g6
S'\xbf\xa3g\x0b![\xdd?'
p89
tp90
Rp91
tp92
a(S'list of unsolved problems in computer science'
p93
g2
(g6
S'\xca\xa3\xeb_*/\xdd?'
p94
tp95
Rp96
tp97
a(S'function problem'
p98
g2
(g6
S"\xd8\xdd\xc8\xfc\xc6'\xdd?"
p99
tp100
Rp101
tp102
a(S'p (complexity)'
p103
g2
(g6
S'\x11:M\xa7/\t\xdd?'
p104
tp105
Rp106
tp107
a(S'computational complexity theory'
p108
g2
(g6
S'\xd3\x8b\xf0\\\xa8\xd5\xdc?'
p109
tp110
Rp111
tp112
a(S'np-completeness'
p113
g2
(g6
S'\xe7\xc8\x808j\xb6\xdc?'
p114
tp115
Rp116
tp117
a(S'order of approximation'
p118
g2
(g6
S'_\xc6\xa71\xf2\\\xdc?'
p119
tp120
Rp121
tp122
a(S'david shmoys'
p123
g2
(g6
S'\x1c\x1cc\xd4j\xf6\xdb?'
p124
tp125
Rp126
tp127
a(S'p versus np problem'
p128
g2
(g6
S'^\xfa\x95MS\xbf\xdb?'
p129
tp130
Rp131
tp132
a(S'sharp-p'
p133
g2
(g6
S'\xdc\x17\x1eQ\xe0\x93\xdb?'
p134
tp135
Rp136
tp137
a(S'p-complete'
p138
g2
(g6
S'\x1c\x15\x11\xba,\x8a\xdb?'
p139
tp140
Rp141
tp142
a(S'minimax approximation algorithm'
p143
g2
(g6
S'\xe4w\xcd\xe6\xa3|\xdb?'
p144
tp145
Rp146
tp147
a(S'minimum k-cut'
p148
g2
(g6
S'Y\x97\x8e\xbd\xebM\xdb?'
p149
tp150
Rp151
tp152
a(S'gadget (computer science)'
p153
g2
(g6
S'>\xa7\xcb\x05\xbc2\xdb?'
p154
tp155
Rp156
tp157
a(S'list of np-complete problems'
p158
g2
(g6
S'\xbb\x01\x1eq\xbc\x00\xdb?'
p159
tp160
Rp161
tp162
a(S'snp (complexity)'
p163
g2
(g6
S'0\xc3\\\x91D\xd5\xda?'
p164
tp165
Rp166
tp167
a(S'average-case complexity'
p168
g2
(g6
S'\xb1\x87\xd4\xf4\xa2\xcd\xda?'
p169
tp170
Rp171
tp172
a(S'parameterized complexity'
p173
g2
(g6
S'h\x86p\x17N\xbf\xda?'
p174
tp175
Rp176
tp177
a(S'k-minimum spanning tree'
p178
g2
(g6
S'2\xb9\xd0/\xc6\xad\xda?'
p179
tp180
Rp181
tp182
a(S'pspace-complete'
p183
g2
(g6
S'\x80\xbd\x0f\xb4\xdbO\xda?'
p184
tp185
Rp186
tp187
a(S'complete (complexity)'
p188
g2
(g6
S'5\xaa\xb4\xe9\x85;\xda?'
p189
tp190
Rp191
tp192
a(S'cook\xe2\x80\x93levin theorem'
p193
g2
(g6
S'\x99\x166\xefg;\xda?'
p194
tp195
Rp196
tp197
a(S'decision problem'
p198
g2
(g6
S'\x1b\xda\xd0.:\xf1\xd9?'
p199
tp200
Rp201
tp202
a(S'strong np-completeness'
p203
g2
(g6
S'{z~\xc2\x9e\xd3\xd9?'
p204
tp205
Rp206
tp207
a(S'low-rank approximation'
p208
g2
(g6
S'\x94\xc5X\x04$\xd1\xd9?'
p209
tp210
Rp211
tp212
a(S'np (complexity)'
p213
g2
(g6
S'=Y>E\x83\xcf\xd9?'
p214
tp215
Rp216
tp217
a(S'geometric set cover problem'
p218
g2
(g6
S'\xc0\xe4\x12\xf1j\x91\xd9?'
p219
tp220
Rp221
tp222
a(S'approximation'
p223
g2
(g6
S'\xbf\x04U|\xd8c\xd9?'
p224
tp225
Rp226
tp227
a(S'up (complexity)'
p228
g2
(g6
S'\xfb;\xfc\xe1/C\xd9?'
p229
tp230
Rp231
tp232
a(S"karp's 21 np-complete problems"
p233
g2
(g6
S'\x19\x84\xb1\x94X3\xd9?'
p234
tp235
Rp236
tp237
a(S'np-hardness'
p238
g2
(g6
S'fd1\x02\x0bk\xd8?'
p239
tp240
Rp241
tp242
a(S'co-np-complete'
p243
g2
(g6
S'\xadF\x00\xeb\nZ\xd8?'
p244
tp245
Rp246
tp247
a(S'function approximation'
p248
g2
(g6
S'\x95\xdd2\x80\xabV\xd8?'
p249
tp250
Rp251
tp252
a(S'pseudo-polynomial time'
p253
g2
(g6
S'\x14\x1d~\xb6\x06Q\xd8?'
p254
tp255
Rp256
tp257
a(S'eikonal approximation'
p258
g2
(g6
S',\xd1\x1b|\\K\xd8?'
p259
tp260
Rp261
tp262
a(S'pspace'
p263
g2
(g6
S'\x1f\xa3\xd2\xd9h>\xd8?'
p264
tp265
Rp266
tp267
a(S'exptime'
p268
g2
(g6
S'\xed\xd5\xf2\r\xe74\xd8?'
p269
tp270
Rp271
tp272
a(S'max/min csp/ones classification theorems'
p273
g2
(g6
S'R\x02m2<\x04\xd8?'
p274
tp275
Rp276
tp277
a(S'maximum satisfiability problem'
p278
g2
(g6
S'\xbf\xa1NR\x8d\xf8\xd7?'
p279
tp280
Rp281
tp282
a(S'pls (complexity)'
p283
g2
(g6
S'\x96Gk\xce;\xd6\xd7?'
p284
tp285
Rp286
tp287
a(S'ppad (complexity)'
p288
g2
(g6
S'\x8c\xc4\xc1e\xde\xd4\xd7?'
p289
tp290
Rp291
tp292
a(S'weak np-completeness'
p293
g2
(g6
S'h&\xb2O\r\xc1\xd7?'
p294
tp295
Rp296
tp297
a(S'minisuperspace'
p298
g2
(g6
S'\x16\x0e\x81Lwt\xd7?'
p299
tp300
Rp301
tp302
a(S'max-3sat'
p303
g2
(g6
S'\x07\xfa\xfed\xc1r\xd7?'
p304
tp305
Rp306
tp307
a(S'np-easy'
p308
g2
(g6
S'\x8e\xa1\xba\xc8\x11)\xd7?'
p309
tp310
Rp311
tp312
a(S'paraxial approximation'
p313
g2
(g6
S'D \xd6\xcc\x9d(\xd7?'
p314
tp315
Rp316
tp317
a(S'combinatorial optimization'
p318
g2
(g6
S'\x0e\x12\x16R\x13\x19\xd7?'
p319
tp320
Rp321
tp322
a(S'approximation theory'
p323
g2
(g6
S'\xa6\xa8:Af\x14\xd7?'
p324
tp325
Rp326
tp327
a(S'2-satisfiability'
p328
g2
(g6
S'\x08\x9a\xe0\xf1\x8c\xfb\xd6?'
p329
tp330
Rp331
tp332
a(S'approximation in algebraic groups'
p333
g2
(g6
S'eZ\xc9W\x14\xfb\xd6?'
p334
tp335
Rp336
tp337
a(S'born\xe2\x80\x93huang approximation'
p338
g2
(g6
S"\x0e'\x9b\x12\xb5\xb3\xd6?"
p339
tp340
Rp341
tp342
a(S'generic-case complexity'
p343
g2
(g6
S'4\xfa\xe9}%\xae\xd6?'
p344
tp345
Rp346
tp347
a(S'partition problem'
p348
g2
(g6
S'\x8e]\xf9\x84\x19\xaa\xd6?'
p349
tp350
Rp351
tp352
a(S'np-intermediate'
p353
g2
(g6
S'\xe1\xfb\xed\xe2\xc1\x84\xd6?'
p354
tp355
Rp356
tp357
a(S'l (complexity)'
p358
g2
(g6
S'\xeb\x0b\xc6\xb6\xf0{\xd6?'
p359
tp360
Rp361
tp362
a(S'korovkin approximation'
p363
g2
(g6
S'q\x7f`*Y\x19\xd6?'
p364
tp365
Rp366
tp367
a(S'remez algorithm'
p368
g2
(g6
S'0z\xda8\xfc\xe9\xd5?'
p369
tp370
Rp371
tp372
a(S'complexity class'
p373
g2
(g6
S'T3\xfd\xb5\x9d\xd9\xd5?'
p374
tp375
Rp376
tp377
a(S'set packing'
p378
g2
(g6
S'K\xbcT\xcdI\xd8\xd5?'
p379
tp380
Rp381
tp382
a(S'domination analysis'
p383
g2
(g6
S'3U\xb39\xc8\xd1\xd5?'
p384
tp385
Rp386
tp387
a(S'vertex cover'
p388
g2
(g6
S'\xe5\xbfE\xd8+\xc4\xd5?'
p389
tp390
Rp391
tp392
a(S'bin packing problem'
p393
g2
(g6
S'\xe0\xf5\x99\xd6\t\xb9\xd5?'
p394
tp395
Rp396
tp397
a(S'two-stream approximation'
p398
g2
(g6
S'3\xc7\x8c\xcd{\xb6\xd5?'
p399
tp400
Rp401
tp402
a(S'list of complexity classes'
p403
g2
(g6
S'\x04g\t\xae\x94\xa1\xd5?'
p404
tp405
Rp406
tp407
a(S'problem (disambiguation)'
p408
g2
(g6
S'\xf7\xdc\x15] \xa0\xd5?'
p409
tp410
Rp411
tp412
a(S'unique games conjecture'
p413
g2
(g6
S'n\x98n\x0c\xc2\x84\xd5?'
p414
tp415
Rp416
tp417
a(S'fnp (complexity)'
p418
g2
(g6
S'p\xcf\x02\xa1bc\xd5?'
p419
tp420
Rp421
tp422
a(S'linear programming relaxation'
p423
g2
(g6
S'\x9c\xca\xaf\xeb\xa7F\xd5?'
p424
tp425
Rp426
tp427
a(S'graph realization problem'
p428
g2
(g6
S'\\z\x93)\x8cD\xd5?'
p429
tp430
Rp431
tp432
a(S'nexptime'
p433
g2
(g6
S'\xfd\x11n\xe4w \xd5?'
p434
tp435
Rp436
tp437
a(S'independent set (graph theory)'
p438
g2
(g6
S'~\xfb\x81\x85\n\x1d\xd5?'
p439
tp440
Rp441
tp442
a(S'quasi-bipartite graph'
p443
g2
(g6
S'@b\x8aB\xad\x0e\xd5?'
p444
tp445
Rp446
tp447
a(S'gap reduction'
p448
g2
(g6
S'7\xcef$\x0c\xff\xd4?'
p449
tp450
Rp451
tp452
a(S'dorit s. hochbaum'
p453
g2
(g6
S'\xa3\x12S\x12\x9f\xd4\xd4?'
p454
tp455
Rp456
tp457
a(S"cobham's thesis"
p458
g2
(g6
S'b]\x92\x1e/\xa6\xd4?'
p459
tp460
Rp461
tp462
a(S'supersymmetric wkb approximation'
p463
g2
(g6
S'G\xa8\xf8{e\xa5\xd4?'
p464
tp465
Rp466
tp467
a(S"sidi's generalized secant method"
p468
g2
(g6
S'\x9c\xd7^M\x85\xa2\xd4?'
p469
tp470
Rp471
tp472
a(S'set splitting problem'
p473
g2
(g6
S'\xcc\x1d\x94\xb9\xaf~\xd4?'
p474
tp475
Rp476
tp477
a(S'quantum optimization algorithms'
p478
g2
(g6
S'\xe5vLpSx\xd4?'
p479
tp480
Rp481
tp482
a(S'quadratic assignment problem'
p483
g2
(g6
S'\x8dD&K\x99l\xd4?'
p484
tp485
Rp486
tp487
a(S'degree-constrained spanning tree'
p488
g2
(g6
S'\x1d\xc7\xa2Z\xd1X\xd4?'
p489
tp490
Rp491
tp492
a(S'maximum coverage problem'
p493
g2
(g6
S'p\xe0\x7f\x8ba9\xd4?'
p494
tp495
Rp496
tp497
a(S"mergelyan's theorem"
p498
g2
(g6
S"=\xa5\xc8'\x82/\xd4?"
p499
tp500
Rp501
tp502
a(S'rectangle method'
p503
g2
(g6
S'\xd0\xcc\xb0\xe08,\xd4?'
p504
tp505
Rp506
tp507
a(S'online algorithm'
p508
g2
(g6
S'\xeeX\xa8Xb#\xd4?'
p509
tp510
Rp511
tp512
a(S'coreset'
p513
g2
(g6
S'\xd5D\xc7\xf3\'"\xd4?'
p514
tp515
Rp516
tp517
a(S'grey problem'
p518
g2
(g6
S'\xb5\x0e\xd2\xfbj\x0f\xd4?'
p519
tp520
Rp521
tp522
a(S'knapsack problem'
p523
g2
(g6
S'\xcdn\xbc6w\xff\xd3?'
p524
tp525
Rp526
tp527
a(S'feedback vertex set'
p528
g2
(g6
S'\xfbOXCh\xeb\xd3?'
p529
tp530
Rp531
tp532
a(S'generalized assignment problem'
p533
g2
(g6
S'\xdcS\xad\xafS\xe6\xd3?'
p534
tp535
Rp536
tp537
a(S'dominating set'
p538
g2
(g6
S'>)\xde\x80u\xe3\xd3?'
p539
tp540
Rp541
tp542
a(S'token reconfiguration'
p543
g2
(g6
S'`\x00\xb9+\x93\xe1\xd3?'
p544
tp545
Rp546
tp547
a(S'hamiltonian completion'
p548
g2
(g6
S'\xb3\xd8"J\xd3\xd9\xd3?'
p549
tp550
Rp551
tp552
a(S'binomial approximation'
p553
g2
(g6
S'~\xf6V\x8a3\xd0\xd3?'
p554
tp555
Rp556
tp557
a(S'advice (complexity)'
p558
g2
(g6
S'dL\x87\xc6\x99\x9a\xd3?'
p559
tp560
Rp561
tp562
a(S'travelling salesman problem'
p563
g2
(g6
S'\xee\xad\xf1\xee2\x98\xd3?'
p564
tp565
Rp566
tp567
a(S'feedback arc set'
p568
g2
(g6
S'\xa6\xdcb\x97\xaf\x80\xd3?'
p569
tp570
Rp571
tp572
a(S'circuit value problem'
p573
g2
(g6
S'\x8e\x86\xe6\xf9\x9d|\xd3?'
p574
tp575
Rp576
tp577
a(S'longest path problem'
p578
g2
(g6
S' \xd07\xe3\xcew\xd3?'
p579
tp580
Rp581
tp582
a(S'local search (optimization)'
p583
g2
(g6
S'c\x05\xdb\xa0\x15v\xd3?'
p584
tp585
Rp586
tp587
a(S'computational problem'
p588
g2
(g6
S'\x1c\xc7\x0b\xa7u`\xd3?'
p589
tp590
Rp591
tp592
a(S'linear approximation'
p593
g2
(g6
S'\xcd\xedB\xdc\xcf^\xd3?'
p594
tp595
Rp596
tp597
a(S'f-plane'
p598
g2
(g6
S'\xd1\x93S\xbd\xfbU\xd3?'
p599
tp600
Rp601
tp602
a(S'lattice problem'
p603
g2
(g6
S'\xfb;\x8d\x9f>9\xd3?'
p604
tp605
Rp606
tp607
a(S'metric dimension (graph theory)'
p608
g2
(g6
S'\xde\x11\xfe\xac.-\xd3?'
p609
tp610
Rp611
tp612
a(S'expspace'
p613
g2
(g6
S"2{\xa1\x05'&\xd3?"
p614
tp615
Rp616
tp617
a(S'submodular set function'
p618
g2
(g6
S'T\x08\xb5\xc5\x9e"\xd3?'
p619
tp620
Rp621
tp622
a(S'boolean satisfiability problem'
p623
g2
(g6
S'\xae1\xbc)*\x1a\xd3?'
p624
tp625
Rp626
tp627
a(S'high frequency approximation'
p628
g2
(g6
S'\x81I-\x1f#\x19\xd3?'
p629
tp630
Rp631
tp632
a(S'kinodynamic planning'
p633
g2
(g6
S'\xcf \xff\x06\x97\t\xd3?'
p634
tp635
Rp636
tp637
a(S'holographic algorithm'
p638
g2
(g6
S'\xa3\x03\xf8\xa3>\xd4\xd2?'
p639
tp640
Rp641
tp642
a(S'karloff\xe2\x80\x93zwick algorithm'
p643
g2
(g6
S' Ko\xee\xe1\xcf\xd2?'
p644
tp645
Rp646
tp647
a(S'co-np'
p648
g2
(g6
S'di\x1b\x9c\x9e\xce\xd2?'
p649
tp650
Rp651
tp652
a(S'complete coloring'
p653
g2
(g6
S',\x8a\xd9\x96S\xb1\xd2?'
p654
tp655
Rp656
tp657
a(S'context of computational complexity'
p658
g2
(g6
S'yM\x8a\x1c\xc4\xa5\xd2?'
p659
tp660
Rp661
tp662
a(S'computers and intractability'
p663
g2
(g6
S'5l\xce\x86\x89\x9d\xd2?'
p664
tp665
Rp666
tp667
a(S'numerical 3-dimensional matching'
p668
g2
(g6
S'\xee\x89\xc7\xe3\x9f\x98\xd2?'
p669
tp670
Rp671
tp672
a(S'algorithmics'
p673
g2
(g6
S'\xe0\xd1\xed!\xdf\x96\xd2?'
p674
tp675
Rp676
tp677
a(S'subset sum problem'
p678
g2
(g6
S'I\x89H\xca(\x96\xd2?'
p679
tp680
Rp681
tp682
a(S'digraph realization problem'
p683
g2
(g6
S'ox\xeb\xb0\xb2~\xd2?'
p684
tp685
Rp686
tp687
a(S'approximate max-flow min-cut theorem'
p688
g2
(g6
S'\x96\x97*\x1e\xa7x\xd2?'
p689
tp690
Rp691
tp692
a(S're (complexity)'
p693
g2
(g6
S'\xffz#\xa5\x8ds\xd2?'
p694
tp695
Rp696
tp697
a(S'saddlepoint approximation method'
p698
g2
(g6
S'\x90\xa6\xae\xd5\xefm\xd2?'
p699
tp700
Rp701
tp702
a(S'exponential time hypothesis'
p703
g2
(g6
S'\x9b\xe7 \xf1\x01a\xd2?'
p704
tp705
Rp706
tp707
a(S'bqp'
p708
g2
(g6
S'V\xda\xe3f\xb1U\xd2?'
p709
tp710
Rp711
tp712
a(S'quadratic knapsack problem'
p713
g2
(g6
S'\xdf\x05^\x9f\xa6M\xd2?'
p714
tp715
Rp716
tp717
a(S'element distinctness problem'
p718
g2
(g6
S'\xff9\xdc\x9eVI\xd2?'
p719
tp720
Rp721
tp722
a(S'qma'
p723
g2
(g6
S"'O\xf9er=\xd2?"
p724
tp725
Rp726
tp727
a(S'polynomial hierarchy'
p728
g2
(g6
S'\xfd\x07\xb6\x91\x1a-\xd2?'
p729
tp730
Rp731
tp732
a(S'fp (complexity)'
p733
g2
(g6
S'\x10\xd6]\x8f\x1a(\xd2?'
p734
tp735
Rp736
tp737
a(S'connected dominating set'
p738
g2
(g6
S'Q@?\x92J\x17\xd2?'
p739
tp740
Rp741
tp742
a(S'kernelization'
p743
g2
(g6
S'=\xdf\x862\t\r\xd2?'
p744
tp745
Rp746
tp747
a(S'born approximation'
p748
g2
(g6
S'\xc8\xb0\x16\x93<\x00\xd2?'
p749
tp750
Rp751
tp752
a(S'algorithm'
p753
g2
(g6
S'\x18vF\xa5|\xf5\xd1?'
p754
tp755
Rp756
tp757
a(S'superstrong approximation'
p758
g2
(g6
S'+UN\xf4\x9c\xf2\xd1?'
p759
tp760
Rp761
tp762
a(S'interval scheduling'
p763
g2
(g6
S'\xbcH\xaf\xe0\x12\xef\xd1?'
p764
tp765
Rp766
tp767
a(S'toy problem'
p768
g2
(g6
S'\x1e\xd0\xef4I\xea\xd1?'
p769
tp770
Rp771
tp772
a(S'unknotting problem'
p773
g2
(g6
S'\xf0\x9d4\xbe\x15\xe7\xd1?'
p774
tp775
Rp776
tp777
a(S'list of numerical analysis topics'
p778
g2
(g6
S'\xf1U\x93\xda\t\xdc\xd1?'
p779
tp780
Rp781
tp782
a(S'pp (complexity)'
p783
g2
(g6
S'\xbd{\x86\x9e\xf0\xd6\xd1?'
p784
tp785
Rp786
tp787
a(S'list of algorithm general topics'
p788
g2
(g6
S'\r$\xd3\x80\x1d\xd1\xd1?'
p789
tp790
Rp791
tp792
a(S'mil\xc3\xbc'
p793
g2
(g6
S'\x8e\x96\x08*\t\xc7\xd1?'
p794
tp795
Rp796
tp797
a(S"spouge's approximation"
p798
g2
(g6
S'\xe7\x1d\xab?<\xba\xd1?'
p799
tp800
Rp801
tp802
a(S'graph isomorphism problem'
p803
g2
(g6
S'\xfe\xaf$\xbf3\xb9\xd1?'
p804
tp805
Rp806
tp807
a(S'fast inverse square root'
p808
g2
(g6
S'\xec\xa6@6\x81\xb0\xd1?'
p809
tp810
Rp811
tp812
a(S'watchman route problem'
p813
g2
(g6
S'\xd1\x8b\x95u\xa3\xaf\xd1?'
p814
tp815
Rp816
tp817
a(S'clique cover'
p818
g2
(g6
S'\xee\xb6\x87\x00\xf4\x8f\xd1?'
p819
tp820
Rp821
tp822
a(S'polynomial identity testing'
p823
g2
(g6
S'R\xf8\x12\x83\x82x\xd1?'
p824
tp825
Rp826
tp827
a(S'lp-type problem'
p828
g2
(g6
S'u{\xe9e\x04u\xd1?'
p829
tp830
Rp831
tp832
a(S'word problem (mathematics education)'
p833
g2
(g6
S'T3\x16\xe0\x1bj\xd1?'
p834
tp835
Rp836
tp837
a(S'tfnp'
p838
g2
(g6
S'G\xfc\x1d\xa5\x85_\xd1?'
p839
tp840
Rp841
tp842
a(S"smale's problems"
p843
g2
(g6
S'\xf2\x1f\x05\xbf\x02[\xd1?'
p844
tp845
Rp846
tp847
a(S'maxeksat'
p848
g2
(g6
S'\x02\x9b\xd5cGV\xd1?'
p849
tp850
Rp851
tp852
a(S'anomalous diffraction theory'
p853
g2
(g6
S'\xd4\xad)\xbd\xfbR\xd1?'
p854
tp855
Rp856
tp857
a(S'domatic number'
p858
g2
(g6
S'\xb9\xaad>\xe1Q\xd1?'
p859
tp860
Rp861
tp862
a(S'sinc numerical methods'
p863
g2
(g6
S'\x83f\x11\x9b\x90Q\xd1?'
p864
tp865
Rp866
tp867
a(S'quadratic bottleneck assignment problem'
p868
g2
(g6
S'\x82\xf3$`\xa4N\xd1?'
p869
tp870
Rp871
tp872
a(S'group isomorphism problem'
p873
g2
(g6
S'x\x17\xbb\x13\xc7M\xd1?'
p874
tp875
Rp876
tp877
a(S"klee's measure problem"
p878
g2
(g6
S'jX\xe0\xb3\xe9L\xd1?'
p879
tp880
Rp881
tp882
a(S'artelys knitro'
p883
g2
(g6
S',\xe4\x00\xc4\xd2K\xd1?'
p884
tp885
Rp886
tp887
a(S'non-constructive algorithm existence proofs'
p888
g2
(g6
S'\x05N0\xe73B\xd1?'
p889
tp890
Rp891
tp892
a(S'method of matched asymptotic expansions'
p893
g2
(g6
S'\x9a\xf1\xb9\xc1\xb07\xd1?'
p894
tp895
Rp896
tp897
a(S'linear programming'
p898
g2
(g6
S'\xb3\xa8\xc09\x82*\xd1?'
p899
tp900
Rp901
tp902
a(S'tutte polynomial'
p903
g2
(g6
S'\x101\xedK\xd7%\xd1?'
p904
tp905
Rp906
tp907
a(S'circuits over sets of natural numbers'
p908
g2
(g6
S'\xb6\x1b\xecSc"\xd1?'
p909
tp910
Rp911
tp912
a(S'auction algorithm'
p913
g2
(g6
S'\x81\xb0/k\x1a\x1f\xd1?'
p914
tp915
Rp916
tp917
a(S'log-space reduction'
p918
g2
(g6
S'\\\xca0\x1dD\x15\xd1?'
p919
tp920
Rp921
tp922
a(S'ph (complexity)'
p923
g2
(g6
S'\xc4\xb6\x94\xff\x82\x12\xd1?'
p924
tp925
Rp926
tp927
a(S'variable neighborhood search'
p928
g2
(g6
S'p\x03\xa9o\x10\x11\xd1?'
p929
tp930
Rp931
tp932
a(S'problem-oriented development'
p933
g2
(g6
S'B J\xb2\x17\r\xd1?'
p934
tp935
Rp936
tp937
a(S'held\xe2\x80\x93karp algorithm'
p938
g2
(g6
S'\xa7\x14a\xd3B\xf9\xd0?'
p939
tp940
Rp941
tp942
a(S'first-order reduction'
p943
g2
(g6
S'\xa4\xc5\x1cq\xc2\xf2\xd0?'
p944
tp945
Rp946
tp947
a(S'problem solving'
p948
g2
(g6
S'i\xec\x89\x1b\xa1\xed\xd0?'
p949
tp950
Rp951
tp952
a(S'order of a polynomial'
p953
g2
(g6
S'V\xd7F\xab\xef\xec\xd0?'
p954
tp955
Rp956
tp957
a(S'frank\xe2\x80\x93wolfe algorithm'
p958
g2
(g6
S'K^qm\xd5\xde\xd0?'
p959
tp960
Rp961
tp962
a(S'bottleneck traveling salesman problem'
p963
g2
(g6
S"\xbe\x10\xff\xe9'\xdc\xd0?"
p964
tp965
Rp966
tp967
a(S'integer circuit'
p968
g2
(g6
S'\xfeB\x1e\x1e\xf4\xcd\xd0?'
p969
tp970
Rp971
tp972
a(S"hilbert's problems"
p973
g2
(g6
S'\xa5\x03\xb1,\x83\xc4\xd0?'
p974
tp975
Rp976
tp977
a(S'singular perturbation'
p978
g2
(g6
S'\x1f\x97\xf79\x94\xc2\xd0?'
p979
tp980
Rp981
tp982
a(S'mihalis yannakakis'
p983
g2
(g6
S'\xb3\x01\xdc\x1eW\xbf\xd0?'
p984
tp985
Rp986
tp987
a(S'promise problem'
p988
g2
(g6
S'\xb6\x13\xceq\xab\xbd\xd0?'
p989
tp990
Rp991
tp992
a(S'stephen cook'
p993
g2
(g6
S'ku\xbepH\xb3\xd0?'
p994
tp995
Rp996
tp997
a(S'dynamic problem (algorithms)'
p998
g2
(g6
S'\x8f\xd8b\xb5P\xb1\xd0?'
p999
tp1000
Rp1001
tp1002
a(S'interactive proof system'
p1003
g2
(g6
S'+\xff:\xda\xc8\xaf\xd0?'
p1004
tp1005
Rp1006
tp1007
a(S'many-one reduction'
p1008
g2
(g6
S'\x05#G\x18\x1c\xa4\xd0?'
p1009
tp1010
Rp1011
tp1012
a(S'approximation property'
p1013
g2
(g6
S'\xd6\xc6\xca!\x13\x9b\xd0?'
p1014
tp1015
Rp1016
tp1017
a(S'clique problem'
p1018
g2
(g6
S'\x96X\xb8\x80K\x97\xd0?'
p1019
tp1020
Rp1021
tp1022
a(S'born\xe2\x80\x93oppenheimer approximation'
p1023
g2
(g6
S'\x8b\xd7\xa5\xcb\x94\x96\xd0?'
p1024
tp1025
Rp1026
tp1027
a(S'max-3lin-eqn'
p1028
g2
(g6
S'1\xef\xa4P{\x8c\xd0?'
p1029
tp1030
Rp1031
tp1032
a(S'ring learning with errors'
p1033
g2
(g6
S'\xb7"<\x8ce\x84\xd0?'
p1034
tp1035
Rp1036
tp1037
a(S'steiner tree problem'
p1038
g2
(g6
S'\xb2^\xfbb\xa3\x83\xd0?'
p1039
tp1040
Rp1041
tp1042
a(S'betweenness'
p1043
g2
(g6
S'\x1cE@\x1d\x84\x7f\xd0?'
p1044
tp1045
Rp1046
tp1047
a(S'boussinesq approximation'
p1048
g2
(g6
S'P\xde\x99\xf5\xf3c\xd0?'
p1049
tp1050
Rp1051
tp1052
a(S'fl (complexity)'
p1053
g2
(g6
S'\xc6R\xcd\x1c\xf4`\xd0?'
p1054
tp1055
Rp1056
tp1057
a(S'multidisciplinary design optimization'
p1058
g2
(g6
S'\xcc\xcf\xed\xc1\xdc_\xd0?'
p1059
tp1060
Rp1061
tp1062
a(S'teofilo f. gonzalez'
p1063
g2
(g6
S'\xfe\x13t\x1d\t_\xd0?'
p1064
tp1065
Rp1066
tp1067
a(S'polyl'
p1068
g2
(g6
S'\xa0\n7\x89]X\xd0?'
p1069
tp1070
Rp1071
tp1072
a(S'\xce\x95-net (computational geometry)'
p1073
g2
(g6
S'v"Ix\x92V\xd0?'
p1074
tp1075
Rp1076
tp1077
a(S'egyptian geometry'
p1078
g2
(g6
S'\x8f\x96\xe4C\x8aV\xd0?'
p1079
tp1080
Rp1081
tp1082
a(S'problem book'
p1083
g2
(g6
S'\xceCP{>V\xd0?'
p1084
tp1085
Rp1086
tp1087
a(S'chromatic polynomial'
p1088
g2
(g6
S'\xa6Q\x9b\xcf\\S\xd0?'
p1089
tp1090
Rp1091
tp1092
a(S'list of computability and complexity topics'
p1093
g2
(g6
S'\xac\xbc\x92\xc9\xa8K\xd0?'
p1094
tp1095
Rp1096
tp1097
a(S'eikonal'
p1098
g2
(g6
S'\x98\x18\xcd\xf7\xf0G\xd0?'
p1099
tp1100
Rp1101
tp1102
a(S'no free lunch in search and optimization'
p1103
g2
(g6
S'\xaaR\xf5\xf5]E\xd0?'
p1104
tp1105
Rp1106
tp1107
a(S'semidefinite programming'
p1108
g2
(g6
S'\xa4\x1ch\x13\x84<\xd0?'
p1109
tp1110
Rp1111
tp1112
a(S'boussinesq approximation (buoyancy)'
p1113
g2
(g6
S'\xc5\xd5\xedo\xb4:\xd0?'
p1114
tp1115
Rp1116
tp1117
a(S'polynomial delay'
p1118
g2
(g6
S'%\xa4\x86\xe7\xb44\xd0?'
p1119
tp1120
Rp1121
tp1122
a(S'wicked problem'
p1123
g2
(g6
S'\xbd\xa7\xd9\xb7K/\xd0?'
p1124
tp1125
Rp1126
tp1127
a(S"muller's method"
p1128
g2
(g6
S'\x1a\xb8\xb8PD(\xd0?'
p1129
tp1130
Rp1131
tp1132
a(S'constructive function theory'
p1133
g2
(g6
S"\xcd\xd1\x0f\x11T'\xd0?"
p1134
tp1135
Rp1136
tp1137
a(S'schwartz\xe2\x80\x93zippel lemma'
p1138
g2
(g6
S'6\xb5pD\xfc%\xd0?'
p1139
tp1140
Rp1141
tp1142
a(S"baker's technique"
p1143
g2
(g6
S'\xef\x1br\xbaZ%\xd0?'
p1144
tp1145
Rp1146
tp1147
a(S'rayleigh\xe2\x80\x93ritz method'
p1148
g2
(g6
S'\xd6h\xe2\x1a\xf6\x17\xd0?'
p1149
tp1150
Rp1151
tp1152
a(S'fulkerson prize'
p1153
g2
(g6
S'z\xd8\xf4\xe8Z\x15\xd0?'
p1154
tp1155
Rp1156
tp1157
a(S'karp\xe2\x80\x93lipton theorem'
p1158
g2
(g6
S'\x7f\x7f\xce\xf8\x85\x12\xd0?'
p1159
tp1160
Rp1161
tp1162
a(S'mathematical problem'
p1163
g2
(g6
S'\t\xf2\xfa\xf0\xee\x11\xd0?'
p1164
tp1165
Rp1166
tp1167
a(S'bidimensionality'
p1168
g2
(g6
S'`\xb7pc>\x11\xd0?'
p1169
tp1170
Rp1171
tp1172
a(S'slowly varying envelope approximation'
p1173
g2
(g6
S'U-\x1f0\x1b\x0f\xd0?'
p1174
tp1175
Rp1176
tp1177
a(S's2p (complexity)'
p1178
g2
(g6
S'\xf2\xb37s\x1d\x0b\xd0?'
p1179
tp1180
Rp1181
tp1182
a(S'arithmetic circuit complexity'
p1183
g2
(g6
S'\xd9(\xff\x98\x81\x02\xd0?'
p1184
tp1185
Rp1186
tp1187
a(S'continuous slowing down approximation range'
p1188
g2
(g6
S'\\3\x18Dd\x00\xd0?'
p1189
tp1190
Rp1191
tp1192
a(S'factor theorem'
p1193
g2
(g6
S'\xeb\xb1\xa1\xde\x1a\xf0\xcf?'
p1194
tp1195
Rp1196
tp1197
a(S'lanczos approximation'
p1198
g2
(g6
S'\x84~\xca}\xdc\xd5\xcf?'
p1199
tp1200
Rp1201
tp1202
a(S'low (complexity)'
p1203
g2
(g6
S'\xd8\x8fi$\x15\xd5\xcf?'
p1204
tp1205
Rp1206
tp1207
a(S'chow\xe2\x80\x93liu tree'
p1208
g2
(g6
S'g\x84Re\xe8\xcf\xcf?'
p1209
tp1210
Rp1211
tp1212
a(S'padding argument'
p1213
g2
(g6
S'q\xfd\x00\x1b\xe8\xc8\xcf?'
p1214
tp1215
Rp1216
tp1217
a(S'balancing domain decomposition method'
p1218
g2
(g6
S'\x7f\xc8\xc5\xb4\xb9\xb7\xcf?'
p1219
tp1220
Rp1221
tp1222
a(S'millennium prize problems'
p1223
g2
(g6
S'`\xeb\xd9M\xb5\xb5\xcf?'
p1224
tp1225
Rp1226
tp1227
a(S'assignment problem'
p1228
g2
(g6
S'\t\xa0\x91|v\xa7\xcf?'
p1229
tp1230
Rp1231
tp1232
a(S'pseudo-boolean function'
p1233
g2
(g6
S'\x9b\xe3\xe9\xc4\x15\xa7\xcf?'
p1234
tp1235
Rp1236
tp1237
a(S'bobyqa'
p1238
g2
(g6
S'\x91\x8b\xa1\xb3\xde\xa1\xcf?'
p1239
tp1240
Rp1241
tp1242
a(S'equioscillation theorem'
p1243
g2
(g6
S'\xc1\xad\xb4\x15\xd7\x9a\xcf?'
p1244
tp1245
Rp1246
tp1247
a(S'mark jerrum'
p1248
g2
(g6
S'\x84E\xeb\x89m\x92\xcf?'
p1249
tp1250
Rp1251
tp1252
a(S'alpha max plus beta min algorithm'
p1253
g2
(g6
S'#M\xc6\x0fo\x84\xcf?'
p1254
tp1255
Rp1256
tp1257
a(S'asr-complete'
p1258
g2
(g6
S'\xb8\xa2\xb9Fwy\xcf?'
p1259
tp1260
Rp1261
tp1262
a(S'structural complexity theory'
p1263
g2
(g6
S'H}\xc5|{q\xcf?'
p1264
tp1265
Rp1266
tp1267
a(S'berman\xe2\x80\x93hartmanis conjecture'
p1268
g2
(g6
S'\x02\xe4a\xc0\xfb^\xcf?'
p1269
tp1270
Rp1271
tp1272
a(S'cutting stock problem'
p1273
g2
(g6
S'\xdb\x07\x94\x04?X\xcf?'
p1274
tp1275
Rp1276
tp1277
a(S'analysis of algorithms'
p1278
g2
(g6
S'\xd4f#m\x83V\xcf?'
p1279
tp1280
Rp1281
tp1282
a(S'small-angle approximation'
p1283
g2
(g6
S'\x1f\xaeI\x0eFV\xcf?'
p1284
tp1285
Rp1286
tp1287
a(S'genetic algorithm'
p1288
g2
(g6
S'Ae\x18\xcb.V\xcf?'
p1289
tp1290
Rp1291
tp1292
a(S"toda's theorem"
p1293
g2
(g6
S'\xdc\xb0\x0ec\x02P\xcf?'
p1294
tp1295
Rp1296
tp1297
a(S'branch and bound'
p1298
g2
(g6
S'\x02\xc0\xb3\xb9\x8aN\xcf?'
p1299
tp1300
Rp1301
tp1302
a(S'open problem'
p1303
g2
(g6
S'2\xc5{\t\xceL\xcf?'
p1304
tp1305
Rp1306
tp1307
a(S'computational social choice'
p1308
g2
(g6
S'\xc3[\x8d)\x1eI\xcf?'
p1309
tp1310
Rp1311
tp1312
a(S'polynomial'
p1313
g2
(g6
S'\x03O\xbe\xbf!C\xcf?'
p1314
tp1315
Rp1316
tp1317
a(S'problem frames approach'
p1318
g2
(g6
S"'\xa9B/\t@\xcf?"
p1319
tp1320
Rp1321
tp1322
a(S'network simplex algorithm'
p1323
g2
(g6
S'\xe0\xbd\x94\xfc\xaf<\xcf?'
p1324
tp1325
Rp1326
tp1327
a(S'integer factorization'
p1328
g2
(g6
S"\xf8\xe3\xf4=\xc7'\xcf?"
p1329
tp1330
Rp1331
tp1332
a(S'covering problems'
p1333
g2
(g6
S'\x83\x82Y\xbe\xe5&\xcf?'
p1334
tp1335
Rp1336
tp1337
a(S'norair arakelian'
p1338
g2
(g6
S"Ef\xda\xce'$\xcf?"
p1339
tp1340
Rp1341
tp1342
a(S"savitch's theorem"
p1343
g2
(g6
S'\x01\xdd\x8e\xee;\x1d\xcf?'
p1344
tp1345
Rp1346
tp1347
a(S'coopmans approximation'
p1348
g2
(g6
S'H\xd7{\xadt\x1c\xcf?'
p1349
tp1350
Rp1351
tp1352
a(S'beta plane'
p1353
g2
(g6
S'_T2#\xb0\x17\xcf?'
p1354
tp1355
Rp1356
tp1357
a(S"schaefer's dichotomy theorem"
p1358
g2
(g6
S'[\x9d&>\x19\x13\xcf?'
p1359
tp1360
Rp1361
tp1362
a(S'residual (numerical analysis)'
p1363
g2
(g6
S'\x8b\xa9o\xf3\xe5\x12\xcf?'
p1364
tp1365
Rp1366
tp1367
a(S'learning with errors'
p1368
g2
(g6
S'\x870\xdaa\xa6\x03\xcf?'
p1369
tp1370
Rp1371
tp1372
a(S'p/poly'
p1373
g2
(g6
S'\x1d?\xc6s\x02\xf5\xce?'
p1374
tp1375
Rp1376
tp1377
a(S'closest string'
p1378
g2
(g6
S'\xab\xe5\x85\xb6l\xeb\xce?'
p1379
tp1380
Rp1381
tp1382
a(S"simon's problem"
p1383
g2
(g6
S'\x10#\xf5l\xb6\xd7\xce?'
p1384
tp1385
Rp1386
tp1387
a(S'job shop scheduling'
p1388
g2
(g6
S'\x97\x1a~\xa0\xe9\xd6\xce?'
p1389
tp1390
Rp1391
tp1392
a(S'nl-complete'
p1393
g2
(g6
S'Tq\x0fy\xc2\xd6\xce?'
p1394
tp1395
Rp1396
tp1397
a(S'randomized algorithm'
p1398
g2
(g6
S'\xde;\x86h(\xd6\xce?'
p1399
tp1400
Rp1401
tp1402
a(S'zero order'
p1403
g2
(g6
S'x\xa3\xc5Du\xd4\xce?'
p1404
tp1405
Rp1406
tp1407
a(S'maximum common induced subgraph'
p1408
g2
(g6
S'\x8a\x98;\xa14\xc3\xce?'
p1409
tp1410
Rp1411
tp1412
a(S'how to solve it'
p1413
g2
(g6
S'\x82\rf\xee\xdd\xa5\xce?'
p1414
tp1415
Rp1416
tp1417
a(S'true quantified boolean formula'
p1418
g2
(g6
S'\xed(\xf0\x18O\x9b\xce?'
p1419
tp1420
Rp1421
tp1422
a(S'problem management'
p1423
g2
(g6
S'\x7f\xb5\xf8\xda8\x94\xce?'
p1424
tp1425
Rp1426
tp1427
a(S'barrett reduction'
p1428
g2
(g6
S':\xc2\xec)\x02~\xce?'
p1429
tp1430
Rp1431
tp1432
a(S'euclidean shortest path'
p1433
g2
(g6
S'.\\\xba\x90\xa8t\xce?'
p1434
tp1435
Rp1436
tp1437
a(S'farthest-first traversal'
p1438
g2
(g6
S'\xec\xf9y\xa4Zt\xce?'
p1439
tp1440
Rp1441
tp1442
a(S'data stream clustering'
p1443
g2
(g6
S'\xf2eG&\tp\xce?'
p1444
tp1445
Rp1446
tp1447
a(S'hidden subgroup problem'
p1448
g2
(g6
S'\xa6\xeem\xc5Pg\xce?'
p1449
tp1450
Rp1451
tp1452
a(S'boolean satisfiability algorithm heuristics'
p1453
g2
(g6
S'j"\xcc\x92\xa5d\xce?'
p1454
tp1455
Rp1456
tp1457
a(S'semiclassical physics'
p1458
g2
(g6
S'\x86\x1d\no-b\xce?'
p1459
tp1460
Rp1461
tp1462
a(S'graduated optimization'
p1463
g2
(g6
S'\xa8\x86\xf8l=]\xce?'
p1464
tp1465
Rp1466
tp1467
a(S'vijay vazirani'
p1468
g2
(g6
S'E\x86\xf6r\xc2W\xce?'
p1469
tp1470
Rp1471
tp1472
a(S'parity p'
p1473
g2
(g6
S'\xca\xaf).\x9cR\xce?'
p1474
tp1475
Rp1476
tp1477
a(S'information-based complexity'
p1478
g2
(g6
S'\xe8\xf6\xdas\x1dQ\xce?'
p1479
tp1480
Rp1481
tp1482
a(S'column generation'
p1483
g2
(g6
S'p\xed;+\xb7D\xce?'
p1484
tp1485
Rp1486
tp1487
a(S'derjaguin approximation'
p1488
g2
(g6
S'\xadZ(\xee\xc56\xce?'
p1489
tp1490
Rp1491
tp1492
a(S'eqp (complexity)'
p1493
g2
(g6
S'n\xb5\x87\xed\x16\x1c\xce?'
p1494
tp1495
Rp1496
tp1497
a(S'improbability factor'
p1498
g2
(g6
S'\xd8Zl\xbd9\x1b\xce?'
p1499
tp1500
Rp1501
tp1502
a(S'wiener connector'
p1503
g2
(g6
S'\x17\xb67g\x88\x17\xce?'
p1504
tp1505
Rp1506
tp1507
a(S'bounded expansion'
p1508
g2
(g6
S'1[n\r\x93\x05\xce?'
p1509
tp1510
Rp1511
tp1512
a.