(lp0
(S'archive'
p1
cnumpy.core.multiarray
scalar
p2
(cnumpy
dtype
p3
(S'f8'
p4
I0
I1
tp5
Rp6
(I3
S'<'
p7
NNNI-1
I-1
I0
tp8
bS'\x01\x00\x00\x00\x00\x00\xf0?'
p9
tp10
Rp11
tp12
a(S'list of national archives'
p13
g2
(g6
S'\xf4TZ\xb4\x13a\xeb?'
p14
tp15
Rp16
tp17
a(S'list of archives in the united states'
p18
g2
(g6
S'\x01\xfa\xec+=F\xeb?'
p19
tp20
Rp21
tp22
a(S'list of archives'
p23
g2
(g6
S'7\xcc\x14\xb9^\x17\xeb?'
p24
tp25
Rp26
tp27
a(S'state archives (belgium)'
p28
g2
(g6
S'+\x12|\xf1\x1cQ\xea?'
p29
tp30
Rp31
tp32
a(S'national archives'
p33
g2
(g6
S'\x03\xc0\xe0\xfc\xa1\x85\xe9?'
p34
tp35
Rp36
tp37
a(S'list of archives in france'
p38
g2
(g6
S'\xa0\xe1YjO\xdc\xe8?'
p39
tp40
Rp41
tp42
a(S'list of archives in the united kingdom'
p43
g2
(g6
S'\x80\x13\x9e\x89\x10.\xe8?'
p44
tp45
Rp46
tp47
a(S'list of archives in australia'
p48
g2
(g6
S'\xfd\x16\xfa\xdd\\\xb8\xe7?'
p49
tp50
Rp51
tp52
a(S'national archives of zimbabwe'
p53
g2
(g6
S'\xea\x80\xee\x9b@E\xe7?'
p54
tp55
Rp56
tp57
a(S'danish national business archives'
p58
g2
(g6
S'\x0b\x0b\x8e\x15\x00-\xe7?'
p59
tp60
Rp61
tp62
a(S'archives wales'
p63
g2
(g6
S'O\xed\xae!\x1d\x1b\xe7?'
p64
tp65
Rp66
tp67
a(S'national archives and records service of south africa'
p68
g2
(g6
S' \x8d\xe3\xa3E\xfb\xe6?'
p69
tp70
Rp71
tp72
a(S'list of archives in india'
p73
g2
(g6
S'Z\xf0\xc16\xb0\xb4\xe6?'
p74
tp75
Rp76
tp77
a(S'state records authority of new south wales'
p78
g2
(g6
S'*hg\x994\x99\xe6?'
p79
tp80
Rp81
tp82
a(S'national archives of australia'
p83
g2
(g6
S" \xcd'\xd2\x16}\xe6?"
p84
tp85
Rp86
tp87
a(S'list of archives in canada'
p88
g2
(g6
S'\xc5\xe9\xf2<hj\xe6?'
p89
tp90
Rp91
tp92
a(S'archives nationales (france)'
p93
g2
(g6
S'\x7fE4\x1e\xa4d\xe6?'
p94
tp95
Rp96
tp97
a(S'state archives administration'
p98
g2
(g6
S'g\x82\xe1\xc6\xd8,\xe6?'
p99
tp100
Rp101
tp102
a(S'the national archives (united kingdom)'
p103
g2
(g6
S'f,Dy\xd1\x99\xe5?'
p104
tp105
Rp106
tp107
a(S'national archives of sweden'
p108
g2
(g6
S'fVNp\xe9{\xe5?'
p109
tp110
Rp111
tp112
a(S'national archives of belgium'
p113
g2
(g6
S'\xd7J\xf6F\n^\xe5?'
p114
tp115
Rp116
tp117
a(S'albanian national archives'
p118
g2
(g6
S'u\xe1W\xbd\x7fN\xe5?'
p119
tp120
Rp121
tp122
a(S'state archives of north carolina'
p123
g2
(g6
S'\xda\x14\xbbJ\x1dF\xe5?'
p124
tp125
Rp126
tp127
a(S'list of archives in ukraine'
p128
g2
(g6
S'\x1b+#\xf0\x8b;\xe5?'
p129
tp130
Rp131
tp132
a(S'national archives building'
p133
g2
(g6
S'C\xf7\x02\xc8r\x15\xe5?'
p134
tp135
Rp136
tp137
a(S'archives in china'
p138
g2
(g6
S'\xf13\xcc:\xb5\x10\xe5?'
p139
tp140
Rp141
tp142
a(S'national archival services of norway'
p143
g2
(g6
S'23\xba)\x03\x0c\xe5?'
p144
tp145
Rp146
tp147
a(S'danish state archives'
p148
g2
(g6
S'\x06\xf2\xd1\xc77\xf7\xe4?'
p149
tp150
Rp151
tp152
a(S'pennsylvania state archives'
p153
g2
(g6
S'\x90 \x8b\x96\xb7\xd9\xe4?'
p154
tp155
Rp156
tp157
a(S'list of archives in denmark'
p158
g2
(g6
S'\xcdD<\xa0N\xd7\xe4?'
p159
tp160
Rp161
tp162
a(S'list of archives in germany'
p163
g2
(g6
S'\xb1\x9f\\S\xbe{\xe4?'
p164
tp165
Rp166
tp167
a(S'military archives of sweden'
p168
g2
(g6
S'\xb0h\x11^fw\xe4?'
p169
tp170
Rp171
tp172
a(S'national archives and records administration'
p173
g2
(g6
S'\xec\x98dplr\xe4?'
p174
tp175
Rp176
tp177
a(S'german federal archives'
p178
g2
(g6
S'tA\x91P\x1a`\xe4?'
p179
tp180
Rp181
tp182
a(S'regional state archives in trondheim'
p183
g2
(g6
S'\x0eJ\x0f\xb2m0\xe4?'
p184
tp185
Rp186
tp187
a(S'national archives of costa rica'
p188
g2
(g6
S'p\x07\x95Md\xf3\xe3?'
p189
tp190
Rp191
tp192
a(S'university of manitoba archives & special collections'
p193
g2
(g6
S'|C\x11\xd4)\xd2\xe3?'
p194
tp195
Rp196
tp197
a(S'history of archives of lithuania'
p198
g2
(g6
S'\xf1\x94\xd3\xdb\x8e\xcf\xe3?'
p199
tp200
Rp201
tp202
a(S'narodowe archiwum cyfrowe'
p203
g2
(g6
S'\xdb>!\xd2\xef\xc7\xe3?'
p204
tp205
Rp206
tp207
a(S'provincial archives'
p208
g2
(g6
S'q\xf3\xfb\xb2~\xbe\xe3?'
p209
tp210
Rp211
tp212
a(S'national archives of japan'
p213
g2
(g6
S'u\xdd\x80\xf8`\xb5\xe3?'
p214
tp215
Rp216
tp217
a(S'national archives of the philippines'
p218
g2
(g6
S'\xfd\x80\xcb\x91x\xa3\xe3?'
p219
tp220
Rp221
tp222
a(S'archives for london'
p223
g2
(g6
S')Xv\x0fa\xa1\xe3?'
p224
tp225
Rp226
tp227
a(S'new york state archives'
p228
g2
(g6
S'\xcfO\xb7\xc9\xb1\x86\xe3?'
p229
tp230
Rp231
tp232
a(S'archives of yugoslavia'
p233
g2
(g6
S'\xce\x07\x07P\\x\xe3?'
p234
tp235
Rp236
tp237
a(S'national archives of norway'
p238
g2
(g6
S'0\xc2\xf7\xe6qs\xe3?'
p239
tp240
Rp241
tp242
a(S'national archives of romania'
p243
g2
(g6
S'\x0c\xe6\xa7E\xaen\xe3?'
p244
tp245
Rp246
tp247
a(S'list of archives in south africa'
p248
g2
(g6
S'\x8b\xf4\xe5ni^\xe3?'
p249
tp250
Rp251
tp252
a(S'archives of american art'
p253
g2
(g6
S']\x01\x99\x03cL\xe3?'
p254
tp255
Rp256
tp257
a(S'national archives of thailand'
p258
g2
(g6
S'\xcf\xb6\xb1\x00\x10?\xe3?'
p259
tp260
Rp261
tp262
a(S'national archives of malaysia'
p263
g2
(g6
S'R(\x87\xdc\x800\xe3?'
p264
tp265
Rp266
tp267
a(S'list of archives in finland'
p268
g2
(g6
S'\x04\x84xG3\x14\xe3?'
p269
tp270
Rp271
tp272
a(S'archives hub'
p273
g2
(g6
S'\xeb6\xe9X-\x13\xe3?'
p274
tp275
Rp276
tp277
a(S'national archive department of azerbaijan'
p278
g2
(g6
S'G\xc5p\xbc\xcd\x10\xe3?'
p279
tp280
Rp281
tp282
a(S'archives department of seine-maritime'
p283
g2
(g6
S'\xdd\\ZWz\n\xe3?'
p284
tp285
Rp286
tp287
a(S'archives new zealand'
p288
g2
(g6
S'\x15\x0e\x0c.\t\xd5\xe2?'
p289
tp290
Rp291
tp292
a(S'national archives (czech republic)'
p293
g2
(g6
S'9\xf5\x0f\x1b\x18\xc0\xe2?'
p294
tp295
Rp296
tp297
a(S'georgia archives'
p298
g2
(g6
S'\xc6\x9cm\x84s\xa0\xe2?'
p299
tp300
Rp301
tp302
a(S'memory of the world register \xe2\x80\x93 africa'
p303
g2
(g6
S'\xa6\xa9#\x1c\x1d\x93\xe2?'
p304
tp305
Rp306
tp307
a(S'list of archives in italy'
p308
g2
(g6
S"'}+\xe5u\x85\xe2?"
p309
tp310
Rp311
tp312
a(S'department of national archives'
p313
g2
(g6
S'\x827;\x1b!t\xe2?'
p314
tp315
Rp316
tp317
a(S'amsterdam city archives'
p318
g2
(g6
S'\xdb0\x16\x81#o\xe2?'
p319
tp320
Rp321
tp322
a(S'national archives of cameroon'
p323
g2
(g6
S'>,EFge\xe2?'
p324
tp325
Rp326
tp327
a(S'list of u.s. state libraries and archives'
p328
g2
(g6
S'w$\xcc:q`\xe2?'
p329
tp330
Rp331
tp332
a(S'seattle municipal archives'
p333
g2
(g6
S'\n#\xe7\x9f>C\xe2?'
p334
tp335
Rp336
tp337
a(S'national archives of spain'
p338
g2
(g6
S'\xe5\x0f\n^\xd1>\xe2?'
p339
tp340
Rp341
tp342
a(S'national archives of malta'
p343
g2
(g6
S'\x95\xee\xa6\x98K2\xe2?'
p344
tp345
Rp346
tp347
a(S'budapest city archives'
p348
g2
(g6
S'\\\xba[c\xef/\xe2?'
p349
tp350
Rp351
tp352
a(S'broadcasting archives at the university of maryland'
p353
g2
(g6
S'\x05+:\\\x0e#\xe2?'
p354
tp355
Rp356
tp357
a(S'douglas brymner'
p358
g2
(g6
S'\x82\xd6\x08W\xfd\x0b\xe2?'
p359
tp360
Rp361
tp362
a(S'national archives of trinidad and tobago'
p363
g2
(g6
S'\xbf\xaf\x13r\x1d\xf6\xe1?'
p364
tp365
Rp366
tp367
a(S'federal archival agency (russia)'
p368
g2
(g6
S'\xfa?\x96\xa8\xfc\xf5\xe1?'
p369
tp370
Rp371
tp372
a(S'provincial archives of saskatchewan'
p373
g2
(g6
S'\xfc\xd8\xbfci\xee\xe1?'
p374
tp375
Rp376
tp377
a(S'second historical archives of china'
p378
g2
(g6
S'\xaa\x05P\x84\xc8\xec\xe1?'
p379
tp380
Rp381
tp382
a(S'office of the chief archivist of lithuania'
p383
g2
(g6
S'm<\xb1a\x05\xe2\xe1?'
p384
tp385
Rp386
tp387
a(S'national archives of estonia'
p388
g2
(g6
S'\x01\xa2%\xadt\xe0\xe1?'
p389
tp390
Rp391
tp392
a(S'croatian state archives'
p393
g2
(g6
S'2Fg7\xee\xcd\xe1?'
p394
tp395
Rp396
tp397
a(S'archival research'
p398
g2
(g6
S'\x04\x84`B\x03\xc6\xe1?'
p399
tp400
Rp401
tp402
a(S'electronic records archives'
p403
g2
(g6
S'\xe7\xaf\xb5yK\xb6\xe1?'
p404
tp405
Rp406
tp407
a(S'washington state digital archives'
p408
g2
(g6
S'\xcb\xaa{\x19^\xad\xe1?'
p409
tp410
Rp411
tp412
a(S'archive (disambiguation)'
p413
g2
(g6
S'\xaa@\xed:}\x9f\xe1?'
p414
tp415
Rp416
tp417
a(S'national archives and library of ethiopia'
p418
g2
(g6
S'\x11\\\xe5\x1eUv\xe1?'
p419
tp420
Rp421
tp422
a(S'national archives of guinea'
p423
g2
(g6
S'\x11\xe7{\xc5\xcf7\xe1?'
p424
tp425
Rp426
tp427
a(S'british columbia archives'
p428
g2
(g6
S'r\xc9A\x1bC\x1c\xe1?'
p429
tp430
Rp431
tp432
a(S'danish national archives'
p433
g2
(g6
S'\xed\xda\xb5\x04\xfd\x04\xe1?'
p434
tp435
Rp436
tp437
a(S'westminster archives centre'
p438
g2
(g6
S'\x1c\xa6s\xaf\xaa\xf7\xe0?'
p439
tp440
Rp441
tp442
a(S'state archive service of ukraine'
p443
g2
(g6
S'\x88\x92*\n\x94\xe7\xe0?'
p444
tp445
Rp446
tp447
a(S'regional state archives in oslo'
p448
g2
(g6
S'S\x98b\xa4\xfc\xd9\xe0?'
p449
tp450
Rp451
tp452
a(S'israel state archives'
p453
g2
(g6
S'\x17Dzu\xdf\xd4\xe0?'
p454
tp455
Rp456
tp457
a(S'vatican secret archives'
p458
g2
(g6
S'\xde\xb4\xd7\xfb\xee\xb7\xe0?'
p459
tp460
Rp461
tp462
a(S'prussian privy state archives'
p463
g2
(g6
S'55\xdf)\x9b\xa8\xe0?'
p464
tp465
Rp466
tp467
a(S'film archive forum'
p468
g2
(g6
S'6\x1b\x93;&\x98\xe0?'
p469
tp470
Rp471
tp472
a(S'timeline of archives in new south wales'
p473
g2
(g6
S'0\xd5\rN\x04\x97\xe0?'
p474
tp475
Rp476
tp477
a(S'baltimore city archives'
p478
g2
(g6
S'\x03],\x18\x98\x8c\xe0?'
p479
tp480
Rp481
tp482
a(S'national archives of india'
p483
g2
(g6
S'1\xaa\xeb^\xd5\x8b\xe0?'
p484
tp485
Rp486
tp487
a(S'list of archives in the czech republic'
p488
g2
(g6
S'\x94%\x15\xc9M\x86\xe0?'
p489
tp490
Rp491
tp492
a(S'archives and records association'
p493
g2
(g6
S'h\xfa\x0e7\xfex\xe0?'
p494
tp495
Rp496
tp497
a(S'international institute of social history'
p498
g2
(g6
S'0\xc7\xa0tMi\xe0?'
p499
tp500
Rp501
tp502
a(S'list of archivists'
p503
g2
(g6
S'\x01N\x9d\xdf\xe6e\xe0?'
p504
tp505
Rp506
tp507
a(S'state paper'
p508
g2
(g6
S'5k9\x11\xb38\xe0?'
p509
tp510
Rp511
tp512
a(S'state archives of montenegro'
p513
g2
(g6
S'\xac:\x9bMq3\xe0?'
p514
tp515
Rp516
tp517
a(S'national archives of ireland'
p518
g2
(g6
S'U\xba\xa74\xc7/\xe0?'
p519
tp520
Rp521
tp522
a(S'national archives of hungary'
p523
g2
(g6
S'\xb9\xeb\xda\xe4\x11!\xe0?'
p524
tp525
Rp526
tp527
a(S'june l. mazer lesbian archives'
p528
g2
(g6
S'zM*\x13A\x1c\xe0?'
p529
tp530
Rp531
tp532
a(S'city of toronto archives'
p533
g2
(g6
S'\x87w\xf5.!\x17\xe0?'
p534
tp535
Rp536
tp537
a(S'national archives of georgia'
p538
g2
(g6
S'$e6\x1c\x12\x0e\xe0?'
p539
tp540
Rp541
tp542
a(S'provincial archives of funen'
p543
g2
(g6
S'mX\xf7.y\x0c\xe0?'
p544
tp545
Rp546
tp547
a(S'prague city archives'
p548
g2
(g6
S'\xb7\xe8S\x98*\x0b\xe0?'
p549
tp550
Rp551
tp552
a(S'brazilian national archives'
p553
g2
(g6
S'T0\xf9\xe8w\x06\xe0?'
p554
tp555
Rp556
tp557
a(S'one national gay & lesbian archives'
p558
g2
(g6
S'\x90\xa7\x1f\x0cA\x03\xe0?'
p559
tp560
Rp561
tp562
a(S'community archives'
p563
g2
(g6
S'\xb4*Y\xa4\x99\xff\xdf?'
p564
tp565
Rp566
tp567
a(S'archives and records association, ireland'
p568
g2
(g6
S'8bd\x1bX\xef\xdf?'
p569
tp570
Rp571
tp572
a(S'national archives of the faroe islands'
p573
g2
(g6
S'\xe4\x8f\xe0\x9f\x19\xe9\xdf?'
p574
tp575
Rp576
tp577
a(S'state records of south australia'
p578
g2
(g6
S'\x02c\xcfF\x8d\xb4\xdf?'
p579
tp580
Rp581
tp582
a(S'departmental archives of doubs'
p583
g2
(g6
S'W\x86h\x01.\xb2\xdf?'
p584
tp585
Rp586
tp587
a(S'archive of serbia'
p588
g2
(g6
S'\xda\x88\x8c-S\xac\xdf?'
p589
tp590
Rp591
tp592
a(S'royal archives'
p593
g2
(g6
S'\x8d\xb2EP\xfb\xa2\xdf?'
p594
tp595
Rp596
tp597
a(S'national archives of malawi'
p598
g2
(g6
S'!D&\xe0\x80\x86\xdf?'
p599
tp600
Rp601
tp602
a(S'west indies federal archives centre'
p603
g2
(g6
S'h\x96\xa5u\xa4\x81\xdf?'
p604
tp605
Rp606
tp607
a(S'federal archives of switzerland'
p608
g2
(g6
S'\xf3\x80\xdb\xb27z\xdf?'
p609
tp610
Rp611
tp612
a(S'association of canadian archivists'
p613
g2
(g6
S'\xd6O\x113\xbaY\xdf?'
p614
tp615
Rp616
tp617
a(S'state records office of western australia'
p618
g2
(g6
S'\x82\xee?\x10|P\xdf?'
p619
tp620
Rp621
tp622
a(S'abdelkarim badjadja'
p623
g2
(g6
S'i\xd8}\xb9mG\xdf?'
p624
tp625
Rp626
tp627
a(S'prelinger archives'
p628
g2
(g6
S'\x83\x7f!v&8\xdf?'
p629
tp630
Rp631
tp632
a(S'keeper of the archives'
p633
g2
(g6
S'\x1dQ\xe3\x8c+2\xdf?'
p634
tp635
Rp636
tp637
a(S'scottish council on archives'
p638
g2
(g6
S'\xca\xe1d\x0c\x0b\x07\xdf?'
p639
tp640
Rp641
tp642
a(S'law society of upper canada archives'
p643
g2
(g6
S"'M\x1d\xe2@\xfa\xde?"
p644
tp645
Rp646
tp647
a(S'adam jansen'
p648
g2
(g6
S'\x9c\xa8W (\xbd\xde?'
p649
tp650
Rp651
tp652
a(S'memory of the world register \xe2\x80\x93 europe and north america'
p653
g2
(g6
S'\xce\x9c\xe5\x1bH\xaf\xde?'
p654
tp655
Rp656
tp657
a(S'university of brighton design archives'
p658
g2
(g6
S' \x9f \xc4U\x9d\xde?'
p659
tp660
Rp661
tp662
a(S'archival science'
p663
g2
(g6
S'w\xe4\xbd:\xf2\x9a\xde?'
p664
tp665
Rp666
tp667
a(S'nova scotia archives and records management'
p668
g2
(g6
S'\xc4\x95\xb8\xaf\x04\x97\xde?'
p669
tp670
Rp671
tp672
a(S'council of europe archives'
p673
g2
(g6
S'\xc2&\xb5\xdcB\x92\xde?'
p674
tp675
Rp676
tp677
a(S'public archives and records office (prince edward island)'
p678
g2
(g6
S'\x17\xc9S<\x9fM\xde?'
p679
tp680
Rp681
tp682
a(S'maryland state archives'
p683
g2
(g6
S'\\d#*\xf9G\xde?'
p684
tp685
Rp686
tp687
a(S'archives of ontario'
p688
g2
(g6
S'\xba_\xdb\xb7\xe3F\xde?'
p689
tp690
Rp691
tp692
a(S'ukrainian research institute of archival affairs and records management'
p693
g2
(g6
S'-\x08u\xdf\r*\xde?'
p694
tp695
Rp696
tp697
a(S'society of archivists'
p698
g2
(g6
S't\x10Mp\xb9\x17\xde?'
p699
tp700
Rp701
tp702
a(S'australian trade union archives'
p703
g2
(g6
S'\xd3G\xedgU\xf3\xdd?'
p704
tp705
Rp706
tp707
a(S'queensland state archives'
p708
g2
(g6
S'\x03\xc7\x10\xb3\xe5\xe7\xdd?'
p709
tp710
Rp711
tp712
a(S'international federation of film archives'
p713
g2
(g6
S'\xf3\xdaY\xbc\xb7\xe5\xdd?'
p714
tp715
Rp716
tp717
a(S'lancashire archives'
p718
g2
(g6
S'\x98j*\xbf!\xd0\xdd?'
p719
tp720
Rp721
tp722
a(S'lu rees archives'
p723
g2
(g6
S'4\xe1*\xa0\xa4\xc4\xdd?'
p724
tp725
Rp726
tp727
a(S'state archives of naples'
p728
g2
(g6
S'\x904ur\xd4\xb7\xdd?'
p729
tp730
Rp731
tp732
a(S'international council on archives'
p733
g2
(g6
S'\x13)\xc1.$\xb6\xdd?'
p734
tp735
Rp736
tp737
a(S'regional state archives in hamar'
p738
g2
(g6
S'\xb9n\xb9\xf4G\xb3\xdd?'
p739
tp740
Rp741
tp742
a(S'canadian lesbian and gay archives'
p743
g2
(g6
S'#$\xd3\x9bN\x9c\xdd?'
p744
tp745
Rp746
tp747
a(S'william w. jeffries memorial archives'
p748
g2
(g6
S'T\x89\x95\xb4D\x98\xdd?'
p749
tp750
Rp751
tp752
a(S'archive of the president of the russian federation'
p753
g2
(g6
S'\xfa\x87\x1c\xb5fL\xdd?'
p754
tp755
Rp756
tp757
a(S'national archives of singapore'
p758
g2
(g6
S"'\x888\x08RG\xdd?"
p759
tp760
Rp761
tp762
a(S'smithsonian institution archives'
p763
g2
(g6
S'\x1f\x9f\xf3,>3\xdd?'
p764
tp765
Rp766
tp767
a(S'archives of the republic of slovenia'
p768
g2
(g6
S'\xb248D\x1b+\xdd?'
p769
tp770
Rp771
tp772
a(S'kamloops museum and archives'
p773
g2
(g6
S')T\xa1\xf3\x9e\x18\xdd?'
p774
tp775
Rp776
tp777
a(S'regional state archives in kristiansand'
p778
g2
(g6
S'\x8e\x8b1\xdaH\xe0\xdc?'
p779
tp780
Rp781
tp782
a(S'list of archives in belgium'
p783
g2
(g6
S'\xb2\xc3\xd3\xa5\xd1\xcc\xdc?'
p784
tp785
Rp786
tp787
a(S'saskatchewan council for archives and archivists'
p788
g2
(g6
S'\xc8\xda1\xe6?\xc7\xdc?'
p789
tp790
Rp791
tp792
a(S'new york city municipal archives'
p793
g2
(g6
S'\xfd5A\xda\xa7\xbb\xdc?'
p794
tp795
Rp796
tp797
a(S'association for manitoba archives'
p798
g2
(g6
S'\x1d>\xb03F\xa6\xdc?'
p799
tp800
Rp801
tp802
a(S'college archives (smith college)'
p803
g2
(g6
S'\x1bf*R\xec\xa0\xdc?'
p804
tp805
Rp806
tp807
a(S'national archives of haiti'
p808
g2
(g6
S'\xd6\xb0t\xdcl\x86\xdc?'
p809
tp810
Rp811
tp812
a(S'british records association'
p813
g2
(g6
S'`\xacVb\xa1\x81\xdc?'
p814
tp815
Rp816
tp817
a(S'national archives of indonesia'
p818
g2
(g6
S'\x94\xc5Xi\xabm\xdc?'
p819
tp820
Rp821
tp822
a(S'state archive of the republic of macedonia'
p823
g2
(g6
S'\xec_\xb6\x14\x8f_\xdc?'
p824
tp825
Rp826
tp827
a(S'seychelles national archives'
p828
g2
(g6
S'\xd0\xc45)\x1aP\xdc?'
p829
tp830
Rp831
tp832
a(S'slottsarkivet'
p833
g2
(g6
S'b\x08\x17\xea\xf9B\xdc?'
p834
tp835
Rp836
tp837
a(S'archives of republika srpska'
p838
g2
(g6
S'\xfcV\\\xc1x7\xdc?'
p839
tp840
Rp841
tp842
a(S'list of archives in the netherlands'
p843
g2
(g6
S'\x91\xcc\r\x0b\x0b\xf3\xdb?'
p844
tp845
Rp846
tp847
a(S'national archives of guyana'
p848
g2
(g6
S'<\xb9\xea\xbf\x12\xf2\xdb?'
p849
tp850
Rp851
tp852
a(S'sergio pagano'
p853
g2
(g6
S'\xf6m\x9d\xc6\x83\xd0\xdb?'
p854
tp855
Rp856
tp857
a(S'shelley sweeney (archivist)'
p858
g2
(g6
S'\x9b\xe2L\xca\x86\xca\xdb?'
p859
tp860
Rp861
tp862
a(S'list of archives in russia'
p863
g2
(g6
S'\xbb\xfe\xfc\xf9\xbe\xc8\xdb?'
p864
tp865
Rp866
tp867
a(S'nancy lenoil'
p868
g2
(g6
S'\xae\x8d\x1d\xd9\xe6\xc2\xdb?'
p869
tp870
Rp871
tp872
a(S'john taylor (archivist)'
p873
g2
(g6
S'\xd2\xc9q\x1e\xb8\xb7\xdb?'
p874
tp875
Rp876
tp877
a(S'new york university archives'
p878
g2
(g6
S'\x94z\x91}G\xb0\xdb?'
p879
tp880
Rp881
tp882
a(S'national archives of iceland'
p883
g2
(g6
S'\x99\xae_<)\xa2\xdb?'
p884
tp885
Rp886
tp887
a(S'keeper of the royal archives'
p888
g2
(g6
S'\x1f\xc6\xbbx \x99\xdb?'
p889
tp890
Rp891
tp892
a(S'mabel deutrich'
p893
g2
(g6
S'\xd7\xe1>\x7f\xec\x93\xdb?'
p894
tp895
Rp896
tp897
a(S'art historical photo archives'
p898
g2
(g6
S',\xe9\xb5\x95\xf0\x91\xdb?'
p899
tp900
Rp901
tp902
a(S'lesbian herstory archives'
p903
g2
(g6
S'\xcd\x88Y\x10\x7f\x88\xdb?'
p904
tp905
Rp906
tp907
a(S'north west film archive'
p908
g2
(g6
S'NFIf\xaa\x86\xdb?'
p909
tp910
Rp911
tp912
a(S'lists of film archives'
p913
g2
(g6
S'\xac\xdbzFA\x83\xdb?'
p914
tp915
Rp916
tp917
a(S'mississippi department of archives and history'
p918
g2
(g6
S'\xd0\x9d\x9b]UY\xdb?'
p919
tp920
Rp921
tp922
a(S'kaarlo blomstedt'
p923
g2
(g6
S'v"\xe8\xbcWT\xdb?'
p924
tp925
Rp926
tp927
a(S'roman historical institutes'
p928
g2
(g6
S'\xd2\xb9gh\x8fF\xdb?'
p929
tp930
Rp931
tp932
a(S'duncan cameron (photographer)'
p933
g2
(g6
S'+Q\xcb/vC\xdb?'
p934
tp935
Rp936
tp937
a(S'ottoman archives'
p938
g2
(g6
S'\xa8\xb8\xf4\xeby;\xdb?'
p939
tp940
Rp941
tp942
a(S'the transgender archives at the university of victoria'
p943
g2
(g6
S'?b+T*5\xdb?'
p944
tp945
Rp946
tp947
a(S'archives of pathology & laboratory medicine'
p948
g2
(g6
S'\x0b\xf7\x97\xd6\x1c0\xdb?'
p949
tp950
Rp951
tp952
a(S'national archives of scotland'
p953
g2
(g6
S'nqEy\x120\xdb?'
p954
tp955
Rp956
tp957
a(S'somerset archives and local studies'
p958
g2
(g6
S'UO]\xd0%\xfe\xda?'
p959
tp960
Rp961
tp962
a(S'isad(g)'
p963
g2
(g6
S'\x1fi\x0e\n\xb1\xe4\xda?'
p964
tp965
Rp966
tp967
a(S'wolfson archives'
p968
g2
(g6
S'\xe0\xca[9\xcb\xd9\xda?'
p969
tp970
Rp971
tp972
a(S'terry eastwood'
p973
g2
(g6
S'5h\xa5\n\x85\xcc\xda?'
p974
tp975
Rp976
tp977
a(S'elizabeth heaps'
p978
g2
(g6
S'\x8e]\xf7\xe2\xd5\xbe\xda?'
p979
tp980
Rp981
tp982
a(S'provincial archives of alberta'
p983
g2
(g6
S'\xb4C\x01\xfb\x9d\xbe\xda?'
p984
tp985
Rp986
tp987
a(S'community archives wales'
p988
g2
(g6
S'\xb5\xe5y\x88\xb4\xb4\xda?'
p989
tp990
Rp991
tp992
a(S'national personnel records center'
p993
g2
(g6
S'>\x13^\x105\xae\xda?'
p994
tp995
Rp996
tp997
a(S'central zionist archives'
p998
g2
(g6
S'\xc5\x88\xa9!\x8f\xa6\xda?'
p999
tp1000
Rp1001
tp1002
a(S'australian series system'
p1003
g2
(g6
S',\xa9\xf1\x08\xbb\xa1\xda?'
p1004
tp1005
Rp1006
tp1007
a(S'vester all\xc3\xa9 12'
p1008
g2
(g6
S'\x0e\x90\xb8>\xc7\x9c\xda?'
p1009
tp1010
Rp1011
tp1012
a(S'rajasthan state archives'
p1013
g2
(g6
S'\xad\x82\xdbPq\x9a\xda?'
p1014
tp1015
Rp1016
tp1017
a(S'archives of the university of glasgow'
p1018
g2
(g6
S'a\xd6\xac\xf3\x85\x96\xda?'
p1019
tp1020
Rp1021
tp1022
a(S'the s\xc3\xa1mi archives'
p1023
g2
(g6
S'6p\xf4jK~\xda?'
p1024
tp1025
Rp1026
tp1027
a(S'robert m. warner'
p1028
g2
(g6
S'\xc98%\x1c\xc2h\xda?'
p1029
tp1030
Rp1031
tp1032
a(S'wolverhampton archives and local studies'
p1033
g2
(g6
S'\xb2\xf1\x80O\xee_\xda?'
p1034
tp1035
Rp1036
tp1037
a(S'reykjav\xc3\xadk municipal archives'
p1038
g2
(g6
S'\x07\x8a2\x19)9\xda?'
p1039
tp1040
Rp1041
tp1042
a(S'list of archives in albania'
p1043
g2
(g6
S'\x8b\xcf\xbe\x1b\xad \xda?'
p1044
tp1045
Rp1046
tp1047
a(S'national archives of namibia'
p1048
g2
(g6
S'\xfa7\xc6\x90T\x15\xda?'
p1049
tp1050
Rp1051
tp1052
a(S'list of archives in israel'
p1053
g2
(g6
S'F\xae\xbcY\xf8\x11\xda?'
p1054
tp1055
Rp1056
tp1057
a(S'central archives of historical records'
p1058
g2
(g6
S'\xa8s=\x99\x8c\x05\xda?'
p1059
tp1060
Rp1061
tp1062
a(S'regional state archives in bergen'
p1063
g2
(g6
S'9\xf3\xadz\xcb\x03\xda?'
p1064
tp1065
Rp1066
tp1067
a(S'archival appraisal'
p1068
g2
(g6
S'\xa1\x1a*\x1d\xba\xfe\xd9?'
p1069
tp1070
Rp1071
tp1072
a(S'massachusetts archives'
p1073
g2
(g6
S'\x0f4\x819i\xdd\xd9?'
p1074
tp1075
Rp1076
tp1077
a(S'international association of sound and audiovisual archives'
p1078
g2
(g6
S'\x1a\x9d\xda!\x12\xc0\xd9?'
p1079
tp1080
Rp1081
tp1082
a(S'royal commission on historical manuscripts'
p1083
g2
(g6
S'\xdb\xb6.\x8b\x01\x9d\xd9?'
p1084
tp1085
Rp1086
tp1087
a(S'archivist'
p1088
g2
(g6
S'\xa6\x15!\xf4\xae\x9a\xd9?'
p1089
tp1090
Rp1091
tp1092
a(S'regional state archives in kongsberg'
p1093
g2
(g6
S'\xdc\xaf\xbd\x98\xea\x8d\xd9?'
p1094
tp1095
Rp1096
tp1097
a(S'archive of the congregation for the doctrine of the faith'
p1098
g2
(g6
S'f\xe4G\xc6\x9a\x8a\xd9?'
p1099
tp1100
Rp1101
tp1102
a(S'commission for looted art in europe'
p1103
g2
(g6
S'\x92#\x19\xdf=l\xd9?'
p1104
tp1105
Rp1106
tp1107
a(S'intermunicipal archives of buskerud, vestfold and telemark'
p1108
g2
(g6
S'\xa8\xd9\xe7t\xf9I\xd9?'
p1109
tp1110
Rp1111
tp1112
a(S'jane cameron national archives'
p1113
g2
(g6
S'\xb5\xfd\xfeu\xc39\xd9?'
p1114
tp1115
Rp1116
tp1117
a(S'defence historical service'
p1118
g2
(g6
S'\x04\xb5\xe6kA5\xd9?'
p1119
tp1120
Rp1121
tp1122
a(S'aim25'
p1123
g2
(g6
S'\xb6\xa6\x9152,\xd9?'
p1124
tp1125
Rp1126
tp1127
a(S'national archives of egypt'
p1128
g2
(g6
S'\xcd3\xccx_\x15\xd9?'
p1129
tp1130
Rp1131
tp1132
a(S'public records and archives administration department'
p1133
g2
(g6
S'"1\xa0\xb9+\x0f\xd9?'
p1134
tp1135
Rp1136
tp1137
a(S'patricia kennedy grimsted'
p1138
g2
(g6
S'\xb8\x99\xd7Y\xb1\n\xd9?'
p1139
tp1140
Rp1141
tp1142
a(S'tuvalu national library and archives'
p1143
g2
(g6
S'\x9d(R\x9a\xf8\x00\xd9?'
p1144
tp1145
Rp1146
tp1147
a(S'international tracing service'
p1148
g2
(g6
S'\xd5@z\xd0\x19\xed\xd8?'
p1149
tp1150
Rp1151
tp1152
a(S'county record office'
p1153
g2
(g6
S'\xc7\x99\xbei\x1a\xe6\xd8?'
p1154
tp1155
Rp1156
tp1157
a(S'coordinating council of audiovisual archives associations'
p1158
g2
(g6
S'\x079\x9f\xdf$\xae\xd8?'
p1159
tp1160
Rp1161
tp1162
a(S'northwestern university archives'
p1163
g2
(g6
S'\xc77\x89[\xee\xa5\xd8?'
p1164
tp1165
Rp1166
tp1167
a(S'herman kahn (archivist)'
p1168
g2
(g6
S'\xcd\xcd\xc1^{\x9d\xd8?'
p1169
tp1170
Rp1171
tp1172
a(S'south texas archives and special collections'
p1173
g2
(g6
S'\xb7oT\xbe\x9c\x9b\xd8?'
p1174
tp1175
Rp1176
tp1177
a(S'ian e. wilson'
p1178
g2
(g6
S'\xec,\x91"\xf1\x88\xd8?'
p1179
tp1180
Rp1181
tp1182
a(S'gay and lesbian memory in action'
p1183
g2
(g6
S'r}2\xb4/\x80\xd8?'
p1184
tp1185
Rp1186
tp1187
a(S'archival processing'
p1188
g2
(g6
S'T\x84wu\x1av\xd8?'
p1189
tp1190
Rp1191
tp1192
a(S'transport for london group archives'
p1193
g2
(g6
S'\xe7\x94\\c\tb\xd8?'
p1194
tp1195
Rp1196
tp1197
a(S'bristol archives'
p1198
g2
(g6
S'\xa4\xc3\xcb\xb43_\xd8?'
p1199
tp1200
Rp1201
tp1202
a(S'notman photographic archives'
p1203
g2
(g6
S'\xaa(\xac\xe67?\xd8?'
p1204
tp1205
Rp1206
tp1207
a(S'atakhan pashayev'
p1208
g2
(g6
S'\xf0\xff\xc3w84\xd8?'
p1209
tp1210
Rp1211
tp1212
a(S'tyne and wear archives'
p1213
g2
(g6
S'_0\xb9K\xd0\x0e\xd8?'
p1214
tp1215
Rp1216
tp1217
a(S'margaret cross norton'
p1218
g2
(g6
S'drsd\xa2\x08\xd8?'
p1219
tp1220
Rp1221
tp1222
a(S'archives station'
p1223
g2
(g6
S'V\xe5\xc0\xdb\xec\xf8\xd7?'
p1224
tp1225
Rp1226
tp1227
a(S'swaziland national archives'
p1228
g2
(g6
S'*\xd1^\x92\x8b\xf6\xd7?'
p1229
tp1230
Rp1231
tp1232
a(S'regional state archives in stavanger'
p1233
g2
(g6
S'l.\xeba\xc4\xe6\xd7?'
p1234
tp1235
Rp1236
tp1237
a(S'library and archives canada'
p1238
g2
(g6
S'\xebpn\xbf|\xe2\xd7?'
p1239
tp1240
Rp1241
tp1242
a(S'swiss film archive'
p1243
g2
(g6
S'sX(\xf4/\xd0\xd7?'
p1244
tp1245
Rp1246
tp1247
a(S'national anthropological archives'
p1248
g2
(g6
S'\x02\xc3c:g\xcb\xd7?'
p1249
tp1250
Rp1251
tp1252
a(S'national archives (uae)'
p1253
g2
(g6
S'7U\n\xc0T\xba\xd7?'
p1254
tp1255
Rp1256
tp1257
a(S'archives of macao'
p1258
g2
(g6
S"'/\x7fE!\xba\xd7?"
p1259
tp1260
Rp1261
tp1262
a(S'archives of physical medicine and rehabilitation'
p1263
g2
(g6
S'i\x18\x96\xf5R\xa9\xd7?'
p1264
tp1265
Rp1266
tp1267
a(S'institute of political history'
p1268
g2
(g6
S'DA\x95\xc3\x87\xa4\xd7?'
p1269
tp1270
Rp1271
tp1272
a(S'dovlat film fond'
p1273
g2
(g6
S'\x80\xf5m\x9d\x7f\xa0\xd7?'
p1274
tp1275
Rp1276
tp1277
a(S'labor archives of washington'
p1278
g2
(g6
S'\x01\xefgC\xb8\x9c\xd7?'
p1279
tp1280
Rp1281
tp1282
a(S'swiss social archives'
p1283
g2
(g6
S'I\xa7o\xca\xd7\x8e\xd7?'
p1284
tp1285
Rp1286
tp1287
a(S'central archive of the berlin state museums'
p1288
g2
(g6
S'\xb0{Na\xb3\x8a\xd7?'
p1289
tp1290
Rp1291
tp1292
a(S'utrecht archive'
p1293
g2
(g6
S'\xf0O\xa67\x9f\x85\xd7?'
p1294
tp1295
Rp1296
tp1297
a(S'william ready division of archives and research collections'
p1298
g2
(g6
S'+\t%\xf8\xc1}\xd7?'
p1299
tp1300
Rp1301
tp1302
a(S'russian state archive for scientific-technical documentation'
p1303
g2
(g6
S'\xf5G=\xfc\x8at\xd7?'
p1304
tp1305
Rp1306
tp1307
a(S'kenya national archives'
p1308
g2
(g6
S'\x0eRZk.X\xd7?'
p1309
tp1310
Rp1311
tp1312
a(S'boston city archives'
p1313
g2
(g6
S'\xee\x8c\xc2\xc6\xe0W\xd7?'
p1314
tp1315
Rp1316
tp1317
a(S'thirty-year rule'
p1318
g2
(g6
S'8\x8eE{\x8aT\xd7?'
p1319
tp1320
Rp1321
tp1322
a(S'tour des archives'
p1323
g2
(g6
S' c\xf2\xff\x92P\xd7?'
p1324
tp1325
Rp1326
tp1327
a(S'j. s. matthews'
p1328
g2
(g6
S'\xb7\x18\xe8\xd9\rL\xd7?'
p1329
tp1330
Rp1331
tp1332
a(S'list of archives in vatican city'
p1333
g2
(g6
S'$\xed\x06:\xfeH\xd7?'
p1334
tp1335
Rp1336
tp1337
a(S'stadtarchiv frankfurt (oder)'
p1338
g2
(g6
S'Ol~D\x99D\xd7?'
p1339
tp1340
Rp1341
tp1342
a(S'arquivo p\xc3\xbablico do estado de s\xc3\xa3o paulo'
p1343
g2
(g6
S'!:fI\xb4?\xd7?'
p1344
tp1345
Rp1346
tp1347
a(S'science museum at wroughton'
p1348
g2
(g6
S'$\xd2\xa0\x06\xe25\xd7?'
p1349
tp1350
Rp1351
tp1352
a(S'staatsarchiv z\xc3\xbcrich'
p1353
g2
(g6
S'F\xc7\\\xf514\xd7?'
p1354
tp1355
Rp1356
tp1357
a(S'hall\xe2\x80\x93carpenter archives'
p1358
g2
(g6
S'\x9c\xdc\xae\xd2\xea(\xd7?'
p1359
tp1360
Rp1361
tp1362
a(S'historical archive of the city of cologne'
p1363
g2
(g6
S'\xdd^(\x00}!\xd7?'
p1364
tp1365
Rp1366
tp1367
a(S'national archives of pakistan'
p1368
g2
(g6
S'\x03u\xd4\xb0\xce\x1b\xd7?'
p1369
tp1370
Rp1371
tp1372
a(S'archives of natural history'
p1373
g2
(g6
S'\xbc\xf1\xe2\x97\xf8\x19\xd7?'
p1374
tp1375
Rp1376
tp1377
a(S'marr sound archives'
p1378
g2
(g6
S'\x98\n.\xcc\xc7\x16\xd7?'
p1379
tp1380
Rp1381
tp1382
a(S'russian state archive of socio-political history'
p1383
g2
(g6
S'\x89,\xc2\xdb1\x13\xd7?'
p1384
tp1385
Rp1386
tp1387
a(S'internet memory foundation'
p1388
g2
(g6
S']\xcb\xdb\xd1\xb1\r\xd7?'
p1389
tp1390
Rp1391
tp1392
a(S'center for the history of family medicine'
p1393
g2
(g6
S'"\x83\xacxC\x08\xd7?'
p1394
tp1395
Rp1396
tp1397
a(S'historical archives of the european union'
p1398
g2
(g6
S']8\xde)\xcb\x01\xd7?'
p1399
tp1400
Rp1401
tp1402
a(S'texas archive war'
p1403
g2
(g6
S'(9j\x16T\x01\xd7?'
p1404
tp1405
Rp1406
tp1407
a(S'school of history (university college dublin)'
p1408
g2
(g6
S'\x97\xa6A\nn\xfb\xd6?'
p1409
tp1410
Rp1411
tp1412
a(S'general archive of the nation (argentina)'
p1413
g2
(g6
S'\x8e\x9cA\xec\x89\xf7\xd6?'
p1414
tp1415
Rp1416
tp1417
a(S'classical archives'
p1418
g2
(g6
S'T\x98\xe1"m\xf7\xd6?'
p1419
tp1420
Rp1421
tp1422
a(S'archives & museum informatics'
p1423
g2
(g6
S'\x97\xa8T\x90C\xd6\xd6?'
p1424
tp1425
Rp1426
tp1427
a(S'national library of bhutan'
p1428
g2
(g6
S'j\xe2\xed+6\xd2\xd6?'
p1429
tp1430
Rp1431
tp1432
a(S'nottinghamshire archives'
p1433
g2
(g6
S'e\x060j\xab\xd1\xd6?'
p1434
tp1435
Rp1436
tp1437
a(S'lithuanian special archives'
p1438
g2
(g6
S'SV\x10\x1ak\xc8\xd6?'
p1439
tp1440
Rp1441
tp1442
a(S'mary g. bryan'
p1443
g2
(g6
S'I\x13\xd9Ci\xc3\xd6?'
p1444
tp1445
Rp1446
tp1447
a(S'archival platform'
p1448
g2
(g6
S'\x0b\x1c&^K\xb6\xd6?'
p1449
tp1450
Rp1451
tp1452
a(S'memory of the world register \xe2\x80\x93 latin america and the caribbean'
p1453
g2
(g6
S'\xd5\xd4\x0bM\xa8\xae\xd6?'
p1454
tp1455
Rp1456
tp1457
a(S'moldenhauer archives'
p1458
g2
(g6
S'\xb2\xe5g\x03\xcc\xad\xd6?'
p1459
tp1460
Rp1461
tp1462
a(S'university of southern california libraries'
p1463
g2
(g6
S'*\x14\xe3e4\x94\xd6?'
p1464
tp1465
Rp1466
tp1467
a(S'bbc archives'
p1468
g2
(g6
S'\xc6Y\xee\xcf\x04\x8f\xd6?'
p1469
tp1470
Rp1471
tp1472
a(S'australian national university library'
p1473
g2
(g6
S'\xe5)f\xfe\xbc\x8d\xd6?'
p1474
tp1475
Rp1476
tp1477
a(S'yugoslav film archive'
p1478
g2
(g6
S'\x89\x1a\xad\xb9\x87\x86\xd6?'
p1479
tp1480
Rp1481
tp1482
a(S'barnsley archives and local studies'
p1483
g2
(g6
S'\xf8>B\xb2@\x85\xd6?'
p1484
tp1485
Rp1486
tp1487
a(S'bedfordshire and luton archives and records service'
p1488
g2
(g6
S'\xbe.\xeb\xf2*~\xd6?'
p1489
tp1490
Rp1491
tp1492
a(S'iraqi jewish archive'
p1493
g2
(g6
S'\xb41\xca\xd2~}\xd6?'
p1494
tp1495
Rp1496
tp1497
a(S'northern region film and television archive'
p1498
g2
(g6
S'\xfb\x15\x08q\x82r\xd6?'
p1499
tp1500
Rp1501
tp1502
a(S'national archives of korea'
p1503
g2
(g6
S'\xcc\xa5\xef\x03\xb8o\xd6?'
p1504
tp1505
Rp1506
tp1507
a(S'world day for audiovisual heritage'
p1508
g2
(g6
S'\r5?3bn\xd6?'
p1509
tp1510
Rp1511
tp1512
a.