(lp0
(S'artificial intelligence'
p1
cnumpy.core.multiarray
scalar
p2
(cnumpy
dtype
p3
(S'f8'
p4
I0
I1
tp5
Rp6
(I3
S'<'
p7
NNNI-1
I-1
I0
tp8
bS'\xfb\xff\xff\xff\xff\xff\xef?'
p9
tp10
Rp11
tp12
a(S'history of artificial intelligence'
p13
g2
(g6
S'\xd7\xe4\xf1\xa9\xb9\xe1\xe9?'
p14
tp15
Rp16
tp17
a(S'outline of artificial intelligence'
p18
g2
(g6
S'\xea\x1f\xb7\xb9\x1a\xb7\xe8?'
p19
tp20
Rp21
tp22
a(S'artificial general intelligence'
p23
g2
(g6
S'jE\xa3$ZM\xe8?'
p24
tp25
Rp26
tp27
a(S'ai effect'
p28
g2
(g6
S'\xd5sFB/\x80\xe6?'
p29
tp30
Rp31
tp32
a(S'existential risk from artificial general intelligence'
p33
g2
(g6
S'E\xddy\xcb&\x1d\xe6?'
p34
tp35
Rp36
tp37
a(S'applications of artificial intelligence'
p38
g2
(g6
S'K\x05\x9b\xa1\xd6\xcf\xe5?'
p39
tp40
Rp41
tp42
a(S'friendly artificial intelligence'
p43
g2
(g6
S':\x99\xb1\x9b\x97b\xe5?'
p44
tp45
Rp46
tp47
a(S'ai winter'
p48
g2
(g6
S'\xe7\xdc\xcf*\xe2\x05\xe5?'
p49
tp50
Rp51
tp52
a(S'artificial intelligence in fiction'
p53
g2
(g6
S'd\x11J\x95\xfc\xc2\xe4?'
p54
tp55
Rp56
tp57
a(S'artificial intelligence, situated approach'
p58
g2
(g6
S'\x8c\xc5\x05}I\x89\xe4?'
p59
tp60
Rp61
tp62
a(S'ethics of artificial intelligence'
p63
g2
(g6
S'\xc0\xe5\r_\xe3y\xe4?'
p64
tp65
Rp66
tp67
a(S'eric horvitz'
p68
g2
(g6
S'P\xf8\xbc\xa7\x9b@\xe4?'
p69
tp70
Rp71
tp72
a(S'intelligence explosion'
p73
g2
(g6
S'hg`\xe7\x95\xf4\xe3?'
p74
tp75
Rp76
tp77
a(S'philosophy of artificial intelligence'
p78
g2
(g6
S'\x0e\xdfO3>\xa1\xe3?'
p79
tp80
Rp81
tp82
a(S'artificial intelligence (video games)'
p83
g2
(g6
S'\x0emsey\x91\xe3?'
p84
tp85
Rp86
tp87
a(S'weak ai'
p88
g2
(g6
S'O\xcex$a\x90\xe3?'
p89
tp90
Rp91
tp92
a(S'symbolic artificial intelligence'
p93
g2
(g6
S'_Q\xfb(\x15U\xe3?'
p94
tp95
Rp96
tp97
a(S'ai'
p98
g2
(g6
S'\xcfG\xba\xa0\x8d\xf1\xe2?'
p99
tp100
Rp101
tp102
a(S'ai box'
p103
g2
(g6
S'\xd6\x9d^l\x14\xdf\xe2?'
p104
tp105
Rp106
tp107
a(S'eliezer yudkowsky'
p108
g2
(g6
S'\xdc\x13\xca\x04\xad\xce\xe2?'
p109
tp110
Rp111
tp112
a(S'ai-complete'
p113
g2
(g6
S'\x12+\x14\xc7\x16\x9e\xe2?'
p114
tp115
Rp116
tp117
a(S'superintelligence'
p118
g2
(g6
S'\x98\r\xa2\x0c>\x8d\xe2?'
p119
tp120
Rp121
tp122
a(S'synthetic intelligence'
p123
g2
(g6
S'\xbb\x97\xbcG\xa9;\xe2?'
p124
tp125
Rp126
tp127
a(S'timeline of artificial intelligence'
p128
g2
(g6
S'\xbfL\x00\x8c\xf1\x0e\xe2?'
p129
tp130
Rp131
tp132
a(S'ai takeover'
p133
g2
(g6
S'\x87\r\xebW<\x03\xe2?'
p134
tp135
Rp136
tp137
a(S'ai war: fleet command'
p138
g2
(g6
S'\xce,%n\xfe\xea\xe1?'
p139
tp140
Rp141
tp142
a(S'open letter on artificial intelligence'
p143
g2
(g6
S'\xdc\x1f\xac]\xb3\xc2\xe1?'
p144
tp145
Rp146
tp147
a(S'machine intelligence research institute'
p148
g2
(g6
S'\x9e/\x16\x1b\x08?\xe1?'
p149
tp150
Rp151
tp152
a(S'richard evans (ai researcher)'
p153
g2
(g6
S'\x03\x8f\x98\xc0\x941\xe1?'
p154
tp155
Rp156
tp157
a(S'list of artificial intelligence projects'
p158
g2
(g6
S'\xbd,\x8aS\x13\r\xe1?'
p159
tp160
Rp161
tp162
a(S'ai (surname)'
p163
g2
(g6
S'\xf0\x1a\xc9B8\xe7\xe0?'
p164
tp165
Rp166
tp167
a(S'our final invention'
p168
g2
(g6
S'IN\xb7\x81R\xe1\xe0?'
p169
tp170
Rp171
tp172
a(S"div' d\xc5\xabji\xc5\x86as gais\xc4\x81 skr\xc4\x93ja"
p173
g2
(g6
S'\xb6\x8a\xb6\xbe\xa4\xb4\xe0?'
p174
tp175
Rp176
tp177
a(S'princess ai'
p178
g2
(g6
S'\xfe\xe5%\xe5\x0b\x97\xe0?'
p179
tp180
Rp181
tp182
a(S'european coordinating committee for artificial intelligence'
p183
g2
(g6
S'\xa4\x90\x0b%.[\xe0?'
p184
tp185
Rp186
tp187
a(S'strong ai'
p188
g2
(g6
S'T3\x9bM\x15R\xe0?'
p189
tp190
Rp191
tp192
a(S'progress in artificial intelligence'
p193
g2
(g6
S'+\x0e\xf6\xe6/O\xe0?'
p194
tp195
Rp196
tp197
a(S'thomas g. dietterich'
p198
g2
(g6
S'1q\xb7l\xa9C\xe0?'
p199
tp200
Rp201
tp202
a(S'association for the advancement of artificial intelligence'
p203
g2
(g6
S'\xad\xff|r\xe06\xe0?'
p204
tp205
Rp206
tp207
a(S'artificial intelligence: a modern approach'
p208
g2
(g6
S'h\xacN-i6\xe0?'
p209
tp210
Rp211
tp212
a(S'ai control problem'
p213
g2
(g6
S'bj\x95c\xc1\t\xe0?'
p214
tp215
Rp216
tp217
a(S'openai'
p218
g2
(g6
S'tT\xcfI0\t\xe0?'
p219
tp220
Rp221
tp222
a(S'augmentation industries'
p223
g2
(g6
S'\xa1/Sb\x9b\xc7\xdf?'
p224
tp225
Rp226
tp227
a(S'lighthill report'
p228
g2
(g6
S'\xdd\x1e\x9b\xe0\xfc\xa3\xdf?'
p229
tp230
Rp231
tp232
a(S'glossary of artificial intelligence'
p233
g2
(g6
S'XUR\x10v\x8e\xdf?'
p234
tp235
Rp236
tp237
a(S'ai (given name)'
p238
g2
(g6
S'\x90\x06\x16\xdb\xac\x83\xdf?'
p239
tp240
Rp241
tp242
a(S'ai weiwei'
p243
g2
(g6
S'4\x89t\t\xd3F\xdf?'
p244
tp245
Rp246
tp247
a(S'deepmind'
p248
g2
(g6
S'\x04\x9a\xa4ZtA\xdf?'
p249
tp250
Rp251
tp252
a(S'ai@50'
p253
g2
(g6
S'\xe2\x0f\x9c+d$\xdf?'
p254
tp255
Rp256
tp257
a(S'ivchenko-progress ai-222'
p258
g2
(g6
S'\x88\xb4\x07\x96\x11\xf0\xde?'
p259
tp260
Rp261
tp262
a(S'international journal on artificial intelligence tools'
p263
g2
(g6
S'\x9e\x96\xe7\xcc\xf4\xbb\xde?'
p264
tp265
Rp266
tp267
a(S'nouvelle ai'
p268
g2
(g6
S'\xc8\x1d!}!\xba\xde?'
p269
tp270
Rp271
tp272
a(S'computational intelligence'
p273
g2
(g6
S'\xde\xac\xfb\xe4\xe2m\xde?'
p274
tp275
Rp276
tp277
a(S'machine ethics'
p278
g2
(g6
S'_\xdc\x03\x1fN\x0f\xde?'
p279
tp280
Rp281
tp282
a(S'doubt!!'
p283
g2
(g6
S'J-~\xed\xd2\xeb\xdd?'
p284
tp285
Rp286
tp287
a(S'steve rabin'
p288
g2
(g6
S'3\xcb\x14\xb5\xb1\xcc\xdd?'
p289
tp290
Rp291
tp292
a(S'neats and scruffies'
p293
g2
(g6
S'\xb2\xe8a+\xaf\xc9\xdd?'
p294
tp295
Rp296
tp297
a(S'ai (singer)'
p298
g2
(g6
S'\x1e\xdd\xdc\xfc\x0b\x8a\xdd?'
p299
tp300
Rp301
tp302
a(S'partnership on ai'
p303
g2
(g6
S'\x8a\x9f5(\xb5h\xdd?'
p304
tp305
Rp306
tp307
a(S"moravec's paradox"
p308
g2
(g6
S'\x1e\x9b\x897K^\xdd?'
p309
tp310
Rp311
tp312
a(S'allen institute for artificial intelligence'
p313
g2
(g6
S'\xe4\x0f\xcd\xe9V]\xdd?'
p314
tp315
Rp316
tp317
a(S'david a. mcallester'
p318
g2
(g6
S' &4(\xf89\xdd?'
p319
tp320
Rp321
tp322
a(S'artificial intelligence (disambiguation)'
p323
g2
(g6
S'Q\xcbR5\x0e7\xdd?'
p324
tp325
Rp326
tp327
a(S'selmer bringsjord'
p328
g2
(g6
S'\x15\xc5WH\xc4#\xdd?'
p329
tp330
Rp331
tp332
a(S'echoborg'
p333
g2
(g6
S'D\x1d\x85\x95\xfa\x16\xdd?'
p334
tp335
Rp336
tp337
a(S'music and artificial intelligence'
p338
g2
(g6
S'\n\x82\twW\xf4\xdc?'
p339
tp340
Rp341
tp342
a(S'pat hayes'
p343
g2
(g6
S'\xc6\xb4:$\xec\xca\xdc?'
p344
tp345
Rp346
tp347
a(S'list of fictional computers'
p348
g2
(g6
S':\xc9\xf4\xcef\xc0\xdc?'
p349
tp350
Rp351
tp352
a(S'artificial intelligence and law'
p353
g2
(g6
S'qK\x94\xe3\x9c\xa2\xdc?'
p354
tp355
Rp356
tp357
a(S'artificial intelligence in healthcare'
p358
g2
(g6
S'\nA\xc1\xf2\xcf\x9e\xdc?'
p359
tp360
Rp361
tp362
a(S"hubert dreyfus's views on artificial intelligence"
p363
g2
(g6
S'\xc0\xdbo\x01jA\xdc?'
p364
tp365
Rp366
tp367
a(S'outline of transhumanism'
p368
g2
(g6
S'\xd9E\xe5d\xec@\xdc?'
p369
tp370
Rp371
tp372
a(S'.ai'
p373
g2
(g6
S'\xe1\xfaQ\x11Y\x13\xdc?'
p374
tp375
Rp376
tp377
a(S'autoinducer-2'
p378
g2
(g6
S'\xf9\xb4_r\x84\xed\xdb?'
p379
tp380
Rp381
tp382
a(S'ai discography'
p383
g2
(g6
S'k\xee\xc6\xeb\x92\xe6\xdb?'
p384
tp385
Rp386
tp387
a(S'intelligence'
p388
g2
(g6
S'\x8b\t1\xb0\xaa\xd4\xdb?'
p389
tp390
Rp391
tp392
a(S'ai ai gasa'
p393
g2
(g6
S'\xf5~\x12W\xf4\xc4\xdb?'
p394
tp395
Rp396
tp397
a(S'artificial brain'
p398
g2
(g6
S'\xe1o\xbd*\x84\xac\xdb?'
p399
tp400
Rp401
tp402
a(S'ben goertzel'
p403
g2
(g6
S'\xfd\x02\x0e\xd4\xbd\x90\xdb?'
p404
tp405
Rp406
tp407
a(S"j'en ai marre"
p408
g2
(g6
S'\xe3d\x10\xf2\xb0e\xdb?'
p409
tp410
Rp411
tp412
a(S'minimum intelligent signal test'
p413
g2
(g6
S'p\xfeL\x0f\x00:\xdb?'
p414
tp415
Rp416
tp417
a(S'ai xuan'
p418
g2
(g6
S'38D\xf1\xa12\xdb?'
p419
tp420
Rp421
tp422
a(S'ai-ren'
p423
g2
(g6
S'W\xc3\xfa\x85*,\xdb?'
p424
tp425
Rp426
tp427
a(S'ivchenko ai-25'
p428
g2
(g6
S'\xfc5\xb7\xf0\xef\x14\xdb?'
p429
tp430
Rp431
tp432
a(S'machine learning'
p433
g2
(g6
S'\xbd\xfd\x14@\x96\x9e\xda?'
p434
tp435
Rp436
tp437
a(S'mic-a-holic ai'
p438
g2
(g6
S'jb_\x8e\xb4y\xda?'
p439
tp440
Rp441
tp442
a(S'air intelligence'
p443
g2
(g6
S'P\xb3\xc9G\xbac\xda?'
p444
tp445
Rp446
tp447
a(S'toby walsh'
p448
g2
(g6
S'\x18$\xae\x15G?\xda?'
p449
tp450
Rp451
tp452
a(S"don't stop ai"
p453
g2
(g6
S'~\x1c\xc0\xdbQ;\xda?'
p454
tp455
Rp456
tp457
a(S'society for the study of artificial intelligence and the simulation of behaviour'
p458
g2
(g6
S'\xc9\n\xe5U\xd19\xda?'
p459
tp460
Rp461
tp462
a(S'ai (chimpanzee)'
p463
g2
(g6
S'\x13~;\xfd\x11$\xda?'
p464
tp465
Rp466
tp467
a(S'list of hell girl characters'
p468
g2
(g6
S'\xa3[\\/\x97\x19\xda?'
p469
tp470
Rp471
tp472
a(S'kristinn r. th\xc3\xb3risson'
p473
g2
(g6
S'\\H\x16\xeb\xd9\xe5\xd9?'
p474
tp475
Rp476
tp477
a(S'the left hand of darkness'
p478
g2
(g6
S',\xd3{\xd9F\xd7\xd9?'
p479
tp480
Rp481
tp482
a(S'list of programming languages for artificial intelligence'
p483
g2
(g6
S'\xe7\xb9\x01\xbc\xdc\xd0\xd9?'
p484
tp485
Rp486
tp487
a(S'daniel crevier'
p488
g2
(g6
S'\xac\xdfA\x10\xaa\xc6\xd9?'
p489
tp490
Rp491
tp492
a(S'roman yampolskiy'
p493
g2
(g6
S'\xc8!\xfa\x89\xf7\xb1\xd9?'
p494
tp495
Rp496
tp497
a(S'ivchenko ai-14'
p498
g2
(g6
S'\xef\xe3\x00^`\xa2\xd9?'
p499
tp500
Rp501
tp502
a(S'ivchenko ai-20'
p503
g2
(g6
S'\xd8`c(|c\xd9?'
p504
tp505
Rp506
tp507
a(S'future of life institute'
p508
g2
(g6
S'\x95\x1e\x1c\x0b\xd3S\xd9?'
p509
tp510
Rp511
tp512
a(S'ai memo'
p513
g2
(g6
S'\xbf/\x9e\xfcW9\xd9?'
p514
tp515
Rp516
tp517
a(S'rollo carpenter'
p518
g2
(g6
S'f-V)u\xf8\xd8?'
p519
tp520
Rp521
tp522
a(S'austin tate'
p523
g2
(g6
S'~u\xf87g\xf7\xd8?'
p524
tp525
Rp526
tp527
a(S'huisheng ai'
p528
g2
(g6
S'\xa1\xe6\x9dag\xef\xd8?'
p529
tp530
Rp531
tp532
a(S'intelligent decision support system'
p533
g2
(g6
S'h\xc5\xe5p\xb1\xe9\xd8?'
p534
tp535
Rp536
tp537
a(S'viva ai'
p538
g2
(g6
S'*\x1f\xaf\xf2\x8b\xe5\xd8?'
p539
tp540
Rp541
tp542
a(S'intelligence amplification'
p543
g2
(g6
S'\x0e-\x15\xa1\xea\xdf\xd8?'
p544
tp545
Rp546
tp547
a(S'aaron sloman'
p548
g2
(g6
S'\x90R\xd6|B\xd9\xd8?'
p549
tp550
Rp551
tp552
a(S'ivchenko ai-24'
p553
g2
(g6
S'h\x1d2\x9c8\xd0\xd8?'
p554
tp555
Rp556
tp557
a(S'ai (poet)'
p558
g2
(g6
S'<\n\xf6\x8e\xad\xcf\xd8?'
p559
tp560
Rp561
tp562
a(S'predictions made by ray kurzweil'
p563
g2
(g6
S'\x07\xe4E@\xc1\xac\xd8?'
p564
tp565
Rp566
tp567
a(S'steve omohundro'
p568
g2
(g6
S'\x1c\x95\xc0\xd8\x1eT\xd8?'
p569
tp570
Rp571
tp572
a(S'ai, ohio'
p573
g2
(g6
S'\x1d\xa9\x85\x1b1P\xd8?'
p574
tp575
Rp576
tp577
a(S'corcu baiscind'
p578
g2
(g6
S'\xbc\x08\x92[\xd5D\xd8?'
p579
tp580
Rp581
tp582
a(S'david nelson (software developer)'
p583
g2
(g6
S'\xd9\xcd\xcbdv\x12\xd8?'
p584
tp585
Rp586
tp587
a(S'ai-khanoum'
p588
g2
(g6
S'\xba\xf9p\xb2\x0c\x0b\xd8?'
p589
tp590
Rp591
tp592
a(S'physical symbol system'
p593
g2
(g6
S'\x9f\xf0\x95\n[\xf4\xd7?'
p594
tp595
Rp596
tp597
a(S'jeeney ai'
p598
g2
(g6
S'\xf0\x80\x92WT\xd8\xd7?'
p599
tp600
Rp601
tp602
a(S"what's goin' on ai"
p603
g2
(g6
S'\xe0\xda/\x8e\xb0\xd5\xd7?'
p604
tp605
Rp606
tp607
a(S'andrea disessa'
p608
g2
(g6
S'\x18\x13\\\xa82\xb5\xd7?'
p609
tp610
Rp611
tp612
a(S'timeline of machine learning'
p613
g2
(g6
S'\xac\xdc\xae\xb0M\xa5\xd7?'
p614
tp615
Rp616
tp617
a(S'ai accelerator'
p618
g2
(g6
S'\xa7\xd1s\x87\xf8\x87\xd7?'
p619
tp620
Rp621
tp622
a(S'marketing and artificial intelligence'
p623
g2
(g6
S'\x02\x94t\xb6\xf0\x80\xd7?'
p624
tp625
Rp626
tp627
a(S'peter norvig'
p628
g2
(g6
S'\x83\xe2h\xa5Zu\xd7?'
p629
tp630
Rp631
tp632
a(S'university of edinburgh school of informatics'
p633
g2
(g6
S' \x01\xc5*Jp\xd7?'
p634
tp635
Rp636
tp637
a(S'action selection'
p638
g2
(g6
S'Q3{\xbd&l\xd7?'
p639
tp640
Rp641
tp642
a(S'sunday without god'
p643
g2
(g6
S'\xf3\xfc\xdd\xd3u[\xd7?'
p644
tp645
Rp646
tp647
a(S'2004 ai'
p648
g2
(g6
S'\xfa\xc26\x04\xccJ\xd7?'
p649
tp650
Rp651
tp652
a(S'smartaction'
p653
g2
(g6
S':\x9b\xfe\xc9.C\xd7?'
p654
tp655
Rp656
tp657
a(S'ivchenko ai-26'
p658
g2
(g6
S'g\xb9\xbd0V-\xd7?'
p659
tp660
Rp661
tp662
a(S'william hertling'
p663
g2
(g6
S'\x9cK\xda1\xa6\x19\xd7?'
p664
tp665
Rp666
tp667
a(S'distopping'
p668
g2
(g6
S'\xc7\x96\xa4\xf4[\x16\xd7?'
p669
tp670
Rp671
tp672
a(S'interspecies quorum sensing'
p673
g2
(g6
S'\xf8\xd1\xeb]\x1a\x10\xd7?'
p674
tp675
Rp676
tp677
a(S'massimo negrotti'
p678
g2
(g6
S'\x04\x97\xc6\xb9\xa9\n\xd7?'
p679
tp680
Rp681
tp682
a(S'ipke wachsmuth'
p683
g2
(g6
S'\x82r\xf5\x0e\xff\xfe\xd6?'
p684
tp685
Rp686
tp687
a(S'adobe illustrator artwork'
p688
g2
(g6
S'\x8b\xd8\xce\xed[\xf4\xd6?'
p689
tp690
Rp691
tp692
a(S'human intelligence'
p693
g2
(g6
S'\x93\t\x05\xe9*\xeb\xd6?'
p694
tp695
Rp696
tp697
a(S'wagamama ki no mama ai no joke / ai no gundan'
p698
g2
(g6
S'L\x04\xb2?)\xdd\xd6?'
p699
tp700
Rp701
tp702
a(S'artificial intelligence marketing'
p703
g2
(g6
S'}\xe9\xf8\x87\xb0\xb6\xd6?'
p704
tp705
Rp706
tp707
a(S'artificial psychology'
p708
g2
(g6
S'\x8b\xf4\x1d5\xa9\xb1\xd6?'
p709
tp710
Rp711
tp712
a(S'deep learning'
p713
g2
(g6
S'\xcb\xd2\xaf\x15\xa7\xaf\xd6?'
p714
tp715
Rp716
tp717
a(S'lu\xc3\xads moniz pereira'
p718
g2
(g6
S'&\x84\x9a\xae\x86\xae\xd6?'
p719
tp720
Rp721
tp722
a(S'general video game playing'
p723
g2
(g6
S'^\xd0\xad3\x05\xab\xd6?'
p724
tp725
Rp726
tp727
a(S'general game playing'
p728
g2
(g6
S'\x86\x9d*\xd3@\xa8\xd6?'
p729
tp730
Rp731
tp732
a(S'subsumption architecture'
p733
g2
(g6
S'"m\xdd\xcb\r\xa4\xd6?'
p734
tp735
Rp736
tp737
a(S'stronger (ai song)'
p738
g2
(g6
S'\xcdR(\x84=\x9f\xd6?'
p739
tp740
Rp741
tp742
a(S'hugo de garis'
p743
g2
(g6
S'\x0e\xe9\x85\x91)\x9c\xd6?'
p744
tp745
Rp746
tp747
a(S'artificial stupidity'
p748
g2
(g6
S'\x9e[\x87\x7f\xf2\x92\xd6?'
p749
tp750
Rp751
tp752
a(S'ai weiwei: never sorry'
p753
g2
(g6
S'\xfd\xe5\xbd\xb8\x19\x8a\xd6?'
p754
tp755
Rp756
tp757
a(S'henry kautz'
p758
g2
(g6
S'$F%\x1e\xce\x87\xd6?'
p759
tp760
Rp761
tp762
a(S'strategic computing initiative'
p763
g2
(g6
S'\x17u\x1ebr\x80\xd6?'
p764
tp765
Rp766
tp767
a(S'saul amarel'
p768
g2
(g6
S'\xbd\x94\x08@)y\xd6?'
p769
tp770
Rp771
tp772
a(S'logic theorist'
p773
g2
(g6
S'\xe8.Yhnv\xd6?'
p774
tp775
Rp776
tp777
a(S'austrian research institute for artificial intelligence'
p778
g2
(g6
S'+\x7f\xf7 \xcbu\xd6?'
p779
tp780
Rp781
tp782
a(S'united nations staff selection system'
p783
g2
(g6
S'F3eM\x1at\xd6?'
p784
tp785
Rp786
tp787
a(S'mit computer science and artificial intelligence laboratory'
p788
g2
(g6
S'\x07\xde\x84\xfd\xf2d\xd6?'
p789
tp790
Rp791
tp792
a(S'artificial neural network'
p793
g2
(g6
S"\x19'M\xe4)_\xd6?"
p794
tp795
Rp796
tp797
a(S'paradigms of ai programming: case studies in common lisp'
p798
g2
(g6
S'\x94\xe5\x7f\xeb2G\xd6?'
p799
tp800
Rp801
tp802
a(S'chris mckinstry'
p803
g2
(g6
S'\xc8\x96\xd5t\xdc\x1c\xd6?'
p804
tp805
Rp806
tp807
a(S'distributed artificial intelligence'
p808
g2
(g6
S'(\xe8\xd3\xc6\x05\x1b\xd6?'
p809
tp810
Rp811
tp812
a(S'ai no bakudan'
p813
g2
(g6
S'EiD\x9e2\x18\xd6?'
p814
tp815
Rp816
tp817
a(S'computational cognition'
p818
g2
(g6
S'\x1e\xe0o\xd7\x08\x17\xd6?'
p819
tp820
Rp821
tp822
a(S'international joint conference on artificial intelligence'
p823
g2
(g6
S'\xb8\xbah\xc2\x8e\x0f\xd6?'
p824
tp825
Rp826
tp827
a(S'ai no shirushi'
p828
g2
(g6
S'\xbb\xb2:=G\x00\xd6?'
p829
tp830
Rp831
tp832
a(S'opennn'
p833
g2
(g6
S'\x9f2\x94`=\xfa\xd5?'
p834
tp835
Rp836
tp837
a(S'ikhtiyar al-din ai-taq'
p838
g2
(g6
S'X\n\xba\xfa%\xf5\xd5?'
p839
tp840
Rp841
tp842
a(S'ivchenko ai-9'
p843
g2
(g6
S'\xee\xf0\xf6\xae[\xe5\xd5?'
p844
tp845
Rp846
tp847
a(S'appreciative inquiry in education'
p848
g2
(g6
S'v4\xc8\x07X\xe2\xd5?'
p849
tp850
Rp851
tp852
a(S'russell greiner'
p853
g2
(g6
S'PC\x8eCh\xdb\xd5?'
p854
tp855
Rp856
tp857
a(S'list of computer scientists'
p858
g2
(g6
S'+\x86\xf2_M\xd6\xd5?'
p859
tp860
Rp861
tp862
a(S'bref'
p863
g2
(g6
S'3\xfa\xc8\xe5i\xcc\xd5?'
p864
tp865
Rp866
tp867
a(S'jabberwacky'
p868
g2
(g6
S'3r\xa7\xd6\xdf\x98\xd5?'
p869
tp870
Rp871
tp872
a(S'alan mackworth'
p873
g2
(g6
S'k\xb0\xdb\x8a\xce\x98\xd5?'
p874
tp875
Rp876
tp877
a(S'independent (ai album)'
p878
g2
(g6
S'\xc5\xc0@\xb0\xdf\x92\xd5?'
p879
tp880
Rp881
tp882
a(S'hakmem'
p883
g2
(g6
S'K\xa8P\xad\x8e\x8e\xd5?'
p884
tp885
Rp886
tp887
a(S'nello cristianini'
p888
g2
(g6
S'\xca\xfd\xf8Krq\xd5?'
p889
tp890
Rp891
tp892
a(S'ai no uta'
p893
g2
(g6
S'\xb0\x8f\x84\xe9nq\xd5?'
p894
tp895
Rp896
tp897
a(S'shlomo zilberstein'
p898
g2
(g6
S'g\x9d\r\xd1\x1ad\xd5?'
p899
tp900
Rp901
tp902
a(S'nils john nilsson'
p903
g2
(g6
S'\xbfAZ\xbe}[\xd5?'
p904
tp905
Rp906
tp907
a(S'bill hibbard'
p908
g2
(g6
S'BA\xa7\x94\x08O\xd5?'
p909
tp910
Rp911
tp912
a(S'australian industry group'
p913
g2
(g6
S'\x18\x02\xb4x\xe0F\xd5?'
p914
tp915
Rp916
tp917
a(S'20q'
p918
g2
(g6
S'&\x1c\x82\xf4\xfdA\xd5?'
p919
tp920
Rp921
tp922
a(S'artificial life'
p923
g2
(g6
S'i_\xfa\xa2\x9a@\xd5?'
p924
tp925
Rp926
tp927
a(S'ai & society'
p928
g2
(g6
S'\x9b!)\xb1\xb53\xd5?'
p929
tp930
Rp931
tp932
a(S'international joint conferences on artificial intelligence'
p933
g2
(g6
S'\xfb\xff\x18\xe8\xba/\xd5?'
p934
tp935
Rp936
tp937
a(S'instrumental convergence'
p938
g2
(g6
S'\x1a\x1cc\xfe\xb3\x14\xd5?'
p939
tp940
Rp941
tp942
a(S'outline of human intelligence'
p943
g2
(g6
S'\xaet\x1a\x06y\t\xd5?'
p944
tp945
Rp946
tp947
a(S'intelligent user interface'
p948
g2
(g6
S'q\x0eT\x1e\x10\xdb\xd4?'
p949
tp950
Rp951
tp952
a(S'appreciation index'
p953
g2
(g6
S'h$X\x9e\xaa\xda\xd4?'
p954
tp955
Rp956
tp957
a(S'bio-inspired computing'
p958
g2
(g6
S'\n.\xbe\xda\xaf\xca\xd4?'
p959
tp960
Rp961
tp962
a(S'dendral'
p963
g2
(g6
S',Y\xe6\xf7\xfe\xb7\xd4?'
p964
tp965
Rp966
tp967
a(S'list of roman place names in britain'
p968
g2
(g6
S'\x8a\xc49\xe3K\xb6\xd4?'
p969
tp970
Rp971
tp972
a(S'ivchenko-progress'
p973
g2
(g6
S'\n\x10\x04\x8a\xbd\xb1\xd4?'
p974
tp975
Rp976
tp977
a(S'san-ai oil'
p978
g2
(g6
S'\xc8\xabA\xa6\x07\xac\xd4?'
p979
tp980
Rp981
tp982
a(S'intelligent tutoring system'
p983
g2
(g6
S'\xdc\xfdtGa\xa2\xd4?'
p984
tp985
Rp986
tp987
a(S'alphago'
p988
g2
(g6
S'\xa2o%\xf7>\xa0\xd4?'
p989
tp990
Rp991
tp992
a(S'raj reddy'
p993
g2
(g6
S'\xe9\xff\xb12\xb5\x9d\xd4?'
p994
tp995
Rp996
tp997
a(S'knowledge engineering and machine learning group'
p998
g2
(g6
S'\xa6(\xd0\xd9\xe6\x94\xd4?'
p999
tp1000
Rp1001
tp1002
a(S'airborne interception radar'
p1003
g2
(g6
S'RH\x98\xe1\xf1\x7f\xd4?'
p1004
tp1005
Rp1006
tp1007
a(S'ai apaec'
p1008
g2
(g6
S'\xb9\x88\xa0\xe9\x7fe\xd4?'
p1009
tp1010
Rp1011
tp1012
a(S'ai qing'
p1013
g2
(g6
S'$\xaa\xe0\xbf\xf2_\xd4?'
p1014
tp1015
Rp1016
tp1017
a(S'knowledge representation and reasoning'
p1018
g2
(g6
S'\x8d\xd5\x83\xff\xe4_\xd4?'
p1019
tp1020
Rp1021
tp1022
a(S'collective intelligence'
p1023
g2
(g6
S'\xe5&\xca\xc6U_\xd4?'
p1024
tp1025
Rp1026
tp1027
a(S'video girl ai'
p1028
g2
(g6
S'/\xedy\xcdqO\xd4?'
p1029
tp1030
Rp1031
tp1032
a(S'walter daelemans'
p1033
g2
(g6
S'c\xd5\x06=\xe5D\xd4?'
p1034
tp1035
Rp1036
tp1037
a(S'neural designer'
p1038
g2
(g6
S'(\x01\x0f\x99\x08:\xd4?'
p1039
tp1040
Rp1041
tp1042
a(S'constructionist design methodology'
p1043
g2
(g6
S'\xe0>{l\x989\xd4?'
p1044
tp1045
Rp1046
tp1047
a(S'life on the screen'
p1048
g2
(g6
S'\xd4\xcf!=T9\xd4?'
p1049
tp1050
Rp1051
tp1052
a(S'allen newell'
p1053
g2
(g6
S'\xbf\x95\x83\xd354\xd4?'
p1054
tp1055
Rp1056
tp1057
a(S'utku k\xc3\xb6se'
p1058
g2
(g6
S'\\\x1d;L\xff&\xd4?'
p1059
tp1060
Rp1061
tp1062
a(S'cognitive architecture'
p1063
g2
(g6
S'\xd0PJH\xb4\x1c\xd4?'
p1064
tp1065
Rp1066
tp1067
a(S'c-evo'
p1068
g2
(g6
S'\x18\x1a5\xd9\xa9\x12\xd4?'
p1069
tp1070
Rp1071
tp1072
a(S'intelligence cycle management'
p1073
g2
(g6
S'm\xc8\x04\x07\x9e\x12\xd4?'
p1074
tp1075
Rp1076
tp1077
a(S'daisuki da yo'
p1078
g2
(g6
S'\xa5d\xd1F\xe0\x08\xd4?'
p1079
tp1080
Rp1081
tp1082
a(S'j\xc3\xbcrgen schmidhuber'
p1083
g2
(g6
S'3/aC\x88\x05\xd4?'
p1084
tp1085
Rp1086
tp1087
a(S'catherine havasi'
p1088
g2
(g6
S'C`\xbe\x08\xf2\x00\xd4?'
p1089
tp1090
Rp1091
tp1092
a(S'technological singularity'
p1093
g2
(g6
S'\xe8}\x1f\xd1\xf0\xfb\xd3?'
p1094
tp1095
Rp1096
tp1097
a(S'igor aleksander'
p1098
g2
(g6
S'\xca\xd90\xcd/\xf9\xd3?'
p1099
tp1100
Rp1101
tp1102
a(S'demis hassabis'
p1103
g2
(g6
S'\xf3W:\xfc\x1c\xf7\xd3?'
p1104
tp1105
Rp1106
tp1107
a(S'ai jing'
p1108
g2
(g6
S'\xc7\x82?2\x08\xf3\xd3?'
p1109
tp1110
Rp1111
tp1112
a(S'commonsense reasoning'
p1113
g2
(g6
S'\xdf\xe8W\xaa\xab\xe4\xd3?'
p1114
tp1115
Rp1116
tp1117
a(S'artificial intuition'
p1118
g2
(g6
S'j\xf5%\xe9\xe4\xe0\xd3?'
p1119
tp1120
Rp1121
tp1122
a(S'john mccarthy (computer scientist)'
p1123
g2
(g6
S'\x8aA$\xb0\x8f\xe0\xd3?'
p1124
tp1125
Rp1126
tp1127
a(S'sing galing!'
p1128
g2
(g6
S'Q\xe5\x0f\x85\xb1\xd6\xd3?'
p1129
tp1130
Rp1131
tp1132
a(S'superintelligence: paths, dangers, strategies'
p1133
g2
(g6
S'\xef\x00I0$\xc7\xd3?'
p1134
tp1135
Rp1136
tp1137
a(S'ai shinozaki'
p1138
g2
(g6
S'\xf8\xe7\xc8\x03`\xc2\xd3?'
p1139
tp1140
Rp1141
tp1142
a(S'jaime carbonell'
p1143
g2
(g6
S'o\x9f\xbe\xf4\xab\xbc\xd3?'
p1144
tp1145
Rp1146
tp1147
a(S'turing test'
p1148
g2
(g6
S'\x93h\x14\x88\x9f\xac\xd3?'
p1149
tp1150
Rp1151
tp1152
a(S'artificial imagination'
p1153
g2
(g6
S'\xeb<\xa9Y\xd6\xab\xd3?'
p1154
tp1155
Rp1156
tp1157
a(S'francesca rossi'
p1158
g2
(g6
S'K\xa8]\xf5Q\xab\xd3?'
p1159
tp1160
Rp1161
tp1162
a(S'louis-philippe morency'
p1163
g2
(g6
S'2x\xbd%)\xa6\xd3?'
p1164
tp1165
Rp1166
tp1167
a(S'ai tong school'
p1168
g2
(g6
S'\r\x1cz\xe1\x1d\xa3\xd3?'
p1169
tp1170
Rp1171
tp1172
a(S'maluuba'
p1173
g2
(g6
S'\xb9o\xd6}l\x9a\xd3?'
p1174
tp1175
Rp1176
tp1177
a(S'ai ai syndrome'
p1178
g2
(g6
S't\xdc\xcb\x7f\x97\x97\xd3?'
p1179
tp1180
Rp1181
tp1182
a(S'intelligent control'
p1183
g2
(g6
S"'\xdeq{\xf7\x96\xd3?"
p1184
tp1185
Rp1186
tp1187
a(S'outline of natural language processing'
p1188
g2
(g6
S'-\x0bd~H\x95\xd3?'
p1189
tp1190
Rp1191
tp1192
a(S'sakuranbo'
p1193
g2
(g6
S'n\xee_\x87\x1f\x8e\xd3?'
p1194
tp1195
Rp1196
tp1197
a(S'artificial consciousness'
p1198
g2
(g6
S'\xb8\xcd2\x99\xa1y\xd3?'
p1199
tp1200
Rp1201
tp1202
a(S"j'ai besoin d'amour"
p1203
g2
(g6
S"\x1b\xf5'\xd7\x19k\xd3?"
p1204
tp1205
Rp1206
tp1207
a(S'cognitive science'
p1208
g2
(g6
S'\x97\xd8&\xcbCj\xd3?'
p1209
tp1210
Rp1211
tp1212
a(S'computing machinery and intelligence'
p1213
g2
(g6
S'\xe3^\xb3QYh\xd3?'
p1214
tp1215
Rp1216
tp1217
a(S'chatbot'
p1218
g2
(g6
S'JP\xe2\xfa\x94c\xd3?'
p1219
tp1220
Rp1221
tp1222
a(S'intelligence cycle'
p1223
g2
(g6
S'L\xd7\x1d\xdb\xbd^\xd3?'
p1224
tp1225
Rp1226
tp1227
a(S'dario floreano'
p1228
g2
(g6
S'Y8\\\xae\x8b[\xd3?'
p1229
tp1230
Rp1231
tp1232
a(S'ai-petri'
p1233
g2
(g6
S'o\x01\xb2\x1eYV\xd3?'
p1234
tp1235
Rp1236
tp1237
a(S'mind uploading'
p1238
g2
(g6
S'ZlF\x05\xecH\xd3?'
p1239
tp1240
Rp1241
tp1242
a(S'darkforest'
p1243
g2
(g6
S'\x9c\xb1\x0e\xa7>F\xd3?'
p1244
tp1245
Rp1246
tp1247
a(S'icaart'
p1248
g2
(g6
S'\x9d\xc1)\x9c\xa7<\xd3?'
p1249
tp1250
Rp1251
tp1252
a(S'outline of computer science'
p1253
g2
(g6
S'xx|\t\xcf7\xd3?'
p1254
tp1255
Rp1256
tp1257
a(S'ai-kon'
p1258
g2
(g6
S'\x97c\xf9\xe3\xed4\xd3?'
p1259
tp1260
Rp1261
tp1262
a(S'angel f'
p1263
g2
(g6
S'[\xf0\x881\xfc2\xd3?'
p1264
tp1265
Rp1266
tp1267
a(S'drew mcdermott'
p1268
g2
(g6
S'\xfeq#z\xbd,\xd3?'
p1269
tp1270
Rp1271
tp1272
a(S'military intelligence'
p1273
g2
(g6
S'\x15\x9c\xc6u\x93+\xd3?'
p1274
tp1275
Rp1276
tp1277
a(S'european conference on artificial intelligence'
p1278
g2
(g6
S'B\x01\x8b\x14\x93*\xd3?'
p1279
tp1280
Rp1281
tp1282
a(S'rolf pfeifer'
p1283
g2
(g6
S'\t\x13B\x12\x8a)\xd3?'
p1284
tp1285
Rp1286
tp1287
a(S'stephen grossberg'
p1288
g2
(g6
S'\x18\x13c\xc0\xf1%\xd3?'
p1289
tp1290
Rp1291
tp1292
a(S'leonard uhr'
p1293
g2
(g6
S'C\xab\xb8G\xdc#\xd3?'
p1294
tp1295
Rp1296
tp1297
a(S"nanchatte ren'ai"
p1298
g2
(g6
S'\xcdK=\x1aa"\xd3?'
p1299
tp1300
Rp1301
tp1302
a(S'singularitarianism'
p1303
g2
(g6
S'\xb2\xd3}5\x17 \xd3?'
p1304
tp1305
Rp1306
tp1307
a(S'hybrid intelligent system'
p1308
g2
(g6
S'f3t\xb2Z\x1d\xd3?'
p1309
tp1310
Rp1311
tp1312
a(S'emly'
p1313
g2
(g6
S'\x89\x0c\x94\x81P\x1c\xd3?'
p1314
tp1315
Rp1316
tp1317
a(S'c. raymond perrault'
p1318
g2
(g6
S'69\xd3\xbf\x9d\x1b\xd3?'
p1319
tp1320
Rp1321
tp1322
a(S'competitions and prizes in artificial intelligence'
p1323
g2
(g6
S'\xf8\x80(\xe3(\x18\xd3?'
p1324
tp1325
Rp1326
tp1327
a(S'tim finin'
p1328
g2
(g6
S'~\xfa\xc5\x87\x0b\x13\xd3?'
p1329
tp1330
Rp1331
tp1332
a(S'captcha'
p1333
g2
(g6
S'+4\xae\x1e\xec\x10\xd3?'
p1334
tp1335
Rp1336
tp1337
a(S'chinese room'
p1338
g2
(g6
S'\xe6S\xc4\x07\xde\x0f\xd3?'
p1339
tp1340
Rp1341
tp1342
a(S'intelligence (disambiguation)'
p1343
g2
(g6
S'\x01ue\x14W\x08\xd3?'
p1344
tp1345
Rp1346
tp1347
a(S'libratus'
p1348
g2
(g6
S'\xa9v\xf6\xe8\xc7\x01\xd3?'
p1349
tp1350
Rp1351
tp1352
a(S'hp newquist'
p1353
g2
(g6
S'\xc4\x8c`2\x0f\xf7\xd2?'
p1354
tp1355
Rp1356
tp1357
a(S'distributed multi-agent reasoning system'
p1358
g2
(g6
S'K\x0ez\x86\x1c\xeb\xd2?'
p1359
tp1360
Rp1361
tp1362
a(S'espionage organizations'
p1363
g2
(g6
S'\xc5\xacv\xd9\n\xe8\xd2?'
p1364
tp1365
Rp1366
tp1367
a(S'yamini aiyar'
p1368
g2
(g6
S'\xce(nq\xab\xe5\xd2?'
p1369
tp1370
Rp1371
tp1372
a(S'diane litman'
p1373
g2
(g6
S'\x19\x87K\x87a\xe2\xd2?'
p1374
tp1375
Rp1376
tp1377
a(S'edward feigenbaum'
p1378
g2
(g6
S'\x92\x98\xc9\x90\xde\xda\xd2?'
p1379
tp1380
Rp1381
tp1382
a(S'william clancey'
p1383
g2
(g6
S'@\xed\xb8\xc7\x08\xda\xd2?'
p1384
tp1385
Rp1386
tp1387
a(S'xaitment'
p1388
g2
(g6
S'\x1f1\xc9\x8fk\xd9\xd2?'
p1389
tp1390
Rp1391
tp1392
a(S'existential risk from artificial ignorance'
p1393
g2
(g6
S'+]\xc0IY\xd9\xd2?'
p1394
tp1395
Rp1396
tp1397
a(S'another (film)'
p1398
g2
(g6
S'/\x1e\\\\j\xcd\xd2?'
p1399
tp1400
Rp1401
tp1402
a(S'collaborative intelligence'
p1403
g2
(g6
S'\t =\x88\x14\xca\xd2?'
p1404
tp1405
Rp1406
tp1407
a(S'jason hadjioannou'
p1408
g2
(g6
S'\xfb\xc9\xd5\xa8\x0f\xc7\xd2?'
p1409
tp1410
Rp1411
tp1412
a(S'list of articles about things which are artificial'
p1413
g2
(g6
S'\xc7!+\xe8\x02\xc5\xd2?'
p1414
tp1415
Rp1416
tp1417
a(S'ai (canaan)'
p1418
g2
(g6
S'M\xfd\xf2\x87M\xbd\xd2?'
p1419
tp1420
Rp1421
tp1422
a(S'vaisigano by-election, 2010'
p1423
g2
(g6
S'\xa8m^\xa1\xe4\xb7\xd2?'
p1424
tp1425
Rp1426
tp1427
a(S'ai husheng'
p1428
g2
(g6
S'\xb8ke\xc4\x01\xae\xd2?'
p1429
tp1430
Rp1431
tp1432
a(S'paolo petta'
p1433
g2
(g6
S'\xd2W\x8d\xc0\xdf\xab\xd2?'
p1434
tp1435
Rp1436
tp1437
a(S'fake (ai song)'
p1438
g2
(g6
S'\xeeQ\xc8\x93T\xa9\xd2?'
p1439
tp1440
Rp1441
tp1442
a(S'tom m. mitchell'
p1443
g2
(g6
S'\xa5\xac\x93U\x86\x98\xd2?'
p1444
tp1445
Rp1446
tp1447
a(S'marvin minsky'
p1448
g2
(g6
S'\xd2KV\xcc\xcf\x90\xd2?'
p1449
tp1450
Rp1451
tp1452
a(S'victor allis'
p1453
g2
(g6
S'\x04\x1f\xd34\xe7\x8e\xd2?'
p1454
tp1455
Rp1456
tp1457
a(S'appreciative inquiry'
p1458
g2
(g6
S'Xu\x8eY\xe0\x89\xd2?'
p1459
tp1460
Rp1461
tp1462
a(S'action model learning'
p1463
g2
(g6
S'\xf56\xf6;\x92\x89\xd2?'
p1464
tp1465
Rp1466
tp1467
a(S'ai xia'
p1468
g2
(g6
S'\xabs\x13\xf2\x9d\x88\xd2?'
p1469
tp1470
Rp1471
tp1472
a(S'me: a novel of self-discovery'
p1473
g2
(g6
S'\x8d\xa0\xd6\x88M\x84\xd2?'
p1474
tp1475
Rp1476
tp1477
a(S'peter nordin'
p1478
g2
(g6
S'>\xfe\x95\xb1\x08\x83\xd2?'
p1479
tp1480
Rp1481
tp1482
a(S'true love (manga)'
p1483
g2
(g6
S'r\xe7\xc5v\xf1\x82\xd2?'
p1484
tp1485
Rp1486
tp1487
a(S'european master program in computational logic'
p1488
g2
(g6
S'\xd9\xd4"\x91\xa5\x82\xd2?'
p1489
tp1490
Rp1491
tp1492
a(S"mu'ayyid al-din ai-aba"
p1493
g2
(g6
S'\xde\xb5\xfaOC\x82\xd2?'
p1494
tp1495
Rp1496
tp1497
a(S'ai siqi'
p1498
g2
(g6
S'\x15\xb8\x05\x85\xb6z\xd2?'
p1499
tp1500
Rp1501
tp1502
a(S'history of natural language processing'
p1503
g2
(g6
S'"\xc2\x0f\xe7\xa9w\xd2?'
p1504
tp1505
Rp1506
tp1507
a(S'cantando hist\xc3\xb3rias'
p1508
g2
(g6
S'\x80\xe4\x1f\xbd\x9dt\xd2?'
p1509
tp1510
Rp1511
tp1512
a.