(lp0
(S'atari'
p1
cnumpy.core.multiarray
scalar
p2
(cnumpy
dtype
p3
(S'f8'
p4
I0
I1
tp5
Rp6
(I3
S'<'
p7
NNNI-1
I-1
I0
tp8
bS'\xfe\xff\xff\xff\xff\xff\xef?'
p9
tp10
Rp11
tp12
a(S'atari corporation'
p13
g2
(g6
S'\xa5^0P?\x8d\xed?'
p14
tp15
Rp16
tp17
a(S'atari (disambiguation)'
p18
g2
(g6
S'\xbb\x12}\x9c3\r\xed?'
p19
tp20
Rp21
tp22
a(S'atari vault'
p23
g2
(g6
S'\xdf\x84|/\xa5\xe5\xec?'
p24
tp25
Rp26
tp27
a(S'atari, sa'
p28
g2
(g6
S'=\x9b\x9f\x95\xd0\xd7\xec?'
p29
tp30
Rp31
tp32
a(S'atari, inc.'
p33
g2
(g6
S'}\xbd\xe6=?\xaf\xec?'
p34
tp35
Rp36
tp37
a(S'atari age (magazine)'
p38
g2
(g6
S'\xdb\x8dG\xc2x9\xec?'
p39
tp40
Rp41
tp42
a(S'list of atari lynx games'
p43
g2
(g6
S'U3{=\xb6\xe8\xeb?'
p44
tp45
Rp46
tp47
a(S'atari 2600'
p48
g2
(g6
S'\x11\x90\x82\xe6\xdf\xcb\xeb?'
p49
tp50
Rp51
tp52
a(S'atari interactive'
p53
g2
(g6
S'\xe8\xa8\x89\xbf\xa2_\xeb?'
p54
tp55
Rp56
tp57
a(S'atari 7800'
p58
g2
(g6
S']\xbc\xe8\x00\xde\xfc\xea?'
p59
tp60
Rp61
tp62
a(S'atari games'
p63
g2
(g6
S'\xa4\xecj<\x1e\xbb\xea?'
p64
tp65
Rp66
tp67
a(S'de re atari'
p68
g2
(g6
S'\x8f\x8d\xb8\x054\xb2\xea?'
p69
tp70
Rp71
tp72
a(S'atari xegs'
p73
g2
(g6
S'h\xfa\xe9\x84\x88:\xea?'
p74
tp75
Rp76
tp77
a(S'list of atari jaguar games'
p78
g2
(g6
S'\xc4\xd1\x8e\x12\xa37\xea?'
p79
tp80
Rp81
tp82
a(S'jochen hippel'
p83
g2
(g6
S'\x018\xef\x0f\x1e\xa5\xe9?'
p84
tp85
Rp86
tp87
a(S'list of arcade video games: not released'
p88
g2
(g6
S'\xfa;\xf3\xec\x8c/\xe9?'
p89
tp90
Rp91
tp92
a(S'ray kassar'
p93
g2
(g6
S'P]M\x12\x9b\xff\xe8?'
p94
tp95
Rp96
tp97
a(S'atari anniversary edition'
p98
g2
(g6
S'h\xb2\xa8\xbf\x8c\xf6\xe8?'
p99
tp100
Rp101
tp102
a(S'atari anthology'
p103
g2
(g6
S'\xb3\xb2\xe8\xb3\xcfk\xe8?'
p104
tp105
Rp106
tp107
a(S'atari program exchange'
p108
g2
(g6
S'\xc3\xd2\x0b\x0b\xee.\xe8?'
p109
tp110
Rp111
tp112
a(S'infogrames'
p113
g2
(g6
S'2\x19\x15\xf2\xb5*\xe8?'
p114
tp115
Rp116
tp117
a(S'atari user'
p118
g2
(g6
S'l/\x84\x88|*\xe8?'
p119
tp120
Rp121
tp122
a(S'list of atari 5200 games'
p123
g2
(g6
S'\xfe]l\xe7\xa3\xf3\xe7?'
p124
tp125
Rp126
tp127
a(S'list of atari 2600 prototype games'
p128
g2
(g6
S'\xe6\xdeF\x0c\x88\x95\xe7?'
p129
tp130
Rp131
tp132
a(S'shosh atari'
p133
g2
(g6
S'KBV\xab\xfdy\xe7?'
p134
tp135
Rp136
tp137
a(S'atari football'
p138
g2
(g6
S'\x9f\x1b\xcbp9b\xe7?'
p139
tp140
Rp141
tp142
a(S'kee games'
p143
g2
(g6
S'S4\xe0\x17\x99_\xe7?'
p144
tp145
Rp146
tp147
a(S'page 6'
p148
g2
(g6
S'4\xdc\x19=\x05&\xe7?'
p149
tp150
Rp151
tp152
a(S'gali atari'
p153
g2
(g6
S'-\x987\xe4\x1f\xff\xe6?'
p154
tp155
Rp156
tp157
a(S'atari 5200'
p158
g2
(g6
S'\xde\xb8k\xf7\xa2\xfd\xe6?'
p159
tp160
Rp161
tp162
a(S'atariwriter'
p163
g2
(g6
S'1\xa5\x83f\xa1}\xe6?'
p164
tp165
Rp166
tp167
a(S'atari st'
p168
g2
(g6
S'8\x10\xfbj\xe6|\xe6?'
p169
tp170
Rp171
tp172
a(S'shiraz shivji'
p173
g2
(g6
S'#g\x07\x91\x05<\xe6?'
p174
tp175
Rp176
tp177
a(S'carol shaw (video game designer)'
p178
g2
(g6
S'u\x82U\x9f\xdd3\xe6?'
p179
tp180
Rp181
tp182
a(S'howard scott warshaw'
p183
g2
(g6
S'\xbb\xd58:P1\xe6?'
p184
tp185
Rp186
tp187
a(S'ed logg'
p188
g2
(g6
S'A\xd1\\\xdb\xc0,\xe6?'
p189
tp190
Rp191
tp192
a(S'larry kaplan'
p193
g2
(g6
S'\x9d\x02Pa\xd9\x1f\xe6?'
p194
tp195
Rp196
tp197
a(S'st action'
p198
g2
(g6
S'wI\xf2T\xc4\xe9\xe5?'
p199
tp200
Rp201
tp202
a(S'atari flashback'
p203
g2
(g6
S'",f\xa8\xf9\xd8\xe5?'
p204
tp205
Rp206
tp207
a(S'list of atari 7800 games'
p208
g2
(g6
S'7\xf5\xa3\x11G\xc5\xe5?'
p209
tp210
Rp211
tp212
a(S'atari democrat'
p213
g2
(g6
S'<p\x7f\xd04\x9d\xe5?'
p214
tp215
Rp216
tp217
a(S'atari 8-bit computer software'
p218
g2
(g6
S'uzL\xf3\xb7\x89\xe5?'
p219
tp220
Rp221
tp222
a(S'kyle peschel'
p223
g2
(g6
S"\xdf'Nl\xb3\x7f\xe5?"
p224
tp225
Rp226
tp227
a(S'atari logo'
p228
g2
(g6
S'CC?kU\x7f\xe5?'
p229
tp230
Rp231
tp232
a(S'atari video game burial'
p233
g2
(g6
S'\xa5\xc7\xc6]0~\xe5?'
p234
tp235
Rp236
tp237
a(S'atari (jakks pacific)'
p238
g2
(g6
S'\xc7\x17#%\xeeo\xe5?'
p239
tp240
Rp241
tp242
a(S'gremlins (video game)'
p243
g2
(g6
S'\xf1\x02\x97\xb2vD\xe5?'
p244
tp245
Rp246
tp247
a(S'zimag'
p248
g2
(g6
S'\xffL\xb1\xceS?\xe5?'
p249
tp250
Rp251
tp252
a(S'fight night (1985 video game)'
p253
g2
(g6
S'hf\xffe\x9c:\xe5?'
p254
tp255
Rp256
tp257
a(S'english software'
p258
g2
(g6
S'\x1f\xa1\x91\xc4\xd03\xe5?'
p259
tp260
Rp261
tp262
a(S'atari 8-bit family'
p263
g2
(g6
S'\xb2e\x87\x13\xa21\xe5?'
p264
tp265
Rp266
tp267
a(S'george opperman'
p268
g2
(g6
S'0\xcb\xbdR-\x01\xe5?'
p269
tp270
Rp271
tp272
a(S'atari panther'
p273
g2
(g6
S'G\x84\\\r\xd6\xfc\xe4?'
p274
tp275
Rp276
tp277
a(S'adventure (atari 2600)'
p278
g2
(g6
S'\xd1\xa9\xa5\x81j\xda\xe4?'
p279
tp280
Rp281
tp282
a(S'air support'
p283
g2
(g6
S'B\xbe\xcaS\xc4\xc5\xe4?'
p284
tp285
Rp286
tp287
a(S'megamania'
p288
g2
(g6
S'\x8d]\xb7\x99\x00\xa6\xe4?'
p289
tp290
Rp291
tp292
a(S'retro atari classics'
p293
g2
(g6
S'\xc4\xc2\xc8\x8a\x8c\x96\xe4?'
p294
tp295
Rp296
tp297
a(S'alan miller (game designer)'
p298
g2
(g6
S'\x96\x9fOR\x96{\xe4?'
p299
tp300
Rp301
tp302
a(S'e.t. the extra-terrestrial (video game)'
p303
g2
(g6
S'\x18Xc\x86\x8a{\xe4?'
p304
tp305
Rp306
tp307
a(S'novagen software'
p308
g2
(g6
S'S\x90N\xac\xa4p\xe4?'
p309
tp310
Rp311
tp312
a(S'cyan engineering'
p313
g2
(g6
S'6\xfb,\x98~Q\xe4?'
p314
tp315
Rp316
tp317
a(S'basketbrawl'
p318
g2
(g6
S"\x1d'\xc3\xa7\x82:\xe4?"
p319
tp320
Rp321
tp322
a(S'atari 2600 homebrew'
p323
g2
(g6
S'\xbd\x97\xe7\xed\x93\x14\xe4?'
p324
tp325
Rp326
tp327
a(S'pac-man (1982 video game)'
p328
g2
(g6
S'O=ek\x1c\xf0\xe3?'
p329
tp330
Rp331
tp332
a(S'atari, inc. (atari, sa subsidiary)'
p333
g2
(g6
S'\xe0$\x8dU\xb0\xb8\xe3?'
p334
tp335
Rp336
tp337
a(S'time warner interactive'
p338
g2
(g6
S'`\x16\x18m\x1b\xad\xe3?'
p339
tp340
Rp341
tp342
a(S'pc atari emulator'
p343
g2
(g6
S'$\xc6\x9cA\xf6\xab\xe3?'
p344
tp345
Rp346
tp347
a(S'equinox (atari demogroup)'
p348
g2
(g6
S'\xb9\x14\x9a{|\xab\xe3?'
p349
tp350
Rp351
tp352
a(S'list of dedicated consoles'
p353
g2
(g6
S'\x0c,\xbd\xecy\xa3\xe3?'
p354
tp355
Rp356
tp357
a(S'atari karts'
p358
g2
(g6
S'\x8bf\xdd<H\x86\xe3?'
p359
tp360
Rp361
tp362
a(S'warren robinett'
p363
g2
(g6
S'\x89\x97\xc5\xc7g\x80\xe3?'
p364
tp365
Rp366
tp367
a(S'start (magazine)'
p368
g2
(g6
S'(\x9c\xfb-\x11;\xe3?'
p369
tp370
Rp371
tp372
a(S'atari sap music format'
p373
g2
(g6
S"Pa\x1a\xa8'9\xe3?"
p374
tp375
Rp376
tp377
a(S'carla meninsky'
p378
g2
(g6
S'\xe5\xeb=\xc6O.\xe3?'
p379
tp380
Rp381
tp382
a(S'shepardson microsystems'
p383
g2
(g6
S'\x12 \xc6Q\xfc%\xe3?'
p384
tp385
Rp386
tp387
a(S'atari force'
p388
g2
(g6
S'^\x86\x8b\xc1\x01\x1b\xe3?'
p389
tp390
Rp391
tp392
a(S'st book'
p393
g2
(g6
S'I\x83^e\xbd\x18\xe3?'
p394
tp395
Rp396
tp397
a(S'bruno bonnell'
p398
g2
(g6
S'\x12\xde\xb0\x1d\xaa\x08\xe3?'
p399
tp400
Rp401
tp402
a(S'atari cosmos'
p403
g2
(g6
S'\xec=\x14\x8b\xca\xf2\xe2?'
p404
tp405
Rp406
tp407
a(S'tod frye'
p408
g2
(g6
S'&\xe5v&\xfd\xe3\xe2?'
p409
tp410
Rp411
tp412
a(S'froggo'
p413
g2
(g6
S'\xa74\xab\xca\xd1\xc9\xe2?'
p414
tp415
Rp416
tp417
a(S"arcade's greatest hits: the atari collection 1"
p418
g2
(g6
S'\x06\xdb\xdc*\xe7\xc0\xe2?'
p419
tp420
Rp421
tp422
a(S'atari 2600 hardware'
p423
g2
(g6
S'`\xaf\xc9]\xda\xad\xe2?'
p424
tp425
Rp426
tp427
a(S'atari 2700'
p428
g2
(g6
S'\xbc?3P;\xa2\xe2?'
p429
tp430
Rp431
tp432
a(S'atari st user'
p433
g2
(g6
S'\xb2\xbc\x1av\x1b\xa2\xe2?'
p434
tp435
Rp436
tp437
a(S'brad fuller (composer)'
p438
g2
(g6
S'\x89\x8a\xc5\xb4\xa4x\xe2?'
p439
tp440
Rp441
tp442
a(S'atari lynx'
p443
g2
(g6
S')B\n\xcf\x19]\xe2?'
p444
tp445
Rp446
tp447
a(S'alien brigade'
p448
g2
(g6
S'"\xa4\xd8\xd0S\\\xe2?'
p449
tp450
Rp451
tp452
a(S'space war'
p453
g2
(g6
S'\x964\x0b\x17\xeeX\xe2?'
p454
tp455
Rp456
tp457
a(S'cloak & dagger (video game)'
p458
g2
(g6
S'g\xf85\xc5x@\xe2?'
p459
tp460
Rp461
tp462
a(S'star ship'
p463
g2
(g6
S'\xc0%\xd3M\xde\x1f\xe2?'
p464
tp465
Rp466
tp467
a(S'garfield (atari game)'
p468
g2
(g6
S'6\xda\xeco\xa8\x17\xe2?'
p469
tp470
Rp471
tp472
a(S'tigervision'
p473
g2
(g6
S'\x88kJr\x1e\t\xe2?'
p474
tp475
Rp476
tp477
a(S'star raiders'
p478
g2
(g6
S'\xb1kG-\xf9\x02\xe2?'
p479
tp480
Rp481
tp482
a(S'atarilab'
p483
g2
(g6
S'M\xc8\xbd\xb2\xb2\xf5\xe1?'
p484
tp485
Rp486
tp487
a(S'tom hudson (programmer)'
p488
g2
(g6
S'\xa2\xf9j\xc5\xdc\xe9\xe1?'
p489
tp490
Rp491
tp492
a(S'atari microsoft basic'
p493
g2
(g6
S"H*'x\x97\xe8\xe1?"
p494
tp495
Rp496
tp497
a(S'attack of the mutant penguins'
p498
g2
(g6
S'@\x97A\xd6e\xe3\xe1?'
p499
tp500
Rp501
tp502
a(S'atari sierra'
p503
g2
(g6
S'g\xcb5\xb7\x0b\xbe\xe1?'
p504
tp505
Rp506
tp507
a(S'james j. morgan'
p508
g2
(g6
S'WO\x92u\xd9\xb6\xe1?'
p509
tp510
Rp511
tp512
a(S'electronic games'
p513
g2
(g6
S'8\xbf#\xad\x9b~\xe1?'
p514
tp515
Rp516
tp517
a(S'deflektor'
p518
g2
(g6
S'\xd3[\xf2|lq\xe1?'
p519
tp520
Rp521
tp522
a(S'list of game room games'
p523
g2
(g6
S'\x06V{\xbe\xe2e\xe1?'
p524
tp525
Rp526
tp527
a(S'zenji (video game)'
p528
g2
(g6
S'F(Q\xbb!c\xe1?'
p529
tp530
Rp531
tp532
a(S'list of atari xegs games'
p533
g2
(g6
S'\xba<\xe8#y\\\xe1?'
p534
tp535
Rp536
tp537
a(S'sssnake'
p538
g2
(g6
S'\x90\xb3\xda`\x17R\xe1?'
p539
tp540
Rp541
tp542
a(S'elimination (video game)'
p543
g2
(g6
S'Ps\n\xb6OK\xe1?'
p544
tp545
Rp546
tp547
a(S'mapping the atari'
p548
g2
(g6
S'\xf6\xe6t<\x1eB\xe1?'
p549
tp550
Rp551
tp552
a(S'tank (video game)'
p553
g2
(g6
S'\xf7`\x83x\x036\xe1?'
p554
tp555
Rp556
tp557
a(S'canyon bomber'
p558
g2
(g6
S'\xac\r/\xa8\x915\xe1?'
p559
tp560
Rp561
tp562
a(S'atari coldfire project'
p563
g2
(g6
S"\xceh`\tT'\xe1?"
p564
tp565
Rp566
tp567
a(S'atari basic'
p568
g2
(g6
S'\x9d^\xb6\x0b~\x1d\xe1?'
p569
tp570
Rp571
tp572
a(S'list of hasbro interactive video games'
p573
g2
(g6
S'\x08se$\x98\x13\xe1?'
p574
tp575
Rp576
tp577
a(S'outlaw (video game)'
p578
g2
(g6
S'\x05W\xea\xb7\x89\x10\xe1?'
p579
tp580
Rp581
tp582
a(S'epyx'
p583
g2
(g6
S'\x9f:\xf2o\x08\xfd\xe0?'
p584
tp585
Rp586
tp587
a(S'off the wall (1989 video game)'
p588
g2
(g6
S'\x1d\xf0\xad\x0b\xb3\xe5\xe0?'
p589
tp590
Rp591
tp592
a(S'atari greatest hits'
p593
g2
(g6
S"M'\x0csk\xd7\xe0?"
p594
tp595
Rp596
tp597
a(S'stargunner (atari 2600)'
p598
g2
(g6
S'\x7f\xdd\xb0\xa1\x94\xce\xe0?'
p599
tp600
Rp601
tp602
a(S'bob whitehead'
p603
g2
(g6
S'h!\x05\xda\x9d\xc0\xe0?'
p604
tp605
Rp606
tp607
a(S'pong'
p608
g2
(g6
S'\xa7\xe3\xec\x84\x9f\xb4\xe0?'
p609
tp610
Rp611
tp612
a(S'rob fulop'
p613
g2
(g6
S'{\x94k$\xa1\xaf\xe0?'
p614
tp615
Rp616
tp617
a(S'atari joystick port'
p618
g2
(g6
S'u\xcf\xeci\x94\x9c\xe0?'
p619
tp620
Rp621
tp622
a(S'wizard (2005 video game)'
p623
g2
(g6
S'\xc8\xd1\x16Ld\x8e\xe0?'
p624
tp625
Rp626
tp627
a(S'basic math (video game)'
p628
g2
(g6
S'\x7f\x80\xe4\xd8\xa7z\xe0?'
p629
tp630
Rp631
tp632
a(S'space race (video game)'
p633
g2
(g6
S'O\x80/>\x9ds\xe0?'
p634
tp635
Rp636
tp637
a(S'amiga corporation'
p638
g2
(g6
S'\x1b!\xb8#\xf9p\xe0?'
p639
tp640
Rp641
tp642
a(S'eutechnyx'
p643
g2
(g6
S'\xed\x03.\x87\xf0m\xe0?'
p644
tp645
Rp646
tp647
a(S'lyle rains'
p648
g2
(g6
S's\xb6\xa8T\x03k\xe0?'
p649
tp650
Rp651
tp652
a(S'entombed (1982 video game)'
p653
g2
(g6
S'\xdd\x08\x0f}\x9bi\xe0?'
p654
tp655
Rp656
tp657
a(S'video chess'
p658
g2
(g6
S'\x81\xe8\xa2\xf5\xeah\xe0?'
p659
tp660
Rp661
tp662
a(S'my first alphabet'
p663
g2
(g6
S'A\xa9\x1e\xf0\xd6f\xe0?'
p664
tp665
Rp666
tp667
a(S'typo attack'
p668
g2
(g6
S'\xdd\x00\xe9Bk[\xe0?'
p669
tp670
Rp671
tp672
a(S'jt storage'
p673
g2
(g6
S'\xc1E\x05\xc7`Z\xe0?'
p674
tp675
Rp676
tp677
a(S'david crane (programmer)'
p678
g2
(g6
S'\xecW\xd5\xbe\xeaK\xe0?'
p679
tp680
Rp681
tp682
a(S'dona bailey'
p683
g2
(g6
S'\xfc^\x82N\xdcK\xe0?'
p684
tp685
Rp686
tp687
a(S'pro(c) atari'
p688
g2
(g6
S'#\xc3\xe7x\xa9F\xe0?'
p689
tp690
Rp691
tp692
a(S'atari 8-bit computer peripherals'
p693
g2
(g6
S'\xcd\x97\xc2\xe5\x88E\xe0?'
p694
tp695
Rp696
tp697
a(S'atari system'
p698
g2
(g6
S"z\xa45'=@\xe0?"
p699
tp700
Rp701
tp702
a(S'atari games corp. v. nintendo of america inc.'
p703
g2
(g6
S'\x08U\xa3\xcf\x10>\xe0?'
p704
tp705
Rp706
tp707
a(S'tengen (company)'
p708
g2
(g6
S'\xb9\xb40W\x13:\xe0?'
p709
tp710
Rp711
tp712
a(S'atari stacy'
p713
g2
(g6
S"1\xad\xe9E\x16'\xe0?"
p714
tp715
Rp716
tp717
a(S'xg-1'
p718
g2
(g6
S'6mx|\x9b$\xe0?'
p719
tp720
Rp721
tp722
a(S'atari 1020'
p723
g2
(g6
S'\xf2\xbd\xf1\xcd\x93\x18\xe0?'
p724
tp725
Rp726
tp727
a(S'checkered flag (video game)'
p728
g2
(g6
S'!^{{\xf4\x16\xe0?'
p729
tp730
Rp731
tp732
a(S'starpath supercharger'
p733
g2
(g6
S'\xce\xa2\x8f\x83.\x0f\xe0?'
p734
tp735
Rp736
tp737
a(S'atari jaguar'
p738
g2
(g6
S'\xe3\x94\x15\xf7b\t\xe0?'
p739
tp740
Rp741
tp742
a(S'list of atari sa video games'
p743
g2
(g6
S'\xe4\xcfo\x8b\x11\t\xe0?'
p744
tp745
Rp746
tp747
a(S'atari portfolio'
p748
g2
(g6
S'\x82[\x83t\xde\x08\xe0?'
p749
tp750
Rp751
tp752
a(S'jumpman'
p753
g2
(g6
S'T/K\x7f\xb4\x08\xe0?'
p754
tp755
Rp756
tp757
a(S'happy computers'
p758
g2
(g6
S'\x9b\xca]\x83\x9f\x05\xe0?'
p759
tp760
Rp761
tp762
a(S'space shuttle: a journey into space'
p763
g2
(g6
S'\xeb\x88\x8e3K\x02\xe0?'
p764
tp765
Rp766
tp767
a(S'kelstar'
p768
g2
(g6
S'\x17\xdf\xfd\x0f\xaf\x00\xe0?'
p769
tp770
Rp771
tp772
a(S'battlezone (1980 video game)'
p773
g2
(g6
S'bJ\xef\x9c\xec\xc5\xdf?'
p774
tp775
Rp776
tp777
a(S'river patrol (video game)'
p778
g2
(g6
S'\x9d\xd4K\x06\xa6\xad\xdf?'
p779
tp780
Rp781
tp782
a(S'realsports boxing'
p783
g2
(g6
S"`'\xe7\xb9!\xa5\xdf?"
p784
tp785
Rp786
tp787
a(S'quadrun'
p788
g2
(g6
S'\x90wj\x11G\x81\xdf?'
p789
tp790
Rp791
tp792
a(S'bandai namco partners'
p793
g2
(g6
S'\xa2\x8b\x1e?\xacp\xdf?'
p794
tp795
Rp796
tp797
a(S'north american video game crash of 1983'
p798
g2
(g6
S'E\xbc?\xa0N^\xdf?'
p799
tp800
Rp801
tp802
a(S'david lowe (video game composer)'
p803
g2
(g6
S'\xe5d\xbb\xa3\x91L\xdf?'
p804
tp805
Rp806
tp807
a(S'analog computing'
p808
g2
(g6
S'\xcbb\x9bX\x87J\xdf?'
p809
tp810
Rp811
tp812
a(S'atari game brain'
p813
g2
(g6
S'h\\\xb1\xd8d&\xdf?'
p814
tp815
Rp816
tp817
a(S'software automatic mouth'
p818
g2
(g6
S'r\xba\nX\\\xfc\xde?'
p819
tp820
Rp821
tp822
a(S'i-war'
p823
g2
(g6
S'\x1f\xabW\xea\x07\xf6\xde?'
p824
tp825
Rp826
tp827
a(S'blue lightning'
p828
g2
(g6
S'\xc6\x9c\xbd\xffo\xd9\xde?'
p829
tp830
Rp831
tp832
a(S'optimized systems software'
p833
g2
(g6
S' \xd8\xc18\xb6\xbd\xde?'
p834
tp835
Rp836
tp837
a(S"yars' revenge"
p838
g2
(g6
S'\xac\x04\x07H\x82x\xde?'
p839
tp840
Rp841
tp842
a(S'beyond games'
p843
g2
(g6
S'\xc1\xa2ck\xa6f\xde?'
p844
tp845
Rp846
tp847
a(S'night driver (arcade game)'
p848
g2
(g6
S'\xb6U;\x80d^\xde?'
p849
tp850
Rp851
tp852
a(S'second generation of video game consoles'
p853
g2
(g6
S'\xa3/\xa4\x0e\xb4P\xde?'
p854
tp855
Rp856
tp857
a(S'nolan bushnell'
p858
g2
(g6
S'\x9f?1\xf6\x89O\xde?'
p859
tp860
Rp861
tp862
a(S'antic software'
p863
g2
(g6
S'\xe9M!\xc8\xc8<\xde?'
p864
tp865
Rp866
tp867
a(S"crack'ed"
p868
g2
(g6
S'K\xeby\x88s5\xde?'
p869
tp870
Rp871
tp872
a(S'stunt cycle'
p873
g2
(g6
S'\x17\xc1l\x9a\xab#\xde?'
p874
tp875
Rp876
tp877
a(S"val d'is\xc3\xa8re skiing and snowboarding"
p878
g2
(g6
S'/\xa6a\x8a\xbb\x1f\xde?'
p879
tp880
Rp881
tp882
a(S'compumate'
p883
g2
(g6
S'\x0e\xbf\xf4}\xb9\x1f\xde?'
p884
tp885
Rp886
tp887
a(S'galahad and the holy grail'
p888
g2
(g6
S'V\x11\xd1\xe8}\x1c\xde?'
p889
tp890
Rp891
tp892
a(S'viking child'
p893
g2
(g6
S'\xf5\xf9\xd0\x1b\xd4\x19\xde?'
p894
tp895
Rp896
tp897
a(S'river raid'
p898
g2
(g6
S'h\x9cI\x054\x17\xde?'
p899
tp900
Rp901
tp902
a(S'jet fighter (video game)'
p903
g2
(g6
S'>G\x0b\xb9\x08\x10\xde?'
p904
tp905
Rp906
tp907
a(S'jawbreaker (video game)'
p908
g2
(g6
S'$!th\xa2\xff\xdd?'
p909
tp910
Rp911
tp912
a(S'russ wetmore'
p913
g2
(g6
S'\xda\xf3\x1d\xb7\x1e\xf8\xdd?'
p914
tp915
Rp916
tp917
a(S'stella (emulator)'
p918
g2
(g6
S'\x1arc1\x0c\xc2\xdd?'
p919
tp920
Rp921
tp922
a(S'racing the beam'
p923
g2
(g6
S'\x1bW\xcbVvy\xdd?'
p924
tp925
Rp926
tp927
a(S'turbo-basic xl'
p928
g2
(g6
S'\x8e\x0b\x86\x91f]\xdd?'
p929
tp930
Rp931
tp932
a(S'atari punk console'
p933
g2
(g6
S"\xa3'.<.]\xdd?"
p934
tp935
Rp936
tp937
a(S'atarisoft'
p938
g2
(g6
S'\xc2Z"\xe3\x98 \xdd?'
p939
tp940
Rp941
tp942
a(S'dandy (video game)'
p943
g2
(g6
S'\x04\xb7\xc5\xe7\xd4\x10\xdd?'
p944
tp945
Rp946
tp947
a(S'food fight (video game)'
p948
g2
(g6
S'\xc8.\x87\xcf\xa0\x03\xdd?'
p949
tp950
Rp951
tp952
a(S'loopz'
p953
g2
(g6
S'\x97\xb4<\x04\x15\xfe\xdc?'
p954
tp955
Rp956
tp957
a(S'steeplechase (video game)'
p958
g2
(g6
S'#M\xa0P\xc5\xf6\xdc?'
p959
tp960
Rp961
tp962
a(S'atari tt030'
p963
g2
(g6
S'\xa6\xfc\xac-\x17\xf6\xdc?'
p964
tp965
Rp966
tp967
a(S'atari assembler editor'
p968
g2
(g6
S'@@i\xb2\x0b\xf0\xdc?'
p969
tp970
Rp971
tp972
a(S'john harris (software developer)'
p973
g2
(g6
S'\xea&\xc0\xac\xd8\xd6\xdc?'
p974
tp975
Rp976
tp977
a(S'tempest (video game)'
p978
g2
(g6
S'\xb7\x9b\xa7\xdb~\xca\xdc?'
p979
tp980
Rp981
tp982
a(S'basic a+'
p983
g2
(g6
S'\x8b\x19z\xa6\xb2\xbf\xdc?'
p984
tp985
Rp986
tp987
a(S'swordquest'
p988
g2
(g6
S'\xe2D\xb1\t\x1e\xba\xdc?'
p989
tp990
Rp991
tp992
a(S'hi-way'
p993
g2
(g6
S'<\xe8\x14\xa0R\xb8\xdc?'
p994
tp995
Rp996
tp997
a(S'imagic'
p998
g2
(g6
S'\x8bp\xd1\xfe"\x87\xdc?'
p999
tp1000
Rp1001
tp1002
a(S'atlantis software'
p1003
g2
(g6
S']\xabN\xf8\x8a\x7f\xdc?'
p1004
tp1005
Rp1006
tp1007
a(S'lk avalon'
p1008
g2
(g6
S'\xac\xd6f\x9cup\xdc?'
p1009
tp1010
Rp1011
tp1012
a(S'frank ostrowski'
p1013
g2
(g6
S'\x19\x9d\xd8\xc3__\xdc?'
p1014
tp1015
Rp1016
tp1017
a(S'gravitar'
p1018
g2
(g6
S'\x9c\xc1<I\x1bV\xdc?'
p1019
tp1020
Rp1021
tp1022
a(S'street racer (1977 video game)'
p1023
g2
(g6
S'1\xb0\xd2\xdcwN\xdc?'
p1024
tp1025
Rp1026
tp1027
a(S'video pinball'
p1028
g2
(g6
S'\xe6\xbf\xdeD\xb6>\xdc?'
p1029
tp1030
Rp1031
tp1032
a(S'1984 in video gaming'
p1033
g2
(g6
S'\x97\xe22\x9b\x917\xdc?'
p1034
tp1035
Rp1036
tp1037
a(S'games computers play'
p1038
g2
(g6
S'w2\xd2\xf4\xcf3\xdc?'
p1039
tp1040
Rp1041
tp1042
a(S'allan alcorn'
p1043
g2
(g6
S'\x86\xf8\x8bt\xd0*\xdc?'
p1044
tp1045
Rp1046
tp1047
a(S'coleco gemini'
p1048
g2
(g6
S"\xa9\x8cfV}'\xdc?"
p1049
tp1050
Rp1051
tp1052
a(S'tv boy'
p1053
g2
(g6
S'\xe5\x99\xba\xaa\xae%\xdc?'
p1054
tp1055
Rp1056
tp1057
a(S'micrographic image'
p1058
g2
(g6
S'tZ\xd1\xf1\xe1\x14\xdc?'
p1059
tp1060
Rp1061
tp1062
a(S'spiderdroid'
p1063
g2
(g6
S'\x98\x08 l\xc6\x02\xdc?'
p1064
tp1065
Rp1066
tp1067
a(S'super bug (video game)'
p1068
g2
(g6
S'\x11\xf5DC#\xfb\xdb?'
p1069
tp1070
Rp1071
tp1072
a(S'star wars (1983 video game)'
p1073
g2
(g6
S'\xb5\x10\x9a\xce\x91\xed\xdb?'
p1074
tp1075
Rp1076
tp1077
a(S'the dukes of hazzard (video game)'
p1078
g2
(g6
S'\x95\x0fs\xbd>\xb9\xdb?'
p1079
tp1080
Rp1081
tp1082
a(S'atari amy'
p1083
g2
(g6
S'\xdb\xdaH*\xe4\xad\xdb?'
p1084
tp1085
Rp1086
tp1087
a(S'dave theurer'
p1088
g2
(g6
S'\xd2\xa4\xb3\xc1*\xac\xdb?'
p1089
tp1090
Rp1091
tp1092
a(S'caverns of mars'
p1093
g2
(g6
S'\xa1%g\x83\xdc\x84\xdb?'
p1094
tp1095
Rp1096
tp1097
a(S'road runner (video game)'
p1098
g2
(g6
S'\x81N\x188Lz\xdb?'
p1099
tp1100
Rp1101
tp1102
a(S'astro chase'
p1103
g2
(g6
S'\\\x0eM\xe6\xbfm\xdb?'
p1104
tp1105
Rp1106
tp1107
a(S'1st word/1st word plus'
p1108
g2
(g6
S')\x94j\x909a\xdb?'
p1109
tp1110
Rp1111
tp1112
a(S'gauntlet: the third encounter'
p1113
g2
(g6
S'\xbd\xc9\x9f\x86Y\\\xdb?'
p1114
tp1115
Rp1116
tp1117
a(S'steel talons'
p1118
g2
(g6
S'0\xe92c\xbaM\xdb?'
p1119
tp1120
Rp1121
tp1122
a(S'eastern front (1941)'
p1123
g2
(g6
S'\xdc\xd7oU{/\xdb?'
p1124
tp1125
Rp1126
tp1127
a(S'mean 18'
p1128
g2
(g6
S']\x1b\x0e\xbb\xbb!\xdb?'
p1129
tp1130
Rp1131
tp1132
a(S'action biker'
p1133
g2
(g6
S'`\x8bA\xcd\xff\r\xdb?'
p1134
tp1135
Rp1136
tp1137
a(S'1974 in video gaming'
p1138
g2
(g6
S'%SmX\xc2\xf3\xda?'
p1139
tp1140
Rp1141
tp1142
a(S'atari falcon'
p1143
g2
(g6
S'\xd41\xad\x1f\xea\xef\xda?'
p1144
tp1145
Rp1146
tp1147
a(S'mx rider'
p1148
g2
(g6
S'B\xde\x18\xf35\xea\xda?'
p1149
tp1150
Rp1151
tp1152
a(S'k-razy shoot-out'
p1153
g2
(g6
S'1\xd3E\xaa\xa2\xde\xda?'
p1154
tp1155
Rp1156
tp1157
a(S'interactive picture systems'
p1158
g2
(g6
S'\xe5\xbd\x03\xa1\xf0\xc9\xda?'
p1159
tp1160
Rp1161
tp1162
a(S'f-1 (arcade game)'
p1163
g2
(g6
S'g7ZM\xaa\xc7\xda?'
p1164
tp1165
Rp1166
tp1167
a(S'shark jaws'
p1168
g2
(g6
S'\x02\xfa\xae\x1e\x94\xc6\xda?'
p1169
tp1170
Rp1171
tp1172
a(S'warlords (1980 video game)'
p1173
g2
(g6
S'Up\xb2\xa3\xf3\xaf\xda?'
p1174
tp1175
Rp1176
tp1177
a(S'atari mmu'
p1178
g2
(g6
S'\x8e \x05\\c\xa7\xda?'
p1179
tp1180
Rp1181
tp1182
a(S'pitfall ii: lost caverns'
p1183
g2
(g6
S']\xdbP\x86\x97\xa1\xda?'
p1184
tp1185
Rp1186
tp1187
a(S'atari blitzkrieg'
p1188
g2
(g6
S'7J#\xce*\x9a\xda?'
p1189
tp1190
Rp1191
tp1192
a(S'crystal castles (video game)'
p1193
g2
(g6
S'\x04~\xf7\x1a\t\x98\xda?'
p1194
tp1195
Rp1196
tp1197
a(S'absolute entertainment'
p1198
g2
(g6
S'E\x7fC\xd5\x04\x95\xda?'
p1199
tp1200
Rp1201
tp1202
a(S'1982 in video gaming'
p1203
g2
(g6
S'Lh\xcaGo\x91\xda?'
p1204
tp1205
Rp1206
tp1207
a(S'centipede (video game)'
p1208
g2
(g6
S'\xc1jI}\xdeq\xda?'
p1209
tp1210
Rp1211
tp1212
a(S'surround (video game)'
p1213
g2
(g6
S'\xe4\x9a\xc6\xae\xffg\xda?'
p1214
tp1215
Rp1216
tp1217
a(S'neochrome'
p1218
g2
(g6
S':\\w\x04O\\\xda?'
p1219
tp1220
Rp1221
tp1222
a(S'deep blue c'
p1223
g2
(g6
S'\x1a!\xcd\xe3\x08;\xda?'
p1224
tp1225
Rp1226
tp1227
a(S'atari video cube'
p1228
g2
(g6
S'|O\xbeG\x136\xda?'
p1229
tp1230
Rp1231
tp1232
a(S'stos basic'
p1233
g2
(g6
S'\xcbh\x91\xda,2\xda?'
p1234
tp1235
Rp1236
tp1237
a(S'satandisk'
p1238
g2
(g6
S'k\xf9\xab\xa4"*\xda?'
p1239
tp1240
Rp1241
tp1242
a(S'atari, nawanshahr'
p1243
g2
(g6
S"\xa9\x0f\xed\x8a\x91'\xda?"
p1244
tp1245
Rp1246
tp1247
a(S'the activision decathlon'
p1248
g2
(g6
S'\x13I\x08_;\x17\xda?'
p1249
tp1250
Rp1251
tp1252
a(S'ninja (1986 video game)'
p1253
g2
(g6
S"q\x1b'z\xf4\x15\xda?"
p1254
tp1255
Rp1256
tp1257
a(S'sirius joyport'
p1258
g2
(g6
S'/!Y\xfe\xc0\t\xda?'
p1259
tp1260
Rp1261
tp1262
a(S'alpha beam with ernie'
p1263
g2
(g6
S'\x0e\xfc\xe4uW\x08\xda?'
p1264
tp1265
Rp1266
tp1267
a(S'avalanche (video game)'
p1268
g2
(g6
S'a\xa9\x07\xd5\x06\xf9\xd9?'
p1269
tp1270
Rp1271
tp1272
a(S'atari transputer workstation'
p1273
g2
(g6
S'\x9a\x17\x15\xfa\xa6\xe8\xd9?'
p1274
tp1275
Rp1276
tp1277
a(S'synapse software'
p1278
g2
(g6
S'\xc9\\\xa7\x04\x12\xd8\xd9?'
p1279
tp1280
Rp1281
tp1282
a(S'island officials'
p1283
g2
(g6
S'\xcek\xd6n\x0f\xcb\xd9?'
p1284
tp1285
Rp1286
tp1287
a(S'general computer corporation'
p1288
g2
(g6
S'4\xf9f\x8d\xe1\xca\xd9?'
p1289
tp1290
Rp1291
tp1292
a(S'm network'
p1293
g2
(g6
S'_\x0f\xdf\xc0s\xb0\xd9?'
p1294
tp1295
Rp1296
tp1297
a(S"arena football '95"
p1298
g2
(g6
S'\xa3\x18Z\xde\xb6\xaa\xd9?'
p1299
tp1300
Rp1301
tp1302
a(S'steve woita'
p1303
g2
(g6
S"\x9b2\x1bn'\x95\xd9?"
p1304
tp1305
Rp1306
tp1307
a(S'4players'
p1308
g2
(g6
S'B\x80\x11\xef\r\x83\xd9?'
p1309
tp1310
Rp1311
tp1312
a(S'epidemic!'
p1313
g2
(g6
S'\xcfO\xaf\x1b\x98|\xd9?'
p1314
tp1315
Rp1316
tp1317
a(S'emutos'
p1318
g2
(g6
S'\x13\x98\xed\xc7\xafy\xd9?'
p1319
tp1320
Rp1321
tp1322
a(S'jay miner'
p1323
g2
(g6
S'Us\xf7\xe2\xa8y\xd9?'
p1324
tp1325
Rp1326
tp1327
a(S'list of atari, inc. games'
p1328
g2
(g6
S'\xcc\xc0\xbd\xa3\xf5w\xd9?'
p1329
tp1330
Rp1331
tp1332
a(S'microsoft write'
p1333
g2
(g6
S';\x04\xd7.An\xd9?'
p1334
tp1335
Rp1336
tp1337
a(S'gran trak 10'
p1338
g2
(g6
S"\x16\xa8'\x8d\xa6\\\xd9?"
p1339
tp1340
Rp1341
tp1342
a(S"arcade's greatest hits: the atari collection 2"
p1343
g2
(g6
S'\xce\x82\xaf\xb8t=\xd9?'
p1344
tp1345
Rp1346
tp1347
a(S'imagineering (company)'
p1348
g2
(g6
S's\x92v\xcfG;\xd9?'
p1349
tp1350
Rp1351
tp1352
a(S'xybots'
p1353
g2
(g6
S'\xd3\xbfx\xbb\x17:\xd9?'
p1354
tp1355
Rp1356
tp1357
a(S'datamost'
p1358
g2
(g6
S'?$8\xcc\x9c9\xd9?'
p1359
tp1360
Rp1361
tp1362
a(S'road burners'
p1363
g2
(g6
S'R\x9c\xda\xde\x837\xd9?'
p1364
tp1365
Rp1366
tp1367
a(S'peter pack rat'
p1368
g2
(g6
S'\xc0\xcd\xa1k\xe4(\xd9?'
p1369
tp1370
Rp1371
tp1372
a(S'video olympics'
p1373
g2
(g6
S'\xf0\x97OT\x88%\xd9?'
p1374
tp1375
Rp1376
tp1377
a(S'megamax c'
p1378
g2
(g6
S'H\x1e\x14\xe6\xa5$\xd9?'
p1379
tp1380
Rp1381
tp1382
a(S'emmu'
p1383
g2
(g6
S'\x85t\xce\xe8V\x1b\xd9?'
p1384
tp1385
Rp1386
tp1387
a(S'e.t. the extra-terrestrial in video games'
p1388
g2
(g6
S'\\t"W3\x02\xd9?'
p1389
tp1390
Rp1391
tp1392
a(S'experiment-s'
p1393
g2
(g6
S'\x13\x06\xe7\xb0\xbe\xee\xd8?'
p1394
tp1395
Rp1396
tp1397
a(S'combat (1977 video game)'
p1398
g2
(g6
S'\x03V\x18[\xa5\xdf\xd8?'
p1399
tp1400
Rp1401
tp1402
a(S'asteroids (video game)'
p1403
g2
(g6
S'\xf8\xab?H\xff\xd7\xd8?'
p1404
tp1405
Rp1406
tp1407
a(S'video game clone'
p1408
g2
(g6
S'\xbd\x89\xe0\xab\x87\xcf\xd8?'
p1409
tp1410
Rp1411
tp1412
a(S'knuckle bash'
p1413
g2
(g6
S'%\xfb\xb4x?\xb2\xd8?'
p1414
tp1415
Rp1416
tp1417
a(S'universal hero'
p1418
g2
(g6
S'\xe9\x8f"OJ\xad\xd8?'
p1419
tp1420
Rp1421
tp1422
a(S'midnight mutants'
p1423
g2
(g6
S'u\xb6`\xf0(\xaa\xd8?'
p1424
tp1425
Rp1426
tp1427
a(S'frogger ii: threeedeep!'
p1428
g2
(g6
S'\xdf\x10"\x87X\x9e\xd8?'
p1429
tp1430
Rp1431
tp1432
a(S'missile command'
p1433
g2
(g6
S'\xcf\xb5\xb9\x92T\x96\xd8?'
p1434
tp1435
Rp1436
tp1437
a(S'space duel'
p1438
g2
(g6
S'\xda\xd9\x8d\x7fA\x92\xd8?'
p1439
tp1440
Rp1441
tp1442
a(S'haunted house (video game)'
p1443
g2
(g6
S'\xc1d\xd2\x87\x11\x86\xd8?'
p1444
tp1445
Rp1446
tp1447
a(S'atari: game over'
p1448
g2
(g6
S'\xe1\xae\x9c5\xb0\x82\xd8?'
p1449
tp1450
Rp1451
tp1452
a(S'double dunk'
p1453
g2
(g6
S'\xbe\xafU\x82\xc3{\xd8?'
p1454
tp1455
Rp1456
tp1457
a(S'turbo sub'
p1458
g2
(g6
S'\xf7|w\xba^z\xd8?'
p1459
tp1460
Rp1461
tp1462
a(S'atari freddie'
p1463
g2
(g6
S'\xd0\x85\xb1v\xaat\xd8?'
p1464
tp1465
Rp1466
tp1467
a(S'sky diver'
p1468
g2
(g6
S'\xf6o\xed*\x16X\xd8?'
p1469
tp1470
Rp1471
tp1472
a(S'atari dos'
p1473
g2
(g6
S'\x06\xc7\xde!FS\xd8?'
p1474
tp1475
Rp1476
tp1477
a(S'robot tank'
p1478
g2
(g6
S';\xdd\x98\x13,M\xd8?'
p1479
tp1480
Rp1481
tp1482
a(S'jeff minter'
p1483
g2
(g6
S'\xfd\x9f\xd5g-G\xd8?'
p1484
tp1485
Rp1486
tp1487
a(S'halo 2600'
p1488
g2
(g6
S'\xf1\xf0\xda\xc9\xdd=\xd8?'
p1489
tp1490
Rp1491
tp1492
a(S'ahmed atari'
p1493
g2
(g6
S'L5\x15P\xe28\xd8?'
p1494
tp1495
Rp1496
tp1497
a(S'blue max (video game)'
p1498
g2
(g6
S'\xc5\xca:\x83\x1a*\xd8?'
p1499
tp1500
Rp1501
tp1502
a(S'wsfn (programming language)'
p1503
g2
(g6
S'\xb1\xfb\x05\x98\xf2&\xd8?'
p1504
tp1505
Rp1506
tp1507
a(S'hot pixel'
p1508
g2
(g6
S'\x08\xd2_\t\x0f\x19\xd8?'
p1509
tp1510
Rp1511
tp1512
a.