(lp0
(S'autonomous robot'
p1
cnumpy.core.multiarray
scalar
p2
(cnumpy
dtype
p3
(S'f8'
p4
I0
I1
tp5
Rp6
(I3
S'<'
p7
NNNI-1
I-1
I0
tp8
bS'\x01\x00\x00\x00\x00\x00\xf0?'
p9
tp10
Rp11
tp12
a(S'mobile robot'
p13
g2
(g6
S'\xbeSQi\x003\xe7?'
p14
tp15
Rp16
tp17
a(S'robotics'
p18
g2
(g6
S'\x88\xc1\xdd\xca\xc3}\xe5?'
p19
tp20
Rp21
tp22
a(S'robot'
p23
g2
(g6
S'?[\xd4u\xe4E\xe5?'
p24
tp25
Rp26
tp27
a(S'outline of robotics'
p28
g2
(g6
S'rc\xac\x93)\xef\xe3?'
p29
tp30
Rp31
tp32
a(S'domestic robot'
p33
g2
(g6
S'P\xdf\xd9\x15\xeb(\xe3?'
p34
tp35
Rp36
tp37
a(S'japanese robotics'
p38
g2
(g6
S'\xd3v\xc3\x8a2E\xe2?'
p39
tp40
Rp41
tp42
a(S'military robot'
p43
g2
(g6
S'\xe0\xd6U\xb2\x1d6\xe2?'
p44
tp45
Rp46
tp47
a(S'robotix (competition)'
p48
g2
(g6
S'Ixd\xd8n\n\xe2?'
p49
tp50
Rp51
tp52
a(S'activmedia robotics'
p53
g2
(g6
S'q\x9b\xed\x97\x17\xef\xe1?'
p54
tp55
Rp56
tp57
a(S'patrolbot'
p58
g2
(g6
S'\xe5\xe0 r\x08\xed\xe1?'
p59
tp60
Rp61
tp62
a(S'robot competition'
p63
g2
(g6
S"q'\x9c\xfbv\xb7\xe1?"
p64
tp65
Rp66
tp67
a(S'irobot'
p68
g2
(g6
S'\x97\x99;\x13\xdf\x95\xe1?'
p69
tp70
Rp71
tp72
a(S'human\xe2\x80\x93robot interaction'
p73
g2
(g6
S'F\xbd\xe8\xa5\xac\x84\xe1?'
p74
tp75
Rp76
tp77
a(S'social robot'
p78
g2
(g6
S'\xde;\xb6hYO\xe1?'
p79
tp80
Rp81
tp82
a(S'robogames'
p83
g2
(g6
S'\x07N\xaf\x90\xb2L\xe1?'
p84
tp85
Rp86
tp87
a(S'robot locomotion'
p88
g2
(g6
S'gq\xb0\x05\x063\xe1?'
p89
tp90
Rp91
tp92
a(S'robot economics'
p93
g2
(g6
S'\x93vO`\xb9%\xe1?'
p94
tp95
Rp96
tp97
a(S'autonomous research robot'
p98
g2
(g6
S'R\xf4`BV$\xe1?'
p99
tp100
Rp101
tp102
a(S'mobile industrial robots'
p103
g2
(g6
S'`\x1f\xd8&\x9c\xf3\xe0?'
p104
tp105
Rp106
tp107
a(S'history of robots'
p108
g2
(g6
S"\x92\x85\xca|'\xe3\xe0?"
p109
tp110
Rp111
tp112
a(S'service robot'
p113
g2
(g6
S'\x03\x0b;"\x1a\xc1\xe0?'
p114
tp115
Rp116
tp117
a(S'puck collect'
p118
g2
(g6
S'p.\x85S\xd2\xa5\xe0?'
p119
tp120
Rp121
tp122
a(S'geography of robotics'
p123
g2
(g6
S'\xdfs\xea\x91\xa7z\xe0?'
p124
tp125
Rp126
tp127
a(S'robot (disambiguation)'
p128
g2
(g6
S'\x89\xf5\xf7\xc5\xd2y\xe0?'
p129
tp130
Rp131
tp132
a(S'robot software'
p133
g2
(g6
S'\x82\xb0\xb7\x04\xb7c\xe0?'
p134
tp135
Rp136
tp137
a(S'surface robotics laboratory-cmeri'
p138
g2
(g6
S'0qw\x00\xb6^\xe0?'
p139
tp140
Rp141
tp142
a(S'taarlab'
p143
g2
(g6
S'\x8b?QC9V\xe0?'
p144
tp145
Rp146
tp147
a(S'index of robotics articles'
p148
g2
(g6
S'\xd4\x8d\x1e\x90n2\xe0?'
p149
tp150
Rp151
tp152
a(S'rescue robot'
p153
g2
(g6
S"\xa0\xc2\x10\x19\xb0'\xe0?"
p154
tp155
Rp156
tp157
a(S'active robots'
p158
g2
(g6
S"\xbd8\x82\xcf\xa5'\xe0?"
p159
tp160
Rp161
tp162
a(S'industrial robot'
p163
g2
(g6
S'\xc6O*\xb3\xeb\x1c\xe0?'
p164
tp165
Rp166
tp167
a(S'glossary of robotics'
p168
g2
(g6
S'\x14\xa02\x8c\xc3\xed\xdf?'
p169
tp170
Rp171
tp172
a(S'entertainment robot'
p173
g2
(g6
S'\xcc,\xe4\x9f;\xe0\xdf?'
p174
tp175
Rp176
tp177
a(S'robot football'
p178
g2
(g6
S'\xdeI\x05Sl\xd4\xdf?'
p179
tp180
Rp181
tp182
a(S'humanoid robot'
p183
g2
(g6
S'@\x02\xfbW-\xc1\xdf?'
p184
tp185
Rp186
tp187
a(S'roboearth'
p188
g2
(g6
S'\x87\xb8I~p\xe6\xde?'
p189
tp190
Rp191
tp192
a(S'robot wars (tv series)'
p193
g2
(g6
S'^\xfcY\xbf\xebr\xde?'
p194
tp195
Rp196
tp197
a(S'telerobotics'
p198
g2
(g6
S'\xb4\x027\xfe\xaae\xde?'
p199
tp200
Rp201
tp202
a(S'almost human: making robots think'
p203
g2
(g6
S'\xc5\x8b\xf7\x8bBH\xde?'
p204
tp205
Rp206
tp207
a(S'salvius'
p208
g2
(g6
S')k\x8ftcE\xde?'
p209
tp210
Rp211
tp212
a(S'botball'
p213
g2
(g6
S'\x9acf\x97\xb59\xde?'
p214
tp215
Rp216
tp217
a(S'artbots'
p218
g2
(g6
S'\x81\x94\x88=v#\xde?'
p219
tp220
Rp221
tp222
a(S'the complete robot'
p223
g2
(g6
S'\x87I;\xd5-\xe7\xdd?'
p224
tp225
Rp226
tp227
a(S'legged robot'
p228
g2
(g6
S'<n\xfd\xe8+\xcc\xdd?'
p229
tp230
Rp231
tp232
a(S"isaac asimov's caliban"
p233
g2
(g6
S'\x07\xef\xa5\x9ab\xc9\xdd?'
p234
tp235
Rp236
tp237
a(S'list of fictional robots and androids'
p238
g2
(g6
S'\x9e\xfe\xe4\x9f\xad\xc8\xdd?'
p239
tp240
Rp241
tp242
a(S'unmanned ground vehicle'
p243
g2
(g6
S'\xef\x02\xb0\x12\x9b\x95\xdd?'
p244
tp245
Rp246
tp247
a(S'robotshop'
p248
g2
(g6
S'\xbe,\xd2\x15(\x87\xdd?'
p249
tp250
Rp251
tp252
a(S"isaac asimov's robot city"
p253
g2
(g6
S'3\xa5L\x7feW\xdd?'
p254
tp255
Rp256
tp257
a(S'termite-inspired robots'
p258
g2
(g6
S'g\xec)\xa7\xc4G\xdd?'
p259
tp260
Rp261
tp262
a(S'cloud robotics'
p263
g2
(g6
S'\x80S>X\xe9 \xdd?'
p264
tp265
Rp266
tp267
a(S'mobile robot navigation'
p268
g2
(g6
S'\xef\xf0w\xab\xaf\x08\xdd?'
p269
tp270
Rp271
tp272
a(S"isaac asimov's robot city: odyssey"
p273
g2
(g6
S'\xa8K\x1e\x19\xfa\xfd\xdc?'
p274
tp275
Rp276
tp277
a(S'american robotics'
p278
g2
(g6
S'\xe0\xf9\xb4C\x92\xf9\xdc?'
p279
tp280
Rp281
tp282
a(S'robot battle'
p283
g2
(g6
S'g\x03be\xb8\xf0\xdc?'
p284
tp285
Rp286
tp287
a(S'robot award'
p288
g2
(g6
S'}\xda\x8e}\x87\xe4\xdc?'
p289
tp290
Rp291
tp292
a(S'three laws of robotics'
p293
g2
(g6
S'\xfe(6\x84D\x98\xdc?'
p294
tp295
Rp296
tp297
a(S'robot combat'
p298
g2
(g6
S'+\x05\xe0\xfb\x83}\xdc?'
p299
tp300
Rp301
tp302
a(S'robot learning'
p303
g2
(g6
S'\xd4\x9e\xcb\xf4\x98\\\xdc?'
p304
tp305
Rp306
tp307
a(S'cynthia breazeal'
p308
g2
(g6
S'o?dv\x80S\xdc?'
p309
tp310
Rp311
tp312
a(S'robotica'
p313
g2
(g6
S'`\xab\xb2\x16\x0e@\xdc?'
p314
tp315
Rp316
tp317
a(S'cobot'
p318
g2
(g6
S' \xa6\xc5\xf2\x0f\x14\xdc?'
p319
tp320
Rp321
tp322
a(S'cholo (video game)'
p323
g2
(g6
S'\x95^\xf8\x8fx\xfb\xdb?'
p324
tp325
Rp326
tp327
a(S'little lost robot'
p328
g2
(g6
S'\xc4S\xd6v\xf7\xe7\xdb?'
p329
tp330
Rp331
tp332
a(S'robot dreams (short story)'
p333
g2
(g6
S'\x0e\xc4wgq\xda\xdb?'
p334
tp335
Rp336
tp337
a(S'sex life of robots'
p338
g2
(g6
S'\xdc/aJ\xc3\xd6\xdb?'
p339
tp340
Rp341
tp342
a(S'international aerial robotics competition'
p343
g2
(g6
S'T*\x17\xee\r\xb3\xdb?'
p344
tp345
Rp346
tp347
a(S'r.u.r.'
p348
g2
(g6
S'\x04\xb2\x84i\x04\x97\xdb?'
p349
tp350
Rp351
tp352
a(S'universal robots'
p353
g2
(g6
S'\x9a\xe9\xbaI\xefp\xdb?'
p354
tp355
Rp356
tp357
a(S'robot series (asimov)'
p358
g2
(g6
S'\xccZI\x0f\xbam\xdb?'
p359
tp360
Rp361
tp362
a(S'bio-inspired robotics'
p363
g2
(g6
S'D0\x19-\x1de\xdb?'
p364
tp365
Rp366
tp367
a(S'war robots'
p368
g2
(g6
S't\x01\x9b6\xcfZ\xdb?'
p369
tp370
Rp371
tp372
a(S'robotic sensing'
p373
g2
(g6
S'\x15;\xd3\x89DY\xdb?'
p374
tp375
Rp376
tp377
a(S'beam robotics'
p378
g2
(g6
S'\xb2&\xd3f\xbcX\xdb?'
p379
tp380
Rp381
tp382
a(S'u.s. robots and mechanical men'
p383
g2
(g6
S'h\xa6_\xafgX\xdb?'
p384
tp385
Rp386
tp387
a(S'robot galaxy'
p388
g2
(g6
S'\xce3\x0b>\xcdW\xdb?'
p389
tp390
Rp391
tp392
a(S'cubix'
p393
g2
(g6
S'K\xee\xa1\x9d\xbfD\xdb?'
p394
tp395
Rp396
tp397
a(S'japan robot association'
p398
g2
(g6
S'.\x83\xe0\xf5\xdf8\xdb?'
p399
tp400
Rp401
tp402
a(S'medical robot'
p403
g2
(g6
S'\xa5\x83?\x04\x1d+\xdb?'
p404
tp405
Rp406
tp407
a(S'feelix growing'
p408
g2
(g6
S'=\xa4t\xe0H\x1c\xdb?'
p409
tp410
Rp411
tp412
a(S'wakamaru'
p413
g2
(g6
S'2e\xbe\x98\xe7\x11\xdb?'
p414
tp415
Rp416
tp417
a(S'robot odyssey'
p418
g2
(g6
S'l\xdc\t\xdf\x10\x08\xdb?'
p419
tp420
Rp421
tp422
a(S'personal robot'
p423
g2
(g6
S'0\xfd3\x01\xf0\xed\xda?'
p424
tp425
Rp426
tp427
a(S'ultrabots'
p428
g2
(g6
S"\xdc>'\xf4\xc7\xe9\xda?"
p429
tp430
Rp431
tp432
a(S'the rest of the robots'
p433
g2
(g6
S'\xbav\x15\x0b\xc0\xd5\xda?'
p434
tp435
Rp436
tp437
a(S'laws of robotics'
p438
g2
(g6
S'\x922q\xb7\xcc\xcb\xda?'
p439
tp440
Rp441
tp442
a(S'institute of robotics in scandinavia ab'
p443
g2
(g6
S'\xac\x19\x07\x9a\xbd\xcb\xda?'
p444
tp445
Rp446
tp447
a(S'raposa'
p448
g2
(g6
S'\xc4\x95\x9c\x1c\x83\xb6\xda?'
p449
tp450
Rp451
tp452
a(S'real robot'
p453
g2
(g6
S'P\x16\n+\x10\xb4\xda?'
p454
tp455
Rp456
tp457
a(S'robots (computer game)'
p458
g2
(g6
S'\x81c\x07\x0f\x8f\xae\xda?'
p459
tp460
Rp461
tp462
a(S'asimo'
p463
g2
(g6
S'Cz\x1e\xdf\xe8\x9a\xda?'
p464
tp465
Rp466
tp467
a(S'behavior-based robotics'
p468
g2
(g6
S'\xe6MJ\x8d\xf7n\xda?'
p469
tp470
Rp471
tp472
a(S'list of robot series characters'
p473
g2
(g6
S'\xfb\xfa!\xcf\x8a\\\xda?'
p474
tp475
Rp476
tp477
a(S'player project'
p478
g2
(g6
S'\nB8Q\xebC\xda?'
p479
tp480
Rp481
tp482
a(S'robotis bioloid'
p483
g2
(g6
S'M\x0cg\xa5\xe4@\xda?'
p484
tp485
Rp486
tp487
a(S'world robot olympiad'
p488
g2
(g6
S'\xbd\xc6^#\xde*\xda?'
p489
tp490
Rp491
tp492
a(S'robot wars: arenas of destruction'
p493
g2
(g6
S'\xb4Z\xceU\x1c\x1d\xda?'
p494
tp495
Rp496
tp497
a(S'ant robotics'
p498
g2
(g6
S'>\xd8\xa4\x14\xef\x19\xda?'
p499
tp500
Rp501
tp502
a(S'robot rescue'
p503
g2
(g6
S'\xd8a\xef\xd8\xfa\x12\xda?'
p504
tp505
Rp506
tp507
a(S'robotic mapping'
p508
g2
(g6
S'\x86\xd0\x16\x8d\xa8\x0f\xda?'
p509
tp510
Rp511
tp512
a(S"isaac asimov's robot city: cyborg"
p513
g2
(g6
S'&\xca\xd56+\x0b\xda?'
p514
tp515
Rp516
tp517
a(S'robot ethics'
p518
g2
(g6
S'FG\x1c\xf1\xab\xfe\xd9?'
p519
tp520
Rp521
tp522
a(S'music for robots (ep)'
p523
g2
(g6
S'\x05/\x9bDe\xdc\xd9?'
p524
tp525
Rp526
tp527
a(S'open-source robotics'
p528
g2
(g6
S'\xaf\xe3O\xca(\xdc\xd9?'
p529
tp530
Rp531
tp532
a(S'combots'
p533
g2
(g6
S'\xf1\x10(\xdc\x94\xce\xd9?'
p534
tp535
Rp536
tp537
a(S'chicago engineering design team'
p538
g2
(g6
S'\xfb`\xc3\xfd\xee\xbc\xd9?'
p539
tp540
Rp541
tp542
a(S'victory unintentional'
p543
g2
(g6
S'c\xf5\xa9\xda\x8c\xbc\xd9?'
p544
tp545
Rp546
tp547
a(S'robot magazine'
p548
g2
(g6
S'Q\xf9\x8c\xed\xba\xba\xd9?'
p549
tp550
Rp551
tp552
a(S'robot hall of fame'
p553
g2
(g6
S'\xa3\x07\xf9X(\xb7\xd9?'
p554
tp555
Rp556
tp557
a(S'kilobot'
p558
g2
(g6
S'.7\xdal\xc5\xa1\xd9?'
p559
tp560
Rp561
tp562
a(S'robotwar'
p563
g2
(g6
S'\x8e\xff\xb2|w\x7f\xd9?'
p564
tp565
Rp566
tp567
a(S'loss of sensation'
p568
g2
(g6
S'\xe1\xa4\x05\xd2\xc6h\xd9?'
p569
tp570
Rp571
tp572
a(S'national robotics challenge'
p573
g2
(g6
S'\xc5#f\x85\x82c\xd9?'
p574
tp575
Rp576
tp577
a(S'alice mobile robot'
p578
g2
(g6
S'\xce.\x01T\xcab\xd9?'
p579
tp580
Rp581
tp582
a(S'dustbot'
p583
g2
(g6
S'\x04x\x87D70\xd9?'
p584
tp585
Rp586
tp587
a(S'francesco mondada'
p588
g2
(g6
S"\xfb\xb2n[\xa7'\xd9?"
p589
tp590
Rp591
tp592
a(S'rodney brooks'
p593
g2
(g6
S'a,x\xdf?\x16\xd9?'
p594
tp595
Rp596
tp597
a(S'international robot exhibition'
p598
g2
(g6
S'r\x95p\ni\x03\xd9?'
p599
tp600
Rp601
tp602
a(S'robots in literature'
p603
g2
(g6
S'\xfc\xf1}CB\xf1\xd8?'
p604
tp605
Rp606
tp607
a(S'wu yulu'
p608
g2
(g6
S'K\xab\x89\xd6=\xf1\xd8?'
p609
tp610
Rp611
tp612
a(S'robofest'
p613
g2
(g6
S'\xdf\x9a\xa2\xb3\xf9\xd5\xd8?'
p614
tp615
Rp616
tp617
a(S'robotic sensors'
p618
g2
(g6
S'\x98\x9f\xbb\x8a]\xd1\xd8?'
p619
tp620
Rp621
tp622
a(S'centibots'
p623
g2
(g6
S'\xbfY\xad\x15\xcc\xce\xd8?'
p624
tp625
Rp626
tp627
a(S'roboy'
p628
g2
(g6
S'\xad^\xffa \xc5\xd8?'
p629
tp630
Rp631
tp632
a(S'robot app store'
p633
g2
(g6
S'$\xfbj\x8e\xe4\xbb\xd8?'
p634
tp635
Rp636
tp637
a(S'first lego league'
p638
g2
(g6
S'\xf5\x01V\xfc4\xb9\xd8?'
p639
tp640
Rp641
tp642
a(S'autonomous system'
p643
g2
(g6
S'\xe4O\x93\xcb\xb2\xb2\xd8?'
p644
tp645
Rp646
tp647
a(S'swedish robotics society'
p648
g2
(g6
S'*{\xe6T\xa2\xb2\xd8?'
p649
tp650
Rp651
tp652
a(S'robocup junior'
p653
g2
(g6
S'\xca\xa7\xf6\x1f\xce\xad\xd8?'
p654
tp655
Rp656
tp657
a(S'off-line programming (robotics)'
p658
g2
(g6
S'\x0f$\x1b+\xb8\xa5\xd8?'
p659
tp660
Rp661
tp662
a(S'analog robot'
p663
g2
(g6
S'i\x8c\x97\xb9\xa0\x98\xd8?'
p664
tp665
Rp666
tp667
a(S'mobile robotics laboratory at iisc'
p668
g2
(g6
S'`~\t\xfc\xa9\x91\xd8?'
p669
tp670
Rp671
tp672
a(S'night stalker (video game)'
p673
g2
(g6
S'\xdb\x85\xe4\xcc\x05\x8a\xd8?'
p674
tp675
Rp676
tp677
a(S'mark tilden'
p678
g2
(g6
S'EO\xcf\x1e\xc0\x89\xd8?'
p679
tp680
Rp681
tp682
a(S'air-cobot'
p683
g2
(g6
S'\xbaG\x98\x85u\x87\xd8?'
p684
tp685
Rp686
tp687
a(S'susan calvin'
p688
g2
(g6
S'\x03\x07\xa2d\xec\x86\xd8?'
p689
tp690
Rp691
tp692
a(S'robot kit'
p693
g2
(g6
S'\xb4f\x98_\x95\x86\xd8?'
p694
tp695
Rp696
tp697
a(S'webots'
p698
g2
(g6
S'\xf8+\x9c\xc2\x8e\x81\xd8?'
p699
tp700
Rp701
tp702
a(S'nasa robots'
p703
g2
(g6
S'\xf7h\xba\xb3\xe7c\xd8?'
p704
tp705
Rp706
tp707
a(S'tomotaka takahashi'
p708
g2
(g6
S'\xf8B\x9b\xef\x10W\xd8?'
p709
tp710
Rp711
tp712
a(S'sociorobotics'
p713
g2
(g6
S'\xd5\xfc\xe5\xdc(K\xd8?'
p714
tp715
Rp716
tp717
a(S'robot wars: extreme destruction'
p718
g2
(g6
S'pp\x9c\xc8&>\xd8?'
p719
tp720
Rp721
tp722
a(S'tosy'
p723
g2
(g6
S'\x067\x014k;\xd8?'
p724
tp725
Rp726
tp727
a(S'satisfaction guaranteed (short story)'
p728
g2
(g6
S'0\x95\xa0\x93q9\xd8?'
p729
tp730
Rp731
tp732
a(S'leonardo (robot)'
p733
g2
(g6
S'\x0f\xbd\x0c\xf5\xd7\x1d\xd8?'
p734
tp735
Rp736
tp737
a(S'them, robot'
p738
g2
(g6
S'2\xf5\x94\x05\x12\x1b\xd8?'
p739
tp740
Rp741
tp742
a(S'aisoy1'
p743
g2
(g6
S'\x80v\xd3\xa1\x99\x15\xd8?'
p744
tp745
Rp746
tp747
a(S'ronald c. arkin'
p748
g2
(g6
S'\x0f\xf2c\x1e\xee\xfd\xd7?'
p749
tp750
Rp751
tp752
a(S'anthrobotics'
p753
g2
(g6
S'\xd7<K\tw\xfb\xd7?'
p754
tp755
Rp756
tp757
a(S'ibn sina robot'
p758
g2
(g6
S'A\xcdpZs\xf8\xd7?'
p759
tp760
Rp761
tp762
a(S'list of doctor who robots'
p763
g2
(g6
S'T\x03Q\x83\x85\xe6\xd7?'
p764
tp765
Rp766
tp767
a(S'wake-up robot problem'
p768
g2
(g6
S'\x11\x99%\xba\xe4\xdd\xd7?'
p769
tp770
Rp771
tp772
a(S'half-pipe hustle'
p773
g2
(g6
S'U\x03\x92\x10\x94\xd8\xd7?'
p774
tp775
Rp776
tp777
a(S'ricochet robot'
p778
g2
(g6
S"'\x17\x0e\xd0\xa6\xd5\xd7?"
p779
tp780
Rp781
tp782
a(S'robotnik automation'
p783
g2
(g6
S'\x90"etH\xcf\xd7?'
p784
tp785
Rp786
tp787
a(S'robotics suite'
p788
g2
(g6
S'\xc8oI\xdf=\xb7\xd7?'
p789
tp790
Rp791
tp792
a(S'transforming robots'
p793
g2
(g6
S'd\xddG\x11\xde\xa8\xd7?'
p794
tp795
Rp796
tp797
a(S"rock 'em sock 'em robots"
p798
g2
(g6
S'\xf7\xf5)[,\x83\xd7?'
p799
tp800
Rp801
tp802
a(S'robosapien v2'
p803
g2
(g6
S'\x9f\x8fV\xb3\xc8\x81\xd7?'
p804
tp805
Rp806
tp807
a(S'joseph engelberger'
p808
g2
(g6
S'H\xef\xc2>\xcax\xd7?'
p809
tp810
Rp811
tp812
a(S'rethink robotics'
p813
g2
(g6
S'\xceMMO\x08q\xd7?'
p814
tp815
Rp816
tp817
a(S'blendo'
p818
g2
(g6
S'\xa0)\xb5rKj\xd7?'
p819
tp820
Rp821
tp822
a(S'national robotics engineering center'
p823
g2
(g6
S'eR\x83\xc8\xc8h\xd7?'
p824
tp825
Rp826
tp827
a(S'rocketship 2010'
p828
g2
(g6
S'\xb5\xf8s2\xd6^\xd7?'
p829
tp830
Rp831
tp832
a(S'paint robot'
p833
g2
(g6
S'\xe9\xd3\xd4\xc0\xafV\xd7?'
p834
tp835
Rp836
tp837
a(S'robots (song)'
p838
g2
(g6
S':\x11\x9d2;M\xd7?'
p839
tp840
Rp841
tp842
a(S'snakebot'
p843
g2
(g6
S'!\xeeb\xaf\xa5D\xd7?'
p844
tp845
Rp846
tp847
a(S'the three laws of robotics in popular culture'
p848
g2
(g6
S'o\xb6!\xf8\x03B\xd7?'
p849
tp850
Rp851
tp852
a(S'robot arena 2: design and destroy'
p853
g2
(g6
S'\xfcp\xc7\xbe\x9d=\xd7?'
p854
tp855
Rp856
tp857
a(S'paladyn'
p858
g2
(g6
S'h_\xa9\xd017\xd7?'
p859
tp860
Rp861
tp862
a(S'sex robot'
p863
g2
(g6
S'=4c\x90\xb83\xd7?'
p864
tp865
Rp866
tp867
a(S'mindrover'
p868
g2
(g6
S'\xcaf\x91M\xc7\t\xd7?'
p869
tp870
Rp871
tp872
a(S'robots exclusion standard'
p873
g2
(g6
S'\xa9\x82\xea\xc6q\x01\xd7?'
p874
tp875
Rp876
tp877
a(S'rescue robot league'
p878
g2
(g6
S'6\xda\x92\xd5\xac\x00\xd7?'
p879
tp880
Rp881
tp882
a(S'r. daneel olivaw'
p883
g2
(g6
S'\x1c\xd8vDI\xe9\xd6?'
p884
tp885
Rp886
tp887
a(S'the positronic man'
p888
g2
(g6
S'm\xb8 \x11\xe9\xdb\xd6?'
p889
tp890
Rp891
tp892
a(S'khr-1'
p893
g2
(g6
S'|,J\xc2\x17\xd1\xd6?'
p894
tp895
Rp896
tp897
a(S'roboticist'
p898
g2
(g6
S'\x9b\x89\x13\x9d\x84\xcf\xd6?'
p899
tp900
Rp901
tp902
a(S'kidnapped robot problem'
p903
g2
(g6
S'\xd9\xe6\x10+m\xcf\xd6?'
p904
tp905
Rp906
tp907
a(S'robot arena'
p908
g2
(g6
S'\xa9\x99\xca\xc5:\xcd\xd6?'
p909
tp910
Rp911
tp912
a(S'agricultural robot'
p913
g2
(g6
S'D\xb1\x95\x0c\xfb\xc8\xd6?'
p914
tp915
Rp916
tp917
a(S'programming by demonstration'
p918
g2
(g6
S'\x01\x85I\xf2\xf9\xc8\xd6?'
p919
tp920
Rp921
tp922
a(S'rehabilitation robotics'
p923
g2
(g6
S'0\xb8\x80\xf4H\xab\xd6?'
p924
tp925
Rp926
tp927
a(S'myrobots'
p928
g2
(g6
S'\xd4I-\xe7\xd8\xa7\xd6?'
p929
tp930
Rp931
tp932
a(S'botseer'
p933
g2
(g6
S'\xe7\x97\xd6\x9f\x84\x9f\xd6?'
p934
tp935
Rp936
tp937
a(S'robot calibration'
p938
g2
(g6
S'\xd1\xe0\x0bT\xe4\x9c\xd6?'
p939
tp940
Rp941
tp942
a(S'robocup middle size league'
p943
g2
(g6
S'\xe7\x0c\xfe\xf5a\x8d\xd6?'
p944
tp945
Rp946
tp947
a(S't-52 enryu'
p948
g2
(g6
S'\xa9\x11 g\xb7\x87\xd6?'
p949
tp950
Rp951
tp952
a(S'berzerk (video game)'
p953
g2
(g6
S"R\xc4{'e\x82\xd6?"
p954
tp955
Rp956
tp957
a(S'international federation of robotics'
p958
g2
(g6
S'\x8d\xf56_\xb3~\xd6?'
p959
tp960
Rp961
tp962
a(S'rise 2: resurrection'
p963
g2
(g6
S'n.}\xc4 y\xd6?'
p964
tp965
Rp966
tp967
a(S'ituro'
p968
g2
(g6
S'\xa0\xc1T\xd4`r\xd6?'
p969
tp970
Rp971
tp972
a(S'hexapod (robotics)'
p973
g2
(g6
S'\xe4D\x98P\xbem\xd6?'
p974
tp975
Rp976
tp977
a(S'maria l. gini'
p978
g2
(g6
S'3\xdf\xb1\x1e\xb5l\xd6?'
p979
tp980
Rp981
tp982
a(S'i, robot (film)'
p983
g2
(g6
S'd\x19\xa5+\xedb\xd6?'
p984
tp985
Rp986
tp987
a(S"isaac asimov's robot city: perihelion"
p988
g2
(g6
S'O\xeca\xbf\x7f3\xd6?'
p989
tp990
Rp991
tp992
a(S'microbotics'
p993
g2
(g6
S'J\xe1#\xc4\x06.\xd6?'
p994
tp995
Rp996
tp997
a(S'land walker'
p998
g2
(g6
S'ch\xd4y>\x19\xd6?'
p999
tp1000
Rp1001
tp1002
a(S'zektor'
p1003
g2
(g6
S'\xb1t2k\x05\x14\xd6?'
p1004
tp1005
Rp1006
tp1007
a(S'maize craze'
p1008
g2
(g6
S'\x06R\x02^\x1f\x0e\xd6?'
p1009
tp1010
Rp1011
tp1012
a(S'free the robots'
p1013
g2
(g6
S'c\x0f\x1f\tc\r\xd6?'
p1014
tp1015
Rp1016
tp1017
a(S'headlander'
p1018
g2
(g6
S'PQ \xf6\x06\x0c\xd6?'
p1019
tp1020
Rp1021
tp1022
a(S'electronic persons'
p1023
g2
(g6
S'A.\x00+9\x07\xd6?'
p1024
tp1025
Rp1026
tp1027
a(S'lethal autonomous weapon'
p1028
g2
(g6
S'\x98\x85\x90\x07a\x04\xd6?'
p1029
tp1030
Rp1031
tp1032
a(S'ethics of artificial intelligence'
p1033
g2
(g6
S'\xe2nN)\x86\x03\xd6?'
p1034
tp1035
Rp1036
tp1037
a(S'nickelodeon robot wars'
p1038
g2
(g6
S'^\x16X\xe3\xa1\xf3\xd5?'
p1039
tp1040
Rp1041
tp1042
a(S'storming robots'
p1043
g2
(g6
S'=\n\xeb\xcb\xcf\xea\xd5?'
p1044
tp1045
Rp1046
tp1047
a(S'atlas (robot)'
p1048
g2
(g6
S'\xd3#bf\x84\xea\xd5?'
p1049
tp1050
Rp1051
tp1052
a(S'european land-robot trial'
p1053
g2
(g6
S'\xbfG\xa29\xf4\xdf\xd5?'
p1054
tp1055
Rp1056
tp1057
a(S'lenny (short story)'
p1058
g2
(g6
S'B\xe8\x99\x00\x0b\xdd\xd5?'
p1059
tp1060
Rp1061
tp1062
a(S'articulated robot'
p1063
g2
(g6
S'\x00\x97/`\xf4\xdb\xd5?'
p1064
tp1065
Rp1066
tp1067
a(S'. . . that thou art mindful of him'
p1068
g2
(g6
S'5\x89\x87\xe0\x8a\xd5\xd5?'
p1069
tp1070
Rp1071
tp1072
a(S'darpa lagr program'
p1073
g2
(g6
S'\xccn\x99\x1fQ\xcc\xd5?'
p1074
tp1075
Rp1076
tp1077
a(S"media lab europe's social robots"
p1078
g2
(g6
S'\xd8\xbf\xdd\xb9\xd5\xca\xd5?'
p1079
tp1080
Rp1081
tp1082
a(S'the robots of death'
p1083
g2
(g6
S'\x93\xe1()\x80\xc0\xd5?'
p1084
tp1085
Rp1086
tp1087
a(S'dario floreano'
p1088
g2
(g6
S'\xf8w\x1cv\xe3\xbe\xd5?'
p1089
tp1090
Rp1091
tp1092
a(S'cmucam'
p1093
g2
(g6
S"S\x97'CO\xb9\xd5?"
p1094
tp1095
Rp1096
tp1097
a(S'cartesian coordinate robot'
p1098
g2
(g6
S'\xd0\xaa1y"\xae\xd5?'
p1099
tp1100
Rp1101
tp1102
a(S'cable robots'
p1103
g2
(g6
S'nIX\x9b\x03\xad\xd5?'
p1104
tp1105
Rp1106
tp1107
a(S'logo motion'
p1108
g2
(g6
S'F.\xed\x9e5\xab\xd5?'
p1109
tp1110
Rp1111
tp1112
a(S'robot wars: metal mayhem'
p1113
g2
(g6
S'\xb7\x1a\x85.#\xa6\xd5?'
p1114
tp1115
Rp1116
tp1117
a(S'nether earth'
p1118
g2
(g6
S'\x88q\xb0\x99\xf0\xa4\xd5?'
p1119
tp1120
Rp1121
tp1122
a(S'robotics design inc'
p1123
g2
(g6
S'\x03\xbbT}\x89\x9d\xd5?'
p1124
tp1125
Rp1126
tp1127
a(S'omnibot'
p1128
g2
(g6
S'|H\x1d\x82\xe3\x99\xd5?'
p1129
tp1130
Rp1131
tp1132
a(S'frenzy (1982 video game)'
p1133
g2
(g6
S'VZ\xaau\x19\x99\xd5?'
p1134
tp1135
Rp1136
tp1137
a(S'differential wheeled robot'
p1138
g2
(g6
S'i\x94`\x0c\x95\x8b\xd5?'
p1139
tp1140
Rp1141
tp1142
a(S'gregory dudek'
p1143
g2
(g6
S'\xf7 \x89\x81|\x8a\xd5?'
p1144
tp1145
Rp1146
tp1147
a(S'multi autonomous ground-robotic international challenge'
p1148
g2
(g6
S'\xfc\x84\xdf8\x91\x89\xd5?'
p1149
tp1150
Rp1151
tp1152
a(S'boston dynamics'
p1153
g2
(g6
S'\x84\xad\xd0\xcfq\x81\xd5?'
p1154
tp1155
Rp1156
tp1157
a(S'daniela l. rus'
p1158
g2
(g6
S'\x83\x81\xef#,\x81\xd5?'
p1159
tp1160
Rp1161
tp1162
a(S'rescue robots'
p1163
g2
(g6
S'CC\x01\xbc\xe9\x80\xd5?'
p1164
tp1165
Rp1166
tp1167
a(S'intelligent small world autonomous robots for micro-manipulation'
p1168
g2
(g6
S'\xa6t\xb4h(\x7f\xd5?'
p1169
tp1170
Rp1171
tp1172
a(S'bionickangaroo'
p1173
g2
(g6
S'(\xc1\x9e\xc3"y\xd5?'
p1174
tp1175
Rp1176
tp1177
a(S'liar! (short story)'
p1178
g2
(g6
S'\x1e\x82\xad\xfbKk\xd5?'
p1179
tp1180
Rp1181
tp1182
a(S'icub'
p1183
g2
(g6
S'\xb3Iv\xdd$a\xd5?'
p1184
tp1185
Rp1186
tp1187
a(S'lunacy (first)'
p1188
g2
(g6
S'\xae\xfa\x0e\x80$G\xd5?'
p1189
tp1190
Rp1191
tp1192
a(S'crx10'
p1193
g2
(g6
S'\xa5\xb4\xb6\xa9\xfe@\xd5?'
p1194
tp1195
Rp1196
tp1197
a(S'swarm robotics'
p1198
g2
(g6
S'\x10X{:\xcc4\xd5?'
p1199
tp1200
Rp1201
tp1202
a(S'the trons'
p1203
g2
(g6
S"f\xe7D\xc7'*\xd5?"
p1204
tp1205
Rp1206
tp1207
a(S'robot (comics)'
p1208
g2
(g6
S'\xd94\xee\x1b\x82)\xd5?'
p1209
tp1210
Rp1211
tp1212
a(S'mirror image (short story)'
p1213
g2
(g6
S'q\xb4\xd8\xeb\x8c%\xd5?'
p1214
tp1215
Rp1216
tp1217
a(S'positronic brain'
p1218
g2
(g6
S'\xdb\x9d\xa1{L!\xd5?'
p1219
tp1220
Rp1221
tp1222
a(S'deterministic rendezvous problem'
p1223
g2
(g6
S'\x08\xa2\xd2\xa7\xa8\x19\xd5?'
p1224
tp1225
Rp1226
tp1227
a(S'turtle (robot)'
p1228
g2
(g6
S'\xa0\x01\x1b\xbd:\x13\xd5?'
p1229
tp1230
Rp1231
tp1232
a(S'battlebots'
p1233
g2
(g6
S'{?\xdbh(\x11\xd5?'
p1234
tp1235
Rp1236
tp1237
a(S'robopsychology'
p1238
g2
(g6
S'\x92\x92\x1d\x91\xa1\xff\xd4?'
p1239
tp1240
Rp1241
tp1242
a(S'hero (robot)'
p1243
g2
(g6
S'\x89|\xbaY\x82\xfb\xd4?'
p1244
tp1245
Rp1246
tp1247
a(S'anykode marilou'
p1248
g2
(g6
S'\xa6o\x16\xae^\xf8\xd4?'
p1249
tp1250
Rp1251
tp1252
a(S'cognitive robotics'
p1253
g2
(g6
S'i\x88\xfc\xca\xcd\xf6\xd4?'
p1254
tp1255
Rp1256
tp1257
a(S'slim john'
p1258
g2
(g6
S'\xec\x0bZ\xd7\x1d\xf0\xd4?'
p1259
tp1260
Rp1261
tp1262
a(S'morphogenetic robotics'
p1263
g2
(g6
S'\x1e\x16t\xb2\x96\xeb\xd4?'
p1264
tp1265
Rp1266
tp1267
a(S'evolution robotics'
p1268
g2
(g6
S'5\xb0o\x8c\n\xeb\xd4?'
p1269
tp1270
Rp1271
tp1272
a(S'ecobot'
p1273
g2
(g6
S')\xc4P\x04\xd8\xe0\xd4?'
p1274
tp1275
Rp1276
tp1277
a(S'razer (robot)'
p1278
g2
(g6
S'e/z=Q\xd7\xd4?'
p1279
tp1280
Rp1281
tp1282
a(S'institute for personal robots in education'
p1283
g2
(g6
S'\t\xdbD\xda\xdb\xd6\xd4?'
p1284
tp1285
Rp1286
tp1287
a(S'the bicentennial man'
p1288
g2
(g6
S'\x02\xbd\x0b\x91B\xd0\xd4?'
p1289
tp1290
Rp1291
tp1292
a(S'list of autonomous areas by country'
p1293
g2
(g6
S'\x0fj\x0e\x98l\xcd\xd4?'
p1294
tp1295
Rp1296
tp1297
a(S'iso 10218'
p1298
g2
(g6
S'\xc4\x02p\x1b\xf3\xca\xd4?'
p1299
tp1300
Rp1301
tp1302
a(S'biorobotics'
p1303
g2
(g6
S'\x03\xe5T\xbe\xc9\xc3\xd4?'
p1304
tp1305
Rp1306
tp1307
a(S'large workspace robot'
p1308
g2
(g6
S'\xf4\xa2\x15y\r\xbf\xd4?'
p1309
tp1310
Rp1311
tp1312
a(S'war with the robots'
p1313
g2
(g6
S'\xf0_c\xa03\xbc\xd4?'
p1314
tp1315
Rp1316
tp1317
a(S'surena (robot)'
p1318
g2
(g6
S'\xf3y\xc7\xec\xf0\xbb\xd4?'
p1319
tp1320
Rp1321
tp1322
a(S'ecovacs robotics'
p1323
g2
(g6
S'\xa9b\xcf\x0c>\xb5\xd4?'
p1324
tp1325
Rp1326
tp1327
a(S'fembot (disambiguation)'
p1328
g2
(g6
S'b4\xbc\xa3\x1c\xb2\xd4?'
p1329
tp1330
Rp1331
tp1332
a(S'fear of a bot planet'
p1333
g2
(g6
S'\x8c\xc8\x86\xdb\x90\xaf\xd4?'
p1334
tp1335
Rp1336
tp1337
a(S"isaac asimov's robot city: prodigy"
p1338
g2
(g6
S'\x89_\xe7\x99\x8f\xaf\xd4?'
p1339
tp1340
Rp1341
tp1342
a(S'irobot create'
p1343
g2
(g6
S'\xa4\xba\xb1\x0b\xdf\xaa\xd4?'
p1344
tp1345
Rp1346
tp1347
a(S'amaryllo'
p1348
g2
(g6
S'\x17\xb7\xe8\xc6a\xa3\xd4?'
p1349
tp1350
Rp1351
tp1352
a(S'rhex'
p1353
g2
(g6
S'h\xe1\x89!\xde\xa0\xd4?'
p1354
tp1355
Rp1356
tp1357
a(S'actroid'
p1358
g2
(g6
S'\x97\r\x1f\x14\x9f\x9f\xd4?'
p1359
tp1360
Rp1361
tp1362
a(S'oussama khatib'
p1363
g2
(g6
S'h\xab\xb7\xca\xd7\x9a\xd4?'
p1364
tp1365
Rp1366
tp1367
a(S'vaimos'
p1368
g2
(g6
S'EX\xe1%W\x97\xd4?'
p1369
tp1370
Rp1371
tp1372
a(S'riot runners'
p1373
g2
(g6
S'\x8c\x93\xeb\xc8-\x91\xd4?'
p1374
tp1375
Rp1376
tp1377
a(S'snake-arm robot'
p1378
g2
(g6
S'$\xca\xbc\xab \x8e\xd4?'
p1379
tp1380
Rp1381
tp1382
a(S'first law'
p1383
g2
(g6
S'~\x84\xf32\x9d\x8d\xd4?'
p1384
tp1385
Rp1386
tp1387
a(S'robot research initiative'
p1388
g2
(g6
S'~\xacj6"\x87\xd4?'
p1389
tp1390
Rp1391
tp1392
a(S'robots and empire'
p1393
g2
(g6
S'\xdb\x90\x1f\xa8\xa3y\xd4?'
p1394
tp1395
Rp1396
tp1397
a(S'the naked sun'
p1398
g2
(g6
S'\xae\x07,\xfd\x1au\xd4?'
p1399
tp1400
Rp1401
tp1402
a(S'toyota partner robot'
p1403
g2
(g6
S'\xfa\x12\x140\xe8s\xd4?'
p1404
tp1405
Rp1406
tp1407
a(S'non-silicon robot'
p1408
g2
(g6
S'\xac\x8a\xbe-ri\xd4?'
p1409
tp1410
Rp1411
tp1412
a(S'k\xc3\xa4rcher rc3000'
p1413
g2
(g6
S'Il\xaa\x0b\xa4h\xd4?'
p1414
tp1415
Rp1416
tp1417
a(S'british automation and robot association'
p1418
g2
(g6
S'\x8f\xaa\x04mA[\xd4?'
p1419
tp1420
Rp1421
tp1422
a(S'traffic robots in kinshasa'
p1423
g2
(g6
S'\xf7\x9c\x96V\xc5Z\xd4?'
p1424
tp1425
Rp1426
tp1427
a(S'robot battle (macintosh game)'
p1428
g2
(g6
S'\xb1\x1f\xf9\x10\xf8Q\xd4?'
p1429
tp1430
Rp1431
tp1432
a(S'scara'
p1433
g2
(g6
S'\x12\xaa\x94R\xbfQ\xd4?'
p1434
tp1435
Rp1436
tp1437
a(S'kim jong-hwan'
p1438
g2
(g6
S'\xa6\xbaMcfQ\xd4?'
p1439
tp1440
Rp1441
tp1442
a(S'fembot'
p1443
g2
(g6
S'\\m\xb6\x84\xecO\xd4?'
p1444
tp1445
Rp1446
tp1447
a(S'robotic industries association'
p1448
g2
(g6
S'\x14N\xad\x95<O\xd4?'
p1449
tp1450
Rp1451
tp1452
a(S'android (robot)'
p1453
g2
(g6
S'\xa1l&\xa3HN\xd4?'
p1454
tp1455
Rp1456
tp1457
a(S'the robots'
p1458
g2
(g6
S'\x80(\x157vI\xd4?'
p1459
tp1460
Rp1461
tp1462
a(S'milagrow'
p1463
g2
(g6
S'\x03a\xe1\xdb\x02F\xd4?'
p1464
tp1465
Rp1466
tp1467
a(S'turing robot'
p1468
g2
(g6
S'\xb2\xfa\x17\xba\xcfA\xd4?'
p1469
tp1470
Rp1471
tp1472
a(S'the robots of dawn'
p1473
g2
(g6
S'-`k\xf1\x1a?\xd4?'
p1474
tp1475
Rp1476
tp1477
a(S'evolutionary robotics'
p1478
g2
(g6
S'\xf5\xdc\xcc/\xe2=\xd4?'
p1479
tp1480
Rp1481
tp1482
a(S'stiquito'
p1483
g2
(g6
S'\n\x03\xf6\xcc,;\xd4?'
p1484
tp1485
Rp1486
tp1487
a(S'robo story'
p1488
g2
(g6
S'\x08\xf2IE"1\xd4?'
p1489
tp1490
Rp1491
tp1492
a(S'microsoft robotics developer studio'
p1493
g2
(g6
S'\x0b\xc3\x19\x99:,\xd4?'
p1494
tp1495
Rp1496
tp1497
a(S'carmen toolkit'
p1498
g2
(g6
S",\xe7&!G'\xd4?"
p1499
tp1500
Rp1501
tp1502
a(S"isaac asimov's robots and aliens"
p1503
g2
(g6
S'\x81oye\xa2$\xd4?'
p1504
tp1505
Rp1506
tp1507
a(S'robotic arm'
p1508
g2
(g6
S'\xffj\x8c4u"\xd4?'
p1509
tp1510
Rp1511
tp1512
a.