(lp0
(S'backpropagation'
p1
cnumpy.core.multiarray
scalar
p2
(cnumpy
dtype
p3
(S'f8'
p4
I0
I1
tp5
Rp6
(I3
S'<'
p7
NNNI-1
I-1
I0
tp8
bS'\x02\x00\x00\x00\x00\x00\xf0?'
p9
tp10
Rp11
tp12
a(S'delta rule'
p13
g2
(g6
S'\xea\xb7\x88QL\xe2\xe4?'
p14
tp15
Rp16
tp17
a(S'feedforward neural network'
p18
g2
(g6
S'\x98\x85\x813G~\xe4?'
p19
tp20
Rp21
tp22
a(S'adaline'
p23
g2
(g6
S'\xc9G&\xfdGM\xe4?'
p24
tp25
Rp26
tp27
a(S'types of artificial neural networks'
p28
g2
(g6
S'b\xd6\x82\x01I\x80\xe3?'
p29
tp30
Rp31
tp32
a(S'multilayer perceptron'
p33
g2
(g6
S'\x8dg\x14wn\x06\xe1?'
p34
tp35
Rp36
tp37
a(S'recurrent neural network'
p38
g2
(g6
S':\x85\xf4]\x8c\xdf\xe0?'
p39
tp40
Rp41
tp42
a(S'quickprop'
p43
g2
(g6
S'\xf7\x06\x1c\xbdo{\xe0?'
p44
tp45
Rp46
tp47
a(S'perceptron'
p48
g2
(g6
S'\x04=\x13=L\xdc\xdf?'
p49
tp50
Rp51
tp52
a(S'artificial neuron'
p53
g2
(g6
S'\xb2#\xe4F\xcc{\xdf?'
p54
tp55
Rp56
tp57
a(S'vanishing gradient problem'
p58
g2
(g6
S'M\x10*~k-\xdf?'
p59
tp60
Rp61
tp62
a(S'radial basis function network'
p63
g2
(g6
S'\xcb\x04\xc2Z\x9e\xf6\xde?'
p64
tp65
Rp66
tp67
a(S'hyper basis function network'
p68
g2
(g6
S'\xae\xbbd\xbbv\xe7\xde?'
p69
tp70
Rp71
tp72
a(S'long short-term memory'
p73
g2
(g6
S'|\xf0\xa8\xa6\x84\x82\xde?'
p74
tp75
Rp76
tp77
a(S'catastrophic interference'
p78
g2
(g6
S'\xbc5\xcdx\xd4\x14\xde?'
p79
tp80
Rp81
tp82
a(S'probabilistic neural network'
p83
g2
(g6
S'\x97\x86\xdbD3\\\xdd?'
p84
tp85
Rp86
tp87
a(S'madaline'
p88
g2
(g6
S'\xe4\'\xe7"\x8fU\xdd?'
p89
tp90
Rp91
tp92
a(S'convolutional neural network'
p93
g2
(g6
S'\\\x04km\xe1\x0b\xdd?'
p94
tp95
Rp96
tp97
a(S'instantaneously trained neural networks'
p98
g2
(g6
S'\xdc\xef\xad\x84\xf4\x89\xdc?'
p99
tp100
Rp101
tp102
a(S'stochastic gradient descent'
p103
g2
(g6
S'\xef\xf64[\x84\x7f\xdc?'
p104
tp105
Rp106
tp107
a(S'artificial neural network'
p108
g2
(g6
S'\x01wz\xbc\x1c[\xdc?'
p109
tp110
Rp111
tp112
a(S'competitive learning'
p113
g2
(g6
S'\xf6\xf8qYw\x14\xdc?'
p114
tp115
Rp116
tp117
a(S'autoencoder'
p118
g2
(g6
S'4^\xa3\xa9z\xf9\xdb?'
p119
tp120
Rp121
tp122
a(S'deep learning'
p123
g2
(g6
S'\xd2\xa5\x85\x9d\x81\xeb\xdb?'
p124
tp125
Rp126
tp127
a(S'gradient descent'
p128
g2
(g6
S'\xd2\xdd\xa4\x7fb\x11\xdb?'
p129
tp130
Rp131
tp132
a(S'leabra'
p133
g2
(g6
S's\x0f\xef&H\x02\xdb?'
p134
tp135
Rp136
tp137
a(S'neural cryptography'
p138
g2
(g6
S'\x88\xf7E\xf5\xc92\xda?'
p139
tp140
Rp141
tp142
a(S'statistical learning theory'
p143
g2
(g6
S's\xfd\x8f\x05\xbf-\xda?'
p144
tp145
Rp146
tp147
a(S'rprop'
p148
g2
(g6
S'\x80\xd4\xf4\xc1H\x1f\xda?'
p149
tp150
Rp151
tp152
a(S'time delay neural network'
p153
g2
(g6
S'XA\x10 \x92\x0e\xda?'
p154
tp155
Rp156
tp157
a(S'hopfield network'
p158
g2
(g6
S'\xbd\xdc\x02\xd3?\xf6\xd9?'
p159
tp160
Rp161
tp162
a(S'generalization error'
p163
g2
(g6
S'\x95vU\x8c\x82\xf4\xd9?'
p164
tp165
Rp166
tp167
a(S'supervised learning'
p168
g2
(g6
S'x,\x0bwTr\xd9?'
p169
tp170
Rp171
tp172
a(S'error function'
p173
g2
(g6
S'\x15\xf9\x84a\xc0\xfb\xd8?'
p174
tp175
Rp176
tp177
a(S'bidirectional recurrent neural networks'
p178
g2
(g6
S'\xe8\x90i\xb2\x80\xe6\xd8?'
p179
tp180
Rp181
tp182
a(S'backpropagation through time'
p183
g2
(g6
S'\xfd|\x81\x98\xde\xf2\xd7?'
p184
tp185
Rp186
tp187
a(S'counterpropagation network'
p188
g2
(g6
S'F\xcf\xdf\x92\xac\x86\xd7?'
p189
tp190
Rp191
tp192
a(S'gradient'
p193
g2
(g6
S'-M\xd6m\xaa\x85\xd7?'
p194
tp195
Rp196
tp197
a(S'online machine learning'
p198
g2
(g6
S'\x88\xd4\x15\x15\x07\x84\xd7?'
p199
tp200
Rp201
tp202
a(S'neuroph'
p203
g2
(g6
S'\x91\xd8^\x1c\x8cy\xd7?'
p204
tp205
Rp206
tp207
a(S'feature learning'
p208
g2
(g6
S')Z*[\xb4N\xd7?'
p209
tp210
Rp211
tp212
a(S'almeida\xe2\x80\x93pineda recurrent backpropagation'
p213
g2
(g6
S'\xc5b\x00\x98i"\xd7?'
p214
tp215
Rp216
tp217
a(S'gradient boosting'
p218
g2
(g6
S'\xa1\xab9\xae2\x0f\xd7?'
p219
tp220
Rp221
tp222
a(S'rectifier (neural networks)'
p223
g2
(g6
S'N\xed\x92-\xa0\x07\xd7?'
p224
tp225
Rp226
tp227
a(S'computational neurogenetic modeling'
p228
g2
(g6
S'YM\xd6\x7f\xa6\xb9\xd6?'
p229
tp230
Rp231
tp232
a(S'adaboost'
p233
g2
(g6
S'\xc1T\x05\xf8\x17\x7f\xd6?'
p234
tp235
Rp236
tp237
a(S'connectionism'
p238
g2
(g6
S'\x8b\x97\xc2\x12\xacu\xd6?'
p239
tp240
Rp241
tp242
a(S'learning vector quantization'
p243
g2
(g6
S'\x06\xd0\xfb\x8aj \xd6?'
p244
tp245
Rp246
tp247
a(S'input\xe2\x80\x93output model'
p248
g2
(g6
S'\x9a)T\x94\x1e\x0e\xd6?'
p249
tp250
Rp251
tp252
a(S'gradient method'
p253
g2
(g6
S'\xe5k\x956\x15\x05\xd6?'
p254
tp255
Rp256
tp257
a(S'activation function'
p258
g2
(g6
S'\xc1s+kC\xe4\xd5?'
p259
tp260
Rp261
tp262
a(S'deepdreaming'
p263
g2
(g6
S'\xfb\xdd\xa9\xfat\xc7\xd5?'
p264
tp265
Rp266
tp267
a(S'encog'
p268
g2
(g6
S'\xb4\xf8\xde\x82\x8b\xa1\xd5?'
p269
tp270
Rp271
tp272
a(S'generalized hebbian algorithm'
p273
g2
(g6
S'\x9a.\x99.\xdc7\xd5?'
p274
tp275
Rp276
tp277
a(S'gradient (disambiguation)'
p278
g2
(g6
S"V'w\xc5\x9d\x1c\xd5?"
p279
tp280
Rp281
tp282
a(S'leave-one-out error'
p283
g2
(g6
S'\x9bLN9\x7f\xd4\xd4?'
p284
tp285
Rp286
tp287
a(S'multiplicative weight update method'
p288
g2
(g6
S'LPYl4\xd3\xd4?'
p289
tp290
Rp291
tp292
a(S'least mean squares filter'
p293
g2
(g6
S'\x94\xfb\xa9l`\xc8\xd4?'
p294
tp295
Rp296
tp297
a(S'winner-take-all (computing)'
p298
g2
(g6
S'v\x0e\x9a\x8f\xbe\xc2\xd4?'
p299
tp300
Rp301
tp302
a(S'recursive neural network'
p303
g2
(g6
S'\xcb\x9d94\x11\x9c\xd4?'
p304
tp305
Rp306
tp307
a(S'error analysis (mathematics)'
p308
g2
(g6
S'Q\xb9\x8e\xa2i\x83\xd4?'
p309
tp310
Rp311
tp312
a(S'physical neural network'
p313
g2
(g6
S'\xe5\x8b\x0b\xa8hx\xd4?'
p314
tp315
Rp316
tp317
a(S'neural gas'
p318
g2
(g6
S'\xc4\xd7Q>hx\xd4?'
p319
tp320
Rp321
tp322
a(S'softmax function'
p323
g2
(g6
S'\xc77\xd2\x94\xbaJ\xd4?'
p324
tp325
Rp326
tp327
a(S'extreme learning machine'
p328
g2
(g6
S'\xca\xe6\xba\xa17J\xd4?'
p329
tp330
Rp331
tp332
a(S'wake-sleep algorithm'
p333
g2
(g6
S'\xef\x088\xbe66\xd4?'
p334
tp335
Rp336
tp337
a(S'mnist database'
p338
g2
(g6
S"\xfe3L\xca\x10'\xd4?"
p339
tp340
Rp341
tp342
a(S'extension neural network'
p343
g2
(g6
S' \xb40q\x01!\xd4?'
p344
tp345
Rp346
tp347
a(S'nervous system network models'
p348
g2
(g6
S"\xdf5\xaf\xac' \xd4?"
p349
tp350
Rp351
tp352
a(S'adaptive resonance theory'
p353
g2
(g6
S'\xa2Q\xaa\x00\xe4\x1e\xd4?'
p354
tp355
Rp356
tp357
a(S'spatial gradient'
p358
g2
(g6
S'\xb4#\xc5\xccL\x19\xd4?'
p359
tp360
Rp361
tp362
a(S'error management (em)'
p363
g2
(g6
S'\xa8\xbd\xfe\x15_\x0f\xd4?'
p364
tp365
Rp366
tp367
a(S'function (mathematics)'
p368
g2
(g6
S'\xde,\xfb\xab\xff\xef\xd3?'
p369
tp370
Rp371
tp372
a(S"oja's rule"
p373
g2
(g6
S'\xf1[)w\xf3\xe5\xd3?'
p374
tp375
Rp376
tp377
a(S'self-organizing map'
p378
g2
(g6
S'\xcec\x9c\xb5\xa9\xe0\xd3?'
p379
tp380
Rp381
tp382
a(S'nonlinear conjugate gradient method'
p383
g2
(g6
S'\xda\xf04]O\xde\xd3?'
p384
tp385
Rp386
tp387
a(S'q-function'
p388
g2
(g6
S'"\xb03\\\x94\xda\xd3?'
p389
tp390
Rp391
tp392
a(S'discretization error'
p393
g2
(g6
S'K\x02t\xc0T\x97\xd3?'
p394
tp395
Rp396
tp397
a(S'condition number'
p398
g2
(g6
S'Gk\t\xdb\xf6\x94\xd3?'
p399
tp400
Rp401
tp402
a(S"bresenham's line algorithm"
p403
g2
(g6
S'\xaf\xc1\xefe\x94\x94\xd3?'
p404
tp405
Rp406
tp407
a(S'image gradient'
p408
g2
(g6
S'M\x85\x97\xcb;\x8f\xd3?'
p409
tp410
Rp411
tp412
a(S'error tolerance (pac learning)'
p413
g2
(g6
S'y\x08p\xcc\x1du\xd3?'
p414
tp415
Rp416
tp417
a(S'standard streams'
p418
g2
(g6
S'\x0c\xb7\xf2\x89im\xd3?'
p419
tp420
Rp421
tp422
a(S'echo state network'
p423
g2
(g6
S'\x0c\xe0\xdd_\\l\xd3?'
p424
tp425
Rp426
tp427
a(S'gradient sro'
p428
g2
(g6
S'\xfbZ\xbd\x87\x1ec\xd3?'
p429
tp430
Rp431
tp432
a(S'early stopping'
p433
g2
(g6
S'\xa4\x8d\xd9RNS\xd3?'
p434
tp435
Rp436
tp437
a(S'biconjugate gradient method'
p438
g2
(g6
S'\xd3$\xa8(41\xd3?'
p439
tp440
Rp441
tp442
a(S'transfer function'
p443
g2
(g6
S'\x85C\x1d\x12\xee\x06\xd3?'
p444
tp445
Rp446
tp447
a(S'random neural network'
p448
g2
(g6
S'\x8a\xc2\xd8\xe66\xe2\xd2?'
p449
tp450
Rp451
tp452
a(S'rosenbrock function'
p453
g2
(g6
S'\xfa\xca\xa0F\x1b\xde\xd2?'
p454
tp455
Rp456
tp457
a(S'nv network'
p458
g2
(g6
S'N\x8bq\xff\xad\xcd\xd2?'
p459
tp460
Rp461
tp462
a(S'approximation error'
p463
g2
(g6
S'\xd9{\x8d\x07*\xcd\xd2?'
p464
tp465
Rp466
tp467
a(S'neural turing machine'
p468
g2
(g6
S'\x14\x0f\xb8\xec\xdd\xbf\xd2?'
p469
tp470
Rp471
tp472
a(S'similarities between wiener and lms'
p473
g2
(g6
S':\x87\xfa\x96?\xbe\xd2?'
p474
tp475
Rp476
tp477
a(S'stochastic neural network'
p478
g2
(g6
S'\xfel\xdc\x81\x81\xb2\xd2?'
p479
tp480
Rp481
tp482
a(S'error (disambiguation)'
p483
g2
(g6
S'42\xd0#p\xaa\xd2?'
p484
tp485
Rp486
tp487
a(S'neurosolutions'
p488
g2
(g6
S'\x94\xa1\xa3\xeaq\x9a\xd2?'
p489
tp490
Rp491
tp492
a(S'models of neural computation'
p493
g2
(g6
S'\xd2\x835\x02\xe1\x83\xd2?'
p494
tp495
Rp496
tp497
a(S'semipredicate problem'
p498
g2
(g6
S'\xd5\xf1#\x8c\xfbY\xd2?'
p499
tp500
Rp501
tp502
a(S'synaptic weight'
p503
g2
(g6
S'{\xfc2,rM\xd2?'
p504
tp505
Rp506
tp507
a(S'stochastic approximation'
p508
g2
(g6
S'\x0e\xde\xb9\xb4:M\xd2?'
p509
tp510
Rp511
tp512
a(S'overfitting'
p513
g2
(g6
S'\xc2\xc1\xd2GL?\xd2?'
p514
tp515
Rp516
tp517
a(S'pseudoconvex function'
p518
g2
(g6
S'\x1c\x9fA\xf2\xc8:\xd2?'
p519
tp520
Rp521
tp522
a(S'neuron (disambiguation)'
p523
g2
(g6
S'\x0c\x91s;\r3\xd2?'
p524
tp525
Rp526
tp527
a(S"freivalds' algorithm"
p528
g2
(g6
S'[\x89I\xb1~!\xd2?'
p529
tp530
Rp531
tp532
a(S'alternative explanations of the "grandmother" cell'
p533
g2
(g6
S'\xd3b\xe2\xc47\x1f\xd2?'
p534
tp535
Rp536
tp537
a(S'gradient-related'
p538
g2
(g6
S'\xa7&\xe0\xf3?\x1b\xd2?'
p539
tp540
Rp541
tp542
a(S'winnow (algorithm)'
p543
g2
(g6
S'\x89u\xb0\x8b\xf2\x14\xd2?'
p544
tp545
Rp546
tp547
a(S'list of algorithms'
p548
g2
(g6
S'J\xe2\xdb\x10\x1c\x12\xd2?'
p549
tp550
Rp551
tp552
a(S'quantum optimization algorithms'
p553
g2
(g6
S'\xe8\xf2\xcc\xe8\x94\x11\xd2?'
p554
tp555
Rp556
tp557
a(S'deep belief network'
p558
g2
(g6
S'h(Mu\x1f\x00\xd2?'
p559
tp560
Rp561
tp562
a(S'multiplexer'
p563
g2
(g6
S'`\xec\x14\x05\xca\xf1\xd1?'
p564
tp565
Rp566
tp567
a(S'restricted boltzmann machine'
p568
g2
(g6
S'VK\x1a\r]\xe3\xd1?'
p569
tp570
Rp571
tp572
a(S"xiaolin wu's line algorithm"
p573
g2
(g6
S'\x9b(Z\r\xd0\xe2\xd1?'
p574
tp575
Rp576
tp577
a(S'universal approximation theorem'
p578
g2
(g6
S'%\xf8\x05\xb2\xc7\xdf\xd1?'
p579
tp580
Rp581
tp582
a(S'frank\xe2\x80\x93wolfe algorithm'
p583
g2
(g6
S'g\xb5\x13\xd3q\xdd\xd1?'
p584
tp585
Rp586
tp587
a(S'spiking neural network'
p588
g2
(g6
S'\xa9\xf6\xb6\xf2(\xc4\xd1?'
p589
tp590
Rp591
tp592
a(S'one-way function'
p593
g2
(g6
S'\xc9\xb4\xa3\xd6\x06\xb8\xd1?'
p594
tp595
Rp596
tp597
a(S'berkson error model'
p598
g2
(g6
S'R\xf6\x94\x82\x1c\xaf\xd1?'
p599
tp600
Rp601
tp602
a(S'modular neural network'
p603
g2
(g6
S'pV\x8c\xb9D\xad\xd1?'
p604
tp605
Rp606
tp607
a(S'learning rule'
p608
g2
(g6
S'\x97_I\xed\xf2\xa0\xd1?'
p609
tp610
Rp611
tp612
a(S'brownboost'
p613
g2
(g6
S'\xc1sB5\xbf\x97\xd1?'
p614
tp615
Rp616
tp617
a(S'output (economics)'
p618
g2
(g6
S'\x0b\x00\x18\x8e\xd3\x94\xd1?'
p619
tp620
Rp621
tp622
a(S'hebbian theory'
p623
g2
(g6
S'\xf8\xe1\xb5r\xc4\x88\xd1?'
p624
tp625
Rp626
tp627
a(S'biological neuron model'
p628
g2
(g6
S'\x18%-L$\x87\xd1?'
p629
tp630
Rp631
tp632
a(S'descent direction'
p633
g2
(g6
S'\xf7\x17\xe5\xeb\x87\x84\xd1?'
p634
tp635
Rp636
tp637
a(S'q-learning'
p638
g2
(g6
S'\xa2\xfct\x0b\x1a\x84\xd1?'
p639
tp640
Rp641
tp642
a(S'surface gradient'
p643
g2
(g6
S'\xf6\x8d\xc2\xa6\xa0|\xd1?'
p644
tp645
Rp646
tp647
a(S'gradient-domain image processing'
p648
g2
(g6
S'\x0c\x9c\xaf\x00\xd3l\xd1?'
p649
tp650
Rp651
tp652
a(S'errored second'
p653
g2
(g6
S'\xf9\x92\xe8z\xd9U\xd1?'
p654
tp655
Rp656
tp657
a(S'soft output viterbi algorithm'
p658
g2
(g6
S'\xf7\xa9\xe4\x01uR\xd1?'
p659
tp660
Rp661
tp662
a(S'error'
p663
g2
(g6
S'F\xc0\x0b\xae\xa00\xd1?'
p664
tp665
Rp666
tp667
a(S'cerebellar model articulation controller'
p668
g2
(g6
S'\xd4\xd5\xad\x06^-\xd1?'
p669
tp670
Rp671
tp672
a(S'key code qualifier'
p673
g2
(g6
S'\x84\x92@\x97\xad*\xd1?'
p674
tp675
Rp676
tp677
a(S'neighbourhood components analysis'
p678
g2
(g6
S'\xfc\xf3\xbf\xd1e*\xd1?'
p679
tp680
Rp681
tp682
a(S'list of types of functions'
p683
g2
(g6
S'\xd10\x0bX\x8a)\xd1?'
p684
tp685
Rp686
tp687
a(S'neural lab'
p688
g2
(g6
S'\x98\xcd\x9f"$!\xd1?'
p689
tp690
Rp691
tp692
a(S'loss function'
p693
g2
(g6
S'\xea\xe9)C\xba\x18\xd1?'
p694
tp695
Rp696
tp697
a(S'natural evolution strategy'
p698
g2
(g6
S'\xe4\x05\x98\xc8\x18\x07\xd1?'
p699
tp700
Rp701
tp702
a(S'constant function'
p703
g2
(g6
S'\x0f\xfd\x84T\xe4\x00\xd1?'
p704
tp705
Rp706
tp707
a(S'isoquant'
p708
g2
(g6
S'Y\r\xdf\xc9\xe1\xff\xd0?'
p709
tp710
Rp711
tp712
a(S'adaptive filter'
p713
g2
(g6
S']\xef{\x8e/\xff\xd0?'
p714
tp715
Rp716
tp717
a(S'quantum algorithm for linear systems of equations'
p718
g2
(g6
S'\x91\xfa!fX\xfa\xd0?'
p719
tp720
Rp721
tp722
a(S'output-sensitive algorithm'
p723
g2
(g6
S'/Awy\x1b\xf6\xd0?'
p724
tp725
Rp726
tp727
a(S'error message'
p728
g2
(g6
S'\x81a\xd0<\xd5\xf4\xd0?'
p729
tp730
Rp731
tp732
a(S'list of numerical analysis topics'
p733
g2
(g6
S'\x1f\x1bIIv\xf3\xd0?'
p734
tp735
Rp736
tp737
a(S'most frequent k characters'
p738
g2
(g6
S'\xa2Q?\xa8R\xf1\xd0?'
p739
tp740
Rp741
tp742
a(S'list of machine learning concepts'
p743
g2
(g6
S'\xc7?%\xd9\xb0\xf0\xd0?'
p744
tp745
Rp746
tp747
a(S'ensemble averaging (machine learning)'
p748
g2
(g6
S'\xe2\x12c\x17\x93\xf0\xd0?'
p749
tp750
Rp751
tp752
a(S'conjugate gradient method'
p753
g2
(g6
S'\x05\x00\xf3{\xe4\xec\xd0?'
p754
tp755
Rp756
tp757
a(S'pattern recognition'
p758
g2
(g6
S'\xaam\xbc\x9c\xb7\xe9\xd0?'
p759
tp760
Rp761
tp762
a(S'derivative'
p763
g2
(g6
S'.EK\xb7\xa0\xe7\xd0?'
p764
tp765
Rp766
tp767
a(S'biological neural network'
p768
g2
(g6
S'\xbe;\xf0\xccq\xe1\xd0?'
p769
tp770
Rp771
tp772
a(S'randomization function'
p773
g2
(g6
S'\xe7\x88\x9f\xaf(\xd9\xd0?'
p774
tp775
Rp776
tp777
a(S'sample complexity'
p778
g2
(g6
S'\xa8\xf4\xa2g\xe3\xd5\xd0?'
p779
tp780
Rp781
tp782
a(S'snns'
p783
g2
(g6
S'\x92\xff\xdd8\n\xd0\xd0?'
p784
tp785
Rp786
tp787
a(S'error (law)'
p788
g2
(g6
S'\x81z\xa4M\xe6\xcd\xd0?'
p789
tp790
Rp791
tp792
a(S"steffensen's method"
p793
g2
(g6
S'u\xdf\xd5\xacj\xcc\xd0?'
p794
tp795
Rp796
tp797
a(S'error analysis'
p798
g2
(g6
S'\xa5\xbb\xf5\xd5\xcb\xc7\xd0?'
p799
tp800
Rp801
tp802
a(S'mapreduce'
p803
g2
(g6
S'\x07A\xd0\xc3\xf4\xc2\xd0?'
p804
tp805
Rp806
tp807
a(S'gene expression programming'
p808
g2
(g6
S'\xb5 \x8bx\xdd\xbf\xd0?'
p809
tp810
Rp811
tp812
a(S'loss functions for classification'
p813
g2
(g6
S'!>\xf5\xfd\xf3\xbe\xd0?'
p814
tp815
Rp816
tp817
a(S'realization (systems)'
p818
g2
(g6
S'\x00c\xc7\xd8k\xbc\xd0?'
p819
tp820
Rp821
tp822
a(S'forney algorithm'
p823
g2
(g6
S'Qo8\x0e\xa9\xb3\xd0?'
p824
tp825
Rp826
tp827
a(S'output'
p828
g2
(g6
S'\x9a\xc0{PL\xad\xd0?'
p829
tp830
Rp831
tp832
a(S'griewank function'
p833
g2
(g6
S'\xe5\x18\x15\xed"\xab\xd0?'
p834
tp835
Rp836
tp837
a(S'production function'
p838
g2
(g6
S'\xdd\x98\x15\x0f\xb4\xa4\xd0?'
p839
tp840
Rp841
tp842
a(S'alopex'
p843
g2
(g6
S'C\xf0e\x03\xa4\x9d\xd0?'
p844
tp845
Rp846
tp847
a(S'gradient-like vector field'
p848
g2
(g6
S'*\x7f\x14\xbe\xb1\x99\xd0?'
p849
tp850
Rp851
tp852
a(S'linear time-invariant theory'
p853
g2
(g6
S'ls\xcfsT\x95\xd0?'
p854
tp855
Rp856
tp857
a(S'linear classifier'
p858
g2
(g6
S'\x80\x88\x16{u\x92\xd0?'
p859
tp860
Rp861
tp862
a(S'special input/output'
p863
g2
(g6
S'\xa4\x16%\xed\xb0\x90\xd0?'
p864
tp865
Rp866
tp867
a(S'machine learning'
p868
g2
(g6
S'\xa1\x80F~\x89}\xd0?'
p869
tp870
Rp871
tp872
a(S'error detection and correction'
p873
g2
(g6
S'7&,k7w\xd0?'
p874
tp875
Rp876
tp877
a(S'pulse-coupled networks'
p878
g2
(g6
S'\xf3\xdat\xc4Gu\xd0?'
p879
tp880
Rp881
tp882
a(S'timeline of machine learning'
p883
g2
(g6
S'B0\xe1\x850t\xd0?'
p884
tp885
Rp886
tp887
a(S'tscript'
p888
g2
(g6
S'\xf3\xfc\x0f\xf8\xe3h\xd0?'
p889
tp890
Rp891
tp892
a(S'linear function (calculus)'
p893
g2
(g6
S'\xd7\xda\xf1D\xb1d\xd0?'
p894
tp895
Rp896
tp897
a(S'total survey error'
p898
g2
(g6
S'9\x01\x9c\xe0F\\\xd0?'
p899
tp900
Rp901
tp902
a(S'stability (learning theory)'
p903
g2
(g6
S'.\x80\xc4\xca\xb1Y\xd0?'
p904
tp905
Rp906
tp907
a(S'gradient network'
p908
g2
(g6
S'\xe5\xfb\x80\xc0\x96X\xd0?'
p909
tp910
Rp911
tp912
a(S'nonlinear system identification'
p913
g2
(g6
S'\x02\x16\xf6>\xedQ\xd0?'
p914
tp915
Rp916
tp917
a(S'spike-timing-dependent plasticity'
p918
g2
(g6
S'\xf3\xa3\x1b\xa9\xb9J\xd0?'
p919
tp920
Rp921
tp922
a(S'conditional factor demands'
p923
g2
(g6
S'\x9fd\x85\x02oJ\xd0?'
p924
tp925
Rp926
tp927
a(S'cal actor language'
p928
g2
(g6
S'Bh\xf3\xff\xadF\xd0?'
p929
tp930
Rp931
tp932
a(S'phase retrieval'
p933
g2
(g6
S'W\xbb\xc5\xbd\xcf?\xd0?'
p934
tp935
Rp936
tp937
a(S'parameter (computer programming)'
p938
g2
(g6
S'\xa3I7#\xd19\xd0?'
p939
tp940
Rp941
tp942
a(S'skew gradient'
p943
g2
(g6
S'q\xaf\xfc\xed#5\xd0?'
p944
tp945
Rp946
tp947
a(S'recursive least squares filter'
p948
g2
(g6
S'\xacz\x17\xb6R+\xd0?'
p949
tp950
Rp951
tp952
a(S'phase frequency detector'
p953
g2
(g6
S'Ep\x9eK\xd1\x1e\xd0?'
p954
tp955
Rp956
tp957
a(S'mm algorithm'
p958
g2
(g6
S'\xe1j\x9c\x8c\xa3\x1b\xd0?'
p959
tp960
Rp961
tp962
a(S'unsupervised learning'
p963
g2
(g6
S'#\xc3\xec\x88\x17\x1a\xd0?'
p964
tp965
Rp966
tp967
a(S'hybrid kohonen self-organizing map'
p968
g2
(g6
S'\xa9#/\xe4\x86\x16\xd0?'
p969
tp970
Rp971
tp972
a(S'function block diagram'
p973
g2
(g6
S'\x8b\xaaL~d\x16\xd0?'
p974
tp975
Rp976
tp977
a(S'forward algorithm'
p978
g2
(g6
S'\xb5\xc8\xb0\x1cy\x15\xd0?'
p979
tp980
Rp981
tp982
a(S'neural network software'
p983
g2
(g6
S'6\x1d\x0c\xc1K\x0e\xd0?'
p984
tp985
Rp986
tp987
a(S'gauss\xe2\x80\x93newton algorithm'
p988
g2
(g6
S'\x89\t\xd7S\xc0\r\xd0?'
p989
tp990
Rp991
tp992
a(S'landweber iteration'
p993
g2
(g6
S'N\xe9b<\x1b\x06\xd0?'
p994
tp995
Rp996
tp997
a(S'hresult'
p998
g2
(g6
S'\xf4\xca\xc4$\xa5\x04\xd0?'
p999
tp1000
Rp1001
tp1002
a(S'error bar'
p1003
g2
(g6
S'\xfe{m6m\x01\xd0?'
p1004
tp1005
Rp1006
tp1007
a(S'logic learning machine'
p1008
g2
(g6
S'\x89\xde$\x02\x9a\xf5\xcf?'
p1009
tp1010
Rp1011
tp1012
a(S'stream gradient'
p1013
g2
(g6
S'W\xffXv\xfa\xd6\xcf?'
p1014
tp1015
Rp1016
tp1017
a(S'verlet integration'
p1018
g2
(g6
S'\x11-\xeb\x1a@\xcc\xcf?'
p1019
tp1020
Rp1021
tp1022
a(S'bcpnn'
p1023
g2
(g6
S'\xb0\xf0\xf6#d\xc2\xcf?'
p1024
tp1025
Rp1026
tp1027
a(S'sectoral output'
p1028
g2
(g6
S'|\xb7U\xb5V\xbe\xcf?'
p1029
tp1030
Rp1031
tp1032
a(S'error hiding'
p1033
g2
(g6
S'\xca[\x87A1\xb9\xcf?'
p1034
tp1035
Rp1036
tp1037
a(S'sepp hochreiter'
p1038
g2
(g6
S'\xd7\xcf\x87\xd4\x12\xb9\xcf?'
p1039
tp1040
Rp1041
tp1042
a(S'active learning (machine learning)'
p1043
g2
(g6
S'\x9f\xf1\xabx\xad\xa6\xcf?'
p1044
tp1045
Rp1046
tp1047
a(S'numerical stability'
p1048
g2
(g6
S'\xdb\xf0\xa1\x9a\x16\xa5\xcf?'
p1049
tp1050
Rp1051
tp1052
a(S'error diffusion'
p1053
g2
(g6
S'\x1e\x9c\x89AN\xa4\xcf?'
p1054
tp1055
Rp1056
tp1057
a(S'sigmoid function'
p1058
g2
(g6
S'-\x9c\xf1\x1dG\x9f\xcf?'
p1059
tp1060
Rp1061
tp1062
a(S'bht algorithm'
p1063
g2
(g6
S'oT\x03#\x91\x9a\xcf?'
p1064
tp1065
Rp1066
tp1067
a(S'human error'
p1068
g2
(g6
S'y\xe5*\xcd\xa0\x90\xcf?'
p1069
tp1070
Rp1071
tp1072
a(S'function'
p1073
g2
(g6
S'j\xc5\xd4\xd6\xf3\x8e\xcf?'
p1074
tp1075
Rp1076
tp1077
a(S'kernel perceptron'
p1078
g2
(g6
S'\x9e\x94\x9cp\xb2\x8a\xcf?'
p1079
tp1080
Rp1081
tp1082
a(S'matrixnet'
p1083
g2
(g6
S'\x7f4Gz\nz\xcf?'
p1084
tp1085
Rp1086
tp1087
a(S'neural network synchronization protocol'
p1088
g2
(g6
S'\xf8\xf5tj\xdel\xcf?'
p1089
tp1090
Rp1091
tp1092
a(S'multidimensional system'
p1093
g2
(g6
S'00hE\xaeY\xcf?'
p1094
tp1095
Rp1096
tp1097
a(S'in situ adaptive tabulation'
p1098
g2
(g6
S'\x15\xeb\x19\x11\x99Y\xcf?'
p1099
tp1100
Rp1101
tp1102
a(S'test functions for optimization'
p1103
g2
(g6
S'\x96y\tV\xf8V\xcf?'
p1104
tp1105
Rp1106
tp1107
a(S'error metric'
p1108
g2
(g6
S'vD\n\xfb\xfdR\xcf?'
p1109
tp1110
Rp1111
tp1112
a(S'genesis (software)'
p1113
g2
(g6
S'\xc3\xf5\x92\x16\xb4Q\xcf?'
p1114
tp1115
Rp1116
tp1117
a(S'faddeeva function'
p1118
g2
(g6
S'9a\x99$\x8eE\xcf?'
p1119
tp1120
Rp1121
tp1122
a(S'broyden\xe2\x80\x93fletcher\xe2\x80\x93goldfarb\xe2\x80\x93shanno algorithm'
p1123
g2
(g6
S'\xd9U\xea1\xaeC\xcf?'
p1124
tp1125
Rp1126
tp1127
a(S'linear response function'
p1128
g2
(g6
S'\xcdq\x14Q\xa9?\xcf?'
p1129
tp1130
Rp1131
tp1132
a(S'round-off error'
p1133
g2
(g6
S'\xbb\xfd\x87\xffI7\xcf?'
p1134
tp1135
Rp1136
tp1137
a(S'domain range ratio (drr)'
p1138
g2
(g6
S'#`\xdf\x95\xce/\xcf?'
p1139
tp1140
Rp1141
tp1142
a(S'lossy count algorithm'
p1143
g2
(g6
S'\x0f\xb2\xfas\xf5,\xcf?'
p1144
tp1145
Rp1146
tp1147
a(S'ronald j. williams'
p1148
g2
(g6
S'\x9av\xb0\x9a\xec(\xcf?'
p1149
tp1150
Rp1151
tp1152
a(S'per-comparison error rate'
p1153
g2
(g6
S'\xcceJ\xda\xb3\x1f\xcf?'
p1154
tp1155
Rp1156
tp1157
a(S'input enhancement (computer science)'
p1158
g2
(g6
S'9\x98\x7f\x9a\xd6\x12\xcf?'
p1159
tp1160
Rp1161
tp1162
a(S'codi'
p1163
g2
(g6
S'}\xb5>x/\x0e\xcf?'
p1164
tp1165
Rp1166
tp1167
a(S'brooks\xe2\x80\x93iyengar algorithm'
p1168
g2
(g6
S'/\xfb`\xc4\xfb\x07\xcf?'
p1169
tp1170
Rp1171
tp1172
a(S'trial and error (disambiguation)'
p1173
g2
(g6
S'W\xda(\xcf.\xfe\xce?'
p1174
tp1175
Rp1176
tp1177
a(S'boyer\xe2\x80\x93moore majority vote algorithm'
p1178
g2
(g6
S'\x13\\\x0ex%\xfe\xce?'
p1179
tp1180
Rp1181
tp1182
a(S'error amplifier (electronics)'
p1183
g2
(g6
S'\xd14F\x9b\xa0\xfd\xce?'
p1184
tp1185
Rp1186
tp1187
a(S'gradient pattern analysis'
p1188
g2
(g6
S'\xe3Vn[9\xef\xce?'
p1189
tp1190
Rp1191
tp1192
a(S'kanade\xe2\x80\x93lucas\xe2\x80\x93tomasi feature tracker'
p1193
g2
(g6
S'\xfd\xebl\x8a6\xd9\xce?'
p1194
tp1195
Rp1196
tp1197
a(S'state-space representation'
p1198
g2
(g6
S'Ai\x11\xd0,\xcc\xce?'
p1199
tp1200
Rp1201
tp1202
a(S'split up (expert system)'
p1203
g2
(g6
S'\xdd\x9e\x12\x0cb\xbd\xce?'
p1204
tp1205
Rp1206
tp1207
a(S'net output'
p1208
g2
(g6
S'o\x04\xb5\xdf\xd0\xb0\xce?'
p1209
tp1210
Rp1211
tp1212
a(S'margin of error'
p1213
g2
(g6
S'\x00\x1e\xc5a\x96\xaa\xce?'
p1214
tp1215
Rp1216
tp1217
a(S'ziggurat algorithm'
p1218
g2
(g6
S'\x8dxF\x8a\xe1\xa3\xce?'
p1219
tp1220
Rp1221
tp1222
a(S'anaxonic neuron'
p1223
g2
(g6
S'\x93\xe0R\xa6\x9b\xa3\xce?'
p1224
tp1225
Rp1226
tp1227
a(S'logic error'
p1228
g2
(g6
S'^\x91\xbe3\xcc\x95\xce?'
p1229
tp1230
Rp1231
tp1232
a(S'interior point method'
p1233
g2
(g6
S'\xa9"\xed-\xcb\x8e\xce?'
p1234
tp1235
Rp1236
tp1237
a(S'frequency domain decomposition'
p1238
g2
(g6
S'%\xc6\xb5@=\x89\xce?'
p1239
tp1240
Rp1241
tp1242
a(S'semantic neural network'
p1243
g2
(g6
S'\xce\rmO\x96y\xce?'
p1244
tp1245
Rp1246
tp1247
a(S'empirical risk minimization'
p1248
g2
(g6
S'\xb8\x84N\x18kk\xce?'
p1249
tp1250
Rp1251
tp1252
a(S'invited error'
p1253
g2
(g6
S'\xa9\xf4\x04\xc3\x0bj\xce?'
p1254
tp1255
Rp1256
tp1257
a(S'ipo underpricing algorithm'
p1258
g2
(g6
S'\x8fk\x95\xa5\xb2_\xce?'
p1259
tp1260
Rp1261
tp1262
a(S'adaptive stepsize'
p1263
g2
(g6
S'\x94\x93\x14F\xca]\xce?'
p1264
tp1265
Rp1266
tp1267
a(S'random coordinate descent'
p1268
g2
(g6
S'\xb6\xdeP\xfc-X\xce?'
p1269
tp1270
Rp1271
tp1272
a(S'classification system for serial criminal patterns'
p1273
g2
(g6
S'\xd6\xee$MrW\xce?'
p1274
tp1275
Rp1276
tp1277
a(S'redirection (computing)'
p1278
g2
(g6
S'\x9d\x07\x1d\x9e\xaaV\xce?'
p1279
tp1280
Rp1281
tp1282
a(S'trial and error'
p1283
g2
(g6
S'\xc6\xb14\xaf\xb3A\xce?'
p1284
tp1285
Rp1286
tp1287
a(S'joone'
p1288
g2
(g6
S'\xa66jl\xdd<\xce?'
p1289
tp1290
Rp1291
tp1292
a(S'deutsch\xe2\x80\x93jozsa algorithm'
p1293
g2
(g6
S'C\x0f\xe1\xa5\x1e4\xce?'
p1294
tp1295
Rp1296
tp1297
a(S'cluster-weighted modeling'
p1298
g2
(g6
S'f]\xaa\xf8\x081\xce?'
p1299
tp1300
Rp1301
tp1302
a(S'superconvergence'
p1303
g2
(g6
S'"(\xdd\x8b\t.\xce?'
p1304
tp1305
Rp1306
tp1307
a(S'reinforcement learning'
p1308
g2
(g6
S'\x07\xc4-Q\x8a-\xce?'
p1309
tp1310
Rp1311
tp1312
a(S'superfunction'
p1313
g2
(g6
S'\xc6\x88X\xf4\xa4,\xce?'
p1314
tp1315
Rp1316
tp1317
a(S'k q-flats'
p1318
g2
(g6
S'\xaf\xdb\xd5\x99m)\xce?'
p1319
tp1320
Rp1321
tp1322
a(S'network analysis (electrical circuits)'
p1323
g2
(g6
S'%\x01\xa7\xd6\x9e\x18\xce?'
p1324
tp1325
Rp1326
tp1327
a(S'kirkpatrick\xe2\x80\x93seidel algorithm'
p1328
g2
(g6
S'z\xece\xe6a\x16\xce?'
p1329
tp1330
Rp1331
tp1332
a(S'hierarchical clustering of networks'
p1333
g2
(g6
S'\xafH^!j\t\xce?'
p1334
tp1335
Rp1336
tp1337
a(S'levenberg\xe2\x80\x93marquardt algorithm'
p1338
g2
(g6
S';\x9d\xd1`\xd1\x05\xce?'
p1339
tp1340
Rp1341
tp1342
a(S'classical control theory'
p1343
g2
(g6
S'\xef\xb5\x9b\x04\xdc\x04\xce?'
p1344
tp1345
Rp1346
tp1347
a(S'differential evolution'
p1348
g2
(g6
S'\x14\x16\x81\x05q\xfd\xcd?'
p1349
tp1350
Rp1351
tp1352
a(S'command neuron'
p1353
g2
(g6
S'\x1a3\xec>/\xee\xcd?'
p1354
tp1355
Rp1356
tp1357
a(S'eager learning'
p1358
g2
(g6
S'\xa7\x9cpE\xf3\xeb\xcd?'
p1359
tp1360
Rp1361
tp1362
a(S'gradient theorem'
p1363
g2
(g6
S'\xef\xa7\xae\xd1\xec\xeb\xcd?'
p1364
tp1365
Rp1366
tp1367
a(S'randomized algorithm'
p1368
g2
(g6
S'\xd6\xee\xf3\xdcx\xe9\xcd?'
p1369
tp1370
Rp1371
tp1372
a(S'errno.h'
p1373
g2
(g6
S'.u`9\x98\xe7\xcd?'
p1374
tp1375
Rp1376
tp1377
a(S'work output'
p1378
g2
(g6
S'F\x02J\x0c\xd5\xe1\xcd?'
p1379
tp1380
Rp1381
tp1382
a(S"newton's method in optimization"
p1383
g2
(g6
S'\x1a!\xb5\xa2\xcb\xd8\xcd?'
p1384
tp1385
Rp1386
tp1387
a(S'state observer'
p1388
g2
(g6
S'\x85\xefy\xe8\x99\xd7\xcd?'
p1389
tp1390
Rp1391
tp1392
a(S'online algorithm'
p1393
g2
(g6
S'I\xe8\x90aR\xd4\xcd?'
p1394
tp1395
Rp1396
tp1397
a(S'coordinate descent'
p1398
g2
(g6
S'\xdea0\x18`\xd3\xcd?'
p1399
tp1400
Rp1401
tp1402
a(S'sponge function'
p1403
g2
(g6
S'\\\x8d\x0c\xb9\xb3\xcd\xcd?'
p1404
tp1405
Rp1406
tp1407
a(S'tseytin transformation'
p1408
g2
(g6
S'yo\xe5\xe9\xe3\xc7\xcd?'
p1409
tp1410
Rp1411
tp1412
a(S'neural decoding'
p1413
g2
(g6
S'\x99\xe6\xa1\x0cv\xc6\xcd?'
p1414
tp1415
Rp1416
tp1417
a(S'propagation of uncertainty'
p1418
g2
(g6
S'\xc8f\x8a&\n\xc3\xcd?'
p1419
tp1420
Rp1421
tp1422
a(S'partial derivative'
p1423
g2
(g6
S'~\x01n\xc4\t\xb9\xcd?'
p1424
tp1425
Rp1426
tp1427
a(S'support vector machine'
p1428
g2
(g6
S'\xd6\x11\xd8"\xa8\xaf\xcd?'
p1429
tp1430
Rp1431
tp1432
a(S'observational error'
p1433
g2
(g6
S'\xb9V\xc1ZZ\xab\xcd?'
p1434
tp1435
Rp1436
tp1437
a(S'darkforest'
p1438
g2
(g6
S'm\xe4J\xc2?\xa6\xcd?'
p1439
tp1440
Rp1441
tp1442
a(S'kolakoski sequence'
p1443
g2
(g6
S'\x8a8~\xe9U\xa5\xcd?'
p1444
tp1445
Rp1446
tp1447
a(S'neuroevolution'
p1448
g2
(g6
S'M\xe3\x19\x97\x85\x92\xcd?'
p1449
tp1450
Rp1451
tp1452
a(S'berlekamp\xe2\x80\x93welch algorithm'
p1453
g2
(g6
S'Q\x08\x12\xc0U\x92\xcd?'
p1454
tp1455
Rp1456
tp1457
a(S'list of mathematical functions'
p1458
g2
(g6
S'\xdcv\xbd\xbe\xcf\x91\xcd?'
p1459
tp1460
Rp1461
tp1462
a(S'immediately-invoked function expression'
p1463
g2
(g6
S'Y\x0b\xee:\xd4\x8e\xcd?'
p1464
tp1465
Rp1466
tp1467
a(S'known error'
p1468
g2
(g6
S'\xd8\x8f\xda}\xc6\x8a\xcd?'
p1469
tp1470
Rp1471
tp1472
a(S'radial basis function'
p1473
g2
(g6
S'\x02\x02\xe4\x0b\xfb\x85\xcd?'
p1474
tp1475
Rp1476
tp1477
a(S'vowpal wabbit'
p1478
g2
(g6
S'T\xe6)\xb6\xe6|\xcd?'
p1479
tp1480
Rp1481
tp1482
a(S'ramp function'
p1483
g2
(g6
S"'|\xaa\xb8't\xcd?"
p1484
tp1485
Rp1486
tp1487
a(S'risch algorithm'
p1488
g2
(g6
S'\xc7Py\xe1|m\xcd?'
p1489
tp1490
Rp1491
tp1492
a(S'network architecture'
p1493
g2
(g6
S'\x8d\xbc\x90.Pm\xcd?'
p1494
tp1495
Rp1496
tp1497
a(S"karmarkar's algorithm"
p1498
g2
(g6
S'\xa2\x95\x8fcqc\xcd?'
p1499
tp1500
Rp1501
tp1502
a(S'soft-in soft-out decoder'
p1503
g2
(g6
S'\xdb?\x97\xbcK_\xcd?'
p1504
tp1505
Rp1506
tp1507
a(S'submodular set function'
p1508
g2
(g6
S'p\xc0\xce\xac\xd9V\xcd?'
p1509
tp1510
Rp1511
tp1512
a.