(lp0
(S'baidu'
p1
cnumpy.core.multiarray
scalar
p2
(cnumpy
dtype
p3
(S'f8'
p4
I0
I1
tp5
Rp6
(I3
S'<'
p7
NNNI-1
I-1
I0
tp8
bS'\x00\x00\x00\x00\x00\x00\xf0?'
p9
tp10
Rp11
tp12
a(S'baidu space'
p13
g2
(g6
S'\xb9>\xf3%\xfb\xaf\xec?'
p14
tp15
Rp16
tp17
a(S'baidu yi'
p18
g2
(g6
S'\xc8\x8c\x0bM\x14\xd5\xeb?'
p19
tp20
Rp21
tp22
a(S'baidu music'
p23
g2
(g6
S'X\xad0[kL\xeb?'
p24
tp25
Rp26
tp27
a(S'li mingyuan'
p28
g2
(g6
S'\x19a\xdcxt\x01\xeb?'
p29
tp30
Rp31
tp32
a(S'baidu tieba'
p33
g2
(g6
S'\xaf$\x97\xedB8\xea?'
p34
tp35
Rp36
tp37
a(S'baidu cloud'
p38
g2
(g6
S'\x85|\xad\xb6j\xf8\xe9?'
p39
tp40
Rp41
tp42
a(S'baidu patents'
p43
g2
(g6
S'\x9c\x03=\\\x02\xa6\xe9?'
p44
tp45
Rp46
tp47
a(S'death of wei zexi'
p48
g2
(g6
S'\xdc\xe8\xefCD\xf5\xe8?'
p49
tp50
Rp51
tp52
a(S'baidu baike'
p53
g2
(g6
S'\x15\xacP6\x98[\xe7?'
p54
tp55
Rp56
tp57
a(S'baidu maps'
p58
g2
(g6
S'W\xfc\x1d\x90\xd5\xf2\xe3?'
p59
tp60
Rp61
tp62
a(S'robin li'
p63
g2
(g6
S'3\x9c\x8b\xb6\x00\x91\xe3?'
p64
tp65
Rp66
tp67
a(S"music copyright infringement in the people's republic of china"
p68
g2
(g6
S'\x16\xcc\x88[\xa6?\xe2?'
p69
tp70
Rp71
tp72
a(S'baidu 500'
p73
g2
(g6
S'Ojb?y?\xe2?'
p74
tp75
Rp76
tp77
a(S'du ad platform'
p78
g2
(g6
S'\xcc\xea\xdb\xf0\x91\x9c\xe1?'
p79
tp80
Rp81
tp82
a(S'copy to china'
p83
g2
(g6
S'c\x1d\xdd/\x8a=\xe0?'
p84
tp85
Rp86
tp87
a(S'mamacita (super junior album)'
p88
g2
(g6
S'\xaf\x16\x17\xffw\x1e\xdf?'
p89
tp90
Rp91
tp92
a(S'baidu knows'
p93
g2
(g6
S'\xf2\xc7\xef\x01W\xbb\xdd?'
p94
tp95
Rp96
tp97
a(S'jinli'
p98
g2
(g6
S'\x8d=^i\x82[\xdd?'
p99
tp100
Rp101
tp102
a(S'iqiyi'
p103
g2
(g6
S'v\x1bGn$\x88\xda?'
p104
tp105
Rp106
tp107
a(S'keyinpedia'
p108
g2
(g6
S'\xb0\xbf-\xa0\xa7\xf7\xd9?'
p109
tp110
Rp111
tp112
a(S'list of blacklisted keywords in china'
p113
g2
(g6
S'\x9d=\xebP\xe3a\xd9?'
p114
tp115
Rp116
tp117
a(S'baidu entertainment boiling point'
p118
g2
(g6
S'/\t\xd0^_\xfc\xd8?'
p119
tp120
Rp121
tp122
a(S'jennifer li'
p123
g2
(g6
S'G++TS\xc1\xd8?'
p124
tp125
Rp126
tp127
a(S'comparison of web search engines'
p128
g2
(g6
S'm\xc9w\x11&\xa5\xd8?'
p129
tp130
Rp131
tp132
a(S'panguso'
p133
g2
(g6
S'~\xbd\xf1i\x81q\xd8?'
p134
tp135
Rp136
tp137
a(S'baidu 10 mythical creatures'
p138
g2
(g6
S'\xe7\x0c\x9dEa\xcc\xd6?'
p139
tp140
Rp141
tp142
a(S'pingshu'
p143
g2
(g6
S'C\xfcw\xbf\x18v\xd6?'
p144
tp145
Rp146
tp147
a(S'agape (song)'
p148
g2
(g6
S'e\x12\xe8n\x91K\xd6?'
p149
tp150
Rp151
tp152
a(S'internet in china'
p153
g2
(g6
S'\x8a\xa6`\xcbj\xe9\xd5?'
p154
tp155
Rp156
tp157
a(S'qingfengdian'
p158
g2
(g6
S'\xe0\xfa\xde\xdaR\x95\xd5?'
p159
tp160
Rp161
tp162
a(S'chinese literature and history press'
p163
g2
(g6
S'\xf2\xaf\xdf\x08\xa9\x8c\xd5?'
p164
tp165
Rp166
tp167
a(S'the love winner'
p168
g2
(g6
S'\xab+\xc4\xbb\xe5d\xd5?'
p169
tp170
Rp171
tp172
a(S'zi wang'
p173
g2
(g6
S'\x0c\x05\xba\xc1\x11\x13\xd5?'
p174
tp175
Rp176
tp177
a(S'rainbow sweetheart'
p178
g2
(g6
S'\xbe*\xc7H\xd9\xaa\xd4?'
p179
tp180
Rp181
tp182
a(S'kuaiban'
p183
g2
(g6
S'\xf8GK\x9a\xf0\xe9\xd3?'
p184
tp185
Rp186
tp187
a(S'caimeiju'
p188
g2
(g6
S'\xef\x8d\xc7\xf5`\xe0\xd3?'
p189
tp190
Rp191
tp192
a(S'yangtze high school'
p193
g2
(g6
S'\x8bh\xab11}\xd3?'
p194
tp195
Rp196
tp197
a(S'qingtuan'
p198
g2
(g6
S')\xab\x14d7{\xd3?'
p199
tp200
Rp201
tp202
a(S'listar'
p203
g2
(g6
S'\x1d\x15\xd0\xb4\xedf\xd3?'
p204
tp205
Rp206
tp207
a(S'zhang huiwen'
p208
g2
(g6
S'\xd56\xa7e\xd8\x16\xd3?'
p209
tp210
Rp211
tp212
a(S'bayan har mountains'
p213
g2
(g6
S'\xd5\xf3Hd\xa8\x13\xd3?'
p214
tp215
Rp216
tp217
a(S'boxing county'
p218
g2
(g6
S'>&dEw\x13\xd3?'
p219
tp220
Rp221
tp222
a(S'zhang jieqing'
p223
g2
(g6
S"'R\xcad\x15\xfa\xd2?"
p224
tp225
Rp226
tp227
a(S'hypertable'
p228
g2
(g6
S'O\xf7\x96|V\xeb\xd2?'
p229
tp230
Rp231
tp232
a(S'gagea flavonutans'
p233
g2
(g6
S'\xfd\xde\x10\x80\xe4\xbf\xd2?'
p234
tp235
Rp236
tp237
a(S'hua pian'
p238
g2
(g6
S'\xe2\x94L\x13O\xb9\xd1?'
p239
tp240
Rp241
tp242
a(S'wuju'
p243
g2
(g6
S'\xdb\xf8\xfa\xfc;\x7f\xd1?'
p244
tp245
Rp246
tp247
a(S'pps.tv'
p248
g2
(g6
S'Z\xb1\x88\x13\xdav\xd1?'
p249
tp250
Rp251
tp252
a(S'eric xu'
p253
g2
(g6
S'?\xa1\xdc-ig\xd1?'
p254
tp255
Rp256
tp257
a(S'netdragon websoft'
p258
g2
(g6
S'+wtJ\xb2^\xd1?'
p259
tp260
Rp261
tp262
a(S'ma lianliang'
p263
g2
(g6
S'\xbe\x81\x06\x0bc3\xd1?'
p264
tp265
Rp266
tp267
a(S'yechun garden'
p268
g2
(g6
S'W\xe0Ji\xe6\x16\xd1?'
p269
tp270
Rp271
tp272
a(S'xi xiaobo'
p273
g2
(g6
S'xs\xeek\xb6\x0c\xd1?'
p274
tp275
Rp276
tp277
a(S'yang baosen'
p278
g2
(g6
S'l\x92wV\xfe\xee\xd0?'
p279
tp280
Rp281
tp282
a(S'tan fuying'
p283
g2
(g6
S'IH\x92\xad[\xeb\xd0?'
p284
tp285
Rp286
tp287
a(S'single princesses and blind dates'
p288
g2
(g6
S'!kn;\xdf\xe4\xd0?'
p289
tp290
Rp291
tp292
a(S'draper associates'
p293
g2
(g6
S'\xe5\x82\xd4\x94Q\xc6\xd0?'
p294
tp295
Rp296
tp297
a(S'wan shenzi'
p298
g2
(g6
S'\rd\x14\x96y\x84\xd0?'
p299
tp300
Rp301
tp302
a(S'base de datos'
p303
g2
(g6
S'y\x01\xc4D\xd23\xd0?'
p304
tp305
Rp306
tp307
a(S'meixian district'
p308
g2
(g6
S'\xc26\x17\xf4.(\xd0?'
p309
tp310
Rp311
tp312
a(S'ku music asian music awards'
p313
g2
(g6
S'C\x0e\xfb=\x12\x14\xd0?'
p314
tp315
Rp316
tp317
a(S'gu yasha'
p318
g2
(g6
S'\xc2\xb3\xdd\xc2\xd4\t\xd0?'
p319
tp320
Rp321
tp322
a(S'iranian cyber army'
p323
g2
(g6
S'\xc9<\xff\xf9d6\xcf?'
p324
tp325
Rp326
tp327
a(S'the patriotic knights'
p328
g2
(g6
S'\x15\xde\x01\x1eJ\t\xcf?'
p329
tp330
Rp331
tp332
a(S'ruya'
p333
g2
(g6
S'\xf9\xb8\xeal\xe7\x08\xcf?'
p334
tp335
Rp336
tp337
a(S'prosopocoilus antilope'
p338
g2
(g6
S'u\xe4&\x88\xdb\xdc\xce?'
p339
tp340
Rp341
tp342
a(S'2006 in china'
p343
g2
(g6
S'6\xa7\xc2G\r\xaa\xce?'
p344
tp345
Rp346
tp347
a(S'feixia middle school'
p348
g2
(g6
S'\xe0\x9f\x00A>\x88\xce?'
p349
tp350
Rp351
tp352
a(S'web search engine'
p353
g2
(g6
S'\x84\xaa\xe0p\xe8E\xce?'
p354
tp355
Rp356
tp357
a(S'hu haiyan'
p358
g2
(g6
S'\\\xb5\x9c\xc3w\x16\xce?'
p359
tp360
Rp361
tp362
a(S'qihoo 360'
p363
g2
(g6
S'\xf4b*\xf3^\x04\xce?'
p364
tp365
Rp366
tp367
a(S'online advertising in china'
p368
g2
(g6
S'\xa3\xe4\xd1\x9c\xfe\xce\xcd?'
p369
tp370
Rp371
tp372
a(S'chinese academy of management science'
p373
g2
(g6
S'\xcb{\x8c\xd6\xa6\x9b\xcd?'
p374
tp375
Rp376
tp377
a(S'chang ho-chirl'
p378
g2
(g6
S')\xcc\xc7\x97Z\x92\xcd?'
p379
tp380
Rp381
tp382
a(S'ernest jeremiah chukwuma'
p383
g2
(g6
S'\xb3}@\x8eCY\xcd?'
p384
tp385
Rp386
tp387
a(S'360 secure browser'
p388
g2
(g6
S'\x8d\x82\xe8\x92NB\xcd?'
p389
tp390
Rp391
tp392
a(S'state intellectual property office'
p393
g2
(g6
S'A\xaa\xb0d\xfa\xe6\xcc?'
p394
tp395
Rp396
tp397
a(S'hao123'
p398
g2
(g6
S'\xbdJ\xfd%\xc2\xbb\xcc?'
p399
tp400
Rp401
tp402
a(S'beidou'
p403
g2
(g6
S'\x99D\x90\xf5|\x98\xcc?'
p404
tp405
Rp406
tp407
a(S'tang caichang'
p408
g2
(g6
S'\xb8A\xf0\x17K\x91\xcc?'
p409
tp410
Rp411
tp412
a(S'ma xiaohai'
p413
g2
(g6
S'\xbc\xe4\xefS\x1da\xcc?'
p414
tp415
Rp416
tp417
a(S'china digital times'
p418
g2
(g6
S'\xcf\xd7q\xeb\x13I\xcc?'
p419
tp420
Rp421
tp422
a(S'shen jiaben'
p423
g2
(g6
S'W\x8bH\xa9\xcbA\xcc?'
p424
tp425
Rp426
tp427
a(S'tingyu fang'
p428
g2
(g6
S'\n\x86\n\x98\xe3.\xcc?'
p429
tp430
Rp431
tp432
a(S'hexie farm'
p433
g2
(g6
S'd\xa8\xa3\x8c\xe4+\xcc?'
p434
tp435
Rp436
tp437
a(S'not alone (zhang liyin song)'
p438
g2
(g6
S'\x04\xbd\xe7`\xf5\x00\xcc?'
p439
tp440
Rp441
tp442
a(S'yitong river'
p443
g2
(g6
S'\x80A\xc1\x8c\xdb\xb8\xcb?'
p444
tp445
Rp446
tp447
a(S'bian jinyang'
p448
g2
(g6
S'\x92\xa2\xe4\xc2\xbe\x92\xcb?'
p449
tp450
Rp451
tp452
a(S'li shaochun'
p453
g2
(g6
S'\xbc\xa1\x9a\x19\x03\x8b\xcb?'
p454
tp455
Rp456
tp457
a(S'zhufu yan'
p458
g2
(g6
S'Z(\xd0?\x98]\xcb?'
p459
tp460
Rp461
tp462
a(S'yandex'
p463
g2
(g6
S'\xfe\x88M\xaf\xcfH\xcb?'
p464
tp465
Rp466
tp467
a(S'zhang xiaoyu'
p468
g2
(g6
S'&[\xa5\xc6\x05\xe9\xca?'
p469
tp470
Rp471
tp472
a(S'jin shaoshan'
p473
g2
(g6
S'9\xdf\xe7\xb3k\x95\xca?'
p474
tp475
Rp476
tp477
a(S'dogpile'
p478
g2
(g6
S'\xe4\x18\xd3\x12\x88u\xca?'
p479
tp480
Rp481
tp482
a(S'history salon'
p483
g2
(g6
S'\x07\xf0>$\xe2a\xca?'
p484
tp485
Rp486
tp487
a(S'cafe24'
p488
g2
(g6
S'\x9e\xc7\xb3\xb9\xea>\xca?'
p489
tp490
Rp491
tp492
a(S'moxi town'
p493
g2
(g6
S'0\x0c\xfcF\xf7\x0e\xca?'
p494
tp495
Rp496
tp497
a(S'outline of search engines'
p498
g2
(g6
S'\xa5^Y:3\xd7\xc9?'
p499
tp500
Rp501
tp502
a(S'jia junpeng'
p503
g2
(g6
S'\xe4\xe4=\xb3\xb7\xd2\xc9?'
p504
tp505
Rp506
tp507
a(S'huiju'
p508
g2
(g6
S'\x9cK@0\xd4\xc7\xc9?'
p509
tp510
Rp511
tp512
a(S'jiaoquan'
p513
g2
(g6
S'2\xf1\x1e\xd2s\xc2\xc9?'
p514
tp515
Rp516
tp517
a(S'imagenet'
p518
g2
(g6
S'\x80\xf6l>@\x98\xc9?'
p519
tp520
Rp521
tp522
a(S'timeline of web search engines'
p523
g2
(g6
S'tw\xd8\x94Nq\xc9?'
p524
tp525
Rp526
tp527
a(S'honglaowai'
p528
g2
(g6
S'\x13)\x9e\x15\xc2Y\xc9?'
p529
tp530
Rp531
tp532
a(S'local search (internet)'
p533
g2
(g6
S'\x9d~^\x08\xaeV\xc9?'
p534
tp535
Rp536
tp537
a(S'zhu jing'
p538
g2
(g6
S'X\x0cc=CK\xc9?'
p539
tp540
Rp541
tp542
a(S'social search'
p543
g2
(g6
S'\x10-\n\xc5t+\xc9?'
p544
tp545
Rp546
tp547
a(S'peng xiuwen'
p548
g2
(g6
S'\r\xc5\x15\xb6y\x1f\xc9?'
p549
tp550
Rp551
tp552
a(S'zhou guoping'
p553
g2
(g6
S'\xee1=wB\xc9\xc8?'
p554
tp555
Rp556
tp557
a(S'li jinfang'
p558
g2
(g6
S'`\xb1\x05\xc2\x82\xc2\xc8?'
p559
tp560
Rp561
tp562
a(S'possessing ruby lin'
p563
g2
(g6
S'R3\x98c\xa9\xb2\xc8?'
p564
tp565
Rp566
tp567
a(S'search engine marketing in china'
p568
g2
(g6
S'0\xdcn\x95\xd5\x9d\xc8?'
p569
tp570
Rp571
tp572
a(S'google china'
p573
g2
(g6
S'\x02\xb1\xcb:\xdf\x98\xc8?'
p574
tp575
Rp576
tp577
a(S'xinjiang ticai f.c.'
p578
g2
(g6
S'\xa9\xee7x\x98\x95\xc8?'
p579
tp580
Rp581
tp582
a(S'56.com'
p583
g2
(g6
S'\xc7\x80\xba\x86Cx\xc8?'
p584
tp585
Rp586
tp587
a(S'wikia search'
p588
g2
(g6
S'\x8dt\xaa\xad\\l\xc8?'
p589
tp590
Rp591
tp592
a(S'infoseek'
p593
g2
(g6
S'D\xab\x81?\x94c\xc8?'
p594
tp595
Rp596
tp597
a(S'search box'
p598
g2
(g6
S'\xa1E\x97$\rc\xc8?'
p599
tp600
Rp601
tp602
a(S'hainan li-miao autonomous prefecture'
p603
g2
(g6
S'Vv\x05\xb4\xdcS\xc8?'
p604
tp605
Rp606
tp607
a(S'internet censorship in china'
p608
g2
(g6
S'\xf9\xdf\nn\xb6Q\xc8?'
p609
tp610
Rp611
tp612
a(S'baike.com'
p613
g2
(g6
S'\xbb\xe8\x9fM3/\xc8?'
p614
tp615
Rp616
tp617
a(S'tian mo'
p618
g2
(g6
S'\x91\xd0\xa8\xff\xe4&\xc8?'
p619
tp620
Rp621
tp622
a(S'yacy'
p623
g2
(g6
S':v\xffkX \xc8?'
p624
tp625
Rp626
tp627
a(S'search engine optimization'
p628
g2
(g6
S'\xa7e+(\x9b\x10\xc8?'
p629
tp630
Rp631
tp632
a(S'er ren tai'
p633
g2
(g6
S'\xe5p(\xbdu\x07\xc8?'
p634
tp635
Rp636
tp637
a(S'zhang xianzi'
p638
g2
(g6
S'\x8a\xd6\xb7\x1d\x1f\xf3\xc7?'
p639
tp640
Rp641
tp642
a(S'walhello'
p643
g2
(g6
S'2\xc5[o\xe3\xe9\xc7?'
p644
tp645
Rp646
tp647
a(S'rugao high school'
p648
g2
(g6
S'X\xcc\xf5\xe9\xca\xe6\xc7?'
p649
tp650
Rp651
tp652
a(S'wei bao'
p653
g2
(g6
S'\xc3\x07SC \xe5\xc7?'
p654
tp655
Rp656
tp657
a(S'203 hill'
p658
g2
(g6
S'\x94j\xd0\xec\xf1\xdb\xc7?'
p659
tp660
Rp661
tp662
a(S'snotunes'
p663
g2
(g6
S"\x93\xfe\xbc\xf3'\xc5\xc7?"
p664
tp665
Rp666
tp667
a(S'search as a service'
p668
g2
(g6
S'0\xdc\x91N\xea\xa8\xc7?'
p669
tp670
Rp671
tp672
a(S'list of awards received by li yuchun'
p673
g2
(g6
S'\x1d\xc3\xaf\xefI\xa5\xc7?'
p674
tp675
Rp676
tp677
a(S'phantom of the theatre'
p678
g2
(g6
S'\xf10\xb0\xa5\x16\x8b\xc7?'
p679
tp680
Rp681
tp682
a(S'yandex search'
p683
g2
(g6
S'\xf5\xde\xa3\xcf|\x89\xc7?'
p684
tp685
Rp686
tp687
a(S'tattler (chinese periodical)'
p688
g2
(g6
S'\xb0\xac\xb2\xfb9\x89\xc7?'
p689
tp690
Rp691
tp692
a(S'list of internet phenomena in china'
p693
g2
(g6
S'\x9f\x1e#\xa5\xcc\x86\xc7?'
p694
tp695
Rp696
tp697
a(S"zhu jian'er"
p698
g2
(g6
S'\xe0l6\x10\x1e\x7f\xc7?'
p699
tp700
Rp701
tp702
a(S'kangbashi district'
p703
g2
(g6
S'\xfb\xf2\x86\xfa\x9bu\xc7?'
p704
tp705
Rp706
tp707
a(S'search engine marketing'
p708
g2
(g6
S'\x17\xda\x1bw)j\xc7?'
p709
tp710
Rp711
tp712
a(S'chinese wikipedia'
p713
g2
(g6
S'\x17\x87\x16\x86\xb5d\xc7?'
p714
tp715
Rp716
tp717
a(S'augusta xu-holland'
p718
g2
(g6
S'\x1a\xfe\xc2>\x8fT\xc7?'
p719
tp720
Rp721
tp722
a(S'search engine (computing)'
p723
g2
(g6
S'\xfe>aS\xe4M\xc7?'
p724
tp725
Rp726
tp727
a(S'gaeko'
p728
g2
(g6
S'L\xb5\x9e\xfd\x0f0\xc7?'
p729
tp730
Rp731
tp732
a(S'yico zeng'
p733
g2
(g6
S'`\xb3\xeb\x99{ \xc7?'
p734
tp735
Rp736
tp737
a(S'gold farming in china'
p738
g2
(g6
S'&\xcdA\xa7\x8f\x13\xc7?'
p739
tp740
Rp741
tp742
a(S'internet society of china'
p743
g2
(g6
S'\xfee\x98\xebh\r\xc7?'
p744
tp745
Rp746
tp747
a(S'hotbot'
p748
g2
(g6
S'\x92\xbd\xee\x90e\x07\xc7?'
p749
tp750
Rp751
tp752
a(S'metasearch engine'
p753
g2
(g6
S'\xef\x18y\x94(\xe8\xc6?'
p754
tp755
Rp756
tp757
a(S'hebei bangzi'
p758
g2
(g6
S'Z\x80\xae\x8b\xe6\xe5\xc6?'
p759
tp760
Rp761
tp762
a(S'list of search engines'
p763
g2
(g6
S'\xba=\xe4\xe0\x9b\xd9\xc6?'
p764
tp765
Rp766
tp767
a(S'lushun museum'
p768
g2
(g6
S'\xb0\xa7\xf6\xa8\xe4\xd8\xc6?'
p769
tp770
Rp771
tp772
a(S'search analytics'
p773
g2
(g6
S'\xe4\xf1\xdd\x1d*\xa8\xc6?'
p774
tp775
Rp776
tp777
a(S'bin county, heilongjiang'
p778
g2
(g6
S'(\x8f\xe03\x87\x9a\xc6?'
p779
tp780
Rp781
tp782
a(S'skyscanner'
p783
g2
(g6
S'\xfe&_\xf8\xd5\x82\xc6?'
p784
tp785
Rp786
tp787
a(S'liang wengen'
p788
g2
(g6
S'\xf5\x8e;\xbb\x9eo\xc6?'
p789
tp790
Rp791
tp792
a(S'visual search engine'
p793
g2
(g6
S'\x1aQ\xf2\xa5Sd\xc6?'
p794
tp795
Rp796
tp797
a(S'selection-based search'
p798
g2
(g6
S'0\x9c\xfa0ib\xc6?'
p799
tp800
Rp801
tp802
a(S'xiagu danxin'
p803
g2
(g6
S"e\xb4'6Xa\xc6?"
p804
tp805
Rp806
tp807
a(S'a9.com'
p808
g2
(g6
S'hKp\xa2YC\xc6?'
p809
tp810
Rp811
tp812
a(S'haidian district'
p813
g2
(g6
S'\x13\xfd)Y\xc37\xc6?'
p814
tp815
Rp816
tp817
a(S'parsijoo'
p818
g2
(g6
S'\xafjyf\x005\xc6?'
p819
tp820
Rp821
tp822
a(S'nofollow'
p823
g2
(g6
S'\xaa\xd4H\x88\x04,\xc6?'
p824
tp825
Rp826
tp827
a(S'taghachar'
p828
g2
(g6
S'\xc2f\xb2\xf9\xa8*\xc6?'
p829
tp830
Rp831
tp832
a(S'genieknows'
p833
g2
(g6
S'\xf2\xba\xba\x8c%\x1e\xc6?'
p834
tp835
Rp836
tp837
a(S'sesam'
p838
g2
(g6
S'\xd6\\PY\x1a\x1b\xc6?'
p839
tp840
Rp841
tp842
a(S'contextual searching'
p843
g2
(g6
S'\x8a\x14\xeb\xcc\x85\x1a\xc6?'
p844
tp845
Rp846
tp847
a(S'facebook graph search'
p848
g2
(g6
S'\xdb\xddb\xcc\xda\x03\xc6?'
p849
tp850
Rp851
tp852
a(S'hylink digital solutions'
p853
g2
(g6
S'7\x06\xf4Ne\xfc\xc5?'
p854
tp855
Rp856
tp857
a(S'register.com'
p858
g2
(g6
S'\x03\x06\xaa\xf4\x9f\xd3\xc5?'
p859
tp860
Rp861
tp862
a(S'search neutrality'
p863
g2
(g6
S'K\x18!\x0b2\xd2\xc5?'
p864
tp865
Rp866
tp867
a(S'search engine technology'
p868
g2
(g6
S'\rc\x8d\xca\x13\xd2\xc5?'
p869
tp870
Rp871
tp872
a(S'yasni'
p873
g2
(g6
S'\xd2^\x89\xcd\xd7\xd1\xc5?'
p874
tp875
Rp876
tp877
a(S'jing yuexiu'
p878
g2
(g6
S'\xb63\xd1\xdd\x93\xc5\xc5?'
p879
tp880
Rp881
tp882
a(S'personalized search'
p883
g2
(g6
S'u\xc6\x93\xd9\x9c\xb9\xc5?'
p884
tp885
Rp886
tp887
a(S'bell of good luck'
p888
g2
(g6
S'Jb\xc4e\xb4\xac\xc5?'
p889
tp890
Rp891
tp892
a(S'image meta search'
p893
g2
(g6
S'O\xf7\xfah\x85\xa9\xc5?'
p894
tp895
Rp896
tp897
a(S"children's palace (china)"
p898
g2
(g6
S'\x1e\xcdQ`t\x97\xc5?'
p899
tp900
Rp901
tp902
a(S'video search engine'
p903
g2
(g6
S'\xcd\xba\x968\xb2\x8d\xc5?'
p904
tp905
Rp906
tp907
a(S'ling zihan'
p908
g2
(g6
S'u\x171\xee\xf8\x88\xc5?'
p909
tp910
Rp911
tp912
a(S'algolia'
p913
g2
(g6
S'\xd9\xb1\xa3c\x88\x83\xc5?'
p914
tp915
Rp916
tp917
a(S'google personalized search'
p918
g2
(g6
S'\xd2u\xfdk\x97|\xc5?'
p919
tp920
Rp921
tp922
a(S'duckduckgo'
p923
g2
(g6
S'G\xf0\x04}\xc7w\xc5?'
p924
tp925
Rp926
tp927
a(S'webcrawler'
p928
g2
(g6
S'kO\xd4\xe3\xdeo\xc5?'
p929
tp930
Rp931
tp932
a(S'youku'
p933
g2
(g6
S'\xfb\x19q\xa9\x0en\xc5?'
p934
tp935
Rp936
tp937
a(S'human search engine'
p938
g2
(g6
S'b\xf6?\x9c\xe9f\xc5?'
p939
tp940
Rp941
tp942
a(S'organic search'
p943
g2
(g6
S'\x1eR\x7ft+L\xc5?'
p944
tp945
Rp946
tp947
a(S'csdn'
p948
g2
(g6
S's\x8e\x0f\xa2\x938\xc5?'
p949
tp950
Rp951
tp952
a(S'google search'
p953
g2
(g6
S'16\xb3?\xb7/\xc5?'
p954
tp955
Rp956
tp957
a(S'xinyang bus fire'
p958
g2
(g6
S'&yz\xd0\xc2-\xc5?'
p959
tp960
Rp961
tp962
a(S'blekko'
p963
g2
(g6
S'Q\x8b\x06\xc7\x08\x15\xc5?'
p964
tp965
Rp966
tp967
a(S'rollyo'
p968
g2
(g6
S'k\xde\x0c\xfa\xe3\x11\xc5?'
p969
tp970
Rp971
tp972
a(S'liu yuxin'
p973
g2
(g6
S'\x02,\x16]3\x0f\xc5?'
p974
tp975
Rp976
tp977
a(S'multisearch'
p978
g2
(g6
S'\xa2\x94o(\xd3\n\xc5?'
p979
tp980
Rp981
tp982
a(S'search retargeting'
p983
g2
(g6
S'~\xfem@\xca\n\xc5?'
p984
tp985
Rp986
tp987
a(S'danny sullivan (technologist)'
p988
g2
(g6
S'\xe6]\x84\xfc\xe2\xfa\xc4?'
p989
tp990
Rp991
tp992
a(S'max hole'
p993
g2
(g6
S'.C=\x96\x87\xf3\xc4?'
p994
tp995
Rp996
tp997
a(S'xidan girl'
p998
g2
(g6
S'\x18|\xd5\x854\xf1\xc4?'
p999
tp1000
Rp1001
tp1002
a(S'search engine results page'
p1003
g2
(g6
S'uG\\\xabo\xf0\xc4?'
p1004
tp1005
Rp1006
tp1007
a(S'ixquick'
p1008
g2
(g6
S'\xb3\xaal\xbb\xcd\xce\xc4?'
p1009
tp1010
Rp1011
tp1012
a(S'meitu'
p1013
g2
(g6
S'*Hz\xf3\xf8\xc7\xc4?'
p1014
tp1015
Rp1016
tp1017
a(S'layabox'
p1018
g2
(g6
S'\xb6\xf1\xb8\xc7\x9c\xc5\xc4?'
p1019
tp1020
Rp1021
tp1022
a(S'full-text search'
p1023
g2
(g6
S'\xec\xa7\xc7*\xaa\xc0\xc4?'
p1024
tp1025
Rp1026
tp1027
a(S'han card'
p1028
g2
(g6
S'\xb5\x162P\xab\xb9\xc4?'
p1029
tp1030
Rp1031
tp1032
a(S'zhou chuchu'
p1033
g2
(g6
S'!\xb3\xa2\x1c\xd8\xb8\xc4?'
p1034
tp1035
Rp1036
tp1037
a(S'search engine (disambiguation)'
p1038
g2
(g6
S'A\xca\xf9\r\x96\xa9\xc4?'
p1039
tp1040
Rp1041
tp1042
a(S'liu thai ker'
p1043
g2
(g6
S'\xe2\x15\xear\xd8\x97\xc4?'
p1044
tp1045
Rp1046
tp1047
a(S'munax'
p1048
g2
(g6
S'-O\nG\x87\x97\xc4?'
p1049
tp1050
Rp1051
tp1052
a(S'david viii of georgia'
p1053
g2
(g6
S'\x82\x8a;/v\x8b\xc4?'
p1054
tp1055
Rp1056
tp1057
a(S'polycola'
p1058
g2
(g6
S'\xecJ\x00x\xde\x8a\xc4?'
p1059
tp1060
Rp1061
tp1062
a(S'mobvoi'
p1063
g2
(g6
S'K\x1a\xa7?Y}\xc4?'
p1064
tp1065
Rp1066
tp1067
a(S'fuzhou sanmu middle school'
p1068
g2
(g6
S'*G\xa8h\x8c{\xc4?'
p1069
tp1070
Rp1071
tp1072
a(S'yebol'
p1073
g2
(g6
S'Fkk\xb5"j\xc4?'
p1074
tp1075
Rp1076
tp1077
a(S'unexpected love (2017 film)'
p1078
g2
(g6
S'\xa7t\x03m\xc1]\xc4?'
p1079
tp1080
Rp1081
tp1082
a(S'twing'
p1083
g2
(g6
S'\x0c\x89}\xd0~V\xc4?'
p1084
tp1085
Rp1086
tp1087
a(S'blue ocean network'
p1088
g2
(g6
S'\xbb\xef{5$B\xc4?'
p1089
tp1090
Rp1091
tp1092
a(S'sproose'
p1093
g2
(g6
S'f\x8e\xc8\xe3U?\xc4?'
p1094
tp1095
Rp1096
tp1097
a(S'hou yong (actor)'
p1098
g2
(g6
S'\xca\xaa$S^=\xc4?'
p1099
tp1100
Rp1101
tp1102
a(S'wechat'
p1103
g2
(g6
S';\x86\xb8\x88\xe10\xc4?'
p1104
tp1105
Rp1106
tp1107
a(S'andrew ng'
p1108
g2
(g6
S'\xe1\xf9:@R!\xc4?'
p1109
tp1110
Rp1111
tp1112
a(S'public pledge on self-discipline for the chinese internet industry'
p1113
g2
(g6
S'\xb3\x06"\xd5T\x1b\xc4?'
p1114
tp1115
Rp1116
tp1117
a(S'phrase search'
p1118
g2
(g6
S'\xba"\x9dG/\x1a\xc4?'
p1119
tp1120
Rp1121
tp1122
a(S'alilang group'
p1123
g2
(g6
S'\xe2\xe1\x9c\xb7K\r\xc4?'
p1124
tp1125
Rp1126
tp1127
a(S'wisenut'
p1128
g2
(g6
S'\x9c\xe3\xb6\x97:\x07\xc4?'
p1129
tp1130
Rp1131
tp1132
a(S'chun ge'
p1133
g2
(g6
S'\xe4\xb7\xce\x95\x17\xd3\xc3?'
p1134
tp1135
Rp1136
tp1137
a(S'internet research'
p1138
g2
(g6
S'#\xbb^X\r\xce\xc3?'
p1139
tp1140
Rp1141
tp1142
a(S'betty zhou'
p1143
g2
(g6
S')p\xb7\x028\xc3\xc3?'
p1144
tp1145
Rp1146
tp1147
a(S'spring pancake'
p1148
g2
(g6
S'\xf7\x0b\x03\xdf\xcd\xc0\xc3?'
p1149
tp1150
Rp1151
tp1152
a(S'yongzhou courthouse shooting'
p1153
g2
(g6
S'\xc2\xae\x87\xd7\xbe\xbc\xc3?'
p1154
tp1155
Rp1156
tp1157
a(S'jiangjiehe bridge'
p1158
g2
(g6
S'+~\xed\xd3\xf3\xb8\xc3?'
p1159
tp1160
Rp1161
tp1162
a(S'multimedia search'
p1163
g2
(g6
S'\xa7\x0bV\xf1\xae\xb7\xc3?'
p1164
tp1165
Rp1166
tp1167
a(S'audio search engine'
p1168
g2
(g6
S'\xe2\x95\xe57!\xb1\xc3?'
p1169
tp1170
Rp1171
tp1172
a(S'list of most popular websites'
p1173
g2
(g6
S'\x17\x14m\x19\xd6\xaf\xc3?'
p1174
tp1175
Rp1176
tp1177
a(S'censorship in china'
p1178
g2
(g6
S'=\xb8\x16\xe7\xad\xa8\xc3?'
p1179
tp1180
Rp1181
tp1182
a(S'beijing love story (tv series)'
p1183
g2
(g6
S'P\xa5\xb68B\xa8\xc3?'
p1184
tp1185
Rp1186
tp1187
a(S'taboola'
p1188
g2
(g6
S'\xdc\x8d\x0b\x0b\xf9\xa3\xc3?'
p1189
tp1190
Rp1191
tp1192
a(S'myriad search'
p1193
g2
(g6
S'\xabJ\x95\xc6y\x93\xc3?'
p1194
tp1195
Rp1196
tp1197
a(S'findability'
p1198
g2
(g6
S'\x82.\xb9G\x0b\x89\xc3?'
p1199
tp1200
Rp1201
tp1202
a(S'searchme'
p1203
g2
(g6
S'\xca\xc0\x13j\x99\x86\xc3?'
p1204
tp1205
Rp1206
tp1207
a(S'ghost blows out the light'
p1208
g2
(g6
S'<&\xe2\xde\x82~\xc3?'
p1209
tp1210
Rp1211
tp1212
a(S'yangquan'
p1213
g2
(g6
S'\x85%\xf0\xb9Sn\xc3?'
p1214
tp1215
Rp1216
tp1217
a(S'globrix'
p1218
g2
(g6
S'X\x0cLwBZ\xc3?'
p1219
tp1220
Rp1221
tp1222
a(S'search advertising'
p1223
g2
(g6
S'\xb1%k\x9f\xd7S\xc3?'
p1224
tp1225
Rp1226
tp1227
a(S'baozou'
p1228
g2
(g6
S'(s\xecl\xd5S\xc3?'
p1229
tp1230
Rp1231
tp1232
a(S'the search (disambiguation)'
p1233
g2
(g6
S'\xe3?\xe3\tQR\xc3?'
p1234
tp1235
Rp1236
tp1237
a(S'egosurfing'
p1238
g2
(g6
S'\xbb\xaa\xf9\xf7\xcfP\xc3?'
p1239
tp1240
Rp1241
tp1242
a(S'zhuozhou'
p1243
g2
(g6
S'\xccM\x82X\xc8J\xc3?'
p1244
tp1245
Rp1246
tp1247
a(S'yuan xuefen'
p1248
g2
(g6
S'I\x08!\x9e\xf1I\xc3?'
p1249
tp1250
Rp1251
tp1252
a(S'a gold medal winning tramp dog'
p1253
g2
(g6
S'R\x82B\xf0%C\xc3?'
p1254
tp1255
Rp1256
tp1257
a(S'database search engine'
p1258
g2
(g6
S'\xf3\xa9m\xac\xc2A\xc3?'
p1259
tp1260
Rp1261
tp1262
a(S'xu jilin'
p1263
g2
(g6
S'\x01Wf\xb4\xae:\xc3?'
p1264
tp1265
Rp1266
tp1267
a(S'list of largest internet companies'
p1268
g2
(g6
S'\xa3\xd6lF\xcd6\xc3?'
p1269
tp1270
Rp1271
tp1272
a(S'picollator'
p1273
g2
(g6
S'\xdd\xad Ke5\xc3?'
p1274
tp1275
Rp1276
tp1277
a(S'li (surname \xe8\x8e\x89)'
p1278
g2
(g6
S'\x13@)R\xc9*\xc3?'
p1279
tp1280
Rp1281
tp1282
a(S'enterprise search'
p1283
g2
(g6
S'\xe7E\xd5\x82<*\xc3?'
p1284
tp1285
Rp1286
tp1287
a(S'leapfish'
p1288
g2
(g6
S'2\xb4\xcf]?)\xc3?'
p1289
tp1290
Rp1291
tp1292
a(S'double faced ruby lin'
p1293
g2
(g6
S"_n\xea\xb4)'\xc3?"
p1294
tp1295
Rp1296
tp1297
a(S'liuhe, taicang'
p1298
g2
(g6
S'\x00Su\xccs\x1f\xc3?'
p1299
tp1300
Rp1301
tp1302
a(S'tiobe index'
p1303
g2
(g6
S'\x00t\xfeX\xd2\x1d\xc3?'
p1304
tp1305
Rp1306
tp1307
a(S'the national anthem (film)'
p1308
g2
(g6
S'\xdb\xc1\xb5;\xb8\x15\xc3?'
p1309
tp1310
Rp1311
tp1312
a(S'goojje'
p1313
g2
(g6
S'3\x8d\xfd\xfc]\x03\xc3?'
p1314
tp1315
Rp1316
tp1317
a(S'mian ren (flour figure)'
p1318
g2
(g6
S'+-\xe6\x10y\x02\xc3?'
p1319
tp1320
Rp1321
tp1322
a(S'lu chen (actress)'
p1323
g2
(g6
S'\x1d\xff\xb3?Q\x01\xc3?'
p1324
tp1325
Rp1326
tp1327
a(S'chushui experimental school'
p1328
g2
(g6
S'\xb6\x99\x92KQ\xff\xc2?'
p1329
tp1330
Rp1331
tp1332
a(S'accoona'
p1333
g2
(g6
S'\xdd\xe5\x8aU+\xfd\xc2?'
p1334
tp1335
Rp1336
tp1337
a(S'baipu chagan'
p1338
g2
(g6
S'\xf1\x04\xd3&\x80\xfa\xc2?'
p1339
tp1340
Rp1341
tp1342
a(S'volunia'
p1343
g2
(g6
S'f\xeb\xce\xbf\x13\xf8\xc2?'
p1344
tp1345
Rp1346
tp1347
a(S'master swordsman lu xiaofeng'
p1348
g2
(g6
S'\xd8\xe8S\x11Q\xf6\xc2?'
p1349
tp1350
Rp1351
tp1352
a(S'live search academic'
p1353
g2
(g6
S',v\xdbhq\xf3\xc2?'
p1354
tp1355
Rp1356
tp1357
a(S'viewzi'
p1358
g2
(g6
S'\xa3c\xec9{\xf1\xc2?'
p1359
tp1360
Rp1361
tp1362
a(S'desktop search'
p1363
g2
(g6
S'\xb8\x1f\xfb\xf4\xc6\xe7\xc2?'
p1364
tp1365
Rp1366
tp1367
a(S'catman (film)'
p1368
g2
(g6
S'\t/\xba}\x9f\xe5\xc2?'
p1369
tp1370
Rp1371
tp1372
a(S'google custom search'
p1373
g2
(g6
S'A@\x8e\x8e\xba\xe2\xc2?'
p1374
tp1375
Rp1376
tp1377
a(S'tagoo'
p1378
g2
(g6
S'\xea\x13\x1f~\xb5\xe2\xc2?'
p1379
tp1380
Rp1381
tp1382
a(S'wazap!'
p1383
g2
(g6
S'.\x9566T\xd0\xc2?'
p1384
tp1385
Rp1386
tp1387
a(S'search technologies'
p1388
g2
(g6
S'~@\x14\xb0\x04\xcf\xc2?'
p1389
tp1390
Rp1391
tp1392
a(S'bing (search engine)'
p1393
g2
(g6
S'\nq\xf0\x16,\xc9\xc2?'
p1394
tp1395
Rp1396
tp1397
a(S'elizabeth baidu'
p1398
g2
(g6
S'l\xe4{su\xc5\xc2?'
p1399
tp1400
Rp1401
tp1402
a(S'angel wings (tv series)'
p1403
g2
(g6
S'\xbd\x8f\x00\x86t\xc4\xc2?'
p1404
tp1405
Rp1406
tp1407
a(S'swiftype'
p1408
g2
(g6
S'\xeb\xca}z\x1a\xbb\xc2?'
p1409
tp1410
Rp1411
tp1412
a(S'cuil'
p1413
g2
(g6
S'q\xc2\x12\xa6\x91\xba\xc2?'
p1414
tp1415
Rp1416
tp1417
a(S'leit.is'
p1418
g2
(g6
S'e\x84i\xd4\xad\xad\xc2?'
p1419
tp1420
Rp1421
tp1422
a(S'searchtrade'
p1423
g2
(g6
S'Oc\xbeU\xe8\xaa\xc2?'
p1424
tp1425
Rp1426
tp1427
a(S'ecosia'
p1428
g2
(g6
S'\xa74C\xd0\xe2\xa5\xc2?'
p1429
tp1430
Rp1431
tp1432
a(S'vertical search'
p1433
g2
(g6
S'\x04\xd6>\xa8}\xa4\xc2?'
p1434
tp1435
Rp1436
tp1437
a(S'bilingual search engine'
p1438
g2
(g6
S'W=\x8e\xe9s\xa4\xc2?'
p1439
tp1440
Rp1441
tp1442
a(S'guo lanying'
p1443
g2
(g6
S'?B\x05|h\xa3\xc2?'
p1444
tp1445
Rp1446
tp1447
a(S'luhan (entertainer)'
p1448
g2
(g6
S'\xf8Z\xc2\x08\xb1\x9c\xc2?'
p1449
tp1450
Rp1451
tp1452
a(S'golden triangle (internet marketing)'
p1453
g2
(g6
S'\xe6U\xab4\xe2\x96\xc2?'
p1454
tp1455
Rp1456
tp1457
a(S'multimodal search'
p1458
g2
(g6
S'\xa9X\x00<8\x91\xc2?'
p1459
tp1460
Rp1461
tp1462
a(S'pornmd'
p1463
g2
(g6
S'\x16\x911\xadG\x82\xc2?'
p1464
tp1465
Rp1466
tp1467
a(S'peace island (huajiachi)'
p1468
g2
(g6
S'\x97\x8c\xea\xb6\x8f\x81\xc2?'
p1469
tp1470
Rp1471
tp1472
a(S'mobile local search'
p1473
g2
(g6
S'\xa6y\xba\xf6\xe5w\xc2?'
p1474
tp1475
Rp1476
tp1477
a(S'truveo'
p1478
g2
(g6
S'HKZ/\x92r\xc2?'
p1479
tp1480
Rp1481
tp1482
a(S'ma ke (composer)'
p1483
g2
(g6
S'%\xc1\xcc\x13-q\xc2?'
p1484
tp1485
Rp1486
tp1487
a(S'seeks'
p1488
g2
(g6
S'\x8c\x1a\xe0\xb8 f\xc2?'
p1489
tp1490
Rp1491
tp1492
a(S'prospective search'
p1493
g2
(g6
S'\x92\xae;\x8a\xe8d\xc2?'
p1494
tp1495
Rp1496
tp1497
a(S'mindbreeze'
p1498
g2
(g6
S'\xbek:G8b\xc2?'
p1499
tp1500
Rp1501
tp1502
a(S'qwant'
p1503
g2
(g6
S'f\x83I1`U\xc2?'
p1504
tp1505
Rp1506
tp1507
a(S'google images'
p1508
g2
(g6
S'\x96\t\x12\xd5\xfdL\xc2?'
p1509
tp1510
Rp1511
tp1512
a.