(lp0
(S'bayesian'
p1
cnumpy.core.multiarray
scalar
p2
(cnumpy
dtype
p3
(S'f8'
p4
I0
I1
tp5
Rp6
(I3
S'<'
p7
NNNI-1
I-1
I0
tp8
bS'\x00\x00\x00\x00\x00\x00\xf0?'
p9
tp10
Rp11
tp12
a(S'list of things named after thomas bayes'
p13
g2
(g6
S'\x16\x8e\xefF2<\xee?'
p14
tp15
Rp16
tp17
a(S'bayesian inference'
p18
g2
(g6
S'\xc0;\xf1*\x1e\xa6\xe9?'
p19
tp20
Rp21
tp22
a(S'bayesian probability'
p23
g2
(g6
S'$S\xc3\x0f\xec\xd8\xe8?'
p24
tp25
Rp26
tp27
a(S'bayesian statistics'
p28
g2
(g6
S'\xa0\x0c`\x94@\xc8\xe7?'
p29
tp30
Rp31
tp32
a(S'jasp'
p33
g2
(g6
S'\x12w\xf8\x02\xea\x00\xe7?'
p34
tp35
Rp36
tp37
a(S'bayesian network'
p38
g2
(g6
S'\x88yg\xb1Y\xa7\xe5?'
p39
tp40
Rp41
tp42
a(S'bayesian inference in marketing'
p43
g2
(g6
S'\xf1\xaf\xa6\xdfW\xa1\xe5?'
p44
tp45
Rp46
tp47
a(S'bayesian programming'
p48
g2
(g6
S'L\xbbW\xec\x9b\x9a\xe5?'
p49
tp50
Rp51
tp52
a(S'bayesian analysis (journal)'
p53
g2
(g6
S'\xff\r|\xe9_~\xe5?'
p54
tp55
Rp56
tp57
a(S'bayesian approaches to brain function'
p58
g2
(g6
S'\xc7\\\xa3*2\x16\xe4?'
p59
tp60
Rp61
tp62
a(S'dynamic bayesian network'
p63
g2
(g6
S'K\xc1\x88&\xd8\x0f\xe4?'
p64
tp65
Rp66
tp67
a(S'bayesian structural time series'
p68
g2
(g6
S'a\x1c\x87\xf5\xfc\xa9\xe3?'
p69
tp70
Rp71
tp72
a(S'robust bayesian analysis'
p73
g2
(g6
S'Vs\x84\xdf\xa1r\xe3?'
p74
tp75
Rp76
tp77
a(S'thomas h. leonard'
p78
g2
(g6
S'\x0e\x8d\x95\xff\xd9]\xe3?'
p79
tp80
Rp81
tp82
a(S'bayesian econometrics'
p83
g2
(g6
S'\xf0\xf9I\x1c\x11)\xe3?'
p84
tp85
Rp86
tp87
a(S'bayesian inference in phylogeny'
p88
g2
(g6
S'\xc4\xf5\x03\xe5H\x17\xe3?'
p89
tp90
Rp91
tp92
a(S'international society for bayesian analysis'
p93
g2
(g6
S'\x80\x19\x92\x8d\xc5\xb3\xe2?'
p94
tp95
Rp96
tp97
a(S'bayesian cognitive science'
p98
g2
(g6
S'\xc2\xd0?v\xc5\x85\xe2?'
p99
tp100
Rp101
tp102
a(S'foundations of statistics'
p103
g2
(g6
S'\x8a\x7f\xa6\xfdtT\xe2?'
p104
tp105
Rp106
tp107
a(S'bayesian inference in motor learning'
p108
g2
(g6
S'\xeco\xbd\xc0\x12L\xe2?'
p109
tp110
Rp111
tp112
a(S'frequentist inference'
p113
g2
(g6
S'\x18\x81\xafo\x81\x11\xe2?'
p114
tp115
Rp116
tp117
a(S'bayes factor'
p118
g2
(g6
S'{)s\xf3\xc9\xe0\xe1?'
p119
tp120
Rp121
tp122
a(S'expectation propagation'
p123
g2
(g6
S'\xc5\x06^\xca\xba\x99\xe1?'
p124
tp125
Rp126
tp127
a(S'wombling'
p128
g2
(g6
S'!tK\x1a\xff\x95\xe1?'
p129
tp130
Rp131
tp132
a(S'bayesian vector autoregression'
p133
g2
(g6
S'\x99\xed\xd0h\xaa\x8f\xe1?'
p134
tp135
Rp136
tp137
a(S'bayesian optimization'
p138
g2
(g6
S'r\xa9\xb2A\xbc\xe4\xe0?'
p139
tp140
Rp141
tp142
a(S'bayesian average'
p143
g2
(g6
S'\x07k&\x1b\x14~\xe0?'
p144
tp145
Rp146
tp147
a(S"bayes' theorem"
p148
g2
(g6
S'*U;\xbfsx\xe0?'
p149
tp150
Rp151
tp152
a(S'recursive bayesian estimation'
p153
g2
(g6
S'\xe9?P\xa6\xdc\x19\xe0?'
p154
tp155
Rp156
tp157
a(S'quantum bayesianism'
p158
g2
(g6
S'\x0cT\xac\x04\x11\xf5\xdf?'
p159
tp160
Rp161
tp162
a(S'bayesian linear regression'
p163
g2
(g6
S'\x19\xa0"\xf2Ua\xde?'
p164
tp165
Rp166
tp167
a(S"bayes' rule"
p168
g2
(g6
S'\x95=\xf8\xc3I\xf5\xdd?'
p169
tp170
Rp171
tp172
a(S'bayesian operational modal analysis'
p173
g2
(g6
S'\x9b\rx4c\xf1\xdd?'
p174
tp175
Rp176
tp177
a(S'history of statistics'
p178
g2
(g6
S'\x04\x8bh$\xa6,\xdd?'
p179
tp180
Rp181
tp182
a(S"lindley's paradox"
p183
g2
(g6
S'\xbfb\xeb\x0b\x18\x1f\xdd?'
p184
tp185
Rp186
tp187
a(S'arnold zellner'
p188
g2
(g6
S'E{\x03(%\xf9\xdc?'
p189
tp190
Rp191
tp192
a(S'bayes linear statistics'
p193
g2
(g6
S'y@\x8dD\xa5\xc0\xdc?'
p194
tp195
Rp196
tp197
a(S'thomas bayes'
p198
g2
(g6
S'\x1e\x10w@\x11\xa4\xdc?'
p199
tp200
Rp201
tp202
a(S'laplacesdemon'
p203
g2
(g6
S'\xfa\x02\xa4\xc2\xa5\x96\xdc?'
p204
tp205
Rp206
tp207
a(S'bayes theorem (disambiguation)'
p208
g2
(g6
S'\x8cD\xd2E\x10H\xdc?'
p209
tp210
Rp211
tp212
a(S'bayesian game'
p213
g2
(g6
S'\xbc\x8b\xb6U\x08\x06\xdc?'
p214
tp215
Rp216
tp217
a(S'credal network'
p218
g2
(g6
S'+\xbey2C\x8c\xdb?'
p219
tp220
Rp221
tp222
a(S'don berry (statistician)'
p223
g2
(g6
S'\\\xc4S\xe4\x0e<\xdb?'
p224
tp225
Rp226
tp227
a(S'lurdes inoue'
p228
g2
(g6
S'\xca\xb1\xaeaX\xfc\xda?'
p229
tp230
Rp231
tp232
a(S'bayes'
p233
g2
(g6
S'\xaf\x02\xcd\x07\x7f\xb5\xda?'
p234
tp235
Rp236
tp237
a(S'an essay towards solving a problem in the doctrine of chances'
p238
g2
(g6
S'iM\x90<\x15\xa5\xda?'
p239
tp240
Rp241
tp242
a(S'empirical bayes method'
p243
g2
(g6
S'$\xd6\xb0\x1f\xa1\x88\xda?'
p244
tp245
Rp246
tp247
a(S'point estimation'
p248
g2
(g6
S'\x80\xf2{\xe0\xda\x7f\xda?'
p249
tp250
Rp251
tp252
a(S'jos\xc3\xa9-miguel bernardo'
p253
g2
(g6
S'\xf4\xda\xd4vuB\xda?'
p254
tp255
Rp256
tp257
a(S'bayesian survival analysis'
p258
g2
(g6
S'\x87\xd3\xa3R\xed\xc6\xd9?'
p259
tp260
Rp261
tp262
a(S'naive bayes classifier'
p263
g2
(g6
S'lT\xdd\xa5\x8f\xa3\xd9?'
p264
tp265
Rp266
tp267
a(S'intelligent control'
p268
g2
(g6
S'\xa3\xc7\x0cN*\x88\xd9?'
p269
tp270
Rp271
tp272
a(S'approximate inference'
p273
g2
(g6
S'E\xc2\xfbL\xe2\xb5\xd8?'
p274
tp275
Rp276
tp277
a(S'bayesian filtering library'
p278
g2
(g6
S'\xbc:=\x9a\xe2\x8c\xd8?'
p279
tp280
Rp281
tp282
a(S'marginal likelihood'
p283
g2
(g6
S"\x1aA'\xdb\xec\x86\xd8?"
p284
tp285
Rp286
tp287
a(S'inverse probability'
p288
g2
(g6
S'l\x97\xbcD\x0e\x85\xd8?'
p289
tp290
Rp291
tp292
a(S'zoubin ghahramani'
p293
g2
(g6
S'/=H\xa1a\x03\xd8?'
p294
tp295
Rp296
tp297
a(S'statistical inference'
p298
g2
(g6
S'\xe7\xc4\xe2VT\xf4\xd7?'
p299
tp300
Rp301
tp302
a(S'stan (software)'
p303
g2
(g6
S'\xd6\xb4\xda\x8d\x82\xeb\xd7?'
p304
tp305
Rp306
tp307
a(S'linear regression (disambiguation)'
p308
g2
(g6
S'\x95"\xbe\xd6u\xeb\xd7?'
p309
tp310
Rp311
tp312
a(S'colin howson'
p313
g2
(g6
S'dJ5{\xd5w\xd7?'
p314
tp315
Rp316
tp317
a(S'konrad kording'
p318
g2
(g6
S'8\xe0-]\xe8`\xd7?'
p319
tp320
Rp321
tp322
a(S'george casella'
p323
g2
(g6
S'\xfa\xf0F\x1e\xc2&\xd7?'
p324
tp325
Rp326
tp327
a(S'least squares support vector machine'
p328
g2
(g6
S"\x80|\xfc\xd5'\x08\xd7?"
p329
tp330
Rp331
tp332
a(S'naive bayes spam filtering'
p333
g2
(g6
S'1Q\xc0/+\xe4\xd6?'
p334
tp335
Rp336
tp337
a(S'bayesian interpretation of kernel regularization'
p338
g2
(g6
S'\xea`y\xa2]\xdd\xd6?'
p339
tp340
Rp341
tp342
a(S'peter green (statistician)'
p343
g2
(g6
S'\xc4\x8b\xd4\x07\xfa\xa4\xd6?'
p344
tp345
Rp346
tp347
a(S'kerrie mengersen'
p348
g2
(g6
S'\x7f\x9d\xa8\n_<\xd6?'
p349
tp350
Rp351
tp352
a(S'strong prior'
p353
g2
(g6
S'\xbd\x062y\x19\x1b\xd6?'
p354
tp355
Rp356
tp357
a(S'sudipto banerjee'
p358
g2
(g6
S'8\xb5\xa2\x17*\xfd\xd5?'
p359
tp360
Rp361
tp362
a(S"cromwell's rule"
p363
g2
(g6
S'nX\xce\xe7J\xe2\xd5?'
p364
tp365
Rp366
tp367
a(S'admissible decision rule'
p368
g2
(g6
S'\x1e\xc8i\xab0\xbd\xd5?'
p369
tp370
Rp371
tp372
a(S'mcsim'
p373
g2
(g6
S'\xad\xf7\x02\xdc\xd0\xb5\xd5?'
p374
tp375
Rp376
tp377
a(S'paola sebastiani'
p378
g2
(g6
S'\x11lP\xd3\xf4\xb4\xd5?'
p379
tp380
Rp381
tp382
a(S'standard boolean model'
p383
g2
(g6
S'\xce4\x9fJ#\xb0\xd5?'
p384
tp385
Rp386
tp387
a(S'dennis lindley'
p388
g2
(g6
S'\x05^\xe8\xb9Sp\xd5?'
p389
tp390
Rp391
tp392
a(S'evidence under bayes theorem'
p393
g2
(g6
S'7\xed\x1f\xe7\xeaJ\xd5?'
p394
tp395
Rp396
tp397
a(S'simon godsill'
p398
g2
(g6
S'\xe9~\xb33l)\xd5?'
p399
tp400
Rp401
tp402
a(S'bayesian multivariate linear regression'
p403
g2
(g6
S'\x98\x11R\xf7_\x0f\xd5?'
p404
tp405
Rp406
tp407
a(S'adrian smith (statistician)'
p408
g2
(g6
S'!\xc0\x9aW\x18\x05\xd5?'
p409
tp410
Rp411
tp412
a(S'jim berger (statistician)'
p413
g2
(g6
S'\xb8\x96\xe8GO\xe4\xd4?'
p414
tp415
Rp416
tp417
a(S'relevance vector machine'
p418
g2
(g6
S'DG9\xcf\x11\xdd\xd4?'
p419
tp420
Rp421
tp422
a(S'deviance information criterion'
p423
g2
(g6
S'\x87\x10m)D\xd2\xd4?'
p424
tp425
Rp426
tp427
a(S'ensemble learning'
p428
g2
(g6
S'C\xbd\xc4\xb5\x02\xb6\xd4?'
p429
tp430
Rp431
tp432
a(S'jeff gill'
p433
g2
(g6
S'K\xf3\x93\xa4\x8c\xab\xd4?'
p434
tp435
Rp436
tp437
a(S'charles lawrence (mathematician)'
p438
g2
(g6
S'\x7f\xeb\xf6\xfc\xef\xa4\xd4?'
p439
tp440
Rp441
tp442
a(S'spike-and-slab variable selection'
p443
g2
(g6
S'\xf0\xd4\xfe\xa2\x00t\xd4?'
p444
tp445
Rp446
tp447
a(S'bayes estimator'
p448
g2
(g6
S'j\xb6\xde\xb2&p\xd4?'
p449
tp450
Rp451
tp452
a(S'free energy principle'
p453
g2
(g6
S'Q\x04ZkJU\xd4?'
p454
tp455
Rp456
tp457
a(S'minimum message length'
p458
g2
(g6
S'Sk\xe1\x0fb\r\xd4?'
p459
tp460
Rp461
tp462
a(S'oscar kempthorne'
p463
g2
(g6
S'\x8e\xac\xc3\xb4\xfe\xcc\xd3?'
p464
tp465
Rp466
tp467
a(S'causal markov condition'
p468
g2
(g6
S'\x93\xb0>%\x1d\xc9\xd3?'
p469
tp470
Rp471
tp472
a(S'scaling pattern of occupancy'
p473
g2
(g6
S'yQ$F\xd8\xb4\xd3?'
p474
tp475
Rp476
tp477
a(S'information criterion'
p478
g2
(g6
S'\xe3:\xb8\xc6\xa2y\xd3?'
p479
tp480
Rp481
tp482
a(S'bayesian search theory'
p483
g2
(g6
S'\x80\x94\x17\x9ffQ\xd3?'
p484
tp485
Rp486
tp487
a(S'nir friedman'
p488
g2
(g6
S'\x92\xf1f\xb1J#\xd3?'
p489
tp490
Rp491
tp492
a(S'edwin thompson jaynes'
p493
g2
(g6
S'\x11\xeaK)\x9d\xf5\xd2?'
p494
tp495
Rp496
tp497
a(S'applications of the calculus of variations'
p498
g2
(g6
S'\xae|S\xa0\xb8\xf1\xd2?'
p499
tp500
Rp501
tp502
a(S'albert t. corbett'
p503
g2
(g6
S')\\\x02\xfe\x90\xe8\xd2?'
p504
tp505
Rp506
tp507
a(S'likelihood ratio'
p508
g2
(g6
S'\xaag\xd0\xdb\xd0\xd6\xd2?'
p509
tp510
Rp511
tp512
a(S'thompson sampling'
p513
g2
(g6
S'\xef0v\xd3\x96\xa6\xd2?'
p514
tp515
Rp516
tp517
a(S'maximum a posteriori estimation'
p518
g2
(g6
S'\x90:Go\xf4\xa2\xd2?'
p519
tp520
Rp521
tp522
a(S'gaussian process emulator'
p523
g2
(g6
S'\x1c\xf6<\x80\x8du\xd2?'
p524
tp525
Rp526
tp527
a(S'bayesian poisoning'
p528
g2
(g6
S'\xc4z\xbd2;s\xd2?'
p529
tp530
Rp531
tp532
a(S'graphical model'
p533
g2
(g6
S'-c\x97N\xafr\xd2?'
p534
tp535
Rp536
tp537
a(S'hirotugu akaike'
p538
g2
(g6
S'\xee\xff\x19`,f\xd2?'
p539
tp540
Rp541
tp542
a(S'bani k mallick'
p543
g2
(g6
S'\x91\xd5\xba\x9e1P\xd2?'
p544
tp545
Rp546
tp547
a(S'ward edwards'
p548
g2
(g6
S'\xd6\x16\xa4\x1b\xe1\x17\xd2?'
p549
tp550
Rp551
tp552
a(S'list of unsolved problems in statistics'
p553
g2
(g6
S'\xd6p=o\xf0\xff\xd1?'
p554
tp555
Rp556
tp557
a(S'bayesian hierarchical modeling'
p558
g2
(g6
S'\xe7\xa0\xb1\xea\xa8\xca\xd1?'
p559
tp560
Rp561
tp562
a(S'credal set'
p563
g2
(g6
S'c\x03\x94R\xe1\xc8\xd1?'
p564
tp565
Rp566
tp567
a(S'david r\xc3\xados insua'
p568
g2
(g6
S'\xefD\xf8\x0b\x86\xbd\xd1?'
p569
tp570
Rp571
tp572
a(S'outline of statistics'
p573
g2
(g6
S'\x92S\x91\xf5%\xa1\xd1?'
p574
tp575
Rp576
tp577
a(S'walter bayes'
p578
g2
(g6
S'\x1e\x17(\xd5\x12\x9e\xd1?'
p579
tp580
Rp581
tp582
a(S'fiducial inference'
p583
g2
(g6
S'\x06\x12\xd3"\x8f\x9d\xd1?'
p584
tp585
Rp586
tp587
a(S'hyperparameter optimization'
p588
g2
(g6
S'$\xd4\xcaK\xd0\x7f\xd1?'
p589
tp590
Rp591
tp592
a(S'sylvia richardson'
p593
g2
(g6
S'\x1fn\xb0y\xd3s\xd1?'
p594
tp595
Rp596
tp597
a(S'list of machine learning concepts'
p598
g2
(g6
S'\xe2p\x89\x98\xb9d\xd1?'
p599
tp600
Rp601
tp602
a(S'variable-order bayesian network'
p603
g2
(g6
S'\xb2\x90\xa0\xe3Sd\xd1?'
p604
tp605
Rp606
tp607
a(S'david spiegelhalter'
p608
g2
(g6
S'of\x90\x04k?\xd1?'
p609
tp610
Rp611
tp612
a(S'variational bayesian methods'
p613
g2
(g6
S'\x11\xe1\x9aY\x840\xd1?'
p614
tp615
Rp616
tp617
a(S'nora bayes'
p618
g2
(g6
S'\xd2\xb9\xf9\xbao/\xd1?'
p619
tp620
Rp621
tp622
a(S'frequentist probability'
p623
g2
(g6
S'?\xd4\x8c*\xbc$\xd1?'
p624
tp625
Rp626
tp627
a(S'bayesian experimental design'
p628
g2
(g6
S'\x8b\xd0h`\x18\xf0\xd0?'
p629
tp630
Rp631
tp632
a(S'nested sampling algorithm'
p633
g2
(g6
S'o\xadS1n\xe8\xd0?'
p634
tp635
Rp636
tp637
a(S'chris holmes (mathematician)'
p638
g2
(g6
S'aL\x1bc\x1e\xe5\xd0?'
p639
tp640
Rp641
tp642
a(S'operational modal analysis'
p643
g2
(g6
S'\xa8D1\xfb\xb6\xc6\xd0?'
p644
tp645
Rp646
tp647
a(S'ameerega ignipedis'
p648
g2
(g6
S';\xfcf\xe4\xd0\xbd\xd0?'
p649
tp650
Rp651
tp652
a(S'paul bayes'
p653
g2
(g6
S'/|8\xdcW\xbc\xd0?'
p654
tp655
Rp656
tp657
a(S'information field theory'
p658
g2
(g6
S'\xa4\x94\xd6\x80|\xa2\xd0?'
p659
tp660
Rp661
tp662
a(S'norman fenton'
p663
g2
(g6
S'\xca\x0e)\x0c\xa2\x9b\xd0?'
p664
tp665
Rp666
tp667
a(S'probability interpretations'
p668
g2
(g6
S'+?\x87\xcc\xdd\x94\xd0?'
p669
tp670
Rp671
tp672
a(S'northern tasmanian languages'
p673
g2
(g6
S'h\xec\xf4\xf2\xfd\x93\xd0?'
p674
tp675
Rp676
tp677
a(S'peter abell'
p678
g2
(g6
S'\xee!\rJ*\x88\xd0?'
p679
tp680
Rp681
tp682
a(S'david a. freedman'
p683
g2
(g6
S'\x0e\x90Nb\x8a\x86\xd0?'
p684
tp685
Rp686
tp687
a(S'statistical proof'
p688
g2
(g6
S'.\xb7\x95\x92\x19\x84\xd0?'
p689
tp690
Rp691
tp692
a(S'philip dawid'
p693
g2
(g6
S'\x18\x07\x83O\x98\x7f\xd0?'
p694
tp695
Rp696
tp697
a(S'coherence (statistics)'
p698
g2
(g6
S'\xae\xbc\xa9\xba,y\xd0?'
p699
tp700
Rp701
tp702
a(S'inference'
p703
g2
(g6
S'E\x13\xb0\xe0\xe6x\xd0?'
p704
tp705
Rp706
tp707
a(S'the rehearsal (play)'
p708
g2
(g6
S'\xae\xeb>\x8f\x85W\xd0?'
p709
tp710
Rp711
tp712
a(S'bernstein\xe2\x80\x93von mises theorem'
p713
g2
(g6
S'>\x95\nf@U\xd0?'
p714
tp715
Rp716
tp717
a(S'list of phylogenetics software'
p718
g2
(g6
S"\xa5'\xc9\x14 L\xd0?"
p719
tp720
Rp721
tp722
a(S'robert f. stambaugh'
p723
g2
(g6
S'\x97\xbf\xb98\x87>\xd0?'
p724
tp725
Rp726
tp727
a(S'jayanta kumar ghosh'
p728
g2
(g6
S'X\xd0<\x9bE0\xd0?'
p729
tp730
Rp731
tp732
a(S'incentive compatibility'
p733
g2
(g6
S'\x9b\xda+\xc3-\x14\xd0?'
p734
tp735
Rp736
tp737
a(S'mailwasher'
p738
g2
(g6
S'\xd6,\xfd+v\x01\xd0?'
p739
tp740
Rp741
tp742
a(S'david a. mcallester'
p743
g2
(g6
S'K\x15=M\x19\xf9\xcf?'
p744
tp745
Rp746
tp747
a(S'inductive probability'
p748
g2
(g6
S'\x01\x84x:\x8e\xe4\xcf?'
p749
tp750
Rp751
tp752
a(S'andrew bayes'
p753
g2
(g6
S'\x06\xe4\x1fA\xb2\xb6\xcf?'
p754
tp755
Rp756
tp757
a(S'computer experiment'
p758
g2
(g6
S'\xbb3P\x0f\xfc\xb4\xcf?'
p759
tp760
Rp761
tp762
a(S'flint toolkit'
p763
g2
(g6
S'+\xb6\xfc\x9dw\xaa\xcf?'
p764
tp765
Rp766
tp767
a(S'henry e. kyburg, jr.'
p768
g2
(g6
S'\xc6\xfb\xd1\xe4;\xaa\xcf?'
p769
tp770
Rp771
tp772
a(S'probability distribution of extreme points of a wiener stochastic process'
p773
g2
(g6
S'\xa1\xb1?\x19\x7f\x8d\xcf?'
p774
tp775
Rp776
tp777
a(S'darren rhodes (scientist)'
p778
g2
(g6
S'q\\%q\x9a,\xcf?'
p779
tp780
Rp781
tp782
a(S'empirical probability'
p783
g2
(g6
S'\xd21\xbb\xd2\xd3\x12\xcf?'
p784
tp785
Rp786
tp787
a(S'gilbert bayes'
p788
g2
(g6
S'\xe1u\xa6@Q\xfe\xce?'
p789
tp790
Rp791
tp792
a(S'winbugs'
p793
g2
(g6
S'\xf7.W\xfb\x94\x98\xce?'
p794
tp795
Rp796
tp797
a(S'model selection'
p798
g2
(g6
S'\xd2R\x17\xf7\xa0]\xce?'
p799
tp800
Rp801
tp802
a(S'one-shot learning'
p803
g2
(g6
S'\xe9\x8a\xdc~\xf3/\xce?'
p804
tp805
Rp806
tp807
a(S'gavin bayes'
p808
g2
(g6
S'\x0b\x93\x82i\xa7,\xce?'
p809
tp810
Rp811
tp812
a(S'statistical relational learning'
p813
g2
(g6
S'\x87\x12\x9c\x12\x1b,\xce?'
p814
tp815
Rp816
tp817
a(S'joshua bayes'
p818
g2
(g6
S'\xa7L\x87\xf6\x81\x1d\xce?'
p819
tp820
Rp821
tp822
a(S'bma'
p823
g2
(g6
S'^C}]\x98\x16\xce?'
p824
tp825
Rp826
tp827
a(S'extrapolation domain analysis'
p828
g2
(g6
S'\xed\xd6>h\xba\x0c\xce?'
p829
tp830
Rp831
tp832
a(S'dempster\xe2\x80\x93shafer theory'
p833
g2
(g6
S'M&R\x0b\xef\xe0\xcd?'
p834
tp835
Rp836
tp837
a(S'variational'
p838
g2
(g6
S'\xa0\x0e&\t_\xe0\xcd?'
p839
tp840
Rp841
tp842
a(S'ashley bayes'
p843
g2
(g6
S'\xc9Q7\x80_\xce\xcd?'
p844
tp845
Rp846
tp847
a(S'r v adams'
p848
g2
(g6
S'\x10\xc7\tRj\xcc\xcd?'
p849
tp850
Rp851
tp852
a(S'minimum description length'
p853
g2
(g6
S'\x00\xc9\xed\xa2`\xbc\xcd?'
p854
tp855
Rp856
tp857
a(S'implementability'
p858
g2
(g6
S'j\xa0\\,9\xab\xcd?'
p859
tp860
Rp861
tp862
a(S'list of statistics articles'
p863
g2
(g6
S'\xf4U \xfd5\xa3\xcd?'
p864
tp865
Rp866
tp867
a(S'list of important publications in statistics'
p868
g2
(g6
S'B%\xea\x80\xa9\\\xcd?'
p869
tp870
Rp871
tp872
a(S'debabrata basu'
p873
g2
(g6
S'w\x04m\x9b\xc4V\xcd?'
p874
tp875
Rp876
tp877
a(S'equipossibility'
p878
g2
(g6
S'\xb3\x92\xdf\xb0\x16D\xcd?'
p879
tp880
Rp881
tp882
a(S'peter dayan'
p883
g2
(g6
S'\xfd\xb7\xd4\x16\xfe1\xcd?'
p884
tp885
Rp886
tp887
a(S'nando de freitas'
p888
g2
(g6
S'\xa8\xddy%y\x08\xcd?'
p889
tp890
Rp891
tp892
a(S'jessie bayes'
p893
g2
(g6
S'\xbc\x03\x0f\x07\xd3\x05\xcd?'
p894
tp895
Rp896
tp897
a(S'bayes error rate'
p898
g2
(g6
S'\r\xef;\xb0\xb5\xf3\xcc?'
p899
tp900
Rp901
tp902
a(S'llangeinor'
p903
g2
(g6
S'\xe63[\xef\xe4\xf2\xcc?'
p904
tp905
Rp906
tp907
a(S'generic views'
p908
g2
(g6
S'B\xbb\x10m\xdd\xf2\xcc?'
p909
tp910
Rp911
tp912
a(S'matthew stephens (statistician)'
p913
g2
(g6
S'\xe8\x89\x8e\xc9\xcc\xde\xcc?'
p914
tp915
Rp916
tp917
a(S'cutaneous rabbit illusion'
p918
g2
(g6
S'{\xa0\xad\xf7\xf4\xda\xcc?'
p919
tp920
Rp921
tp922
a(S'base rate fallacy'
p923
g2
(g6
S'ob\xce\xa0\xb8\xa8\xcc?'
p924
tp925
Rp926
tp927
a(S'michael c. frank'
p928
g2
(g6
S"\xf6\xbc'\x9f\x83f\xcc?"
p929
tp930
Rp931
tp932
a(S'openbugs'
p933
g2
(g6
S'\xed9,\x91\xbcB\xcc?'
p934
tp935
Rp936
tp937
a(S'joseph \xc3\x93 ruanaidh'
p938
g2
(g6
S'\x1c\xc9($\x85+\xcc?'
p939
tp940
Rp941
tp942
a(S'factor graph'
p943
g2
(g6
S'D"\x99\xc8u\t\xcc?'
p944
tp945
Rp946
tp947
a(S'list of welsh mathematicians'
p948
g2
(g6
S'\xd2\x05K\xdeW\xe2\xcb?'
p949
tp950
Rp951
tp952
a(S'adrian raftery'
p953
g2
(g6
S'\xe3$\xcd\x1dc\xdf\xcb?'
p954
tp955
Rp956
tp957
a(S'markov chain monte carlo'
p958
g2
(g6
S'\xdc\xe9VO\xc1\xcd\xcb?'
p959
tp960
Rp961
tp962
a(S'minimum mean square error'
p963
g2
(g6
S"'=i\xcd\xb7\xc6\xcb?"
p964
tp965
Rp966
tp967
a(S'joseph born kadane'
p968
g2
(g6
S'\xe6@um\x9e\xc3\xcb?'
p969
tp970
Rp971
tp972
a(S'ariel caticha'
p973
g2
(g6
S'\x12\x8e\xe2\x8a\xc1\xb4\xcb?'
p974
tp975
Rp976
tp977
a(S'reference class problem'
p978
g2
(g6
S'?\xbb\x80e\x06\x80\xcb?'
p979
tp980
Rp981
tp982
a(S'sunrise problem'
p983
g2
(g6
S'48\xd1T\x05i\xcb?'
p984
tp985
Rp986
tp987
a(S'institute of mathematical statistics'
p988
g2
(g6
S'\x8e\xd4\x1e\xd7\x92a\xcb?'
p989
tp990
Rp991
tp992
a(S'averaged one-dependence estimators'
p993
g2
(g6
S'X\xffdy\xc0`\xcb?'
p994
tp995
Rp996
tp997
a(S'sparse binary polynomial hashing'
p998
g2
(g6
S':AR\x06>F\xcb?'
p999
tp1000
Rp1001
tp1002
a(S'spambayes'
p1003
g2
(g6
S'%\xf48d\xdf@\xcb?'
p1004
tp1005
Rp1006
tp1007
a(S'astrostatistics'
p1008
g2
(g6
S'\xd8v\xa7=\xa2)\xcb?'
p1009
tp1010
Rp1011
tp1012
a(S'computational phylogenetics'
p1013
g2
(g6
S':(\xe1\x00\x90\x18\xcb?'
p1014
tp1015
Rp1016
tp1017
a(S'shyamaprasad mukherjee'
p1018
g2
(g6
S'k\x91\xd3g\xdc\x05\xcb?'
p1019
tp1020
Rp1021
tp1022
a(S'jacques dr\xc3\xa8ze'
p1023
g2
(g6
S'u\x89\x84N\xdd\x04\xcb?'
p1024
tp1025
Rp1026
tp1027
a(S'testimator'
p1028
g2
(g6
S'P\x85\x85\xe8\x92\xde\xca?'
p1029
tp1030
Rp1031
tp1032
a(S'approximate bayesian computation'
p1033
g2
(g6
S'BY\xcf\x8f\xc9\xb3\xca?'
p1034
tp1035
Rp1036
tp1037
a(S'prior (disambiguation)'
p1038
g2
(g6
S'\x161\x99\xb2"\xab\xca?'
p1039
tp1040
Rp1041
tp1042
a(S'ancestral reconstruction'
p1043
g2
(g6
S'\xad\xaeU\xa4\xde\xa7\xca?'
p1044
tp1045
Rp1046
tp1047
a(S'hemidactylus eniangii'
p1048
g2
(g6
S'\x8e7\xb1\xa6`\xa0\xca?'
p1049
tp1050
Rp1051
tp1052
a(S'posterior probability'
p1053
g2
(g6
S'\xd4y\x99R3\x9b\xca?'
p1054
tp1055
Rp1056
tp1057
a(S'imprecise dirichlet process'
p1058
g2
(g6
S'i\x16.>\t\x89\xca?'
p1059
tp1060
Rp1061
tp1062
a(S'radford m. neal'
p1063
g2
(g6
S'\xf5\x95\x06]\t\x81\xca?'
p1064
tp1065
Rp1066
tp1067
a(S'black-backed antshrike'
p1068
g2
(g6
S'\xc6\xe2\x87EN\x80\xca?'
p1069
tp1070
Rp1071
tp1072
a(S'estimation of distribution algorithm'
p1073
g2
(g6
S'\xb3>kB\x81|\xca?'
p1074
tp1075
Rp1076
tp1077
a(S'mark bayes'
p1078
g2
(g6
S'\xf1\xed\xcf\xdd\xacz\xca?'
p1079
tp1080
Rp1081
tp1082
a(S'first-price sealed-bid auction'
p1083
g2
(g6
S'\xa0W\xee\xbdxr\xca?'
p1084
tp1085
Rp1086
tp1087
a(S'clark glymour'
p1088
g2
(g6
S'^\x8e\x04~\xa4Q\xca?'
p1089
tp1090
Rp1091
tp1092
a(S'herman k. van dijk'
p1093
g2
(g6
S'U&\xf3\x932\x0f\xca?'
p1094
tp1095
Rp1096
tp1097
a(S'doomsday argument'
p1098
g2
(g6
S'MZ\x87\xb7D\xf6\xc9?'
p1099
tp1100
Rp1101
tp1102
a(S'cross-species transmission'
p1103
g2
(g6
S'\x7f\xe91}\xfb\xea\xc9?'
p1104
tp1105
Rp1106
tp1107
a(S'hd 11506 c'
p1108
g2
(g6
S'\x9cV\x943\xea\xe8\xc9?'
p1109
tp1110
Rp1111
tp1112
a(S'hd 11506'
p1113
g2
(g6
S'\xea\xaf^\xa4C\xc5\xc9?'
p1114
tp1115
Rp1116
tp1117
a(S'machairoceratops'
p1118
g2
(g6
S'\tv\x08\xd5g\x8c\xc9?'
p1119
tp1120
Rp1121
tp1122
a(S'conservatism (belief revision)'
p1123
g2
(g6
S'\x03\x8eV\x83\xd6\x87\xc9?'
p1124
tp1125
Rp1126
tp1127
a(S'nuisance parameter'
p1128
g2
(g6
S'-n\xbe\x0e&\x86\xc9?'
p1129
tp1130
Rp1131
tp1132
a(S'probability'
p1133
g2
(g6
S'v\xcbTz\xbd\x83\xc9?'
p1134
tp1135
Rp1136
tp1137
a(S'bayes classifier'
p1138
g2
(g6
S'K\xac:\x0ex\x81\xc9?'
p1139
tp1140
Rp1141
tp1142
a(S'ray solomonoff'
p1143
g2
(g6
S'\x03\x1a\xeeY\xfaf\xc9?'
p1144
tp1145
Rp1146
tp1147
a(S'algorithmic probability'
p1148
g2
(g6
S'\xe0\xef\xc1\x19\xcb]\xc9?'
p1149
tp1150
Rp1151
tp1152
a(S'prior-free mechanism'
p1153
g2
(g6
S'h\xc2\xa8\x07\xd9T\xc9?'
p1154
tp1155
Rp1156
tp1157
a(S'founders of statistics'
p1158
g2
(g6
S'\x1e]\xea\xb3\xf7D\xc9?'
p1159
tp1160
Rp1161
tp1162
a(S'a priori probability'
p1163
g2
(g6
S'\x8d@W\x1d\xc9C\xc9?'
p1164
tp1165
Rp1166
tp1167
a(S'luc bovens'
p1168
g2
(g6
S'0\xcf\xb1\xe1h/\xc9?'
p1169
tp1170
Rp1171
tp1172
a(S'classical definition of probability'
p1173
g2
(g6
S'\xfd\xaf\xf0\xdc\x81\x0f\xc9?'
p1174
tp1175
Rp1176
tp1177
a(S'string theory landscape'
p1178
g2
(g6
S'5\xb7\xb1pA\r\xc9?'
p1179
tp1180
Rp1181
tp1182
a(S'karl j. friston'
p1183
g2
(g6
S'\x060\xdb\x9e2\n\xc9?'
p1184
tp1185
Rp1186
tp1187
a(S'self-indication assumption doomsday argument rebuttal'
p1188
g2
(g6
S'\x06{\xe8R!\xfc\xc8?'
p1189
tp1190
Rp1191
tp1192
a(S'frank kschischang'
p1193
g2
(g6
S'\x94\xd7N\xf4\x08\xed\xc8?'
p1194
tp1195
Rp1196
tp1197
a(S'outline of probability'
p1198
g2
(g6
S'\xb1\x86\xc6w\x1b\xab\xc8?'
p1199
tp1200
Rp1201
tp1202
a(S'joshua tenenbaum'
p1203
g2
(g6
S'Z\xa9\xd8\xb9\xf8\x8e\xc8?'
p1204
tp1205
Rp1206
tp1207
a(S'kate calder'
p1208
g2
(g6
S'aV\xa1W\xf9\x8d\xc8?'
p1209
tp1210
Rp1211
tp1212
a(S'pattern recognition'
p1213
g2
(g6
S'>\xbfI6\x9a\x8c\xc8?'
p1214
tp1215
Rp1216
tp1217
a(S'probabilistic logic'
p1218
g2
(g6
S'3p%i{\x82\xc8?'
p1219
tp1220
Rp1221
tp1222
a(S'steffen lauritzen'
p1223
g2
(g6
S'\x95\xfb,\x8e(~\xc8?'
p1224
tp1225
Rp1226
tp1227
a(S'checking whether a coin is fair'
p1228
g2
(g6
S'\xd51)\x06\xc16\xc8?'
p1229
tp1230
Rp1231
tp1232
a(S'g-prior'
p1233
g2
(g6
S'}\xee\x92sC0\xc8?'
p1234
tp1235
Rp1236
tp1237
a(S'conditional probability'
p1238
g2
(g6
S'\x9d=S\x8e\xca/\xc8?'
p1239
tp1240
Rp1241
tp1242
a(S'counterinduction'
p1243
g2
(g6
S'V\x90T\xce\x8d\x0b\xc8?'
p1244
tp1245
Rp1246
tp1247
a(S'kernel methods for vector output'
p1248
g2
(g6
S'\xc0\x1b\xd3\x06a\x07\xc8?'
p1249
tp1250
Rp1251
tp1252
a(S'david wolpert'
p1253
g2
(g6
S'\t\xf1$\xf3\xf6\x00\xc8?'
p1254
tp1255
Rp1256
tp1257
a(S'loss function'
p1258
g2
(g6
S'\x9c\xb3\xa3i\xdc\xf9\xc7?'
p1259
tp1260
Rp1261
tp1262
a(S'diagnosis'
p1263
g2
(g6
S'|\x83\xca\xd9\x7f\xd8\xc7?'
p1264
tp1265
Rp1266
tp1267
a(S'marc a. suchard'
p1268
g2
(g6
S'R\x0eU\x0f}\xcc\xc7?'
p1269
tp1270
Rp1271
tp1272
a(S'bcpnn'
p1273
g2
(g6
S'\x1c\xe3\xd3S|\xc3\xc7?'
p1274
tp1275
Rp1276
tp1277
a(S'list of women in statistics'
p1278
g2
(g6
S'\x1c\x7f\xfc\x9d\x90\xab\xc7?'
p1279
tp1280
Rp1281
tp1282
a(S'statistical classification'
p1283
g2
(g6
S'\xf9~\xc1E+\xa6\xc7?'
p1284
tp1285
Rp1286
tp1287
a(S'controversy'
p1288
g2
(g6
S'\r\xf3\xda\xfb\xbd\xa3\xc7?'
p1289
tp1290
Rp1291
tp1292
a(S'principle of maximum entropy'
p1293
g2
(g6
S'\xb7\xef\xc9{\xcc\x80\xc7?'
p1294
tp1295
Rp1296
tp1297
a(S'rebellion research'
p1298
g2
(g6
S"q\xe0b'um\xc7?"
p1299
tp1300
Rp1301
tp1302
a(S'amphetarate'
p1303
g2
(g6
S'Vr\xa3J)m\xc7?'
p1304
tp1305
Rp1306
tp1307
a(S'russ salakhutdinov'
p1308
g2
(g6
S'.I\x13\x9a(\x18\xc7?'
p1309
tp1310
Rp1311
tp1312
a(S'western tasmanian languages'
p1313
g2
(g6
S'\xb2z\xa6\x8b,\xf8\xc6?'
p1314
tp1315
Rp1316
tp1317
a(S'sander greenland'
p1318
g2
(g6
S'N\t\xef\xfc\xff\xe6\xc6?'
p1319
tp1320
Rp1321
tp1322
a(S'probability matching'
p1323
g2
(g6
S'H\xb9F\xb1\x00\xdc\xc6?'
p1324
tp1325
Rp1326
tp1327
a(S'george bayes'
p1328
g2
(g6
S'\xa0\xce\xb3\xaa\xa7\xc4\xc6?'
p1329
tp1330
Rp1331
tp1332
a(S'subjective logic'
p1333
g2
(g6
S'\x8a\x1aaL\x08\xbf\xc6?'
p1334
tp1335
Rp1336
tp1337
a(S'andrew gelman'
p1338
g2
(g6
S'p:a\xbfS\xb5\xc6?'
p1339
tp1340
Rp1341
tp1342
a(S'journal of multivariate analysis'
p1343
g2
(g6
S'\xde\x05\xe3|\x98\xb4\xc6?'
p1344
tp1345
Rp1346
tp1347
a(S'laurie millsom'
p1348
g2
(g6
S'1\x044[Y\x89\xc6?'
p1349
tp1350
Rp1351
tp1352
a(S'markovian discrimination'
p1353
g2
(g6
S'\xaa\xe0\x0c\x9aR\x87\xc6?'
p1354
tp1355
Rp1356
tp1357
a(S'transferable belief model'
p1358
g2
(g6
S'\x85f\x13g.s\xc6?'
p1359
tp1360
Rp1361
tp1362
a(S'equiprobability'
p1363
g2
(g6
S'V\xb3\x87\xde\xaep\xc6?'
p1364
tp1365
Rp1366
tp1367
a(S'lifetype'
p1368
g2
(g6
S'\x02R\x19\x08Wn\xc6?'
p1369
tp1370
Rp1371
tp1372
a(S'dbn'
p1373
g2
(g6
S'\x04\x81\xa5D\x81-\xc6?'
p1374
tp1375
Rp1376
tp1377
a(S'subjectivism'
p1378
g2
(g6
S'\x93\x7f\xde\xd2\x13$\xc6?'
p1379
tp1380
Rp1381
tp1382
a(S'vanja dukic'
p1383
g2
(g6
S'<\xba\xcex1\x00\xc6?'
p1384
tp1385
Rp1386
tp1387
a(S'win probability'
p1388
g2
(g6
S'\xfc\xb3\x9a\xfc\x02\xfb\xc5?'
p1389
tp1390
Rp1391
tp1392
a(S'c. johan masreliez'
p1393
g2
(g6
S'u\xeag\xb7,\xdd\xc5?'
p1394
tp1395
Rp1396
tp1397
a(S'inductive reasoning'
p1398
g2
(g6
S'\xc4fk\x0b\xa9\xd8\xc5?'
p1399
tp1400
Rp1401
tp1402
a(S'columba (email client)'
p1403
g2
(g6
S'\x18\x8a\x9eU\xb1\xc4\xc5?'
p1404
tp1405
Rp1406
tp1407
a(S'band-tailed antshrike'
p1408
g2
(g6
S'_~\xf4\xc97\xbf\xc5?'
p1409
tp1410
Rp1411
tp1412
a(S'revelation principle'
p1413
g2
(g6
S'\xfcd\x94\xa7-\xbb\xc5?'
p1414
tp1415
Rp1416
tp1417
a(S'computational learning theory'
p1418
g2
(g6
S'\xec\x81\xf0\xff3\xb9\xc5?'
p1419
tp1420
Rp1421
tp1422
a(S'jun s. liu'
p1423
g2
(g6
S'+\x1f\xb0S\xdb\xb0\xc5?'
p1424
tp1425
Rp1426
tp1427
a(S'conditional independence'
p1428
g2
(g6
S'\xdbz2}\x82\xa0\xc5?'
p1429
tp1430
Rp1431
tp1432
a(S'tau effect'
p1433
g2
(g6
S'i\xa6\xd3Yu\x97\xc5?'
p1434
tp1435
Rp1436
tp1437
a(S'helen bayes'
p1438
g2
(g6
S'\x1d\xe5\x1cyf\x81\xc5?'
p1439
tp1440
Rp1441
tp1442
a(S'spamassassin'
p1443
g2
(g6
S'\x12\xd80sYy\xc5?'
p1444
tp1445
Rp1446
tp1447
a(S'david blei'
p1448
g2
(g6
S'[%\xab\xcagW\xc5?'
p1449
tp1450
Rp1451
tp1452
a(S'bayesian information criterion'
p1453
g2
(g6
S'k?R\xfc\xf7T\xc5?'
p1454
tp1455
Rp1456
tp1457
a(S'conservatism (disambiguation)'
p1458
g2
(g6
S'\xcd\xf8\xca \xbdR\xc5?'
p1459
tp1460
Rp1461
tp1462
a(S'list of probability topics'
p1463
g2
(g6
S'\xef\xa9`*\xd3<\xc5?'
p1464
tp1465
Rp1466
tp1467
a(S'pocomail'
p1468
g2
(g6
S'\xde\xfbX\xe8\xd68\xc5?'
p1469
tp1470
Rp1471
tp1472
a(S'fmrib software library'
p1473
g2
(g6
S'\x985\x98y7,\xc5?'
p1474
tp1475
Rp1476
tp1477
a(S'nuisance variable'
p1478
g2
(g6
S'\xe8\x80\xe6\x14\x93\x1f\xc5?'
p1479
tp1480
Rp1481
tp1482
a(S'comparison of general and generalized linear models'
p1483
g2
(g6
S'P\x1c\xa8l\x9b\x17\xc5?'
p1484
tp1485
Rp1486
tp1487
a(S'thomas anantharaman'
p1488
g2
(g6
S'\nR\xf9;\xfb\x13\xc5?'
p1489
tp1490
Rp1491
tp1492
a(S'bfl'
p1493
g2
(g6
S'\x85\xb0\x13\xa1\x9e\x0b\xc5?'
p1494
tp1495
Rp1496
tp1497
a(S'minimax estimator'
p1498
g2
(g6
S'\x1a\x15\xaf\xa3\x80\x0b\xc5?'
p1499
tp1500
Rp1501
tp1502
a(S'formal epistemology'
p1503
g2
(g6
S').\x84\xb2\xf9\x08\xc5?'
p1504
tp1505
Rp1506
tp1507
a(S'bias of an estimator'
p1508
g2
(g6
S'K\xa4\xbb\x8d4\x00\xc5?'
p1509
tp1510
Rp1511
tp1512
a.