(lp0
(S'black hole'
p1
cnumpy.core.multiarray
scalar
p2
(cnumpy
dtype
p3
(S'f8'
p4
I0
I1
tp5
Rp6
(I3
S'<'
p7
NNNI-1
I-1
I0
tp8
bS'\x04\x00\x00\x00\x00\x00\xf0?'
p9
tp10
Rp11
tp12
a(S'outline of black holes'
p13
g2
(g6
S'\x9e(k\xbd\x86\xc9\xec?'
p14
tp15
Rp16
tp17
a(S'micro black hole'
p18
g2
(g6
S'\x0e\xfc\xd0\x8b?_\xe9?'
p19
tp20
Rp21
tp22
a(S'hawking radiation'
p23
g2
(g6
S'O\\Q\xc9\xe5\x7f\xe8?'
p24
tp25
Rp26
tp27
a(S'rotating black hole'
p28
g2
(g6
S'E\xf4\xc6\t\x98\xbf\xe7?'
p29
tp30
Rp31
tp32
a(S'black holes in fiction'
p33
g2
(g6
S'dm\x9f\xa4\x0f\xb4\xe7?'
p34
tp35
Rp36
tp37
a(S'stellar black hole'
p38
g2
(g6
S'Xn\xd3\xde\xfat\xe7?'
p39
tp40
Rp41
tp42
a(S'white hole'
p43
g2
(g6
S'\xb1j\x04%\xb0_\xe7?'
p44
tp45
Rp46
tp47
a(S'extremal black hole'
p48
g2
(g6
S'\xb8%\xf9#\xba\xe8\xe6?'
p49
tp50
Rp51
tp52
a(S'supermassive black hole'
p53
g2
(g6
S'P\xbb\x11\xd0\x11\xd4\xe6?'
p54
tp55
Rp56
tp57
a(S'nonsingular black hole models'
p58
g2
(g6
S'z\n\x1c\xe5q-\xe6?'
p59
tp60
Rp61
tp62
a(S'near-extremal black hole'
p63
g2
(g6
S'\xca\xbc\xbaV~\x1c\xe6?'
p64
tp65
Rp66
tp67
a(S'binary black hole'
p68
g2
(g6
S'\xb6Vr\x9f\x06\xef\xe5?'
p69
tp70
Rp71
tp72
a(S'fuzzball (string theory)'
p73
g2
(g6
S'\\}\x96Z\xd4\xec\xe5?'
p74
tp75
Rp76
tp77
a(S'btz black hole'
p78
g2
(g6
S'.\xe8\xb8V7J\xe5?'
p79
tp80
Rp81
tp82
a(S'magnetospheric eternally collapsing object'
p83
g2
(g6
S',\x8a\xa03\xb4"\xe5?'
p84
tp85
Rp86
tp87
a(S'black hole (disambiguation)'
p88
g2
(g6
S'A\x01h\x1a\xa7\xbb\xe4?'
p89
tp90
Rp91
tp92
a(S'intermediate-mass black hole'
p93
g2
(g6
S'\xfb\xc3[\x1bS\x8c\xe4?'
p94
tp95
Rp96
tp97
a(S'timeline of black hole physics'
p98
g2
(g6
S'\x97\xaco\x1a\xd1H\xe4?'
p99
tp100
Rp101
tp102
a(S'extreme mass ratio inspiral'
p103
g2
(g6
S'\x8f8i\x91\xf2\xc9\xe3?'
p104
tp105
Rp106
tp107
a(S'schwarzschild radius'
p108
g2
(g6
S'tI\xb7\xafH\x97\xe3?'
p109
tp110
Rp111
tp112
a(S'optical black hole'
p113
g2
(g6
S'5\x93T\x7f=T\xe3?'
p114
tp115
Rp116
tp117
a(S'no-hair theorem'
p118
g2
(g6
S'\x8c\xf6D\x94"<\xe3?'
p119
tp120
Rp121
tp122
a(S'black hole thermodynamics'
p123
g2
(g6
S'\x8b\x05\x94\x1b\xa6\x19\xe3?'
p124
tp125
Rp126
tp127
a(S'm\xe2\x80\x93sigma relation'
p128
g2
(g6
S'\xf2IHG`\xc5\xe2?'
p129
tp130
Rp131
tp132
a(S's5 0014+81'
p133
g2
(g6
S'\x95\x07\x12\x1d\x95\x89\xe2?'
p134
tp135
Rp136
tp137
a(S'm33 x-7'
p138
g2
(g6
S't\xcf\x88G\x05\x89\xe2?'
p139
tp140
Rp141
tp142
a(S'sonic black hole'
p143
g2
(g6
S'\x06\x1d\xba#}H\xe2?'
p144
tp145
Rp146
tp147
a(S'charged black hole'
p148
g2
(g6
S'}n3\x0e+B\xe2?'
p149
tp150
Rp151
tp152
a(S'igr j17091-3624'
p153
g2
(g6
S'\x11-q\x11[,\xe2?'
p154
tp155
Rp156
tp157
a(S'ergosphere'
p158
g2
(g6
S'\xea]\x8a%H\xe1\xe1?'
p159
tp160
Rp161
tp162
a(S'holeum'
p163
g2
(g6
S'\xbfq8W<\xde\xe1?'
p164
tp165
Rp166
tp167
a(S'hole'
p168
g2
(g6
S'\x02e\x87M\xf5\xd4\xe1?'
p169
tp170
Rp171
tp172
a(S'eternally collapsing object'
p173
g2
(g6
S'\x06(\xad\xb6\xef\xd1\xe1?'
p174
tp175
Rp176
tp177
a(S'sagittarius a*'
p178
g2
(g6
S'\xf3\xec\xa2EI\xa4\xe1?'
p179
tp180
Rp181
tp182
a(S'spin-flip'
p183
g2
(g6
S'\xc7\xadZ\x83ju\xe1?'
p184
tp185
Rp186
tp187
a(S'primordial black hole'
p188
g2
(g6
S'-\x12R#\xaag\xe1?'
p189
tp190
Rp191
tp192
a(S'penrose process'
p193
g2
(g6
S'\xfe\x1ep\xed7Q\xe1?'
p194
tp195
Rp196
tp197
a(S'black star (semiclassical gravity)'
p198
g2
(g6
S'\xc6\x96\xfbg\xfdP\xe1?'
p199
tp200
Rp201
tp202
a(S'virtual black hole'
p203
g2
(g6
S'Ky\xd5\xcaZ:\xe1?'
p204
tp205
Rp206
tp207
a(S'black hole information paradox'
p208
g2
(g6
S'b//.\xc53\xe1?'
p209
tp210
Rp211
tp212
a(S'abhas mitra'
p213
g2
(g6
S'\x94\x9e\x9f\xa9\xc4\x00\xe1?'
p214
tp215
Rp216
tp217
a(S'oj 287'
p218
g2
(g6
S'\x0277\x1c\r\xbc\xe0?'
p219
tp220
Rp221
tp222
a(S'holographic principle'
p223
g2
(g6
S'\x9c\xa4\xcb,\xc7\x9e\xe0?'
p224
tp225
Rp226
tp227
a(S'ring singularity'
p228
g2
(g6
S'\xa3G\x85\xc5\\)\xe0?'
p229
tp230
Rp231
tp232
a(S'membrane paradigm'
p233
g2
(g6
S'\xf4\xb0X\xc4\xc5\x1f\xe0?'
p234
tp235
Rp236
tp237
a(S'firewall (physics)'
p238
g2
(g6
S'\xb5\xf6ll\x8c\x8c\xdf?'
p239
tp240
Rp241
tp242
a(S'xte j1650-500'
p243
g2
(g6
S'\x18y\xa8\xb4\xb7f\xdf?'
p244
tp245
Rp246
tp247
a(S'q star'
p248
g2
(g6
S'\x8bN\xfa\x1e\\0\xdf?'
p249
tp250
Rp251
tp252
a(S'event horizon'
p253
g2
(g6
S'01\xcf\x17i.\xdf?'
p254
tp255
Rp256
tp257
a(S'black holes and time warps'
p258
g2
(g6
S'\xf8\xe2\xd5\x8a)\xf3\xde?'
p259
tp260
Rp261
tp262
a(S'hole in one'
p263
g2
(g6
S'\xf5<)R\n\xe3\xde?'
p264
tp265
Rp266
tp267
a(S'de sitter\xe2\x80\x93schwarzschild metric'
p268
g2
(g6
S'F\xb4\xd7Ov\xe1\xde?'
p269
tp270
Rp271
tp272
a(S'through hole'
p273
g2
(g6
S"u'\xb3i\xed\xbd\xde?"
p274
tp275
Rp276
tp277
a(S'4c +37.11'
p278
g2
(g6
S'g,\xd3@\xf1\xa6\xde?'
p279
tp280
Rp281
tp282
a(S'jacob bekenstein'
p283
g2
(g6
S'\xf8\xdf\x95\xb1\xd3\x8c\xde?'
p284
tp285
Rp286
tp287
a(S'hole (surname)'
p288
g2
(g6
S'7\x1d\x07F\xe3\x81\xde?'
p289
tp290
Rp291
tp292
a(S'general relativity'
p293
g2
(g6
S'Z\xf0K\xc5\xa5{\xde?'
p294
tp295
Rp296
tp297
a(S'black hole starship'
p298
g2
(g6
S'n\xb5\x84\x97{j\xde?'
p299
tp300
Rp301
tp302
a(S'samir d. mathur'
p303
g2
(g6
S"@~MW\xc1'\xde?"
p304
tp305
Rp306
tp307
a(S'sphere of influence (black hole)'
p308
g2
(g6
S'\xf4\xa8n\xe1\xd4\n\xde?'
p309
tp310
Rp311
tp312
a(S'list of mathematical topics in relativity'
p313
g2
(g6
S'\xb5\xaa\xce|\xee\xd6\xdd?'
p314
tp315
Rp316
tp317
a(S'white hole (disambiguation)'
p318
g2
(g6
S'\xb3;\xadDX\xb8\xdd?'
p319
tp320
Rp321
tp322
a(S'gravitational singularity'
p323
g2
(g6
S'\x98\x92\xfd\x1c\xbe\x93\xdd?'
p324
tp325
Rp326
tp327
a(S'portable hole'
p328
g2
(g6
S'\xc9V\x7f,x!\xdd?'
p329
tp330
Rp331
tp332
a(S'bahcall\xe2\x80\x93wolf cusp'
p333
g2
(g6
S'\x02\x804\xe0N!\xdd?'
p334
tp335
Rp336
tp337
a(S'gravastar'
p338
g2
(g6
S'\x98\x02\xc1\x05\xdf\x07\xdd?'
p339
tp340
Rp341
tp342
a(S'gw151226'
p343
g2
(g6
S'\x89Q\xf1\x97\r\xfd\xdc?'
p344
tp345
Rp346
tp347
a(S'photon sphere'
p348
g2
(g6
S'V\xf8k\x97\x99\xf9\xdc?'
p349
tp350
Rp351
tp352
a(S'spaghettification'
p353
g2
(g6
S'\xd6\xee\x16\xa5\xde\xe7\xdc?'
p354
tp355
Rp356
tp357
a(S'tendex line'
p358
g2
(g6
S'\xe3\x9a\x14\xf5\xbe\xb8\xdc?'
p359
tp360
Rp361
tp362
a(S'list of black holes'
p363
g2
(g6
S'F\x1e\xab~"\x96\xdc?'
p364
tp365
Rp366
tp367
a(S'kerr metric'
p368
g2
(g6
S'\x07\xd0\xac"w\x90\xdc?'
p369
tp370
Rp371
tp372
a(S'ngc 3115'
p373
g2
(g6
S'\xec\x15\xa5\xae\x05\x85\xdc?'
p374
tp375
Rp376
tp377
a(S'a brief history of time'
p378
g2
(g6
S'1~\x15\x8e\xd1k\xdc?'
p379
tp380
Rp381
tp382
a(S'eric poisson'
p383
g2
(g6
S'L0\xadO<`\xdc?'
p384
tp385
Rp386
tp387
a(S'gravitational collapse'
p388
g2
(g6
S'\xa3b\x00F\x18P\xdc?'
p389
tp390
Rp391
tp392
a(S'the hole'
p393
g2
(g6
S'\xd6C\x04\xed\xe8M\xdc?'
p394
tp395
Rp396
tp397
a(S's2 (star)'
p398
g2
(g6
S'\xd6\x1dg\x00eL\xdc?'
p399
tp400
Rp401
tp402
a(S'gamma-ray burst progenitors'
p403
g2
(g6
S':\xc3<\xe0N>\xdc?'
p404
tp405
Rp406
tp407
a(S'first observation of gravitational waves'
p408
g2
(g6
S'6l?n\xef\x13\xdc?'
p409
tp410
Rp411
tp412
a(S'sigma (cosmology)'
p413
g2
(g6
S'\x00\x0b\xce\x9aY\x0b\xdc?'
p414
tp415
Rp416
tp417
a(S'grs 1124-683'
p418
g2
(g6
S'T\xe0g\x9e\t\xe6\xdb?'
p419
tp420
Rp421
tp422
a(S'black hole bomb'
p423
g2
(g6
S'\xeb\xc0\x0c]P\xe4\xdb?'
p424
tp425
Rp426
tp427
a(S'numerical relativity'
p428
g2
(g6
S']\x03C\xf3\x81\xd9\xdb?'
p429
tp430
Rp431
tp432
a(S'hole punch'
p433
g2
(g6
S'\xc4\xb0S\xfe\xc8\xcb\xdb?'
p434
tp435
Rp436
tp437
a(S'black string'
p438
g2
(g6
S'Gw\x92\xb0\xce\xb7\xdb?'
p439
tp440
Rp441
tp442
a(S'hen 2-10'
p443
g2
(g6
S'M\xc8S\xbeD\xb6\xdb?'
p444
tp445
Rp446
tp447
a(S'monmouth golf club'
p448
g2
(g6
S'\x88\x0c\x96\xe5\xd7\xb2\xdb?'
p449
tp450
Rp451
tp452
a(S'c. v. vishveshwara'
p453
g2
(g6
S'\x16{\x193$\x9c\xdb?'
p454
tp455
Rp456
tp457
a(S'hypothetical star'
p458
g2
(g6
S'\xa9\xe4\xacP\x82x\xdb?'
p459
tp460
Rp461
tp462
a(S'black hole (pinball)'
p463
g2
(g6
S';\xd3\xca\x19\x08d\xdb?'
p464
tp465
Rp466
tp467
a(S'so\xc5\x82tan argument'
p468
g2
(g6
S'\x9b\xa3\xf0\xd4\x19O\xdb?'
p469
tp470
Rp471
tp472
a(S'a0620-00'
p473
g2
(g6
S'\x12F+\xc4\x00M\xdb?'
p474
tp475
Rp476
tp477
a(S'black body'
p478
g2
(g6
S'\x8fN\xf8\x02\x08.\xdb?'
p479
tp480
Rp481
tp482
a(S'apparent horizon'
p483
g2
(g6
S'*\xbaA\x1d\xbe"\xdb?'
p484
tp485
Rp486
tp487
a(S'cid-42'
p488
g2
(g6
S'>(\xd1\x19\xa7\x1d\xdb?'
p489
tp490
Rp491
tp492
a(S'ngc 1277'
p493
g2
(g6
S'\xdcq"\xef\xa6\x16\xdb?'
p494
tp495
Rp496
tp497
a(S'black-hole cosmology'
p498
g2
(g6
S'\xa0j#\xd0\xdd\x15\xdb?'
p499
tp500
Rp501
tp502
a(S'american astronomical society 215th meeting'
p503
g2
(g6
S'\x88M\x99\xd5\xe8\xf0\xda?'
p504
tp505
Rp506
tp507
a(S'quasi-star'
p508
g2
(g6
S'7\x1e\xa5Y\\\xee\xda?'
p509
tp510
Rp511
tp512
a(S'casio f-series watches'
p513
g2
(g6
S'dD{C\x9b\xdb\xda?'
p514
tp515
Rp516
tp517
a(S'v404 cygni'
p518
g2
(g6
S'\xdb<\xf1%c\xc9\xda?'
p519
tp520
Rp521
tp522
a(S'blue hole (disambiguation)'
p523
g2
(g6
S'?"\x86\x80\xb0\xc7\xda?'
p524
tp525
Rp526
tp527
a(S'hole in the sky (disambiguation)'
p528
g2
(g6
S'\xd5\xccGel\xb7\xda?'
p529
tp530
Rp531
tp532
a(S'maxi j1659-152'
p533
g2
(g6
S'\x1f\xcc7\x02\xc0\x86\xda?'
p534
tp535
Rp536
tp537
a(S'black hole of calcutta'
p538
g2
(g6
S'b@\x03\r\xf8\x85\xda?'
p539
tp540
Rp541
tp542
a(S'compact star'
p543
g2
(g6
S'q\x11ChK\x84\xda?'
p544
tp545
Rp546
tp547
a(S'markarian 231'
p548
g2
(g6
S'\xbcK\x86\x96h~\xda?'
p549
tp550
Rp551
tp552
a(S'sdss j0927+2943'
p553
g2
(g6
S'\x94wK\xff\xfef\xda?'
p554
tp555
Rp556
tp557
a(S'kugelblitz (astrophysics)'
p558
g2
(g6
S';\x10\x10{\x16V\xda?'
p559
tp560
Rp561
tp562
a(S'abell 400'
p563
g2
(g6
S'\xd1\x1d\xdf0IQ\xda?'
p564
tp565
Rp566
tp567
a(S'y and z holes'
p568
g2
(g6
S'7p\xd4\x0f\xfd=\xda?'
p569
tp570
Rp571
tp572
a(S'paczy\xc5\x84ski\xe2\x80\x93wiita potential'
p573
g2
(g6
S'H1*\xe5\x97;\xda?'
p574
tp575
Rp576
tp577
a(S'rx j1131-1231'
p578
g2
(g6
S'ol\xb4\xc6*\r\xda?'
p579
tp580
Rp581
tp582
a(S'gx 339-4'
p583
g2
(g6
S'\xba\xd2\xc5\xe3\xf6\x01\xda?'
p584
tp585
Rp586
tp587
a(S'black hole electron'
p588
g2
(g6
S'\x99\x8b\xfc\\\x8c\xfe\xd9?'
p589
tp590
Rp591
tp592
a(S'pks 1302-102'
p593
g2
(g6
S"\xd0'3JG\xf8\xd9?"
p594
tp595
Rp596
tp597
a(S'gcirs 13e'
p598
g2
(g6
S'\xb3\xa1\x15z\x1c\xea\xd9?'
p599
tp600
Rp601
tp602
a(S'h1821+643'
p603
g2
(g6
S'0\xa4uz\x06\xe7\xd9?'
p604
tp605
Rp606
tp607
a(S'thorne\xe2\x80\x93hawking\xe2\x80\x93preskill bet'
p608
g2
(g6
S'\xd7\x95\\\x1a\xd6\xe0\xd9?'
p609
tp610
Rp611
tp612
a(S'hlx-1'
p613
g2
(g6
S'YU\xb2}v\xdd\xd9?'
p614
tp615
Rp616
tp617
a(S'reissner\xe2\x80\x93nordstr\xc3\xb6m metric'
p618
g2
(g6
S'\x9c\xe3\xbd\xfaN\xbb\xd9?'
p619
tp620
Rp621
tp622
a(S'black'
p623
g2
(g6
S'\x02\xd8\x8f\x1e)\x95\xd9?'
p624
tp625
Rp626
tp627
a(S'massive compact halo object'
p628
g2
(g6
S'\xe08\xc9\x13\xf1X\xd9?'
p629
tp630
Rp631
tp632
a(S'xte j1550-564'
p633
g2
(g6
S'\xeb\xd5\xab\x18\x95N\xd9?'
p634
tp635
Rp636
tp637
a(S'page time'
p638
g2
(g6
S'9\xe4\x1d #J\xd9?'
p639
tp640
Rp641
tp642
a(S'flatterland'
p643
g2
(g6
S'\x86Nv\x80kB\xd9?'
p644
tp645
Rp646
tp647
a(S'black hole sun'
p648
g2
(g6
S'\x07\xb9\xc2\xd0\\\x0f\xd9?'
p649
tp650
Rp651
tp652
a(S'hole in the wall'
p653
g2
(g6
S'RdW\xf9)\xfb\xd8?'
p654
tp655
Rp656
tp657
a(S'ultraluminous x-ray source'
p658
g2
(g6
S'\xc5nG5\xee\xf9\xd8?'
p659
tp660
Rp661
tp662
a(S'nikodem pop\xc5\x82awski'
p663
g2
(g6
S'>\xa9A:\xec\xdc\xd8?'
p664
tp665
Rp666
tp667
a(S'ms 0735.6+7421'
p668
g2
(g6
S'A\x9d!*J\xd2\xd8?'
p669
tp670
Rp671
tp672
a(S'dark-energy star'
p673
g2
(g6
S'Uw|\xc1\xb3\xa8\xd8?'
p674
tp675
Rp676
tp677
a(S'pritchel'
p678
g2
(g6
S'2\x1d\xc6\xb8Q\x9e\xd8?'
p679
tp680
Rp681
tp682
a(S'tidal disruption event'
p683
g2
(g6
S'V\xa6\x8c)\xc1\x98\xd8?'
p684
tp685
Rp686
tp687
a(S'tsoro'
p688
g2
(g6
S'wW\x1c8R\x92\xd8?'
p689
tp690
Rp691
tp692
a(S'list of nearest black holes'
p693
g2
(g6
S'\xe5\x02\xa23l{\xd8?'
p694
tp695
Rp696
tp697
a(S'future of an expanding universe'
p698
g2
(g6
S'\xff\x13\x01\xd7\x1dy\xd8?'
p699
tp700
Rp701
tp702
a(S'cygnus x-1'
p703
g2
(g6
S'[u\xe3^\xff]\xd8?'
p704
tp705
Rp706
tp707
a(S'blitzar'
p708
g2
(g6
S"\x84\xd4\x08'\x80X\xd8?"
p709
tp710
Rp711
tp712
a(S'3c 75'
p713
g2
(g6
S'\xcf@q\xd0\xa7R\xd8?'
p714
tp715
Rp716
tp717
a(S'black (disambiguation)'
p718
g2
(g6
S'\xe0V\x90\xf2\x91Q\xd8?'
p719
tp720
Rp721
tp722
a(S'quasi-periodic oscillation'
p723
g2
(g6
S'\x18\xae\xb7\x80=E\xd8?'
p724
tp725
Rp726
tp727
a(S'fire in the hole (disambiguation)'
p728
g2
(g6
S'\n\xb3\xce*i4\xd8?'
p729
tp730
Rp731
tp732
a(S'sucker hole'
p733
g2
(g6
S'\xf1\x80<\x88W*\xd8?'
p734
tp735
Rp736
tp737
a(S'mtz black hole'
p738
g2
(g6
S'\x90\xcc3\x90\xe7\x15\xd8?'
p739
tp740
Rp741
tp742
a(S'post hole digger'
p743
g2
(g6
S'\xa0\xa07Z<\x0f\xd8?'
p744
tp745
Rp746
tp747
a(S'list of gravitational wave observations'
p748
g2
(g6
S'k\xaa\xdd\x92\xb7\x04\xd8?'
p749
tp750
Rp751
tp752
a(S'andrea m. ghez'
p753
g2
(g6
S'\x97\xe2\xbf\xabk\xe9\xd7?'
p754
tp755
Rp756
tp757
a(S'gro j0422+32'
p758
g2
(g6
S'\xa1\x04\xe1U@\xe2\xd7?'
p759
tp760
Rp761
tp762
a(S'willits j. hole'
p763
g2
(g6
S'\x9a]\xf5k\x1a\xbe\xd7?'
p764
tp765
Rp766
tp767
a(S'introduction to general relativity'
p768
g2
(g6
S'L\xc2\xb5\x88t\xb5\xd7?'
p769
tp770
Rp771
tp772
a(S'the black hole (2006 film)'
p773
g2
(g6
S'08\x1b\x8a\xf1\xa7\xd7?'
p774
tp775
Rp776
tp777
a(S'sound hole'
p778
g2
(g6
S'(\xc9z\xd6!\xa7\xd7?'
p779
tp780
Rp781
tp782
a(S'hypercompact stellar system'
p783
g2
(g6
S'M\x10w^\xc5\x9f\xd7?'
p784
tp785
Rp786
tp787
a(S'tone hole'
p788
g2
(g6
S'\xd5\xf5\x99\xb7Y\x90\xd7?'
p789
tp790
Rp791
tp792
a(S'portable hole (dungeons & dragons)'
p793
g2
(g6
S'\x99\xfd9\x1d\x8d\x86\xd7?'
p794
tp795
Rp796
tp797
a(S'near-horizon metric'
p798
g2
(g6
S'q\xb0^\xf2^u\xd7?'
p799
tp800
Rp801
tp802
a(S'immirzi parameter'
p803
g2
(g6
S'\xe8u\xf5\xed9c\xd7?'
p804
tp805
Rp806
tp807
a(S'black hole (solitaire)'
p808
g2
(g6
S'\xfa\xbc}:\xb85\xd7?'
p809
tp810
Rp811
tp812
a(S'kruskal\xe2\x80\x93szekeres coordinates'
p813
g2
(g6
S'd0}\x03t\x18\xd7?'
p814
tp815
Rp816
tp817
a(S'blue hole (castalia)'
p818
g2
(g6
S',\xdb\xf7a\xe8\x14\xd7?'
p819
tp820
Rp821
tp822
a(S'carlos lousto'
p823
g2
(g6
S'\x9f\x95\xae\x00I\x10\xd7?'
p824
tp825
Rp826
tp827
a(S'hole saw'
p828
g2
(g6
S'\xc4\rMH"\x01\xd7?'
p829
tp830
Rp831
tp832
a(S'route dependence'
p833
g2
(g6
S'\x88\xd6\x1f\t\x95\xfa\xd6?'
p834
tp835
Rp836
tp837
a(S'ruppeiner geometry'
p838
g2
(g6
S'\xc3.F;\xf4\xe8\xd6?'
p839
tp840
Rp841
tp842
a(S'hole formalism'
p843
g2
(g6
S'\x95\xb3\xb2\xd1\xa0\xe6\xd6?'
p844
tp845
Rp846
tp847
a(S'harry hole'
p848
g2
(g6
S'\x00\xd8&\x0b\xd8\xe1\xd6?'
p849
tp850
Rp851
tp852
a(S'black hole (roller coaster)'
p853
g2
(g6
S'\xbaP\xd0\x99}\xe0\xd6?'
p854
tp855
Rp856
tp857
a(S'heino falcke'
p858
g2
(g6
S'\xc2j\x10\x14\xae\xd6\xd6?'
p859
tp860
Rp861
tp862
a(S'black hole creek'
p863
g2
(g6
S'\x8f\x01\xc3^X\xd4\xd6?'
p864
tp865
Rp866
tp867
a(S'john black'
p868
g2
(g6
S"H`'\xc1\xc3\xd1\xd6?"
p869
tp870
Rp871
tp872
a(S'list of contributors to general relativity'
p873
g2
(g6
S'\xbek\x98e\x80\xd0\xd6?'
p874
tp875
Rp876
tp877
a(S'lockman hole'
p878
g2
(g6
S'\xe7\xe9\xf0\xb6A\xcb\xd6?'
p879
tp880
Rp881
tp882
a(S'ion-beam sculpting'
p883
g2
(g6
S'\xd8N\xc7j\xad\xc2\xd6?'
p884
tp885
Rp886
tp887
a(S'hole in one (disambiguation)'
p888
g2
(g6
S'_\xd6-\xc6k\xba\xd6?'
p889
tp890
Rp891
tp892
a(S'history of gravitational theory'
p893
g2
(g6
S'\t{B\x03N\xb4\xd6?'
p894
tp895
Rp896
tp897
a(S'big hole (disambiguation)'
p898
g2
(g6
S'\xa2\xa8\xad\xca\xd2\xb1\xd6?'
p899
tp900
Rp901
tp902
a(S'1965 piccadilly world match play championship'
p903
g2
(g6
S'\xddlF\xc7"\xaa\xd6?'
p904
tp905
Rp906
tp907
a(S'kerr/cft correspondence'
p908
g2
(g6
S'J\x92v\x95u\xa9\xd6?'
p909
tp910
Rp911
tp912
a(S'william hole (engraver)'
p913
g2
(g6
S'\xc4\x91\x1a\x8e\xeb\xa6\xd6?'
p914
tp915
Rp916
tp917
a(S'list of unsolved problems in physics'
p918
g2
(g6
S'^\x91\xd0\xd1\x06\x9d\xd6?'
p919
tp920
Rp921
tp922
a(S'playoff (golf)'
p923
g2
(g6
S'\xd2\xa1Wa\xab\x9a\xd6?'
p924
tp925
Rp926
tp927
a(S'black brane'
p928
g2
(g6
S'q}\x07\xeb\xb8\x88\xd6?'
p929
tp930
Rp931
tp932
a(S'short fuse blues'
p933
g2
(g6
S'\x1d\xaey\xf4\tc\xd6?'
p934
tp935
Rp936
tp937
a(S'blue hole'
p938
g2
(g6
S'np\xddQ\xc4a\xd6?'
p939
tp940
Rp941
tp942
a(S'andada (game)'
p943
g2
(g6
S'7\xb46\xb9\x85^\xd6?'
p944
tp945
Rp946
tp947
a(S'd-brane'
p948
g2
(g6
S'\xcb\xe97\xc8=^\xd6?'
p949
tp950
Rp951
tp952
a(S'woods hole (passage)'
p953
g2
(g6
S'\x87\xd9j1\xe1P\xd6?'
p954
tp955
Rp956
tp957
a(S'hole in my heart'
p958
g2
(g6
S'\x06\x0bS\xb6\x96M\xd6?'
p959
tp960
Rp961
tp962
a(S'greedy black hole'
p963
g2
(g6
S'\xc8\xf9\xbe+q@\xd6?'
p964
tp965
Rp966
tp967
a(S'seaford head golf course'
p968
g2
(g6
S'\x1b\x1c\xd4\xa8\xf61\xd6?'
p969
tp970
Rp971
tp972
a(S'indian valley municipal golf course'
p973
g2
(g6
S'Yt^?\xfa\r\xd6?'
p974
tp975
Rp976
tp977
a(S'william hole (artist)'
p978
g2
(g6
S'\x82\xbd\xd9d\xec\xfa\xd5?'
p979
tp980
Rp981
tp982
a(S'krur'
p983
g2
(g6
S'%\x0e4\x9e\xe1\xf2\xd5?'
p984
tp985
Rp986
tp987
a(S'gullstrand\xe2\x80\x93painlev\xc3\xa9 coordinates'
p988
g2
(g6
S'\xd0\\\x85\xe6\xe8\xe3\xd5?'
p989
tp990
Rp991
tp992
a(S'gravitational-wave astronomy'
p993
g2
(g6
S'\xf2F\xb9`\x1b\xde\xd5?'
p994
tp995
Rp996
tp997
a(S'advance wars 2: black hole rising'
p998
g2
(g6
S'\xed\xa7VF\x16\xcf\xd5?'
p999
tp1000
Rp1001
tp1002
a(S'surface gravity'
p1003
g2
(g6
S'\xc2j$\xc9a\xca\xd5?'
p1004
tp1005
Rp1006
tp1007
a(S'the hole man'
p1008
g2
(g6
S'\xd8\xa1\x1b\xb8\xda\xc3\xd5?'
p1009
tp1010
Rp1011
tp1012
a(S'hole-in-the-rock'
p1013
g2
(g6
S'\xefR\xb9\x00!\xb7\xd5?'
p1014
tp1015
Rp1016
tp1017
a(S'x-shaped radio galaxy'
p1018
g2
(g6
S'\xf6 I\xd7\x96\xb4\xd5?'
p1019
tp1020
Rp1021
tp1022
a(S'variations of golf'
p1023
g2
(g6
S'\x81^%pk\xb3\xd5?'
p1024
tp1025
Rp1026
tp1027
a(S'match play'
p1028
g2
(g6
S'\x82\xd0\x01\xcd\x19\xb2\xd5?'
p1029
tp1030
Rp1031
tp1032
a(S'bekenstein bound'
p1033
g2
(g6
S'B4\xee\xbb\xd6\x9e\xd5?'
p1034
tp1035
Rp1036
tp1037
a(S'blandford\xe2\x80\x93znajek process'
p1038
g2
(g6
S'\xbf\xe3\xbbTh\x90\xd5?'
p1039
tp1040
Rp1041
tp1042
a(S's0\xe2\x80\x93102'
p1043
g2
(g6
S'\xf1\x1b\xf2\xf5\xae\x8f\xd5?'
p1044
tp1045
Rp1046
tp1047
a(S'list of people known as the black'
p1048
g2
(g6
S't\xc6\xf9\x1b\xfb}\xd5?'
p1049
tp1050
Rp1051
tp1052
a(S'nina hole'
p1053
g2
(g6
S'\x19\xa5C\xc0\x0ew\xd5?'
p1054
tp1055
Rp1056
tp1057
a(S"robinson's hole"
p1058
g2
(g6
S'\xa1\xfc\xbd)\x1fv\xd5?'
p1059
tp1060
Rp1061
tp1062
a(S'exotic star'
p1063
g2
(g6
S'\x93\xda\xd0NMm\xd5?'
p1064
tp1065
Rp1066
tp1067
a(S'arthur black (humorist)'
p1068
g2
(g6
S'm2\xef\xfa\xdcg\xd5?'
p1069
tp1070
Rp1071
tp1072
a(S'gravitational wave'
p1073
g2
(g6
S'\xfd\x89|\xe6\xc7f\xd5?'
p1074
tp1075
Rp1076
tp1077
a(S'dark star (newtonian mechanics)'
p1078
g2
(g6
S'\xdf\xd4\xb0\xab\x92G\xd5?'
p1079
tp1080
Rp1081
tp1082
a(S'fungo golf'
p1083
g2
(g6
S'\x81\xd9\xb5t\xccC\xd5?'
p1084
tp1085
Rp1086
tp1087
a(S'ebonstar'
p1088
g2
(g6
S'\xdf\xf5N\xe6hA\xd5?'
p1089
tp1090
Rp1091
tp1092
a(S'lois hole'
p1093
g2
(g6
S'\xa0\xf4C\x9a\x885\xd5?'
p1094
tp1095
Rp1096
tp1097
a(S'ngc 4845'
p1098
g2
(g6
S'\xf1\xd3Tg^4\xd5?'
p1099
tp1100
Rp1101
tp1102
a(S'lake st. george golf club'
p1103
g2
(g6
S'\x83\x11E3\xc7)\xd5?'
p1104
tp1105
Rp1106
tp1107
a(S"dean's blue hole"
p1108
g2
(g6
S'\x90w\xfe\xacz&\xd5?'
p1109
tp1110
Rp1111
tp1112
a(S'gravity'
p1113
g2
(g6
S'4[\x97\xb0\xc1"\xd5?'
p1114
tp1115
Rp1116
tp1117
a(S'rx j1242-11'
p1118
g2
(g6
S'\xc4\x90\xd0N#!\xd5?'
p1119
tp1120
Rp1121
tp1122
a(S'team hole in the wall'
p1123
g2
(g6
S'\x14\xed\x9a\x88\x8e\x19\xd5?'
p1124
tp1125
Rp1126
tp1127
a(S'zany golf'
p1128
g2
(g6
S'\xedj\xbd\xf3\xfb\x12\xd5?'
p1129
tp1130
Rp1131
tp1132
a(S'ngc 4151'
p1133
g2
(g6
S'*\xb6\x02\xc2\xb1\xf7\xd4?'
p1134
tp1135
Rp1136
tp1137
a(S'1967 piccadilly world match play championship'
p1138
g2
(g6
S'g\x17\x82\xcb\xc1\xec\xd4?'
p1139
tp1140
Rp1141
tp1142
a(S'schwarzschild metric'
p1143
g2
(g6
S'\xbf )\xdc\xcb\xe8\xd4?'
p1144
tp1145
Rp1146
tp1147
a(S'lists of black people'
p1148
g2
(g6
S'\x82"\x80\x87n\xe8\xd4?'
p1149
tp1150
Rp1151
tp1152
a(S'conrad black'
p1153
g2
(g6
S'3z\x1d\x89a\xe6\xd4?'
p1154
tp1155
Rp1156
tp1157
a(S'black (surname)'
p1158
g2
(g6
S"\xb8\xb2\xa9\xcc'\xdd\xd4?"
p1159
tp1160
Rp1161
tp1162
a(S'the black hole (album)'
p1163
g2
(g6
S'\xbb\xa4\xb1>\x9a\xd3\xd4?'
p1164
tp1165
Rp1166
tp1167
a(S'fallstreak hole'
p1168
g2
(g6
S'G\xd7\x8d\xc5\xa8\xcd\xd4?'
p1169
tp1170
Rp1171
tp1172
a(S'country clubs of fox meadow \xe2\x80\x93 meadow course'
p1173
g2
(g6
S'.\xa7O\xc9\xa1\xcb\xd4?'
p1174
tp1175
Rp1176
tp1177
a(S'black holes and baby universes and other essays'
p1178
g2
(g6
S'\xa5\x08E)\xb4\xc7\xd4?'
p1179
tp1180
Rp1181
tp1182
a(S'nineteenth hole'
p1183
g2
(g6
S'\x87\xdf\x1e\x98\xcc\xc5\xd4?'
p1184
tp1185
Rp1186
tp1187
a(S"mel's hole"
p1188
g2
(g6
S'Q\xe3\xdb\xd0\x07\xba\xd4?'
p1189
tp1190
Rp1191
tp1192
a(S'hole in my heart (alphabeat song)'
p1193
g2
(g6
S'\x87\xe0C\xcd\xb0\xb9\xd4?'
p1194
tp1195
Rp1196
tp1197
a(S'ace in the hole'
p1198
g2
(g6
S'4\x00\xdeGP\xb7\xd4?'
p1199
tp1200
Rp1201
tp1202
a(S'frame-dragging'
p1203
g2
(g6
S'\x91w\x1c\xe2-\xb1\xd4?'
p1204
tp1205
Rp1206
tp1207
a(S'trojan oaks golf course'
p1208
g2
(g6
S'.>\xe9\x90\\\xac\xd4?'
p1209
tp1210
Rp1211
tp1212
a(S'laser interferometer space antenna'
p1213
g2
(g6
S'\xbe\xf5\xff0\xfe\xaa\xd4?'
p1214
tp1215
Rp1216
tp1217
a(S'hole (american football)'
p1218
g2
(g6
S'A\xee\xb5{x\xa8\xd4?'
p1219
tp1220
Rp1221
tp1222
a(S'law of holes'
p1223
g2
(g6
S'\xf0\x9e\xe4\xdd\xb9\xa4\xd4?'
p1224
tp1225
Rp1226
tp1227
a(S'list of most massive black holes'
p1228
g2
(g6
S'G\x17^\x1bS\x9d\xd4?'
p1229
tp1230
Rp1231
tp1232
a(S'glory hole'
p1233
g2
(g6
S'8\xdf\x04\xdb\xe5\x99\xd4?'
p1234
tp1235
Rp1236
tp1237
a(S'naked singularity'
p1238
g2
(g6
S'\xf5\xc8\x01\xdb\xef\x98\xd4?'
p1239
tp1240
Rp1241
tp1242
a(S'perth international'
p1243
g2
(g6
S'\\\xd2\xa4H\x08\x95\xd4?'
p1244
tp1245
Rp1246
tp1247
a(S'forest park country club'
p1248
g2
(g6
S'\x15%\xc39\xc5r\xd4?'
p1249
tp1250
Rp1251
tp1252
a(S'trans-planckian problem'
p1253
g2
(g6
S'\xc0\x01\xe3\xde>i\xd4?'
p1254
tp1255
Rp1256
tp1257
a(S'black hole complementarity'
p1258
g2
(g6
S'\xc3a]. \\\xd4?'
p1259
tp1260
Rp1261
tp1262
a(S'm60-ucd1'
p1263
g2
(g6
S'\xe6e\xceB\xa5V\xd4?'
p1264
tp1265
Rp1266
tp1267
a(S'black british'
p1268
g2
(g6
S'{\xbb\x18C\x06J\xd4?'
p1269
tp1270
Rp1271
tp1272
a(S'black mass (disambiguation)'
p1273
g2
(g6
S'\xf06`\xbazI\xd4?'
p1274
tp1275
Rp1276
tp1277
a(S'blacks (canada)'
p1278
g2
(g6
S"\xca\x8c'\x9b\x16B\xd4?"
p1279
tp1280
Rp1281
tp1282
a(S'michael hole'
p1283
g2
(g6
S'\x18\x82\xa8\xf0\xad8\xd4?'
p1284
tp1285
Rp1286
tp1287
a(S'eugenio bianchi'
p1288
g2
(g6
S'\xc1\x90\x1ch\xb2.\xd4?'
p1289
tp1290
Rp1291
tp1292
a(S's\xc3\xa1o'
p1293
g2
(g6
S'\xdd\xd0)po-\xd4?'
p1294
tp1295
Rp1296
tp1297
a(S'david black'
p1298
g2
(g6
S"\x89\xaf\xfe\xf3\xae'\xd4?"
p1299
tp1300
Rp1301
tp1302
a(S'ngc 5548'
p1303
g2
(g6
S'!\xe7\xc1?\xc1&\xd4?'
p1304
tp1305
Rp1306
tp1307
a(S'clint black'
p1308
g2
(g6
S'\xa5\xb0\xca\xd3\x9d"\xd4?'
p1309
tp1310
Rp1311
tp1312
a(S'cghs model'
p1313
g2
(g6
S'\xab\xf7\xf7j\x8c\x15\xd4?'
p1314
tp1315
Rp1316
tp1317
a(S'great blue hole'
p1318
g2
(g6
S'&Ki^"\x07\xd4?'
p1319
tp1320
Rp1321
tp1322
a(S'n6946-bh1'
p1323
g2
(g6
S'\x18\x17\x8e\xeb\xc6\xe4\xd3?'
p1324
tp1325
Rp1326
tp1327
a(S'dynamical horizon'
p1328
g2
(g6
S'\xc8\xee\xb2\x18e\xe2\xd3?'
p1329
tp1330
Rp1331
tp1332
a(S'man of the hole'
p1333
g2
(g6
S'I\xc0A\xf1\xad\xd0\xd3?'
p1334
tp1335
Rp1336
tp1337
a(S'dragon hole'
p1338
g2
(g6
S'\x08\xce\x03X-\xcc\xd3?'
p1339
tp1340
Rp1341
tp1342
a(S'stellification'
p1343
g2
(g6
S'\xd1\xcd\x0e\x18.\xc6\xd3?'
p1344
tp1345
Rp1346
tp1347
a(S'blue hole (new jersey)'
p1348
g2
(g6
S'^ \xfc\x7fA\xc2\xd3?'
p1349
tp1350
Rp1351
tp1352
a(S'black death (disambiguation)'
p1353
g2
(g6
S'\xb2\xa1\xf5B\x12\xc2\xd3?'
p1354
tp1355
Rp1356
tp1357
a(S'black and white (disambiguation)'
p1358
g2
(g6
S'\xb3\xaa\x8b\x99\xea\xc0\xd3?'
p1359
tp1360
Rp1361
tp1362
a(S'woods hole, massachusetts'
p1363
g2
(g6
S'\xfd\xd9"<\x11\xbd\xd3?'
p1364
tp1365
Rp1366
tp1367
a(S'x-ray binary'
p1368
g2
(g6
S"\xfa.\xf6'\xe6\xb0\xd3?"
p1369
tp1370
Rp1371
tp1372
a(S'mass'
p1373
g2
(g6
S'\xdfRQ\xd3\xe1\xa9\xd3?'
p1374
tp1375
Rp1376
tp1377
a(S'memory hole (disambiguation)'
p1378
g2
(g6
S'F\xd7\xca\xf5\xb9\xa1\xd3?'
p1379
tp1380
Rp1381
tp1382
a(S'golf (1980 video game)'
p1383
g2
(g6
S'\x95\n\xbe\xfb\x18\xa1\xd3?'
p1384
tp1385
Rp1386
tp1387
a(S'waterhole'
p1388
g2
(g6
S'\x89\x10\xcc\xa1\xb7\x9f\xd3?'
p1389
tp1390
Rp1391
tp1392
a(S'gro j1655-40'
p1393
g2
(g6
S'qC\x9c\xcb\xc8\x9e\xd3?'
p1394
tp1395
Rp1396
tp1397
a(S'gibbons\xe2\x80\x93hawking effect'
p1398
g2
(g6
S'\xb8\xe2\xaagi\x95\xd3?'
p1399
tp1400
Rp1401
tp1402
a(S'robert black'
p1403
g2
(g6
S'\x89y\x8a\xe9\x85\x93\xd3?'
p1404
tp1405
Rp1406
tp1407
a(S'andrew strominger'
p1408
g2
(g6
S'f\xab`\x8a8\x8e\xd3?'
p1409
tp1410
Rp1411
tp1412
a(S'black power'
p1413
g2
(g6
S'\x00\x01\xd0\xf2\x91\x89\xd3?'
p1414
tp1415
Rp1416
tp1417
a(S'cosmic censorship hypothesis'
p1418
g2
(g6
S'\x86E\xfd\x96\x1b\x89\xd3?'
p1419
tp1420
Rp1421
tp1422
a(S'samuel hole'
p1423
g2
(g6
S'.\xe3@\x8e\xb6x\xd3?'
p1424
tp1425
Rp1426
tp1427
a(S'pilot hole'
p1428
g2
(g6
S'=\x92ZF\x92q\xd3?'
p1429
tp1430
Rp1431
tp1432
a(S'ngc 1600'
p1433
g2
(g6
S'l\xd3\x89\x1cym\xd3?'
p1434
tp1435
Rp1436
tp1437
a(S'v4641 sagittarii'
p1438
g2
(g6
S'Xd-Cql\xd3?'
p1439
tp1440
Rp1441
tp1442
a(S'tolman\xe2\x80\x93oppenheimer\xe2\x80\x93volkoff limit'
p1443
g2
(g6
S'6\x8f\xc8P\xdeh\xd3?'
p1444
tp1445
Rp1446
tp1447
a(S'james black'
p1448
g2
(g6
S'C<\xcd \xcbc\xd3?'
p1449
tp1450
Rp1451
tp1452
a(S'lee smolin'
p1453
g2
(g6
S'-\x8e\xa5\x08\xa6]\xd3?'
p1454
tp1455
Rp1456
tp1457
a(S'glory hole (sexual slang)'
p1458
g2
(g6
S'\xb8\xc2\x9a\x84\xfdV\xd3?'
p1459
tp1460
Rp1461
tp1462
a(S'firestone country club'
p1463
g2
(g6
S'\xbd\xa3o\xf8KG\xd3?'
p1464
tp1465
Rp1466
tp1467
a(S'mass in general relativity'
p1468
g2
(g6
S' \x9aL+\x085\xd3?'
p1469
tp1470
Rp1471
tp1472
a(S'eater (novel)'
p1473
g2
(g6
S'bc\x87\xb5x3\xd3?'
p1474
tp1475
Rp1476
tp1477
a(S'down in a hole'
p1478
g2
(g6
S'e\xe7.\x1c\xa4)\xd3?'
p1479
tp1480
Rp1481
tp1482
a(S'two-body problem in general relativity'
p1483
g2
(g6
S'uC\xe4\x99\x8a\x1e\xd3?'
p1484
tp1485
Rp1486
tp1487
a(S'list of blaxploitation films'
p1488
g2
(g6
S'k\xe0\xe0\x1b\xf8\x1b\xd3?'
p1489
tp1490
Rp1491
tp1492
a(S'he fell into a dark hole'
p1493
g2
(g6
S'(j\xf2E\xf0\x18\xd3?'
p1494
tp1495
Rp1496
tp1497
a(S'hole-in-the-wall'
p1498
g2
(g6
S'\xb7Wz\x1f\xec\x12\xd3?'
p1499
tp1500
Rp1501
tp1502
a(S'devils hole (disambiguation)'
p1503
g2
(g6
S'\xa4<\x8e\xceL\x11\xd3?'
p1504
tp1505
Rp1506
tp1507
a(S'grb 110328a'
p1508
g2
(g6
S'\xe5W\xd7\xb5L\r\xd3?'
p1509
tp1510
Rp1511
tp1512
a.