(lp0
(S'blender (software)'
p1
cnumpy.core.multiarray
scalar
p2
(cnumpy
dtype
p3
(S'f8'
p4
I0
I1
tp5
Rp6
(I3
S'<'
p7
NNNI-1
I-1
I0
tp8
bS'\xfc\xff\xff\xff\xff\xff\xef?'
p9
tp10
Rp11
tp12
a(S'blender foundation'
p13
g2
(g6
S'\x87\xae\xb60\xb8\x94\xea?'
p14
tp15
Rp16
tp17
a(S'ton roosendaal'
p18
g2
(g6
S'^;\ns\xfe\xb0\xe9?'
p19
tp20
Rp21
tp22
a(S'blender (disambiguation)'
p23
g2
(g6
S'\xde\x13&>\xb7X\xe9?'
p24
tp25
Rp26
tp27
a(S'blender game engine'
p28
g2
(g6
S'\x0f\xa13}\xe4f\xe7?'
p29
tp30
Rp31
tp32
a(S'blender p2p'
p33
g2
(g6
S'\xa7\xaa\xe8\xcb\xffA\xe7?'
p34
tp35
Rp36
tp37
a(S'yo frankie!'
p38
g2
(g6
S'\xc1\x9d[m\xd3\x86\xe5?'
p39
tp40
Rp41
tp42
a(S'tears of steel'
p43
g2
(g6
S'\x0f\x1e`E\xedc\xe5?'
p44
tp45
Rp46
tp47
a(S'blender'
p48
g2
(g6
S'\xaf\x14\x1fg8\xed\xe4?'
p49
tp50
Rp51
tp52
a(S'sintel'
p53
g2
(g6
S'\xa7\x86\x02?\x87\x80\xe3?'
p54
tp55
Rp56
tp57
a(S'everton blender'
p58
g2
(g6
S'\x99\xd2\x13hH\xf7\xe2?'
p59
tp60
Rp61
tp62
a(S'cosmos laundromat'
p63
g2
(g6
S'\xbb\x1b\xdf\xcb@>\xe2?'
p64
tp65
Rp66
tp67
a(S'big buck bunny'
p68
g2
(g6
S'.\xb073\xb9,\xe2?'
p69
tp70
Rp71
tp72
a(S'blender (magazine)'
p73
g2
(g6
S'\xe1%Q\\\xa7\r\xe2?'
p74
tp75
Rp76
tp77
a(S'sintel the game'
p78
g2
(g6
S'O\xa8GgM\x95\xe1?'
p79
tp80
Rp81
tp82
a(S'immersion blender'
p83
g2
(g6
S'W\xbat\xee\xeao\xe1?'
p84
tp85
Rp86
tp87
a(S'elephants dream'
p88
g2
(g6
S'\xd3\x9a\xa8a(C\xe1?'
p89
tp90
Rp91
tp92
a(S'blender bros.'
p93
g2
(g6
S'\xda\x03\x14\x8a\x1e\xa7\xe0?'
p94
tp95
Rp96
tp97
a(S'blend4web'
p98
g2
(g6
S'D\xda\n;\x04c\xe0?'
p99
tp100
Rp101
tp102
a(S'open shading language'
p103
g2
(g6
S'O3\xb0\n7\x06\xdd?'
p104
tp105
Rp106
tp107
a(S'pastry blender'
p108
g2
(g6
S'\xda\xf9\xd9xy\x00\xdc?'
p109
tp110
Rp111
tp112
a(S'gravimetric blender'
p113
g2
(g6
S'\xfe\x92`q6\x1c\xda?'
p114
tp115
Rp116
tp117
a(S'freestyle (software)'
p118
g2
(g6
S'\xc6[\x1ca\xcf\x02\xda?'
p119
tp120
Rp121
tp122
a(S'yafaray'
p123
g2
(g6
S'\xffc\xaf\x9f\x96\xeb\xd9?'
p124
tp125
Rp126
tp127
a(S'osterizer'
p128
g2
(g6
S'\xef\xe9\xfb\xd4\xd4j\xd9?'
p129
tp130
Rp131
tp132
a(S'makehuman'
p133
g2
(g6
S'\x98\xcb\xb6Z\x8aj\xd9?'
p134
tp135
Rp136
tp137
a(S'blender (band)'
p138
g2
(g6
S'D\x9b1\xfa>\xaa\xd7?'
p139
tp140
Rp141
tp142
a(S'bge'
p143
g2
(g6
S'\xac\xe0m\x846\xc5\xd5?'
p144
tp145
Rp146
tp147
a(S'reflex\xc3\xb5es de um liquidificador'
p148
g2
(g6
S'\x9dRU\xc6`5\xd5?'
p149
tp150
Rp151
tp152
a(S'richard bell (record producer)'
p153
g2
(g6
S'O\xe0\xb9\x86\xeb\n\xd5?'
p154
tp155
Rp156
tp157
a(S'drqueue'
p158
g2
(g6
S'\xfa:\xe10\xcdU\xd4?'
p159
tp160
Rp161
tp162
a(S'moment of inspiration'
p163
g2
(g6
S'\xcd\x99\xd7\xd5\x01K\xd4?'
p164
tp165
Rp166
tp167
a(S'will it blend?'
p168
g2
(g6
S'3q\xd1r\xc7\xee\xd3?'
p169
tp170
Rp171
tp172
a(S'master blender'
p173
g2
(g6
S'Kb\xd9\xc0%\xce\xd3?'
p174
tp175
Rp176
tp177
a(S'who am i (katy b song)'
p178
g2
(g6
S'\xfctj\x04f\xc1\xd3?'
p179
tp180
Rp181
tp182
a(S'luxrender'
p183
g2
(g6
S'\xa35\x03\x19\x0f\x84\xd3?'
p184
tp185
Rp186
tp187
a(S'we built this city'
p188
g2
(g6
S'\x15\x03\xa2\xae\xeb\xe0\xd2?'
p189
tp190
Rp191
tp192
a(S'bamix'
p193
g2
(g6
S'\xc1\xf9\xd0\x8f"F\xd2?'
p194
tp195
Rp196
tp197
a(S'caminandes'
p198
g2
(g6
S')A\xedB\x88C\xd2?'
p199
tp200
Rp201
tp202
a(S'le monsieur, le vampire et ren\xc3\xa9e marcelle'
p203
g2
(g6
S'\xed\xc6\xeb>\xbd\xdd\xd1?'
p204
tp205
Rp206
tp207
a(S'list of 3d computer graphics software'
p208
g2
(g6
S'-\xec\x1c\xd30>\xd1?'
p209
tp210
Rp211
tp212
a(S'mobile 3d graphics api'
p213
g2
(g6
S'\x9b%0I\xeb<\xd1?'
p214
tp215
Rp216
tp217
a(S'vitamix'
p218
g2
(g6
S'\xc97\xfc\x1f8<\xd1?'
p219
tp220
Rp221
tp222
a(S'industrial mixer'
p223
g2
(g6
S'S\x9b^\x01E\x02\xd1?'
p224
tp225
Rp226
tp227
a(S'vertex painting'
p228
g2
(g6
S'{\xa4\xd1O\xb3\xe8\xd0?'
p229
tp230
Rp231
tp232
a(S'dennis digital'
p233
g2
(g6
S'\xb9\xa9\x1f\x1f{\xd1\xd0?'
p234
tp235
Rp236
tp237
a(S'fbx'
p238
g2
(g6
S'\xa2\x9f\xca\xc1j\xcc\xd0?'
p239
tp240
Rp241
tp242
a(S'pixie (renderer)'
p243
g2
(g6
S'.\xafXy>\xbe\xd0?'
p244
tp245
Rp246
tp247
a(S'dry blender'
p248
g2
(g6
S'\xd4\xca\xe0O\xc7\x8b\xd0?'
p249
tp250
Rp251
tp252
a(S'experience curiosity'
p253
g2
(g6
S'\x17\xeavK.T\xd0?'
p254
tp255
Rp256
tp257
a(S'create project'
p258
g2
(g6
S'W\xeer}?\xde\xcf?'
p259
tp260
Rp261
tp262
a(S'papagayo (software)'
p263
g2
(g6
S'?\x85\x02\x7f*\xb6\xcf?'
p264
tp265
Rp266
tp267
a(S'fluid animation'
p268
g2
(g6
S'\xdbu\xb6\xb55Q\xcf?'
p269
tp270
Rp271
tp272
a(S'blend'
p273
g2
(g6
S'\x8frX`V(\xcf?'
p274
tp275
Rp276
tp277
a(S'polygonal modeling'
p278
g2
(g6
S'=\xcd\xcf\xd7\x80\xc4\xce?'
p279
tp280
Rp281
tp282
a(S'youth (collective soul album)'
p283
g2
(g6
S'V9\x878:G\xce?'
p284
tp285
Rp286
tp287
a(S'alembic (computer graphics)'
p288
g2
(g6
S'\xf0:\x0c\x8f_\xde\xcd?'
p289
tp290
Rp291
tp292
a(S'kerkythea'
p293
g2
(g6
S'v9\xae\x04)\xc4\xcd?'
p294
tp295
Rp296
tp297
a(S'fireflies (computer graphics)'
p298
g2
(g6
S'u \x05\xb7\xa6\xa3\xcd?'
p299
tp300
Rp301
tp302
a(S'prom (album)'
p303
g2
(g6
S'\x1fy|\x0cH\x98\xcd?'
p304
tp305
Rp306
tp307
a(S'natalise'
p308
g2
(g6
S'\x0c\xe0\xc0\x82\x01R\xcd?'
p309
tp310
Rp311
tp312
a(S'milkshape 3d'
p313
g2
(g6
S'\xb6\xf0uv\xa9\n\xcd?'
p314
tp315
Rp316
tp317
a(S'live from knoxville'
p318
g2
(g6
S'\x9aGg%L\x08\xcd?'
p319
tp320
Rp321
tp322
a(S'rendering (computer graphics)'
p323
g2
(g6
S'\xd5\x01\xf5F\xd5\xe7\xcc?'
p324
tp325
Rp326
tp327
a(S'bullet (software)'
p328
g2
(g6
S'GO\xb0%\xc7\xe7\xcc?'
p329
tp330
Rp331
tp332
a(S'mechanisto'
p333
g2
(g6
S"'\xb0;\xc97\xe4\xcc?"
p334
tp335
Rp336
tp337
a(S'truevision3d'
p338
g2
(g6
S'F\xa9\x1d\x8d\xe0\xb2\xcc?'
p339
tp340
Rp341
tp342
a(S'open-source film'
p343
g2
(g6
S'\xb1$\x0fK\xee\xaa\xcc?'
p344
tp345
Rp346
tp347
a(S'blender (the murmurs album)'
p348
g2
(g6
S'NU\x86J4\x97\xcc?'
p349
tp350
Rp351
tp352
a(S'blendwerk antikunst (ep)'
p353
g2
(g6
S'9\xdf\xdb2\xd0^\xcc?'
p354
tp355
Rp356
tp357
a(S'the missing scarf'
p358
g2
(g6
S'\x05:\x9eU\xf5>\xcc?'
p359
tp360
Rp361
tp362
a(S'renderman interface specification'
p363
g2
(g6
S'77[DbJ\xcb?'
p364
tp365
Rp366
tp367
a(S'iclone'
p368
g2
(g6
S'\x1f\xb8;\xbb\x85"\xcb?'
p369
tp370
Rp371
tp372
a(S'collada'
p373
g2
(g6
S'n\xa6i\xba\xa5\xe8\xca?'
p374
tp375
Rp376
tp377
a(S'oscar alvarado'
p378
g2
(g6
S']\xfc`\xb5\xb3\xd0\xca?'
p379
tp380
Rp381
tp382
a(S'uv mapping'
p383
g2
(g6
S'\xd1u\xd0e\xd6\xa1\xca?'
p384
tp385
Rp386
tp387
a(S'gender blender'
p388
g2
(g6
S'\xb3\x06\xd2\x06\x00\x8b\xca?'
p389
tp390
Rp391
tp392
a(S'vent (song)'
p393
g2
(g6
S'|\x0f\xd5\x1f\xbb\x86\xca?'
p394
tp395
Rp396
tp397
a(S'open asset import library'
p398
g2
(g6
S'\x91\x967`\xecj\xca?'
p399
tp400
Rp401
tp402
a(S'sculpted prim'
p403
g2
(g6
S'(\xa5\x93\xe1\x14g\xca?'
p404
tp405
Rp406
tp407
a(S'winlibre'
p408
g2
(g6
S'3n@\x9b\xce=\xca?'
p409
tp410
Rp411
tp412
a(S'wings 3d'
p413
g2
(g6
S'\x94\x80v)\x0c9\xca?'
p414
tp415
Rp416
tp417
a(S'frameserver'
p418
g2
(g6
S'\x11m\xe0\xf6\x111\xca?'
p419
tp420
Rp421
tp422
a(S'truespace'
p423
g2
(g6
S'\xc9\xe6tAW\x1d\xca?'
p424
tp425
Rp426
tp427
a(S'fusionforge'
p428
g2
(g6
S'\xbd\x16{\x953\x11\xca?'
p429
tp430
Rp431
tp432
a(S'software rendering'
p433
g2
(g6
S'\xeb=\x04\x16\x86\xf0\xc9?'
p434
tp435
Rp436
tp437
a(S'v-ray'
p438
g2
(g6
S'\xec9\xe8,\xa6\xe0\xc9?'
p439
tp440
Rp441
tp442
a(S'3d rendering'
p443
g2
(g6
S'\xc3\xaa\x98\x90\x8b\xe0\xc9?'
p444
tp445
Rp446
tp447
a(S'biovision hierarchy'
p448
g2
(g6
S'o\x95c\xc0\x96\xbb\xc9?'
p449
tp450
Rp451
tp452
a(S'sculptris'
p453
g2
(g6
S'\xa8A\xee{\xb0\x8e\xc9?'
p454
tp455
Rp456
tp457
a(S'magic bullet (appliance)'
p458
g2
(g6
S'\xe6n\x9f\x86\xfd\x8a\xc9?'
p459
tp460
Rp461
tp462
a(S'web3d'
p463
g2
(g6
S'\xa2\xf5\x0e\x94X\x89\xc9?'
p464
tp465
Rp466
tp467
a(S'suzanne award'
p468
g2
(g6
S'=4a+\x93s\xc9?'
p469
tp470
Rp471
tp472
a(S'3d modeling'
p473
g2
(g6
S'\t\x1d\xf1\x1e{k\xc9?'
p474
tp475
Rp476
tp477
a(S'why, pt. 2'
p478
g2
(g6
S'\x1e\x12^;Q3\xc9?'
p479
tp480
Rp481
tp482
a(S'zbrush'
p483
g2
(g6
S'\x06\xf3\t:\xb0\x1c\xc9?'
p484
tp485
Rp486
tp487
a(S'opendisc'
p488
g2
(g6
S' *\x9e\x04\xcc\xf0\xc8?'
p489
tp490
Rp491
tp492
a(S'3d computer graphics software'
p493
g2
(g6
S'\xd4\x93n`\x81\xdb\xc8?'
p494
tp495
Rp496
tp497
a(S'the essential earth, wind & fire'
p498
g2
(g6
S'\x17\x192P\x0e\xc8\xc8?'
p499
tp500
Rp501
tp502
a(S'natron (software)'
p503
g2
(g6
S'\x881\x8c\xb4^\xa4\xc8?'
p504
tp505
Rp506
tp507
a(S'comparison of 3d computer graphics software'
p508
g2
(g6
S'Q\nt\x9c\xdd\x87\xc8?'
p509
tp510
Rp511
tp512
a(S'soft-body dynamics'
p513
g2
(g6
S'\xf4\xb9\xd0e\xe8\x85\xc8?'
p514
tp515
Rp516
tp517
a(S'gmax'
p518
g2
(g6
S'\x80{\x9av\xb9*\xc8?'
p519
tp520
Rp521
tp522
a(S'big and ugly rendering project'
p523
g2
(g6
S'\x85G\x16d\x8d$\xc8?'
p524
tp525
Rp526
tp527
a(S'tableting'
p528
g2
(g6
S'\x95\x05\x8a\xa8\xa5\xea\xc7?'
p529
tp530
Rp531
tp532
a(S'method of focal objects'
p533
g2
(g6
S'kmQ\x81\x1d\xdc\xc7?'
p534
tp535
Rp536
tp537
a(S'ultimate chopper'
p538
g2
(g6
S'\x1c>\xcdk\xfa\xd7\xc7?'
p539
tp540
Rp541
tp542
a(S'openscenegraph'
p543
g2
(g6
S'4\xfaL{\x98\xb4\xc7?'
p544
tp545
Rp546
tp547
a(S'passport scotch'
p548
g2
(g6
S'q\xca[\xda\xa6\xb2\xc7?'
p549
tp550
Rp551
tp552
a(S'form-z'
p553
g2
(g6
S'x\x14\x9d\x8e\xa1\x98\xc7?'
p554
tp555
Rp556
tp557
a(S'irrlicht engine'
p558
g2
(g6
S'\x94\xf3u\x04\xcc\x84\xc7?'
p559
tp560
Rp561
tp562
a(S'mos presents'
p563
g2
(g6
S'\x84\x99\xd23\\b\xc7?'
p564
tp565
Rp566
tp567
a(S'andy council'
p568
g2
(g6
S'\xa11\t\xef\x052\xc7?'
p569
tp570
Rp571
tp572
a(S'grimskunk plays... fatal illness'
p573
g2
(g6
S'\xc6$\xcd/\xcc/\xc7?'
p574
tp575
Rp576
tp577
a(S'lightwave 3d'
p578
g2
(g6
S'\x8d\xe8\xf0\xbdy\x19\xc7?'
p579
tp580
Rp581
tp582
a(S'the murmurs'
p583
g2
(g6
S'\x0c?\xe8\xad%\xea\xc6?'
p584
tp585
Rp586
tp587
a(S'raylectron'
p588
g2
(g6
S'\xcb!P\xde\xa6\xb1\xc6?'
p589
tp590
Rp591
tp592
a(S'cinema 4d'
p593
g2
(g6
S'\xebRE\xa0\t\xaa\xc6?'
p594
tp595
Rp596
tp597
a(S'mypaint'
p598
g2
(g6
S'\xcd\xd3\x84\xaa\xd9\xa5\xc6?'
p599
tp600
Rp601
tp602
a(S'kittens for christian'
p603
g2
(g6
S'\xf22S\xe1O\x94\xc6?'
p604
tp605
Rp606
tp607
a(S'de/vision'
p608
g2
(g6
S'\x12\x1f4\x8d\xf0\x87\xc6?'
p609
tp610
Rp611
tp612
a(S'open game engine exchange'
p613
g2
(g6
S'\xd1\xe8\xfd,\x89~\xc6?'
p614
tp615
Rp616
tp617
a(S'compositing software'
p618
g2
(g6
S"6\xef'3=X\xc6?"
p619
tp620
Rp621
tp622
a(S'dough blender'
p623
g2
(g6
S'\x86\xf4D,\x8dU\xc6?'
p624
tp625
Rp626
tp627
a(S'polygon mesh'
p628
g2
(g6
S'\xce\xd3\xefK\x1c:\xc6?'
p629
tp630
Rp631
tp632
a(S'strata 3d'
p633
g2
(g6
S'\nU\xd1\xc9(7\xc6?'
p634
tp635
Rp636
tp637
a(S'voxel'
p638
g2
(g6
S'\xf9\xd4\x02\xdf\xce\x17\xc6?'
p639
tp640
Rp641
tp642
a(S'phabricator'
p643
g2
(g6
S"'b\xcd\xd2W\t\xc6?"
p644
tp645
Rp646
tp647
a(S'selig (band)'
p648
g2
(g6
S'\x8dJK9\x9e\xfd\xc5?'
p649
tp650
Rp651
tp652
a(S'x3d'
p653
g2
(g6
S'\xec\xd6wN\xa0\xf0\xc5?'
p654
tp655
Rp656
tp657
a(S'metal machine trio'
p658
g2
(g6
S'Yi\x88T~\xec\xc5?'
p659
tp660
Rp661
tp662
a(S'openfoam'
p663
g2
(g6
S'[\x90hQ7\xdb\xc5?'
p664
tp665
Rp666
tp667
a(S'photoworks (ray tracing software)'
p668
g2
(g6
S'\x13S\xc5.(\xd2\xc5?'
p669
tp670
Rp671
tp672
a(S'c4 engine'
p673
g2
(g6
S'S\xe7\x9e\xd6\xe9\xcf\xc5?'
p674
tp675
Rp676
tp677
a(S'render'
p678
g2
(g6
S'Y\xc4@\xd07\xcb\xc5?'
p679
tp680
Rp681
tp682
a(S'lay it down (al green album)'
p683
g2
(g6
S'@\xc3\xf9:\xab\xbb\xc5?'
p684
tp685
Rp686
tp687
a(S'volume rendering'
p688
g2
(g6
S'\xb5\x8c\xd0\x90>\xa0\xc5?'
p689
tp690
Rp691
tp692
a(S'bse'
p693
g2
(g6
S'\x1f\x8b\xe7\x06S\x95\xc5?'
p694
tp695
Rp696
tp697
a(S'subsurface scattering'
p698
g2
(g6
S'\xa2\x82U<\xc7\x91\xc5?'
p699
tp700
Rp701
tp702
a(S'list of 3d animation software'
p703
g2
(g6
S'\x01\xfe\xc3z.\x87\xc5?'
p704
tp705
Rp706
tp707
a(S'plum\xc3\xadferos'
p708
g2
(g6
S'\x8d\xc1\x94\xb8\xbe\x83\xc5?'
p709
tp710
Rp711
tp712
a(S'suzanne'
p713
g2
(g6
S'.qY\xfej\x83\xc5?'
p714
tp715
Rp716
tp717
a(S'motion graphics'
p718
g2
(g6
S't|\xaa\xb4\x8a}\xc5?'
p719
tp720
Rp721
tp722
a(S'coquito'
p723
g2
(g6
S'\xc6h\x98\xa04w\xc5?'
p724
tp725
Rp726
tp727
a(S'path tracing'
p728
g2
(g6
S'\x8es\xb6a\xb5B\xc5?'
p729
tp730
Rp731
tp732
a(S'coffee cabinet'
p733
g2
(g6
S'1\xf4\xa6\x07$@\xc5?'
p734
tp735
Rp736
tp737
a(S'david stewart (master blender)'
p738
g2
(g6
S'\n\xd3C\x10\xa8=\xc5?'
p739
tp740
Rp741
tp742
a(S'history of computer animation'
p743
g2
(g6
S'\x12\xe3[ \x9d6\xc5?'
p744
tp745
Rp746
tp747
a(S'blender (collective soul album)'
p748
g2
(g6
S"\x11\xf1<T\x91'\xc5?"
p749
tp750
Rp751
tp752
a(S'big bunny'
p753
g2
(g6
S'\xbf\xd1\x8a:v#\xc5?'
p754
tp755
Rp756
tp757
a(S'digital sculpting'
p758
g2
(g6
S'\xd9\xccM\xb9\xe8 \xc5?'
p759
tp760
Rp761
tp762
a(S'locked by land'
p763
g2
(g6
S'g\xbe.\x92\x1d\x0e\xc5?'
p764
tp765
Rp766
tp767
a(S'direct3d'
p768
g2
(g6
S'\xe9\x90pb\xbd\xf0\xc4?'
p769
tp770
Rp771
tp772
a(S'orx'
p773
g2
(g6
S'\xeb\x9f\x15J<\xe2\xc4?'
p774
tp775
Rp776
tp777
a(S'spatial twist continuum'
p778
g2
(g6
S'\x9c\x95\xac\xcbR\xdf\xc4?'
p779
tp780
Rp781
tp782
a(S'autodesk 3ds max'
p783
g2
(g6
S'\xc1>8\xac\xfe\xd3\xc4?'
p784
tp785
Rp786
tp787
a(S'away3d'
p788
g2
(g6
S'\nqVpx\xc7\xc4?'
p789
tp790
Rp791
tp792
a(S'shading language'
p793
g2
(g6
S';!\xdd\x82V\xc4\xc4?'
p794
tp795
Rp796
tp797
a(S'mikumikudance'
p798
g2
(g6
S'\xefI\x1a\x07$\xc2\xc4?'
p799
tp800
Rp801
tp802
a(S'soya3d'
p803
g2
(g6
S'\xd8\xe8\x95\xcdh\x95\xc4?'
p804
tp805
Rp806
tp807
a(S'computer graphics'
p808
g2
(g6
S'\xe8\xf7\xd0y`\x8f\xc4?'
p809
tp810
Rp811
tp812
a(S'never got caught'
p813
g2
(g6
S'\xbfm\xd2\xa9;\x89\xc4?'
p814
tp815
Rp816
tp817
a(S'skeletal animation'
p818
g2
(g6
S'\xa4y\x7f\xe7\xd1x\xc4?'
p819
tp820
Rp821
tp822
a(S'softimage (company)'
p823
g2
(g6
S'\t:q\xf8\xa4n\xc4?'
p824
tp825
Rp826
tp827
a(S'non-photorealistic rendering'
p828
g2
(g6
S'\x95\x92Ny3i\xc4?'
p829
tp830
Rp831
tp832
a(S'ben sisario'
p833
g2
(g6
S'\xe3*3\xec\xd7`\xc4?'
p834
tp835
Rp836
tp837
a(S'list of ray tracing software'
p838
g2
(g6
S'\xe80l\xf4\x9aY\xc4?'
p839
tp840
Rp841
tp842
a(S'tupi (software)'
p843
g2
(g6
S'\x8b\xb0F\xd2UI\xc4?'
p844
tp845
Rp846
tp847
a(S'crystal space'
p848
g2
(g6
S'1\x03a-\xc0?\xc4?'
p849
tp850
Rp851
tp852
a(S'webgl'
p853
g2
(g6
S'\xc1\xfb\\\xb0\x9b6\xc4?'
p854
tp855
Rp856
tp857
a(S'windows presentation foundation'
p858
g2
(g6
S'nh\x01\xf0\xf8/\xc4?'
p859
tp860
Rp861
tp862
a(S'octane render'
p863
g2
(g6
S'\xa6\xcdbAx/\xc4?'
p864
tp865
Rp866
tp867
a(S'yiik: a postmodern rpg'
p868
g2
(g6
S'<u\xeea-%\xc4?'
p869
tp870
Rp871
tp872
a(S'andrew diamond'
p873
g2
(g6
S'(\xc3C\xde`\x1d\xc4?'
p874
tp875
Rp876
tp877
a(S'swiss lemonade'
p878
g2
(g6
S'\xfb\xe8F\xf5\xaf\x14\xc4?'
p879
tp880
Rp881
tp882
a(S'threshold pledge system'
p883
g2
(g6
S'E\xb2z\xe4V\x14\xc4?'
p884
tp885
Rp886
tp887
a(S'surrender to the blender'
p888
g2
(g6
S'\xe4*xLN\x07\xc4?'
p889
tp890
Rp891
tp892
a(S'first-person shooter engine'
p893
g2
(g6
S'E\x81H\xd5\xf2\x04\xc4?'
p894
tp895
Rp896
tp897
a(S'rob sheffield'
p898
g2
(g6
S'\x9a\xfft\x8b\xb5\x01\xc4?'
p899
tp900
Rp901
tp902
a(S'zmodeler'
p903
g2
(g6
S'gJy\xa9F\xf4\xc3?'
p904
tp905
Rp906
tp907
a(S'game integrated development environment'
p908
g2
(g6
S'\x01\x96\xd7\xb1^\xee\xc3?'
p909
tp910
Rp911
tp912
a(S'physics engine'
p913
g2
(g6
S'\xcb\xc4c\x99\x9e\xea\xc3?'
p914
tp915
Rp916
tp917
a(S'boast (disambiguation)'
p918
g2
(g6
S'\xa4Dzq\x90\xe6\xc3?'
p919
tp920
Rp921
tp922
a(S'ingen utan mig'
p923
g2
(g6
S'{8\xd3\xa3\xcb\xde\xc3?'
p924
tp925
Rp926
tp927
a(S'dennis publishing'
p928
g2
(g6
S'\x9c)\xcc\x97\xde\xc2\xc3?'
p929
tp930
Rp931
tp932
a(S'pose space deformation'
p933
g2
(g6
S' \xaa4T\x02\xba\xc3?'
p934
tp935
Rp936
tp937
a(S'renderman (software)'
p938
g2
(g6
S'*\xfe2\x90`\xb0\xc3?'
p939
tp940
Rp941
tp942
a(S'the loudness of sam'
p943
g2
(g6
S'\x19(\n\xe5p\xac\xc3?'
p944
tp945
Rp946
tp947
a(S'realsoft 3d'
p948
g2
(g6
S'\x16v\x81Z\x03\xa8\xc3?'
p949
tp950
Rp951
tp952
a(S'paul adams (cricketer)'
p953
g2
(g6
S'\x1c\xf2\xd7F\xf7\x96\xc3?'
p954
tp955
Rp956
tp957
a(S'opencd'
p958
g2
(g6
S'F_\xd2\xdb\x89\x8f\xc3?'
p959
tp960
Rp961
tp962
a(S'copperlicht'
p963
g2
(g6
S'\x80\xcc\xf3r\xbf\x8d\xc3?'
p964
tp965
Rp966
tp967
a(S'gamestudio'
p968
g2
(g6
S'.\x15\x18\x8c\x1bx\xc3?'
p969
tp970
Rp971
tp972
a(S'game engine'
p973
g2
(g6
S'8\xc7UH\xd5r\xc3?'
p974
tp975
Rp976
tp977
a(S'artistic rendering'
p978
g2
(g6
S'S\x06\xb8)\x8ck\xc3?'
p979
tp980
Rp981
tp982
a(S'cryengine'
p983
g2
(g6
S'!{k\xfa\x8fg\xc3?'
p984
tp985
Rp986
tp987
a(S'larry carroll (artist)'
p988
g2
(g6
S';*\x9c\xc9\t[\xc3?'
p989
tp990
Rp991
tp992
a(S'mesh (disambiguation)'
p993
g2
(g6
S'\xdd\xed\xd5\xec\x14U\xc3?'
p994
tp995
Rp996
tp997
a(S'grome'
p998
g2
(g6
S'#\xa1[WpD\xc3?'
p999
tp1000
Rp1001
tp1002
a(S'murnau the vampire'
p1003
g2
(g6
S'\x96\xcc\xe23\x866\xc3?'
p1004
tp1005
Rp1006
tp1007
a(S'oak3d'
p1008
g2
(g6
S'2\xf3\x92\x1aE5\xc3?'
p1009
tp1010
Rp1011
tp1012
a(S'panta rhei (game engine)'
p1013
g2
(g6
S'\xa3\xe4\x80\xfd70\xc3?'
p1014
tp1015
Rp1016
tp1017
a(S'3d computer graphics'
p1018
g2
(g6
S'\xb0\x02\xabC (\xc3?'
p1019
tp1020
Rp1021
tp1022
a(S'list of free and open-source software packages'
p1023
g2
(g6
S'\xe73\xd9\xb5S \xc3?'
p1024
tp1025
Rp1026
tp1027
a(S'list of opencl applications'
p1028
g2
(g6
S'Tq\xf6\xd5X\x17\xc3?'
p1029
tp1030
Rp1031
tp1032
a(S'maxwell render'
p1033
g2
(g6
S'Ca\xfc\x88\x83\x07\xc3?'
p1034
tp1035
Rp1036
tp1037
a(S'massive (software)'
p1038
g2
(g6
S'\x03 \xa0\x8a\xd0\x06\xc3?'
p1039
tp1040
Rp1041
tp1042
a(S'after all'
p1043
g2
(g6
S' \xa6\xab\x8e\x0f\xfa\xc2?'
p1044
tp1045
Rp1046
tp1047
a(S'otoy'
p1048
g2
(g6
S'U\xd7-\x97{\xf4\xc2?'
p1049
tp1050
Rp1051
tp1052
a(S'mesh generation'
p1053
g2
(g6
S'h\xa4Y\xe6\xca\xe5\xc2?'
p1054
tp1055
Rp1056
tp1057
a(S'physx'
p1058
g2
(g6
S'e\x15o\xc4s\xe4\xc2?'
p1059
tp1060
Rp1061
tp1062
a(S'autodesk softimage'
p1063
g2
(g6
S'3\xe3\xeb4\xf6\xda\xc2?'
p1064
tp1065
Rp1066
tp1067
a(S'node graph architecture'
p1068
g2
(g6
S'\x14\xa7\xe0\x08\x83\xd6\xc2?'
p1069
tp1070
Rp1071
tp1072
a(S'inkscape'
p1073
g2
(g6
S'sU\x8c\x970\xcd\xc2?'
p1074
tp1075
Rp1076
tp1077
a(S'shadertoy'
p1078
g2
(g6
S'\xd8\x05\xf1\xe2s\xbb\xc2?'
p1079
tp1080
Rp1081
tp1082
a(S'shared mesh'
p1083
g2
(g6
S'T\xc7\x99\x13\xa5\xb8\xc2?'
p1084
tp1085
Rp1086
tp1087
a(S'imagevis3d'
p1088
g2
(g6
S'\xf0.,\xdcp\xb5\xc2?'
p1089
tp1090
Rp1091
tp1092
a(S'mesh networking'
p1093
g2
(g6
S'\x01X\xacg$\xb2\xc2?'
p1094
tp1095
Rp1096
tp1097
a(S'matt pharr'
p1098
g2
(g6
S'J\xe1\x97\xe4\x8e\x9c\xc2?'
p1099
tp1100
Rp1101
tp1102
a(S'voreen'
p1103
g2
(g6
S')\xaa_\xd0|\x9a\xc2?'
p1104
tp1105
Rp1106
tp1107
a(S'graphics processing unit'
p1108
g2
(g6
S'z\xb2\xed\xd6\xb8\x8e\xc2?'
p1109
tp1110
Rp1111
tp1112
a(S'general-purpose computing on graphics processing units'
p1113
g2
(g6
S'/E\xb1\\\xe0\x87\xc2?'
p1114
tp1115
Rp1116
tp1117
a(S'element 3d'
p1118
g2
(g6
S'S\x04u\xfe\xa4w\xc2?'
p1119
tp1120
Rp1121
tp1122
a(S'adobe after effects'
p1123
g2
(g6
S'\x86K9\x06gu\xc2?'
p1124
tp1125
Rp1126
tp1127
a(S'electric image animation system'
p1128
g2
(g6
S'h\x1f\xc0\x96\xb9r\xc2?'
p1129
tp1130
Rp1131
tp1132
a(S'e-on vue'
p1133
g2
(g6
S'P\xd6fK\x86o\xc2?'
p1134
tp1135
Rp1136
tp1137
a(S'panda3d'
p1138
g2
(g6
S'\xba\xa4El\x05n\xc2?'
p1139
tp1140
Rp1141
tp1142
a(S'dimension (song)'
p1143
g2
(g6
S'\xf3\xbaj\xc2\x02m\xc2?'
p1144
tp1145
Rp1146
tp1147
a(S'synfig'
p1148
g2
(g6
S'\xdc/@U\x8aV\xc2?'
p1149
tp1150
Rp1151
tp1152
a(S'tiled rendering'
p1153
g2
(g6
S'\xe0?\xaa\r\xdaU\xc2?'
p1154
tp1155
Rp1156
tp1157
a(S'polygon soup'
p1158
g2
(g6
S'\xfb\xcbz\xa32Q\xc2?'
p1159
tp1160
Rp1161
tp1162
a(S'tom gerhardt'
p1163
g2
(g6
S'\x9ak{8\xe3K\xc2?'
p1164
tp1165
Rp1166
tp1167
a(S'particle system'
p1168
g2
(g6
S'M\xe0\x00\xf1\x88I\xc2?'
p1169
tp1170
Rp1171
tp1172
a(S'softimage 3d'
p1173
g2
(g6
S'C\x86\xb4\x02\x14G\xc2?'
p1174
tp1175
Rp1176
tp1177
a(S'freecad'
p1178
g2
(g6
S'\x01\xba\xfe\xc1\x9a/\xc2?'
p1179
tp1180
Rp1181
tp1182
a(S'verse protocol'
p1183
g2
(g6
S'\xa8\x8dR\x9e\x91\x1d\xc2?'
p1184
tp1185
Rp1186
tp1187
a(S'list of computer simulation software'
p1188
g2
(g6
S'\x97\x9e\xb3\x14\x00\x12\xc2?'
p1189
tp1190
Rp1191
tp1192
a(S'godot (game engine)'
p1193
g2
(g6
S'\xee\tQd\x11\x0f\xc2?'
p1194
tp1195
Rp1196
tp1197
a(S'parallel rendering'
p1198
g2
(g6
S'\xfcDD\xad \x02\xc2?'
p1199
tp1200
Rp1201
tp1202
a(S'houdini (software)'
p1203
g2
(g6
S'\xc8\xdb+\x03\x11\xf3\xc1?'
p1204
tp1205
Rp1206
tp1207
a(S'physically based animation'
p1208
g2
(g6
S'8;\x1b\x98:\xe9\xc1?'
p1209
tp1210
Rp1211
tp1212
a(S'nurms'
p1213
g2
(g6
S'`\xfa\xde\x81\xa4\xdb\xc1?'
p1214
tp1215
Rp1216
tp1217
a(S'unigine'
p1218
g2
(g6
S'H\x90\x8d\t\xb9\xd9\xc1?'
p1219
tp1220
Rp1221
tp1222
a(S'gameswf'
p1223
g2
(g6
S'c\x0cJT\xf0\xcf\xc1?'
p1224
tp1225
Rp1226
tp1227
a(S'in tv (albania)'
p1228
g2
(g6
S'<#\xd7Ic\xc8\xc1?'
p1229
tp1230
Rp1231
tp1232
a(S'reversion (2012 film)'
p1233
g2
(g6
S'g\x03\x11M\xe4\xbe\xc1?'
p1234
tp1235
Rp1236
tp1237
a(S'anatomography'
p1238
g2
(g6
S'\xb7\x89\xc3m\x97\xbc\xc1?'
p1239
tp1240
Rp1241
tp1242
a(S'free-form deformation'
p1243
g2
(g6
S'\xb9\x96%\xfe\x98\xa8\xc1?'
p1244
tp1245
Rp1246
tp1247
a(S'cheetah3d'
p1248
g2
(g6
S'\x10\xfd\x08\xf8\x12\xa4\xc1?'
p1249
tp1250
Rp1251
tp1252
a(S"ricky's hand"
p1253
g2
(g6
S'"\r 1M\x9c\xc1?'
p1254
tp1255
Rp1256
tp1257
a(S'margaritaville (south park)'
p1258
g2
(g6
S'\x8f&\xfa\x99\xf7\x90\xc1?'
p1259
tp1260
Rp1261
tp1262
a(S'comparison of video editing software'
p1263
g2
(g6
S'U\x94}\x14\xa4\x90\xc1?'
p1264
tp1265
Rp1266
tp1267
a(S'gameplay (game engine)'
p1268
g2
(g6
S'\x05\xb8Z]G\x8e\xc1?'
p1269
tp1270
Rp1271
tp1272
a(S'heartbeat records'
p1273
g2
(g6
S'%\x08\xad\x1d\x14\x8a\xc1?'
p1274
tp1275
Rp1276
tp1277
a(S'cloudcompare'
p1278
g2
(g6
S'\xb4D>&T\x83\xc1?'
p1279
tp1280
Rp1281
tp1282
a(S'computer-generated imagery'
p1283
g2
(g6
S'\xe5\x95N+\xe5\x81\xc1?'
p1284
tp1285
Rp1286
tp1287
a(S'esperient creator'
p1288
g2
(g6
S'o\xb4\xdb\xca(\x81\xc1?'
p1289
tp1290
Rp1291
tp1292
a(S'computer graphics (computer science)'
p1293
g2
(g6
S'\x80\x0e0<\xdb\x7f\xc1?'
p1294
tp1295
Rp1296
tp1297
a(S'list of rendering apis'
p1298
g2
(g6
S'\xf5\x9e\xcc\x93\xfdy\xc1?'
p1299
tp1300
Rp1301
tp1302
a(S'tessellation (computer graphics)'
p1303
g2
(g6
S'\x1c\x97R\xca\xf1b\xc1?'
p1304
tp1305
Rp1306
tp1307
a(S'storm (ice cream)'
p1308
g2
(g6
S'4\xa3\x19\x17K`\xc1?'
p1309
tp1310
Rp1311
tp1312
a(S'direct2d'
p1313
g2
(g6
S'%\x91\x08\xe0HW\xc1?'
p1314
tp1315
Rp1316
tp1317
a(S'meshlab'
p1318
g2
(g6
S'\x93Hy\xba\xa3U\xc1?'
p1319
tp1320
Rp1321
tp1322
a(S'openal'
p1323
g2
(g6
S'>$6\xc4\xbcO\xc1?'
p1324
tp1325
Rp1326
tp1327
a(S'twinity'
p1328
g2
(g6
S'k\x9e\xa2\x95\xdfD\xc1?'
p1329
tp1330
Rp1331
tp1332
a(S'switched mesh'
p1333
g2
(g6
S'\x9b\xed:_\xd3=\xc1?'
p1334
tp1335
Rp1336
tp1337
a(S'list of 3d modeling software'
p1338
g2
(g6
S'<\xdb\xed\x1d\xc05\xc1?'
p1339
tp1340
Rp1341
tp1342
a(S'computer graphics lighting'
p1343
g2
(g6
S'\x85\xe1\x1e\x18\xb41\xc1?'
p1344
tp1345
Rp1346
tp1347
a(S'catmull\xe2\x80\x93clark subdivision surface'
p1348
g2
(g6
S'\xb1\x85d\x13\xa00\xc1?'
p1349
tp1350
Rp1351
tp1352
a(S'monument with standing beast'
p1353
g2
(g6
S'\x9e<m`80\xc1?'
p1354
tp1355
Rp1356
tp1357
a(S'optix'
p1358
g2
(g6
S'\x96Ij\xd4\xbd/\xc1?'
p1359
tp1360
Rp1361
tp1362
a(S'mediagoblin'
p1363
g2
(g6
S'\xb1$\xb8\xadj,\xc1?'
p1364
tp1365
Rp1366
tp1367
a(S'robotics simulator'
p1368
g2
(g6
S'v\x8b$C\x7f*\xc1?'
p1369
tp1370
Rp1371
tp1372
a(S'dalwhinnie distillery'
p1373
g2
(g6
S'L\xf8f\xb2\xce)\xc1?'
p1374
tp1375
Rp1376
tp1377
a(S'immediate mode (computer graphics)'
p1378
g2
(g6
S"\xd8\xd2\x8as\x0b'\xc1?"
p1379
tp1380
Rp1381
tp1382
a(S'stephen holden'
p1383
g2
(g6
S'\xb5%61\x0c&\xc1?'
p1384
tp1385
Rp1386
tp1387
a(S'visualization library'
p1388
g2
(g6
S'\n\xb4\x7f\xbc2"\xc1?'
p1389
tp1390
Rp1391
tp1392
a(S'mesh'
p1393
g2
(g6
S'\xd97\xa5(\xa9 \xc1?'
p1394
tp1395
Rp1396
tp1397
a(S's3 virge'
p1398
g2
(g6
S'\x13AgSJ\x1c\xc1?'
p1399
tp1400
Rp1401
tp1402
a(S'simulation video game'
p1403
g2
(g6
S'\x92\xc6\xd6\x8d\xad\x18\xc1?'
p1404
tp1405
Rp1406
tp1407
a(S'phigs'
p1408
g2
(g6
S'\x10\xa3G:d\x16\xc1?'
p1409
tp1410
Rp1411
tp1412
a(S'sketchfab'
p1413
g2
(g6
S'\xfdb#\xfe\xea\x14\xc1?'
p1414
tp1415
Rp1416
tp1417
a(S'id tech 3'
p1418
g2
(g6
S'\x14\x84}\x0f|\x12\xc1?'
p1419
tp1420
Rp1421
tp1422
a(S'gelato (software)'
p1423
g2
(g6
S'a\x85\xe2\xba\xf7\x07\xc1?'
p1424
tp1425
Rp1426
tp1427
a(S'retained mode'
p1428
g2
(g6
S'\x96<\x10\xc1A\xf8\xc0?'
p1429
tp1430
Rp1431
tp1432
a(S'multiple render targets'
p1433
g2
(g6
S'\xc7n\x94\xde\xc5\xf7\xc0?'
p1434
tp1435
Rp1436
tp1437
a(S'windows display driver model'
p1438
g2
(g6
S'\x9edw\x00d\xf2\xc0?'
p1439
tp1440
Rp1441
tp1442
a(S'libe goad'
p1443
g2
(g6
S"'\x1a8\x97\xd0\xee\xc0?"
p1444
tp1445
Rp1446
tp1447
a(S'avena (drink)'
p1448
g2
(g6
S'\xdd[VU\xad\xe9\xc0?'
p1449
tp1450
Rp1451
tp1452
a(S'stage3d'
p1453
g2
(g6
S'n\xff\xe0\xb9"\xdd\xc0?'
p1454
tp1455
Rp1456
tp1457
a(S'shader'
p1458
g2
(g6
S'\xa6\x93\xe8(\x0e\xcf\xc0?'
p1459
tp1460
Rp1461
tp1462
a(S'semiconductor process simulation'
p1463
g2
(g6
S'\xdfL\xafXL\xc8\xc0?'
p1464
tp1465
Rp1466
tp1467
a(S'seven year itch (collective soul album)'
p1468
g2
(g6
S'sR\x1f\xe8\xe3\xc6\xc0?'
p1469
tp1470
Rp1471
tp1472
a(S'list of beos programs'
p1473
g2
(g6
S'%\x02*\x9e\xb2\xc6\xc0?'
p1474
tp1475
Rp1476
tp1477
a(S'desktop window manager'
p1478
g2
(g6
S'c\xd6\xf7\x04T\xc6\xc0?'
p1479
tp1480
Rp1481
tp1482
a(S'the advanced visualizer'
p1483
g2
(g6
S'\n\x18\xad\xe6\xe7\xc4\xc0?'
p1484
tp1485
Rp1486
tp1487
a(S'chelovek protiv mukhi'
p1488
g2
(g6
S'c\xad\xf5\xd6:\xc2\xc0?'
p1489
tp1490
Rp1491
tp1492
a(S'ieee 802.11s'
p1493
g2
(g6
S'\xe5Y\x0b\xd9\xe3\xc0\xc0?'
p1494
tp1495
Rp1496
tp1497
a(S'mupdf'
p1498
g2
(g6
S'\r\xbe\x90I\xb3\xbf\xc0?'
p1499
tp1500
Rp1501
tp1502
a(S'architectural animation'
p1503
g2
(g6
S'\xde\x80\xd7\xfc\x1b\xbb\xc0?'
p1504
tp1505
Rp1506
tp1507
a(S'lip trick'
p1508
g2
(g6
S'\x8bu\x83\x12E\xaf\xc0?'
p1509
tp1510
Rp1511
tp1512
a.