(lp0
(S'category theory'
p1
cnumpy.core.multiarray
scalar
p2
(cnumpy
dtype
p3
(S'f8'
p4
I0
I1
tp5
Rp6
(I3
S'<'
p7
NNNI-1
I-1
I0
tp8
bS'\xfd\xff\xff\xff\xff\xff\xef?'
p9
tp10
Rp11
tp12
a(S'inserter category'
p13
g2
(g6
S'n\xef\xd4\xa9Y\xc7\xe7?'
p14
tp15
Rp16
tp17
a(S'category (mathematics)'
p18
g2
(g6
S'\xc6\xa1\xdb*5\xc4\xe7?'
p19
tp20
Rp21
tp22
a(S'fibred category'
p23
g2
(g6
S'\x0fm\xf7E\x93\x86\xe7?'
p24
tp25
Rp26
tp27
a(S'functor category'
p28
g2
(g6
S'L\xf0Po\x1e\xf0\xe6?'
p29
tp30
Rp31
tp32
a(S'comma category'
p33
g2
(g6
S'\x90\r\xc9\x86eR\xe6?'
p34
tp35
Rp36
tp37
a(S'category of small categories'
p38
g2
(g6
S"'\x96\xd1\xe9\xd9\x02\xe6?"
p39
tp40
Rp41
tp42
a(S'subdivided interval categories'
p43
g2
(g6
S'\xe6\xe2i\x16\xa2\xa2\xe5?'
p44
tp45
Rp46
tp47
a(S'internal category'
p48
g2
(g6
S'-\xad\xf4\x05c\xaf\xe4?'
p49
tp50
Rp51
tp52
a(S'coequalizer'
p53
g2
(g6
S'6\xc4\xaf\x9eA\xaf\xe4?'
p54
tp55
Rp56
tp57
a(S'outline of category theory'
p58
g2
(g6
S'\x17\x9f\x1cL\xba\x8b\xe4?'
p59
tp60
Rp61
tp62
a(S'glossary of category theory'
p63
g2
(g6
S's{\x00\xcfMf\xe4?'
p64
tp65
Rp66
tp67
a(S'equivalence of categories'
p68
g2
(g6
S'O\x13\xe4A\xd3\x06\xe4?'
p69
tp70
Rp71
tp72
a(S'morphism'
p73
g2
(g6
S'~\x95\xb4Y\xfe\xe6\xe3?'
p74
tp75
Rp76
tp77
a(S'enriched category'
p78
g2
(g6
S'\x8eZ\xbf\xa9\xb8\xb6\xe3?'
p79
tp80
Rp81
tp82
a(S'natural transformation'
p83
g2
(g6
S'\xa7\xbf4%\xab\x80\xe3?'
p84
tp85
Rp86
tp87
a(S'functor'
p88
g2
(g6
S'\x89\xff:\xb8\xefK\xe3?'
p89
tp90
Rp91
tp92
a(S'groupoid'
p93
g2
(g6
S'o7\xe4\xc8!-\xe3?'
p94
tp95
Rp96
tp97
a(S'concrete category'
p98
g2
(g6
S'\xd1v\xbcS\xa3\x18\xe3?'
p99
tp100
Rp101
tp102
a(S'higher category theory'
p103
g2
(g6
S'\xb6\xc88\xac$\x13\xe3?'
p104
tp105
Rp106
tp107
a(S'monoidal category'
p108
g2
(g6
S'\xab\x8e\x0c\x8c\xf6\xf8\xe2?'
p109
tp110
Rp111
tp112
a(S'yoneda lemma'
p113
g2
(g6
S'\xe2\xbeU\x1d\x1b\xef\xe2?'
p114
tp115
Rp116
tp117
a(S'universal property'
p118
g2
(g6
S'\x01J\x8e\xca%\x8d\xe2?'
p119
tp120
Rp121
tp122
a(S'timeline of category theory and related mathematics'
p123
g2
(g6
S')\xf7\xf2@D\x81\xe2?'
p124
tp125
Rp126
tp127
a(S'2-category'
p128
g2
(g6
S'h\xa2\xf3u\x0cs\xe2?'
p129
tp130
Rp131
tp132
a(S'multicategory'
p133
g2
(g6
S'\x98\xb2bChc\xe2?'
p134
tp135
Rp136
tp137
a(S'coproduct'
p138
g2
(g6
S'Qx \xa8\x01\x0f\xe2?'
p139
tp140
Rp141
tp142
a(S'closed category'
p143
g2
(g6
S'r\xd3\xbf\x8c\x18\xdc\xe1?'
p144
tp145
Rp146
tp147
a(S'bicategory'
p148
g2
(g6
S'\x04\xe0\x8a=\x0e\xc0\xe1?'
p149
tp150
Rp151
tp152
a(S'preadditive category'
p153
g2
(g6
S'\xaf\xeb\xeeOn\x96\xe1?'
p154
tp155
Rp156
tp157
a(S'coherence condition'
p158
g2
(g6
S'\x13\xdb1\x19A\x86\xe1?'
p159
tp160
Rp161
tp162
a(S'product (category theory)'
p163
g2
(g6
S'\xd7\x9f\xc1oz\x84\xe1?'
p164
tp165
Rp166
tp167
a(S'additive category'
p168
g2
(g6
S';q\x0e\xfe\x91~\xe1?'
p169
tp170
Rp171
tp172
a(S'derived category'
p173
g2
(g6
S'\xc8\x83ix\x89|\xe1?'
p174
tp175
Rp176
tp177
a(S'isomorphism of categories'
p178
g2
(g6
S'\x03\n\xf7\xdc@d\xe1?'
p179
tp180
Rp181
tp182
a(S'zero morphism'
p183
g2
(g6
S'\xebv\xfe\xe7\x12Z\xe1?'
p184
tp185
Rp186
tp187
a(S'triangulated category'
p188
g2
(g6
S'\xaa\xa8\xeaM\xa2S\xe1?'
p189
tp190
Rp191
tp192
a(S'cartesian closed category'
p193
g2
(g6
S'\xecp#}\x9fH\xe1?'
p194
tp195
Rp196
tp197
a(S'grothendieck construction'
p198
g2
(g6
S'\xa2ICi\xdc\xd0\xe0?'
p199
tp200
Rp201
tp202
a(S'biproduct'
p203
g2
(g6
S'y\xbb\x88O:\xa8\xe0?'
p204
tp205
Rp206
tp207
a(S'regular category'
p208
g2
(g6
S')\xefPa\xd2\x8f\xe0?'
p209
tp210
Rp211
tp212
a(S'epimorphism'
p213
g2
(g6
S'\xa6\x17\x82Dn\x87\xe0?'
p214
tp215
Rp216
tp217
a(S'lax natural transformation'
p218
g2
(g6
S'$o\xa9\xb2\x90\x85\xe0?'
p219
tp220
Rp221
tp222
a(S'monomorphism'
p223
g2
(g6
S'$=\n\xe1\xd1p\xe0?'
p224
tp225
Rp226
tp227
a(S'waldhausen category'
p228
g2
(g6
S'\xc0|\\\xc2$k\xe0?'
p229
tp230
Rp231
tp232
a(S'quasi-category'
p233
g2
(g6
S'r\xf51\x9e\xc2P\xe0?'
p234
tp235
Rp236
tp237
a(S'span (category theory)'
p238
g2
(g6
S"\xfc\x97\xb9\xb2\xd8'\xe0?"
p239
tp240
Rp241
tp242
a(S'olog'
p243
g2
(g6
S'\x98r\xae\xd9D\x1f\xe0?'
p244
tp245
Rp246
tp247
a(S'diagram (category theory)'
p248
g2
(g6
S'\xf7\x08\xdb\x0f*\x1d\xe0?'
p249
tp250
Rp251
tp252
a(S'nerve (category theory)'
p253
g2
(g6
S'\x92^\xef\xe5+\xd4\xdf?'
p254
tp255
Rp256
tp257
a(S'delta-functor'
p258
g2
(g6
S'o\x061\x1e\xd1\xbc\xdf?'
p259
tp260
Rp261
tp262
a(S'lax functor'
p263
g2
(g6
S'2\x81f\xe4\x04\xb9\xdf?'
p264
tp265
Rp266
tp267
a(S'cone (category theory)'
p268
g2
(g6
S'\x1a\xc4\x17\xbe\xa0j\xdf?'
p269
tp270
Rp271
tp272
a(S'factorization system'
p273
g2
(g6
S'\x7f\xff"\xc0\xdc6\xdf?'
p274
tp275
Rp276
tp277
a(S'profunctor'
p278
g2
(g6
S'\xf7\x18\xda$\x13&\xdf?'
p279
tp280
Rp281
tp282
a(S'compact closed category'
p283
g2
(g6
S'\x90\xc8\x9f~\xcc$\xdf?'
p284
tp285
Rp286
tp287
a(S'dagger category'
p288
g2
(g6
S'\x98Cw\xc6=\xb2\xde?'
p289
tp290
Rp291
tp292
a(S'free category'
p293
g2
(g6
S'\xc8\xaf#\xfd\xb0\x85\xde?'
p294
tp295
Rp296
tp297
a(S'kleisli category'
p298
g2
(g6
S'\x96\xa6\xa41\xbay\xde?'
p299
tp300
Rp301
tp302
a(S'cocycle category'
p303
g2
(g6
S'\xe3\x90\xa8a\xa1g\xde?'
p304
tp305
Rp306
tp307
a(S'initial and terminal objects'
p308
g2
(g6
S'U\xfd\x0b\x1a\xfdS\xde?'
p309
tp310
Rp311
tp312
a(S'localization of a category'
p313
g2
(g6
S'\x7f\xc3\x06`iG\xde?'
p314
tp315
Rp316
tp317
a(S'exact completion'
p318
g2
(g6
S'(\x06\xd1\x0e\xd2,\xde?'
p319
tp320
Rp321
tp322
a(S'lawvere theory'
p323
g2
(g6
S'6^\x1ct%\x1c\xde?'
p324
tp325
Rp326
tp327
a(S'adjoint functors'
p328
g2
(g6
S'5\x10\\\x02\xb0\x06\xde?'
p329
tp330
Rp331
tp332
a(S'presheaf (category theory)'
p333
g2
(g6
S'\x0b\x96\xa2\xe6m\x03\xde?'
p334
tp335
Rp336
tp337
a(S'topos'
p338
g2
(g6
S'\x88o\x9c\x10\xa8\xe4\xdd?'
p339
tp340
Rp341
tp342
a(S'category of topological spaces'
p343
g2
(g6
S'eN\xb1\xc50\xd5\xdd?'
p344
tp345
Rp346
tp347
a(S'subterminal object'
p348
g2
(g6
S'K%\x05H$\xc1\xdd?'
p349
tp350
Rp351
tp352
a(S'category'
p353
g2
(g6
S'\xafS\x08\xe7\x95\x9b\xdd?'
p354
tp355
Rp356
tp357
a(S'limit (category theory)'
p358
g2
(g6
S'\x80R\xe1\xce\xaat\xdd?'
p359
tp360
Rp361
tp362
a(S'2-functor'
p363
g2
(g6
S'n$>\xb0\x14g\xdd?'
p364
tp365
Rp366
tp367
a(S'pushout (category theory)'
p368
g2
(g6
S'X\x8bT"\xcaK\xdd?'
p369
tp370
Rp371
tp372
a(S'indiscrete category'
p373
g2
(g6
S'\xf6*\xb0\xe2F4\xdd?'
p374
tp375
Rp376
tp377
a(S'dual (category theory)'
p378
g2
(g6
S'\x8e\xde\xa1\xa5\xf2\x0b\xdd?'
p379
tp380
Rp381
tp382
a(S'posetal category'
p383
g2
(g6
S'@\xd0\xd1X\x92\xea\xdc?'
p384
tp385
Rp386
tp387
a(S'subfunctor'
p388
g2
(g6
S'\xb6%W%V\xc7\xdc?'
p389
tp390
Rp391
tp392
a(S'forgetful functor'
p393
g2
(g6
S'+\xa2\xd6\x00\x9c\xb7\xdc?'
p394
tp395
Rp396
tp397
a(S'quotient category'
p398
g2
(g6
S'Bh\xc3\xdd\xd1\xa1\xdc?'
p399
tp400
Rp401
tp402
a(S'discrete category'
p403
g2
(g6
S'\x88\xec%6\xfa\x9b\xdc?'
p404
tp405
Rp406
tp407
a(S'topological category'
p408
g2
(g6
S"\xa3\x0c\xc4'J\x90\xdc?"
p409
tp410
Rp411
tp412
a(S'connected category'
p413
g2
(g6
S'}\xd9#\xad\xbc}\xdc?'
p414
tp415
Rp416
tp417
a(S'opposite category'
p418
g2
(g6
S'\xc4\xff\x86B\xa2g\xdc?'
p419
tp420
Rp421
tp422
a(S'category of sets'
p423
g2
(g6
S'}\xb5\xfc\xad\x82-\xdc?'
p424
tp425
Rp426
tp427
a(S'structure (category theory)'
p428
g2
(g6
S'\x88f/u\xbb\x06\xdc?'
p429
tp430
Rp431
tp432
a(S'allegory (category theory)'
p433
g2
(g6
S'e\xbax\xc9!\x01\xdc?'
p434
tp435
Rp436
tp437
a(S'algebraic theory'
p438
g2
(g6
S'&L\xf7\x18v\xf4\xdb?'
p439
tp440
Rp441
tp442
a(S'six operations'
p443
g2
(g6
S'\xf9\x94\xf2)\xdc\xeb\xdb?'
p444
tp445
Rp446
tp447
a(S'*-autonomous category'
p448
g2
(g6
S'\xe2*\x9c\x1d\x17\xd7\xdb?'
p449
tp450
Rp451
tp452
a(S'finset'
p453
g2
(g6
S'\xd1\xa7\xeb\xa1\xday\xdb?'
p454
tp455
Rp456
tp457
a(S'small set (category theory)'
p458
g2
(g6
S'\xd3Z]\xf6\x89\x1c\xdb?'
p459
tp460
Rp461
tp462
a(S'calculus of functors'
p463
g2
(g6
S'\xf0\xec.\xacp\x10\xdb?'
p464
tp465
Rp466
tp467
a(S'monoidal functor'
p468
g2
(g6
S'G\xee\xa5\xba\x8c\xe0\xda?'
p469
tp470
Rp471
tp472
a(S'monad (category theory)'
p473
g2
(g6
S'\xd92\xe0(\x82\xd8\xda?'
p474
tp475
Rp476
tp477
a(S'differential graded category'
p478
g2
(g6
S'l\xc9\xac\x12\x04\xb2\xda?'
p479
tp480
Rp481
tp482
a(S'representable functor'
p483
g2
(g6
S't%\x8dY\x07\x97\xda?'
p484
tp485
Rp486
tp487
a(S'nisnevich topology'
p488
g2
(g6
S'[{\x7f\x1a\x93\x8e\xda?'
p489
tp490
Rp491
tp492
a(S'end (category theory)'
p493
g2
(g6
S'G\xf8[\x15Z\x89\xda?'
p494
tp495
Rp496
tp497
a(S'higher-dimensional algebra'
p498
g2
(g6
S'\xa3N\xdc\xc9\x80}\xda?'
p499
tp500
Rp501
tp502
a(S'model category'
p503
g2
(g6
S'd\xd0\x8c\xc4\xa7z\xda?'
p504
tp505
Rp506
tp507
a(S'closed monoidal category'
p508
g2
(g6
S'{\xdd,;%W\xda?'
p509
tp510
Rp511
tp512
a(S'quantaloid'
p513
g2
(g6
S'D\xe4 \xd8mS\xda?'
p514
tp515
Rp516
tp517
a(S'cyclic category'
p518
g2
(g6
S'\x077]/\x1fM\xda?'
p519
tp520
Rp521
tp522
a(S'generator (category theory)'
p523
g2
(g6
S'\r6\x18\xceG>\xda?'
p524
tp525
Rp526
tp527
a(S'pro (category theory)'
p528
g2
(g6
S'\xda\xe1\x18<c,\xda?'
p529
tp530
Rp531
tp532
a(S'william lawvere'
p533
g2
(g6
S'c\xdd\x12\xc7\xf8\x10\xda?'
p534
tp535
Rp536
tp537
a(S'group object'
p538
g2
(g6
S'#\xee\n\xbe3\x0b\xda?'
p539
tp540
Rp541
tp542
a(S'cartesian monoidal category'
p543
g2
(g6
S'^\x9e\x92\xa1\xb7\x02\xda?'
p544
tp545
Rp546
tp547
a(S'dinatural transformation'
p548
g2
(g6
S'\x06j\xe3V\xb4\xe8\xd9?'
p549
tp550
Rp551
tp552
a(S'f-algebra'
p553
g2
(g6
S'\xe7\xf88&\xda\xe5\xd9?'
p554
tp555
Rp556
tp557
a(S'weak n-category'
p558
g2
(g6
S'b\xcbXB\xd3\xa4\xd9?'
p559
tp560
Rp561
tp562
a(S'sketch (mathematics)'
p563
g2
(g6
S'\xf6\xa30{"\x9c\xd9?'
p564
tp565
Rp566
tp567
a(S'category of elements'
p568
g2
(g6
S'\xe2>\x9c(P}\xd9?'
p569
tp570
Rp571
tp572
a(S'category of rings'
p573
g2
(g6
S'\x15\xd5\xde\xbczu\xd9?'
p574
tp575
Rp576
tp577
a(S'peter j. freyd'
p578
g2
(g6
S'\x15 \x0c\xcf\xb4s\xd9?'
p579
tp580
Rp581
tp582
a(S'filtered category'
p583
g2
(g6
S'w\xbf\x7fU\x1df\xd9?'
p584
tp585
Rp586
tp587
a(S'product category'
p588
g2
(g6
S'\xc1c\x08\xb4\xfcZ\xd9?'
p589
tp590
Rp591
tp592
a(S'derived functor'
p593
g2
(g6
S'\xfa\xc2\x8a\xe8\xf2V\xd9?'
p594
tp595
Rp596
tp597
a(S'subcategory'
p598
g2
(g6
S'\xe9\x81b\xc8\xe4A\xd9?'
p599
tp600
Rp601
tp602
a(S'2-group'
p603
g2
(g6
S'H\xcda\xbf2\xe6\xd8?'
p604
tp605
Rp606
tp607
a(S'skeleton (category theory)'
p608
g2
(g6
S'D\xf5\xd4r\xb7\xe3\xd8?'
p609
tp610
Rp611
tp612
a(S'institution (computer science)'
p613
g2
(g6
S'7U\xb5\x110\xde\xd8?'
p614
tp615
Rp616
tp617
a(S'2-valued morphism'
p618
g2
(g6
S'G\x14\x86\x85\x97\xaa\xd8?'
p619
tp620
Rp621
tp622
a(S'fukaya category'
p623
g2
(g6
S'p\xc4T\xac%\xa5\xd8?'
p624
tp625
Rp626
tp627
a(S'burnside category'
p628
g2
(g6
S'\xd48\xda\xe8\xc4=\xd8?'
p629
tp630
Rp631
tp632
a(S'stable model category'
p633
g2
(g6
S']\xec\x88^\xf2\x1d\xd8?'
p634
tp635
Rp636
tp637
a(S'dagger compact category'
p638
g2
(g6
S'\xf7\xa3\nG\xf7\x19\xd8?'
p639
tp640
Rp641
tp642
a(S'commutative diagram'
p643
g2
(g6
S"\xee'\xf3\xb3O\x10\xd8?"
p644
tp645
Rp646
tp647
a(S'\xc3\x89tale morphism'
p648
g2
(g6
S'R\x98\x97\xc4h\x0b\xd8?'
p649
tp650
Rp651
tp652
a(S'equaliser (mathematics)'
p653
g2
(g6
S'\xf3\xe2\xca\xbb$\x01\xd8?'
p654
tp655
Rp656
tp657
a(S'exponential object'
p658
g2
(g6
S'\xd4\x88\x85\xde\x8f\xdd\xd7?'
p659
tp660
Rp661
tp662
a(S'directed algebraic topology'
p663
g2
(g6
S'X\xcf\xf7\x83\xb0\xd2\xd7?'
p664
tp665
Rp666
tp667
a(S'mathematical object'
p668
g2
(g6
S'\xc7\xcc\xdf\xa8\xdc\xb5\xd7?'
p669
tp670
Rp671
tp672
a(S'cotangent complex'
p673
g2
(g6
S'*\xae\xf0\x97\xc1\xab\xd7?'
p674
tp675
Rp676
tp677
a(S'pre-abelian category'
p678
g2
(g6
S'\xfd\xdc\xe6guk\xd7?'
p679
tp680
Rp681
tp682
a(S'full and faithful functors'
p683
g2
(g6
S'p\x08\x9a\xa4\x04g\xd7?'
p684
tp685
Rp686
tp687
a(S'ribbon category'
p688
g2
(g6
S'G\x98\x7f`pZ\xd7?'
p689
tp690
Rp691
tp692
a(S'category of relations'
p693
g2
(g6
S'\xed\xc9\x05\x14\xbcD\xd7?'
p694
tp695
Rp696
tp697
a(S'stable \xe2\x88\x9e-category'
p698
g2
(g6
S'\xb4\x16\xff0hD\xd7?'
p699
tp700
Rp701
tp702
a(S'induced homomorphism'
p703
g2
(g6
S'z%\x8fRaA\xd7?'
p704
tp705
Rp706
tp707
a(S'grothendieck topology'
p708
g2
(g6
S'\xf3a\xba\x05\xa8\x0c\xd7?'
p709
tp710
Rp711
tp712
a(S'cokernel'
p713
g2
(g6
S'd\x08\xe5\x19\x8b\xfd\xd6?'
p714
tp715
Rp716
tp717
a(S'dialectica space'
p718
g2
(g6
S'i\x95\xc0\x13\xee\xf2\xd6?'
p719
tp720
Rp721
tp722
a(S'homological algebra'
p723
g2
(g6
S'\xd0\x87,\xe3^\xdd\xd6?'
p724
tp725
Rp726
tp727
a(S"grothendieck's relative point of view"
p728
g2
(g6
S'\xe3\xbaYXC\xc2\xd6?'
p729
tp730
Rp731
tp732
a(S'tannakian category'
p733
g2
(g6
S'L\xd9\xbd\x0f\x9b\xb1\xd6?'
p734
tp735
Rp736
tp737
a(S'applicative functor'
p738
g2
(g6
S'\x9bF\x9e\xd0\xbf\xae\xd6?'
p739
tp740
Rp741
tp742
a(S'image (category theory)'
p743
g2
(g6
S'\xc1u4\xedy\x98\xd6?'
p744
tp745
Rp746
tp747
a(S'max kelly'
p748
g2
(g6
S'HK\xd2\x9dQ\x98\xd6?'
p749
tp750
Rp751
tp752
a(S'\xe2\x88\x9e-groupoid'
p753
g2
(g6
S'\xc0\xaa\r|\xe0\x97\xd6?'
p754
tp755
Rp756
tp757
a(S'morphism of schemes'
p758
g2
(g6
S'\xca\xf87\x1a\x9b\x8d\xd6?'
p759
tp760
Rp761
tp762
a(S'kernel (category theory)'
p763
g2
(g6
S'\xc8\xc1~\xc5\xbfl\xd6?'
p764
tp765
Rp766
tp767
a(S'category of being'
p768
g2
(g6
S'\x12\x96/\x9b\x15c\xd6?'
p769
tp770
Rp771
tp772
a(S'direct limit'
p773
g2
(g6
S'M\xf7yyVb\xd6?'
p774
tp775
Rp776
tp777
a(S'category of manifolds'
p778
g2
(g6
S'c25~\x16W\xd6?'
p779
tp780
Rp781
tp782
a(S'subobject'
p783
g2
(g6
S'm\xb0\xe1\xaa\nW\xd6?'
p784
tp785
Rp786
tp787
a(S'complete category'
p788
g2
(g6
S'\xabe\xdf\xab\rV\xd6?'
p789
tp790
Rp791
tp792
a(S'quasi-isomorphism'
p793
g2
(g6
S'\xba\xb6\xbd\xfd\xd5T\xd6?'
p794
tp795
Rp796
tp797
a(S'inverse system'
p798
g2
(g6
S'\x08\xc9\xd0\xd9MT\xd6?'
p799
tp800
Rp801
tp802
a(S'brane'
p803
g2
(g6
S'\xcc(\x11\xd8\xc6E\xd6?'
p804
tp805
Rp806
tp807
a(S'index of oregon-related articles'
p808
g2
(g6
S'R\xb3Xk\\:\xd6?'
p809
tp810
Rp811
tp812
a(S'monoidal natural transformation'
p813
g2
(g6
S'\xd0\xfdw\xac\xda\x19\xd6?'
p814
tp815
Rp816
tp817
a(S'karoubi envelope'
p818
g2
(g6
S"\x7f\xd7\xd1'T\x17\xd6?"
p819
tp820
Rp821
tp822
a(S'simplex category'
p823
g2
(g6
S',\x8a\x85\xa0\x90\x14\xd6?'
p824
tp825
Rp826
tp827
a(S'q-construction'
p828
g2
(g6
S'/\xf73q\xdf\x10\xd6?'
p829
tp830
Rp831
tp832
a(S'autonomous category'
p833
g2
(g6
S'\x1c\xc8Pt\x89\x10\xd6?'
p834
tp835
Rp836
tp837
a(S'abelian category'
p838
g2
(g6
S'lK\xe2B\x03\x05\xd6?'
p839
tp840
Rp841
tp842
a(S'stone duality'
p843
g2
(g6
S'i\xe31H\x9b\xf5\xd5?'
p844
tp845
Rp846
tp847
a(S'category of modules'
p848
g2
(g6
S'\x88\xb87\xc6\x02\xef\xd5?'
p849
tp850
Rp851
tp852
a(S'well-pointed category'
p853
g2
(g6
S'\xe0\xfcm\xe0\xa9\xd0\xd5?'
p854
tp855
Rp856
tp857
a(S'flat topology'
p858
g2
(g6
S'4\x05\x0b\xa2\xb3\xc7\xd5?'
p859
tp860
Rp861
tp862
a(S'rigid category'
p863
g2
(g6
S'\x847\xd5>=\xc0\xd5?'
p864
tp865
Rp866
tp867
a(S't-structure'
p868
g2
(g6
S'\xd90\xdd\x9d0\xac\xd5?'
p869
tp870
Rp871
tp872
a(S'pseudo-abelian category'
p873
g2
(g6
S'\xfcA\xa7\x1d\x96\xa9\xd5?'
p874
tp875
Rp876
tp877
a(S'graded category'
p878
g2
(g6
S'`V\xbd4\xff\xa5\xd5?'
p879
tp880
Rp881
tp882
a(S'topological half-exact functor'
p883
g2
(g6
S'\x86\xd3])2\x8d\xd5?'
p884
tp885
Rp886
tp887
a(S'presheaf of spaces'
p888
g2
(g6
S'\xf4!D\x11\xc8\x8a\xd5?'
p889
tp890
Rp891
tp892
a(S'diagonal functor'
p893
g2
(g6
S'\x88(\x07k\xd0q\xd5?'
p894
tp895
Rp896
tp897
a(S'category of preordered sets'
p898
g2
(g6
S'\xe8\xef\xde\xcado\xd5?'
p899
tp900
Rp901
tp902
a(S'braided monoidal category'
p903
g2
(g6
S'J\xd7\x1b\xe8\xb0g\xd5?'
p904
tp905
Rp906
tp907
a(S'tricategory'
p908
g2
(g6
S"-'m\xdfcb\xd5?"
p909
tp910
Rp911
tp912
a(S'inverse limit'
p913
g2
(g6
S'=\xc8%9\x8e`\xd5?'
p914
tp915
Rp916
tp917
a(S'areas of mathematics'
p918
g2
(g6
S'\xf6\xba\xad\xcd%]\xd5?'
p919
tp920
Rp921
tp922
a(S'semigroupoid'
p923
g2
(g6
S'\xc3\r\xf9{\xc9@\xd5?'
p924
tp925
Rp926
tp927
a(S'a\xc2\xb9 homotopy theory'
p928
g2
(g6
S'\x12:\x93\x0e\xa47\xd5?'
p929
tp930
Rp931
tp932
a(S'quotient of an abelian category'
p933
g2
(g6
S'\x874\x83LA4\xd5?'
p934
tp935
Rp936
tp937
a(S'categorification'
p938
g2
(g6
S'\xaa\xeb\xa9\xc1\x1e\x1f\xd5?'
p939
tp940
Rp941
tp942
a(S'characterizations of the category of topological spaces'
p943
g2
(g6
S'\xff\xec\x86\xd9Q\xf8\xd4?'
p944
tp945
Rp946
tp947
a(S'category of topological vector spaces'
p948
g2
(g6
S'\x06\xa8-\xab\xfd\xf6\xd4?'
p949
tp950
Rp951
tp952
a(S'category utility'
p953
g2
(g6
S"\x9b\x97d'_\xf0\xd4?"
p954
tp955
Rp956
tp957
a(S'hom functor'
p958
g2
(g6
S'\x8a\x85Hq\xd7\xd8\xd4?'
p959
tp960
Rp961
tp962
a(S'scone (category theory)'
p963
g2
(g6
S'\xc0\x81\x02>b\xd8\xd4?'
p964
tp965
Rp966
tp967
a(S'string diagram'
p968
g2
(g6
S'\xb62\xdfd\xcf\xca\xd4?'
p969
tp970
Rp971
tp972
a(S'conservative functor'
p973
g2
(g6
S'R\xdbq)\x81\xc8\xd4?'
p974
tp975
Rp976
tp977
a(S'topological quantum field theory'
p978
g2
(g6
S'\x17\xee\rS\xc0\xb6\xd4?'
p979
tp980
Rp981
tp982
a(S'diagonal morphism'
p983
g2
(g6
S'w\xe1\xda\xb05\xb6\xd4?'
p984
tp985
Rp986
tp987
a(S'bousfield localization'
p988
g2
(g6
S'\x00Y\xa8Y\xc1\xb2\xd4?'
p989
tp990
Rp991
tp992
a(S'categorical ring'
p993
g2
(g6
S'\xa6HE97\xb0\xd4?'
p994
tp995
Rp996
tp997
a(S'category o'
p998
g2
(g6
S'Nd\x92\xdam\x9e\xd4?'
p999
tp1000
Rp1001
tp1002
a(S'polyad'
p1003
g2
(g6
S'\xffw\x16\x06\xa8\x88\xd4?'
p1004
tp1005
Rp1006
tp1007
a(S'set theory'
p1008
g2
(g6
S'\xcc2\x0b\xadQy\xd4?'
p1009
tp1010
Rp1011
tp1012
a(S"brown's representability theorem"
p1013
g2
(g6
S'\xdd\x0c\xe6sit\xd4?'
p1014
tp1015
Rp1016
tp1017
a(S'global element'
p1018
g2
(g6
S'e\xd4$\x0f\xf9q\xd4?'
p1019
tp1020
Rp1021
tp1022
a(S"mitchell's embedding theorem"
p1023
g2
(g6
S'r\x16\x94E7g\xd4?'
p1024
tp1025
Rp1026
tp1027
a(S'complete heyting algebra'
p1028
g2
(g6
S'G[\x1a\x96\xdcW\xd4?'
p1029
tp1030
Rp1031
tp1032
a(S'exceptional inverse image functor'
p1033
g2
(g6
S'\rK\xe6O\xe34\xd4?'
p1034
tp1035
Rp1036
tp1037
a(S'andr\xc3\xa9 joyal'
p1038
g2
(g6
S'D\xcb)\xcf\xfa)\xd4?'
p1039
tp1040
Rp1041
tp1042
a(S'sheaf of spectra'
p1043
g2
(g6
S'\xb1\x19u\xb9 #\xd4?'
p1044
tp1045
Rp1046
tp1047
a(S'monoidal adjunction'
p1048
g2
(g6
S'P\x01\x1d\xe2\xcb!\xd4?'
p1049
tp1050
Rp1051
tp1052
a(S'frobenius category'
p1053
g2
(g6
S'\x18b\xa7\xd0\x05\x1c\xd4?'
p1054
tp1055
Rp1056
tp1057
a(S'tannaka\xe2\x80\x93krein duality'
p1058
g2
(g6
S'\x84\xc5_\xc2\x07\x07\xd4?'
p1059
tp1060
Rp1061
tp1062
a(S'section (category theory)'
p1063
g2
(g6
S'\x15\xff\x82\x99A\xf5\xd3?'
p1064
tp1065
Rp1066
tp1067
a(S'dendroidal set'
p1068
g2
(g6
S'}\xcd\x94\xf9\xbe\x91\xd3?'
p1069
tp1070
Rp1071
tp1072
a(S'history of topos theory'
p1073
g2
(g6
S'\xf5\x97\xe8I\xe0w\xd3?'
p1074
tp1075
Rp1076
tp1077
a(S'harmonic morphism'
p1078
g2
(g6
S'\x9a\xfbL\xdb\xf9n\xd3?'
p1079
tp1080
Rp1081
tp1082
a(S'fibrant object'
p1083
g2
(g6
S'y\xb8\xb7o\xedm\xd3?'
p1084
tp1085
Rp1086
tp1087
a(S'groupoid scheme'
p1088
g2
(g6
S'\x06?T\xd2\xc6h\xd3?'
p1089
tp1090
Rp1091
tp1092
a(S'pointed space'
p1093
g2
(g6
S'&\xa8\x82X\xa8d\xd3?'
p1094
tp1095
Rp1096
tp1097
a(S'n-category number'
p1098
g2
(g6
S'\x94T\xf0\xeeX\\\xd3?'
p1099
tp1100
Rp1101
tp1102
a(S'\xc3\x89tale topology'
p1103
g2
(g6
S'\xac\xb6\xfa\xcaZ[\xd3?'
p1104
tp1105
Rp1106
tp1107
a(S'traced monoidal category'
p1108
g2
(g6
S'\xae\x83\xa0\x04\xb1>\xd3?'
p1109
tp1110
Rp1111
tp1112
a(S'monoid (category theory)'
p1113
g2
(g6
S'o\x19\x18T\xe02\xd3?'
p1114
tp1115
Rp1116
tp1117
a(S'equivariant map'
p1118
g2
(g6
S'\xc7\x9c\xd0\xd2\x9f0\xd3?'
p1119
tp1120
Rp1121
tp1122
a(S'highest-weight category'
p1123
g2
(g6
S'\xb4i.\xbaS,\xd3?'
p1124
tp1125
Rp1126
tp1127
a(S'subobject classifier'
p1128
g2
(g6
S'"dG>P*\xd3?'
p1129
tp1130
Rp1131
tp1132
a(S'f-coalgebra'
p1133
g2
(g6
S'dB`\xe2\xd1)\xd3?'
p1134
tp1135
Rp1136
tp1137
a(S'free object'
p1138
g2
(g6
S"\xe4H\x00\xb8\x84'\xd3?"
p1139
tp1140
Rp1141
tp1142
a(S'grothendieck category'
p1143
g2
(g6
S'\xf9RN\x8c\xd8&\xd3?'
p1144
tp1145
Rp1146
tp1147
a(S'nicolae popescu'
p1148
g2
(g6
S'R\xa0:\x92\xb1\xfb\xd2?'
p1149
tp1150
Rp1151
tp1152
a(S'abstract nonsense'
p1153
g2
(g6
S'\xfc)g\xa0\xd5\xf8\xd2?'
p1154
tp1155
Rp1156
tp1157
a(S'categories for the working mathematician'
p1158
g2
(g6
S'\xba1\xe0\xe0\xd7\xea\xd2?'
p1159
tp1160
Rp1161
tp1162
a(S'coherence theorem'
p1163
g2
(g6
S'\x10B\xe2\xef\xb7\xea\xd2?'
p1164
tp1165
Rp1166
tp1167
a(S'image functors for sheaves'
p1168
g2
(g6
S'\xcd\x0b8oQ\xe8\xd2?'
p1169
tp1170
Rp1171
tp1172
a(S'cryptomorphism'
p1173
g2
(g6
S'I \xfe\xf8D\xd8\xd2?'
p1174
tp1175
Rp1176
tp1177
a(S'h topology'
p1178
g2
(g6
S'#\x02\xc5\x8b7\xd8\xd2?'
p1179
tp1180
Rp1181
tp1182
a(S"schlessinger's theorem"
p1183
g2
(g6
S'\xceP\xe8z\x17\xbb\xd2?'
p1184
tp1185
Rp1186
tp1187
a(S'theory'
p1188
g2
(g6
S'\xd5\x08\x14E2\xaf\xd2?'
p1189
tp1190
Rp1191
tp1192
a(S'weak equivalence (homotopy theory)'
p1193
g2
(g6
S'\x99`\xa7\xe6\xcd\xa1\xd2?'
p1194
tp1195
Rp1196
tp1197
a(S'normal morphism'
p1198
g2
(g6
S'\xa0}f\xd9\xea\xa0\xd2?'
p1199
tp1200
Rp1201
tp1202
a(S'categorical logic'
p1203
g2
(g6
S'E\x1e\xaf\x07\xcf\x9d\xd2?'
p1204
tp1205
Rp1206
tp1207
a(S'lift (mathematics)'
p1208
g2
(g6
S'\x1d\\*~W\x9c\xd2?'
p1209
tp1210
Rp1211
tp1212
a(S'tower (mathematics)'
p1213
g2
(g6
S'v\x8b\xed\x98b\x92\xd2?'
p1214
tp1215
Rp1216
tp1217
a(S'reflective subcategory'
p1218
g2
(g6
S'\xde`\xd9\xd4*\x8e\xd2?'
p1219
tp1220
Rp1221
tp1222
a(S'michael schlessinger'
p1223
g2
(g6
S"P#\xc2'S\x8b\xd2?"
p1224
tp1225
Rp1226
tp1227
a(S'category algebra'
p1228
g2
(g6
S'^\xec@t\xdc\x87\xd2?'
p1229
tp1230
Rp1231
tp1232
a(S'acyclic model'
p1233
g2
(g6
S'\x9eVrWz\x86\xd2?'
p1234
tp1235
Rp1236
tp1237
a(S'simplicially enriched category'
p1238
g2
(g6
S'/\x940\xa5\x94\x83\xd2?'
p1239
tp1240
Rp1241
tp1242
a(S'isomorphism'
p1243
g2
(g6
S'\x1a\xa1\xc6\x99V\x81\xd2?'
p1244
tp1245
Rp1246
tp1247
a(S'category of finite-dimensional hilbert spaces'
p1248
g2
(g6
S'l\xbe%\x8c\x87x\xd2?'
p1249
tp1250
Rp1251
tp1252
a(S'algebraic k-theory'
p1253
g2
(g6
S'<\x81\xe3\xc3\xf2p\xd2?'
p1254
tp1255
Rp1256
tp1257
a(S'associator'
p1258
g2
(g6
S'w\xef\x1c\xf9\x07Q\xd2?'
p1259
tp1260
Rp1261
tp1262
a(S'element (category theory)'
p1263
g2
(g6
S'\x8e\x16=\\">\xd2?'
p1264
tp1265
Rp1266
tp1267
a(S'fpqc morphism'
p1268
g2
(g6
S'0\xee,Kp;\xd2?'
p1269
tp1270
Rp1271
tp1272
a(S'homotopy category'
p1273
g2
(g6
S'\xcf\xa6\xea\n\xe23\xd2?'
p1274
tp1275
Rp1276
tp1277
a(S'unifying theories in mathematics'
p1278
g2
(g6
S'\x82\xb1\x92%\xb7\x1d\xd2?'
p1279
tp1280
Rp1281
tp1282
a(S'named set theory'
p1283
g2
(g6
S'\xd6\xf6\x95\xfbI\x1d\xd2?'
p1284
tp1285
Rp1286
tp1287
a(S'stable module category'
p1288
g2
(g6
S'\xe2\x7fLe\xa4\x19\xd2?'
p1289
tp1290
Rp1291
tp1292
a(S'esakia space'
p1293
g2
(g6
S'\xfa,X\xaez\x11\xd2?'
p1294
tp1295
Rp1296
tp1297
a(S'adhesive category'
p1298
g2
(g6
S'\xf8&\xd9:\xfd\t\xd2?'
p1299
tp1300
Rp1301
tp1302
a(S'hopfian object'
p1303
g2
(g6
S'\xf8\x9c\x8c>\xc8\x06\xd2?'
p1304
tp1305
Rp1306
tp1307
a(S'essential monomorphism'
p1308
g2
(g6
S'\x8e\xfc~W\xbb\x05\xd2?'
p1309
tp1310
Rp1311
tp1312
a(S'natural number object'
p1313
g2
(g6
S'\xa6WeI\xf5\x03\xd2?'
p1314
tp1315
Rp1316
tp1317
a(S'motive (algebraic geometry)'
p1318
g2
(g6
S'9\xe9\x9b9\xe2\xf6\xd1?'
p1319
tp1320
Rp1321
tp1322
a(S'dagger symmetric monoidal category'
p1323
g2
(g6
S'\x80\xf5\xff\xf7\xc0\xef\xd1?'
p1324
tp1325
Rp1326
tp1327
a(S'category management'
p1328
g2
(g6
S'\xf5\xd3b\xe1s\xe8\xd1?'
p1329
tp1330
Rp1331
tp1332
a(S'pullback (category theory)'
p1333
g2
(g6
S']\r\x9ak\xa9\xe7\xd1?'
p1334
tp1335
Rp1336
tp1337
a(S'model theory'
p1338
g2
(g6
S'\xdf4Z\x90\xc8\xd8\xd1?'
p1339
tp1340
Rp1341
tp1342
a(S'denis higgs'
p1343
g2
(g6
S'r\\|\x1c\xa1\xc2\xd1?'
p1344
tp1345
Rp1346
tp1347
a(S'dual object'
p1348
g2
(g6
S'f\xd0\xa2\x88\x05\xc0\xd1?'
p1349
tp1350
Rp1351
tp1352
a(S'map (mathematics)'
p1353
g2
(g6
S'\x07\x0f\xbaI\x90\xa6\xd1?'
p1354
tp1355
Rp1356
tp1357
a(S'conglomerate (set theory)'
p1358
g2
(g6
S'\xac\x19\xf2\x0c\x93\x99\xd1?'
p1359
tp1360
Rp1361
tp1362
a(S'center (category theory)'
p1363
g2
(g6
S't\x13\xf8\xd9\x0b\x93\xd1?'
p1364
tp1365
Rp1366
tp1367
a(S'symmetric monoidal category'
p1368
g2
(g6
S'\xce\x07uk\xf0\x8f\xd1?'
p1369
tp1370
Rp1371
tp1372
a(S'full'
p1373
g2
(g6
S'\xac\\\xbdO-\x8b\xd1?'
p1374
tp1375
Rp1376
tp1377
a(S'index of new york-related articles'
p1378
g2
(g6
S'\xcfE\n\x98\xf4\x8a\xd1?'
p1379
tp1380
Rp1381
tp1382
a(S'\xc3\x89tale fundamental group'
p1383
g2
(g6
S'\xdb|\x97\xd5\xa6\x88\xd1?'
p1384
tp1385
Rp1386
tp1387
a(S'category 5'
p1388
g2
(g6
S'8\x1f:a\xe5\x85\xd1?'
p1389
tp1390
Rp1391
tp1392
a(S'monoidal category action'
p1393
g2
(g6
S'NH\xc9\xb8\t\x84\xd1?'
p1394
tp1395
Rp1396
tp1397
a(S'quiver (mathematics)'
p1398
g2
(g6
S'\x87\xe61\x073z\xd1?'
p1399
tp1400
Rp1401
tp1402
a(S'intuitionistic type theory'
p1403
g2
(g6
S'\xe2\xb9\xad\xf88w\xd1?'
p1404
tp1405
Rp1406
tp1407
a(S'endomorphism'
p1408
g2
(g6
S'\xefv\xd9\xa9\ti\xd1?'
p1409
tp1410
Rp1411
tp1412
a(S'gerbe'
p1413
g2
(g6
S'w\xee\x84\xc3\x1fb\xd1?'
p1414
tp1415
Rp1416
tp1417
a(S'distributive category'
p1418
g2
(g6
S'\x11\x90\xbeU1`\xd1?'
p1419
tp1420
Rp1421
tp1422
a(S'simplicial localization'
p1423
g2
(g6
S'"\x84\\\xe3\xce_\xd1?'
p1424
tp1425
Rp1426
tp1427
a(S'morphism of algebraic varieties'
p1428
g2
(g6
S'\xd0r~3\x01Y\xd1?'
p1429
tp1430
Rp1431
tp1432
a(S'michael barr (mathematician)'
p1433
g2
(g6
S'\x89.\xad\xbagT\xd1?'
p1434
tp1435
Rp1436
tp1437
a(S'list of important publications in mathematics'
p1438
g2
(g6
S'\n\x1e\xf5\xb3\xdbK\xd1?'
p1439
tp1440
Rp1441
tp1442
a(S'list of mountain passes and hills in the tour de france'
p1443
g2
(g6
S'^\xd5j\x80\xb0E\xd1?'
p1444
tp1445
Rp1446
tp1447
a(S'proper morphism'
p1448
g2
(g6
S'khK\x93\xdb7\xd1?'
p1449
tp1450
Rp1451
tp1452
a(S'm-net literary awards'
p1453
g2
(g6
S'\xb0\x91\xad\xa7\xb42\xd1?'
p1454
tp1455
Rp1456
tp1457
a(S'injective object'
p1458
g2
(g6
S'\xb9\xd1\x99\xb4\x00-\xd1?'
p1459
tp1460
Rp1461
tp1462
a(S'sapana sapana'
p1463
g2
(g6
S"li\x85\x97q'\xd1?"
p1464
tp1465
Rp1466
tp1467
a(S'equivalent definitions of mathematical structures'
p1468
g2
(g6
S'+\xfb7\xcb\x04\x1b\xd1?'
p1469
tp1470
Rp1471
tp1472
a(S'smooth functor'
p1473
g2
(g6
S'\x83S\xe4\xa7\xbc\x18\xd1?'
p1474
tp1475
Rp1476
tp1477
a(S'preordered class'
p1478
g2
(g6
S'{\x133\x088\x16\xd1?'
p1479
tp1480
Rp1481
tp1482
a(S'k-theory'
p1483
g2
(g6
S'q\xfc(f\xcd\x01\xd1?'
p1484
tp1485
Rp1486
tp1487
a(S'category (kant)'
p1488
g2
(g6
S'q\x19\xaa\x02\x9c\xf0\xd0?'
p1489
tp1490
Rp1491
tp1492
a(S'sheaf (mathematics)'
p1493
g2
(g6
S'\x0e\x01|ft\xf0\xd0?'
p1494
tp1495
Rp1496
tp1497
a(S'category of magmas'
p1498
g2
(g6
S'\x17\x0c\xa33\x84\xe0\xd0?'
p1499
tp1500
Rp1501
tp1502
a(S'prototype theory'
p1503
g2
(g6
S'i\x1b\x15\xb7\x0e\xd4\xd0?'
p1504
tp1505
Rp1506
tp1507
a(S'fundamental theorem of topos theory'
p1508
g2
(g6
S'\x89\x8el\x0bd\xce\xd0?'
p1509
tp1510
Rp1511
tp1512
a.