(lp0
(S'cognitive science'
p1
cnumpy.core.multiarray
scalar
p2
(cnumpy
dtype
p3
(S'f8'
p4
I0
I1
tp5
Rp6
(I3
S'<'
p7
NNNI-1
I-1
I0
tp8
bS'\x00\x00\x00\x00\x00\x00\xf0?'
p9
tp10
Rp11
tp12
a(S'cognitive psychology'
p13
g2
(g6
S'`\xf7\xcdN\x80\x90\xe6?'
p14
tp15
Rp16
tp17
a(S'cognitive neuroscience'
p18
g2
(g6
S'\xdaM\xe1\x04\xd5\x86\xe6?'
p19
tp20
Rp21
tp22
a(S'cognitive science society'
p23
g2
(g6
S'*\x18#\x98\xc1\xc6\xe5?'
p24
tp25
Rp26
tp27
a(S'wayne d. gray'
p28
g2
(g6
S'\xaey\x94,\xf8\xc2\xe5?'
p29
tp30
Rp31
tp32
a(S'list of institutions granting degrees in cognitive science'
p33
g2
(g6
S'!DDfD\xbb\xe5?'
p34
tp35
Rp36
tp37
a(S'cognitive (disambiguation)'
p38
g2
(g6
S'x?r\xe6j=\xe5?'
p39
tp40
Rp41
tp42
a(S'central and east european center for cognitive science'
p43
g2
(g6
S'\xff\xe5\x08SN3\xe5?'
p44
tp45
Rp46
tp47
a(S'cognitive geography'
p48
g2
(g6
S'\x0boWh30\xe5?'
p49
tp50
Rp51
tp52
a(S'cognition'
p53
g2
(g6
S'\r\xdd8;\xe3)\xe5?'
p54
tp55
Rp56
tp57
a(S'cognitive biology'
p58
g2
(g6
S'\xa0\xa4\x0cO+\x17\xe5?'
p59
tp60
Rp61
tp62
a(S'indiana archives of cognitive science'
p63
g2
(g6
S'm\xfc0\x8dC\xb3\xe4?'
p64
tp65
Rp66
tp67
a(S'david kirsh'
p68
g2
(g6
S"\xb7\xf9\xc4'7\x97\xe4?"
p69
tp70
Rp71
tp72
a(S'computational cognition'
p73
g2
(g6
S'`\x9c\xd0\x02wQ\xe4?'
p74
tp75
Rp76
tp77
a(S'cognitive ecology'
p78
g2
(g6
S'D\xd2A\xd3\xd5\xf7\xe3?'
p79
tp80
Rp81
tp82
a(S'cognitive philology'
p83
g2
(g6
S'@<v(\x97\xf7\xe3?'
p84
tp85
Rp86
tp87
a(S'zenon pylyshyn'
p88
g2
(g6
S'(f\xf9\x8a\x86\xdd\xe3?'
p89
tp90
Rp91
tp92
a(S'cognitive neuropsychology'
p93
g2
(g6
S'\x10\x8c\xf0\xd8L\xd3\xe3?'
p94
tp95
Rp96
tp97
a(S'cognitivism (psychology)'
p98
g2
(g6
S'\x1b\xf9\x10h\xcc\xc4\xe3?'
p99
tp100
Rp101
tp102
a(S'cognitive neuropsychiatry'
p103
g2
(g6
S'_\xe0\xf8\xab\x99\x8e\xe3?'
p104
tp105
Rp106
tp107
a(S'cognitive linguistics'
p108
g2
(g6
S'7\xf5c\x9f\xf1}\xe3?'
p109
tp110
Rp111
tp112
a(S'cognitive revolution'
p113
g2
(g6
S'\xd3x\x98\x0f\xefp\xe3?'
p114
tp115
Rp116
tp117
a(S'cognitive ergonomics'
p118
g2
(g6
S'\xf7X\xad\x87CX\xe3?'
p119
tp120
Rp121
tp122
a(S'ron sun'
p123
g2
(g6
S'\x80@\xd7=FH\xe3?'
p124
tp125
Rp126
tp127
a(S'socio-cognitive'
p128
g2
(g6
S'\xf0\x0b\x1f\x0b_9\xe3?'
p129
tp130
Rp131
tp132
a(S'brief cognitive assessment tool'
p133
g2
(g6
S'\xb2\x7f\x00k\x00\x1f\xe3?'
p134
tp135
Rp136
tp137
a(S'cognitive style'
p138
g2
(g6
S'\xddS\xd2\xa9\x99\x1e\xe3?'
p139
tp140
Rp141
tp142
a(S'cognitive rhetoric'
p143
g2
(g6
S'Y\xf7^\x19\xac\x02\xe3?'
p144
tp145
Rp146
tp147
a(S'cognitive deficit'
p148
g2
(g6
S'\xd7\xb6\xa9E\xb5\xf2\xe2?'
p149
tp150
Rp151
tp152
a(S'cognitive architecture'
p153
g2
(g6
S'\xd3\x1f"\xd8\x13\xc0\xe2?'
p154
tp155
Rp156
tp157
a(S'cognitive liberty'
p158
g2
(g6
S'@\xc7\x8d}0\xaa\xe2?'
p159
tp160
Rp161
tp162
a(S'cognitive reframing'
p163
g2
(g6
S'\xd9b<\xde\xba\xa0\xe2?'
p164
tp165
Rp166
tp167
a(S'cristiano castelfranchi'
p168
g2
(g6
S's\xde\xf1\x99\x18\x92\xe2?'
p169
tp170
Rp171
tp172
a(S'cognitive science of religion'
p173
g2
(g6
S'\x91\xe4\xca\x90\xde\x8e\xe2?'
p174
tp175
Rp176
tp177
a(S'cognitive reserve'
p178
g2
(g6
S'\xe7"\x0b!:Y\xe2?'
p179
tp180
Rp181
tp182
a(S'florida cognitive activities scale'
p183
g2
(g6
S"$@\xe1\x1c\xca'\xe2?"
p184
tp185
Rp186
tp187
a(S'cognitive therapy'
p188
g2
(g6
S'\x85\x10\xf5@\xcc#\xe2?'
p189
tp190
Rp191
tp192
a(S'cognitive musicology'
p193
g2
(g6
S'\x83>\x8f,<\x03\xe2?'
p194
tp195
Rp196
tp197
a(S'david klahr'
p198
g2
(g6
S'\xe6\x03\x1d);\xbd\xe1?'
p199
tp200
Rp201
tp202
a(S'index of cognitive science articles'
p203
g2
(g6
S'\xb6\xacm\xe0!\x9d\xe1?'
p204
tp205
Rp206
tp207
a(S'cognitive tutor'
p208
g2
(g6
S'\xb4\xd7y\x1f\xc1\x8e\xe1?'
p209
tp210
Rp211
tp212
a(S'cognitive anthropology'
p213
g2
(g6
S'\xc4\x03Z6\xe7\x8d\xe1?'
p214
tp215
Rp216
tp217
a(S'merlin donald'
p218
g2
(g6
S'\xb2<w)/\x8b\xe1?'
p219
tp220
Rp221
tp222
a(S'alexander kravchenko (linguist)'
p223
g2
(g6
S'\xb3\x00\xf5Q\xd3\x89\xe1?'
p224
tp225
Rp226
tp227
a(S'cognifit'
p228
g2
(g6
S'\xc9\x9eoE\xd5k\xe1?'
p229
tp230
Rp231
tp232
a(S'john robert anderson (psychologist)'
p233
g2
(g6
S'Dev\xfe\xa2a\xe1?'
p234
tp235
Rp236
tp237
a(S'cognitivism'
p238
g2
(g6
S'9\xbe\xd7\x99\xb2Y\xe1?'
p239
tp240
Rp241
tp242
a(S'cognitive load'
p243
g2
(g6
S'^% \xb2.V\xe1?'
p244
tp245
Rp246
tp247
a(S'jung-mo lee'
p248
g2
(g6
S'\x9bc\x14\xc9\xf2D\xe1?'
p249
tp250
Rp251
tp252
a(S'nancy kanwisher'
p253
g2
(g6
S'\xe4T\x1d\xdd\xfe\x0c\xe1?'
p254
tp255
Rp256
tp257
a(S'cognitive authority'
p258
g2
(g6
S'3\xfcP?\xb3\xf7\xe0?'
p259
tp260
Rp261
tp262
a(S'yuko munakata'
p263
g2
(g6
S'-(\x80\x11\xf8\xf5\xe0?'
p264
tp265
Rp266
tp267
a(S'frank ritter (professor)'
p268
g2
(g6
S'\x16\xf0\xaf\xd2\xa7\xd2\xe0?'
p269
tp270
Rp271
tp272
a(S'cognitive remediation therapy'
p273
g2
(g6
S'\xc7\x01F\xc1\xc6\xc8\xe0?'
p274
tp275
Rp276
tp277
a(S'angela d. friederici'
p278
g2
(g6
S'V3v\xb1g\x9c\xe0?'
p279
tp280
Rp281
tp282
a(S'cognitive poetics'
p283
g2
(g6
S'\x84\xb0\xec97\x9a\xe0?'
p284
tp285
Rp286
tp287
a(S'cognitive restructuring'
p288
g2
(g6
S'\xcf\xde\xef\x06\x80\x7f\xe0?'
p289
tp290
Rp291
tp292
a(S'cognitive neuroscience society'
p293
g2
(g6
S'\x05\xb5\xdb#\xdfs\xe0?'
p294
tp295
Rp296
tp297
a(S'neurophilosophy'
p298
g2
(g6
S'9\x13\xa17\xddm\xe0?'
p299
tp300
Rp301
tp302
a(S'neurocognitive'
p303
g2
(g6
S'\xe9\xfe\x03\x00wY\xe0?'
p304
tp305
Rp306
tp307
a(S'mark turner (cognitive scientist)'
p308
g2
(g6
S'w9o\x18\x02R\xe0?'
p309
tp310
Rp311
tp312
a(S'cognitive ethology'
p313
g2
(g6
S'\x15\xd7A\x880D\xe0?'
p314
tp315
Rp316
tp317
a(S'cognitive grammar'
p318
g2
(g6
S'\x17#\xcd\xc3\xee:\xe0?'
p319
tp320
Rp321
tp322
a(S'cognitive bias mitigation'
p323
g2
(g6
S'\x91-\x9e\xe6\xe78\xe0?'
p324
tp325
Rp326
tp327
a(S'european society for cognitive psychology'
p328
g2
(g6
S'\x1fQ\xe4+\xcf"\xe0?'
p329
tp330
Rp331
tp332
a(S'cognitive shifting'
p333
g2
(g6
S'\x90m);q\x1b\xe0?'
p334
tp335
Rp336
tp337
a(S'edwin hutchins'
p338
g2
(g6
S'mOp\x90\x92\x17\xe0?'
p339
tp340
Rp341
tp342
a(S'cognitive robotics'
p343
g2
(g6
S'\xd4\x9c\xae:n\x13\xe0?'
p344
tp345
Rp346
tp347
a(S'cognitive map'
p348
g2
(g6
S'"\x98\xfa;\xc6\x07\xe0?'
p349
tp350
Rp351
tp352
a(S'cognitive interview'
p353
g2
(g6
S'n|\x13"\x1a\x00\xe0?'
p354
tp355
Rp356
tp357
a(S'embodied cognitive science'
p358
g2
(g6
S'Y\xc1\x87+\x9a\xe8\xdf?'
p359
tp360
Rp361
tp362
a(S'information processing theory'
p363
g2
(g6
S'0\xa7p\xb8\xb8\xdd\xdf?'
p364
tp365
Rp366
tp367
a(S'cognitive hearing science'
p368
g2
(g6
S"V'\xcc9\x07\xd9\xdf?"
p369
tp370
Rp371
tp372
a(S'cognitive development'
p373
g2
(g6
S'Y\xdf\x88\xc1%\xc7\xdf?'
p374
tp375
Rp376
tp377
a(S'institute for cognitive science studies'
p378
g2
(g6
S'Z\x11\xafLe\x9f\xdf?'
p379
tp380
Rp381
tp382
a(S'nijmegen institute for cognition and information'
p383
g2
(g6
S'\xe8HWE\xafi\xdf?'
p384
tp385
Rp386
tp387
a(S'mark johnson (philosopher)'
p388
g2
(g6
S'\x88\xefA*6i\xdf?'
p389
tp390
Rp391
tp392
a(S'cognitive complexity'
p393
g2
(g6
S'PR\x01\xa2\xc8Z\xdf?'
p394
tp395
Rp396
tp397
a(S'cognitive skill'
p398
g2
(g6
S'x\xa1\xcd\x11\xacS\xdf?'
p399
tp400
Rp401
tp402
a(S'cognitive apprenticeship'
p403
g2
(g6
S'd&\xc7\xe0T?\xdf?'
p404
tp405
Rp406
tp407
a(S'cognitive inhibition'
p408
g2
(g6
S'C\x18\xe0\x15\xa6<\xdf?'
p409
tp410
Rp411
tp412
a(S'developmental cognitive neuroscience'
p413
g2
(g6
S'\x15\xb7\xfc\x98\xd1$\xdf?'
p414
tp415
Rp416
tp417
a(S'cognitive flexibility'
p418
g2
(g6
S'\x8c\xa3\x02\xd0B \xdf?'
p419
tp420
Rp421
tp422
a(S'music psychology'
p423
g2
(g6
S'&\xbf\xa0o\x01\x14\xdf?'
p424
tp425
Rp426
tp427
a(S'markus f. peschl'
p428
g2
(g6
S'\xbe\x97\x1c\xdd%\x0b\xdf?'
p429
tp430
Rp431
tp432
a(S'cognitive sociolinguistics'
p433
g2
(g6
S'\xe4\xb9\xf7\x1e\xf4\x02\xdf?'
p434
tp435
Rp436
tp437
a(S'international cognitive linguistics association'
p438
g2
(g6
S'\xeb`\xe6\xc8o\xfb\xde?'
p439
tp440
Rp441
tp442
a(S'ronald langacker'
p443
g2
(g6
S'\xe9\x15\x95=\xbb\xea\xde?'
p444
tp445
Rp446
tp447
a(S'cognitive bias'
p448
g2
(g6
S'\x1aK\x1a\r~\xc0\xde?'
p449
tp450
Rp451
tp452
a(S'cognitive training'
p453
g2
(g6
S'\x14\xfb\x08\xac\x1f\x9b\xde?'
p454
tp455
Rp456
tp457
a(S'james d. hollan'
p458
g2
(g6
S'\xc2M\xcf\x87!\x89\xde?'
p459
tp460
Rp461
tp462
a(S'roi cohen kadosh'
p463
g2
(g6
S'P\x80X\xc0\xbe\x83\xde?'
p464
tp465
Rp466
tp467
a(S'cognitive vulnerability'
p468
g2
(g6
S'\xfe%\x0f:\x9a_\xde?'
p469
tp470
Rp471
tp472
a(S'cognitive assets'
p473
g2
(g6
S'\xd51\x95C\xc3+\xde?'
p474
tp475
Rp476
tp477
a(S'epidemiology of representations'
p478
g2
(g6
S'\xd5gQ%\xa9*\xde?'
p479
tp480
Rp481
tp482
a(S'gordon logan (academic)'
p483
g2
(g6
S'\xc1\xde\xc6\xa6}\t\xde?'
p484
tp485
Rp486
tp487
a(S'polish cognitive linguistics association'
p488
g2
(g6
S"['\x1b*\xae\x08\xde?"
p489
tp490
Rp491
tp492
a(S'riley gardner'
p493
g2
(g6
S'\x8fM\xa3\x80H\xe5\xdd?'
p494
tp495
Rp496
tp497
a(S'john c. marshall'
p498
g2
(g6
S'S\x94\x90V\x17\xdf\xdd?'
p499
tp500
Rp501
tp502
a(S'memory improvement'
p503
g2
(g6
S'h>\x10_\xd6\xd9\xdd?'
p504
tp505
Rp506
tp507
a(S'carnegie building'
p508
g2
(g6
S'\n]\xf0i\xb1\xd1\xdd?'
p509
tp510
Rp511
tp512
a(S'the center for vital longevity'
p513
g2
(g6
S'O\xa5\xef\xc3\xcd\xbb\xdd?'
p514
tp515
Rp516
tp517
a(S'avishai henik'
p518
g2
(g6
S'\x82\xba\xa3/\r\xaf\xdd?'
p519
tp520
Rp521
tp522
a(S'cognitive module'
p523
g2
(g6
S'\x11\x82\x1e\xe9_\xa4\xdd?'
p524
tp525
Rp526
tp527
a(S'journal of cognitive neuroscience'
p528
g2
(g6
S'\x88j\x19$\xa4x\xdd?'
p529
tp530
Rp531
tp532
a(S'alan m. leslie'
p533
g2
(g6
S'\xf3E\xd6b^a\xdd?'
p534
tp535
Rp536
tp537
a(S'fernand gobet'
p538
g2
(g6
S'\x1e\xe9\x988\xe0I\xdd?'
p539
tp540
Rp541
tp542
a(S'paolo canettieri'
p543
g2
(g6
S'0W~\xdb\x1a6\xdd?'
p544
tp545
Rp546
tp547
a(S'robert goldstone'
p548
g2
(g6
S"\x13\xdd\x92\xaf\x04'\xdd?"
p549
tp550
Rp551
tp552
a(S'self-administered gerocognitive examination (sage)'
p553
g2
(g6
S'gh\x89\xb5\x93\x18\xdd?'
p554
tp555
Rp556
tp557
a(S'david vernon (professor)'
p558
g2
(g6
S'|\xec\x16\x96+\x05\xdd?'
p559
tp560
Rp561
tp562
a(S'enterprise cognitive system'
p563
g2
(g6
S'=\x84j\xe2\x1d\x03\xdd?'
p564
tp565
Rp566
tp567
a(S'stan franklin'
p568
g2
(g6
S'\xbepI\x9b\xd9\xfb\xdc?'
p569
tp570
Rp571
tp572
a(S'stephen grossberg'
p573
g2
(g6
S'\x06\x89\xc5%\\\xd5\xdc?'
p574
tp575
Rp576
tp577
a(S'cognitive city'
p578
g2
(g6
S'\xe3\xad\x06\x1e\xf2\xb3\xdc?'
p579
tp580
Rp581
tp582
a(S'act-r'
p583
g2
(g6
S'\xad\x15\xfd>\xfa\xb1\xdc?'
p584
tp585
Rp586
tp587
a(S'john morton (scientist)'
p588
g2
(g6
S'\t\xc6\x96\xfe\xd9\x92\xdc?'
p589
tp590
Rp591
tp592
a(S'anna christina nobre'
p593
g2
(g6
S'\r}\x9f\x87\xb9\x8a\xdc?'
p594
tp595
Rp596
tp597
a(S'mark h. johnson'
p598
g2
(g6
S'\xcco\xf7\xf7\x19\x88\xdc?'
p599
tp600
Rp601
tp602
a(S'james mcclelland (psychologist)'
p603
g2
(g6
S'\x14M"\xd3.v\xdc?'
p604
tp605
Rp606
tp607
a(S'cognitive computing'
p608
g2
(g6
S'\xba3\xbf\t\x96m\xdc?'
p609
tp610
Rp611
tp612
a(S'behavioral geography'
p613
g2
(g6
S';\xaa\xc2\x00\x9dQ\xdc?'
p614
tp615
Rp616
tp617
a(S'cognitive infocommunications'
p618
g2
(g6
S'c\xb4\x03\xac\xb5H\xdc?'
p619
tp620
Rp621
tp622
a(S'cognitive rehabilitation therapy'
p623
g2
(g6
S'\xce\xc2n/\xe6=\xdc?'
p624
tp625
Rp626
tp627
a(S'parallel constraint satisfaction processes'
p628
g2
(g6
S"\xe2'i\x90\xcb0\xdc?"
p629
tp630
Rp631
tp632
a(S'justin l. barrett'
p633
g2
(g6
S'\x160riA)\xdc?'
p634
tp635
Rp636
tp637
a(S'educational psychology'
p638
g2
(g6
S"'\x02p\x12l&\xdc?"
p639
tp640
Rp641
tp642
a(S'international association for the cognitive science of religion'
p643
g2
(g6
S'~\xedPU\xcf$\xdc?'
p644
tp645
Rp646
tp647
a(S'cognitive technologies'
p648
g2
(g6
S'\xaa\xb0uH\xe1#\xdc?'
p649
tp650
Rp651
tp652
a(S'cognitive archaeology'
p653
g2
(g6
S'+\x8f\xb0\xef\x8a\x1a\xdc?'
p654
tp655
Rp656
tp657
a(S'f.c. donders centre for cognitive neuroimaging'
p658
g2
(g6
S'Z\xfb\xc3\x8eg\x17\xdc?'
p659
tp660
Rp661
tp662
a(S'ipm school of cognitive sciences'
p663
g2
(g6
S'\xb2\xab!\xe4\xfb\x14\xdc?'
p664
tp665
Rp666
tp667
a(S'idealized cognitive model'
p668
g2
(g6
S'\xd9\xaf\xb2\x97U\xfd\xdb?'
p669
tp670
Rp671
tp672
a(S'ablex publishing'
p673
g2
(g6
S'6\x9b\x08\x827\xe9\xdb?'
p674
tp675
Rp676
tp677
a(S'chrest'
p678
g2
(g6
S'h#\xef\x9b3\xe0\xdb?'
p679
tp680
Rp681
tp682
a(S'basic science (psychology)'
p683
g2
(g6
S'>\t3<(\xc6\xdb?'
p684
tp685
Rp686
tp687
a(S'cognitive miser'
p688
g2
(g6
S'\x97\x8b\xccUT\xc4\xdb?'
p689
tp690
Rp691
tp692
a(S'cognitive computing research group'
p693
g2
(g6
S'\x06\xa4\xce90\xc2\xdb?'
p694
tp695
Rp696
tp697
a(S'cognitive elite'
p698
g2
(g6
S'\x9bX#\xda\xa5\xae\xdb?'
p699
tp700
Rp701
tp702
a(S'timothy a. salthouse'
p703
g2
(g6
S'1\x89\x00\xe2\xc0\xa6\xdb?'
p704
tp705
Rp706
tp707
a(S'howard nusbaum'
p708
g2
(g6
S'~\xe8c\\\xd2\xa5\xdb?'
p709
tp710
Rp711
tp712
a(S'jenny saffran'
p713
g2
(g6
S'N\xca\xf8\xb5}\x9f\xdb?'
p714
tp715
Rp716
tp717
a(S'george armitage miller'
p718
g2
(g6
S']J\x19\xb6\x98\x83\xdb?'
p719
tp720
Rp721
tp722
a(S'thought'
p723
g2
(g6
S'\xdd>1A\x84o\xdb?'
p724
tp725
Rp726
tp727
a(S'max coltheart'
p728
g2
(g6
S'\xfb$H\xc4\xc1^\xdb?'
p729
tp730
Rp731
tp732
a(S'mind reading'
p733
g2
(g6
S'\x9c\xbcN\x1a\xa17\xdb?'
p734
tp735
Rp736
tp737
a(S'philip david zelazo'
p738
g2
(g6
S'\xd1\x9a\xfe"N,\xdb?'
p739
tp740
Rp741
tp742
a(S'eleanor saffran'
p743
g2
(g6
S'\xab\x16\rA\x1b#\xdb?'
p744
tp745
Rp746
tp747
a(S'margaret boden'
p748
g2
(g6
S'\x15T\xe0\xe0J\x0f\xdb?'
p749
tp750
Rp751
tp752
a(S'ulric neisser'
p753
g2
(g6
S'L\xc2\x90\x7f1\xfa\xda?'
p754
tp755
Rp756
tp757
a(S'ian deary'
p758
g2
(g6
S'[5]\x8f\xd9\xe1\xda?'
p759
tp760
Rp761
tp762
a(S'aron k. barbey'
p763
g2
(g6
S'w\x0f\x9d\xe2D\xe0\xda?'
p764
tp765
Rp766
tp767
a(S'pass theory of intelligence'
p768
g2
(g6
S'\x04\xabV\xd11\xd8\xda?'
p769
tp770
Rp771
tp772
a(S'ray jackendoff'
p773
g2
(g6
S'\x891\x88\xcf\x0c\xd8\xda?'
p774
tp775
Rp776
tp777
a(S'marcel just'
p778
g2
(g6
S'\xa8\xaf\x93\x90\xcf\xd3\xda?'
p779
tp780
Rp781
tp782
a(S'bayesian cognitive science'
p783
g2
(g6
S'*Z\xbf\xf3\x0c\xcf\xda?'
p784
tp785
Rp786
tp787
a(S'david poeppel'
p788
g2
(g6
S'4v\x8bE\xf0\xc7\xda?'
p789
tp790
Rp791
tp792
a(S'cognitive specialization'
p793
g2
(g6
S'\xabk\xf0\x02\x03\xc4\xda?'
p794
tp795
Rp796
tp797
a(S'educational neuroscience'
p798
g2
(g6
S'\xd2\x8f\x9e\xbd\xe4\xa8\xda?'
p799
tp800
Rp801
tp802
a(S'center for mind and brain'
p803
g2
(g6
S'\xdb\x8e\xe1\xbcu\xa4\xda?'
p804
tp805
Rp806
tp807
a(S'cognitive shift'
p808
g2
(g6
S'\x10\xc7F\x18\x04\xa1\xda?'
p809
tp810
Rp811
tp812
a(S'sharon thompson-schill'
p813
g2
(g6
S'0#\xcc\xaa>\x9e\xda?'
p814
tp815
Rp816
tp817
a(S'lisa zunshine'
p818
g2
(g6
S'C=s\xa3\x06\x93\xda?'
p819
tp820
Rp821
tp822
a(S'cognitive computer'
p823
g2
(g6
S'=\x91\x8f\xa3E\x92\xda?'
p824
tp825
Rp826
tp827
a(S'francesca happ\xc3\xa9'
p828
g2
(g6
S'+\xa4\x19\x97\xd3\x90\xda?'
p829
tp830
Rp831
tp832
a(S'cognitive phonology'
p833
g2
(g6
S'(4q\xdd\x1e\x88\xda?'
p834
tp835
Rp836
tp837
a(S'dehaene\xe2\x80\x93changeux model'
p838
g2
(g6
S'd\rI\xad\x1c\x88\xda?'
p839
tp840
Rp841
tp842
a(S'cognitive semantics'
p843
g2
(g6
S'\xea\xa6\xee\xbb\x14f\xda?'
p844
tp845
Rp846
tp847
a(S'human performance modeling'
p848
g2
(g6
S',\xfd\x1bH\xcd^\xda?'
p849
tp850
Rp851
tp852
a(S'cognitive behavioral training'
p853
g2
(g6
S'\xb3\x8e\x17x\n^\xda?'
p854
tp855
Rp856
tp857
a(S'michael inzlicht'
p858
g2
(g6
S'\xa5\x10\xf2\xb6?Z\xda?'
p859
tp860
Rp861
tp862
a(S'cognitive systems research'
p863
g2
(g6
S'\x1b\x96\x08nJT\xda?'
p864
tp865
Rp866
tp867
a(S'cognitive tempo'
p868
g2
(g6
S'n\xf9\x8fj\xb8J\xda?'
p869
tp870
Rp871
tp872
a(S'distributed cognition'
p873
g2
(g6
S'v\xe8#5EI\xda?'
p874
tp875
Rp876
tp877
a(S'information processing technology and aging'
p878
g2
(g6
S'Q\xd1LE\xf9H\xda?'
p879
tp880
Rp881
tp882
a(S'christopher chabris'
p883
g2
(g6
S'v\xda\xd5\x7f\x1c9\xda?'
p884
tp885
Rp886
tp887
a(S'cognitive and linguistic theories of composition'
p888
g2
(g6
S'V\xa0\xd7\xb8w7\xda?'
p889
tp890
Rp891
tp892
a(S'lida (cognitive architecture)'
p893
g2
(g6
S"\x1d\xecj\x8f\xe9'\xda?"
p894
tp895
Rp896
tp897
a(S'social cognition'
p898
g2
(g6
S'\xa0\xfc\xa1\xc3\\!\xda?'
p899
tp900
Rp901
tp902
a(S'learning problems in childhood cancer'
p903
g2
(g6
S'X~\x12\x9b\xdc\x1c\xda?'
p904
tp905
Rp906
tp907
a(S'cognitive model'
p908
g2
(g6
S'\xd1d4\x0e\x9e\x19\xda?'
p909
tp910
Rp911
tp912
a(S'marc jeannerod'
p913
g2
(g6
S'\x02"3\x91e\x19\xda?'
p914
tp915
Rp916
tp917
a(S'daniel david'
p918
g2
(g6
S'\xb5\xda\x85\x04\xa8\x0e\xda?'
p919
tp920
Rp921
tp922
a(S'alice medalia'
p923
g2
(g6
S'\x8f\xdaC\xb8\x7f\t\xda?'
p924
tp925
Rp926
tp927
a(S'vrfcat'
p928
g2
(g6
S'/"}gg\x05\xda?'
p929
tp930
Rp931
tp932
a(S'women, fire, and dangerous things'
p933
g2
(g6
S'n\xde\xcd\x8d\x1f\xfe\xd9?'
p934
tp935
Rp936
tp937
a(S'thomas r.g. green'
p938
g2
(g6
S')%e!L\xfb\xd9?'
p939
tp940
Rp941
tp942
a(S'centre de recherche en epist\xc3\xa9mologie appliqu\xc3\xa9e'
p943
g2
(g6
S'k%>$\xe9\xfa\xd9?'
p944
tp945
Rp946
tp947
a(S'language of thought hypothesis'
p948
g2
(g6
S'`4\xfb]\xa3\xfa\xd9?'
p949
tp950
Rp951
tp952
a(S'enactivism'
p953
g2
(g6
S'\x08\xf0%TE\xf3\xd9?'
p954
tp955
Rp956
tp957
a(S'earl k. miller'
p958
g2
(g6
S'\x86jQ\xc6\xa3\xe4\xd9?'
p959
tp960
Rp961
tp962
a(S'russell poldrack'
p963
g2
(g6
S'\\\xd4w\xde\xe0\xda\xd9?'
p964
tp965
Rp966
tp967
a(S'cognitive strategy'
p968
g2
(g6
S'\x0c \xdd\x1c\xfe\xd8\xd9?'
p969
tp970
Rp971
tp972
a(S'functional specialization (brain)'
p973
g2
(g6
S'1\x84<=\xed\xcd\xd9?'
p974
tp975
Rp976
tp977
a(S'psychonomic society'
p978
g2
(g6
S'\xd3u\x9aq\x1a\xc6\xd9?'
p979
tp980
Rp981
tp982
a(S'glyn w. humphreys'
p983
g2
(g6
S'\xfdv,M\x18\xc5\xd9?'
p984
tp985
Rp986
tp987
a(S'barbara tversky'
p988
g2
(g6
S'\xfb\xd9no\x80\xbd\xd9?'
p989
tp990
Rp991
tp992
a(S'cognitive inertia'
p993
g2
(g6
S'Ti\x7fVV\xbc\xd9?'
p994
tp995
Rp996
tp997
a(S'carol l. krumhansl'
p998
g2
(g6
S'P_\x9d5\x1c\xba\xd9?'
p999
tp1000
Rp1001
tp1002
a(S'guy andr\xc3\xa9 boy'
p1003
g2
(g6
S'\xc1\x97;\xd0 \xb9\xd9?'
p1004
tp1005
Rp1006
tp1007
a(S'the extended mind'
p1008
g2
(g6
S':\xac>2\x9a\xb3\xd9?'
p1009
tp1010
Rp1011
tp1012
a(S'stephen laurence'
p1013
g2
(g6
S'(k\xed\x7fy\xb2\xd9?'
p1014
tp1015
Rp1016
tp1017
a(S'robert m. french'
p1018
g2
(g6
S'd.\xa78\x0f\xae\xd9?'
p1019
tp1020
Rp1021
tp1022
a(S'geoffrey potts'
p1023
g2
(g6
S'\t\x16\x7f\xfdQ\xad\xd9?'
p1024
tp1025
Rp1026
tp1027
a(S'linda b. smith'
p1028
g2
(g6
S'\xe7\xca\x1b\x9c~\x8b\xd9?'
p1029
tp1030
Rp1031
tp1032
a(S'mark h. ashcraft'
p1033
g2
(g6
S'\x16\x02\xe7x \x88\xd9?'
p1034
tp1035
Rp1036
tp1037
a(S'harold bekkering'
p1038
g2
(g6
S'\xeczw\xde\xbf\x85\xd9?'
p1039
tp1040
Rp1041
tp1042
a(S'mind'
p1043
g2
(g6
S'\x84+&\xc4\xb9r\xd9?'
p1044
tp1045
Rp1046
tp1047
a(S'lothian birth-cohort studies'
p1048
g2
(g6
S'\xba]=B\x04o\xd9?'
p1049
tp1050
Rp1051
tp1052
a(S'centre of behavioural and cognitive sciences'
p1053
g2
(g6
S"K\xd7f'\xe7l\xd9?"
p1054
tp1055
Rp1056
tp1057
a(S'afzal upal'
p1058
g2
(g6
S'Sl\xbb\x97?l\xd9?'
p1059
tp1060
Rp1061
tp1062
a(S'lera boroditsky'
p1063
g2
(g6
S'%\x05\xa2:6`\xd9?'
p1064
tp1065
Rp1066
tp1067
a(S"addenbrooke's cognitive examination"
p1068
g2
(g6
S'w\x12\n\xa1\xb8_\xd9?'
p1069
tp1070
Rp1071
tp1072
a(S'cognition (journal)'
p1073
g2
(g6
S'\xba\xb5\xd9\xa0\x99_\xd9?'
p1074
tp1075
Rp1076
tp1077
a(S'language module'
p1078
g2
(g6
S',\x18\xa4?jZ\xd9?'
p1079
tp1080
Rp1081
tp1082
a(S'neuropsychology'
p1083
g2
(g6
S'\xef\xbb\xa0\xe3nY\xd9?'
p1084
tp1085
Rp1086
tp1087
a(S'susan schneider (philosopher)'
p1088
g2
(g6
S'p\xdc\xff\x82\xf4R\xd9?'
p1089
tp1090
Rp1091
tp1092
a(S'psi-theory'
p1093
g2
(g6
S'\x90\xc4\x0c\r9N\xd9?'
p1094
tp1095
Rp1096
tp1097
a(S'embodied cognition'
p1098
g2
(g6
S'\xd9\xb9\x85\tGL\xd9?'
p1099
tp1100
Rp1101
tp1102
a(S'george mandler'
p1103
g2
(g6
S'\x8f\xb3|\xd0\x82F\xd9?'
p1104
tp1105
Rp1106
tp1107
a(S'cognitive approaches to grammar'
p1108
g2
(g6
S'\x8ai\xa1X\xd82\xd9?'
p1109
tp1110
Rp1111
tp1112
a(S'cognitive disorder'
p1113
g2
(g6
S'\xc6\x18\x8e\xed\x8a-\xd9?'
p1114
tp1115
Rp1116
tp1117
a(S'neo-piagetian theories of cognitive development'
p1118
g2
(g6
S'5\xbf_\xdcl!\xd9?'
p1119
tp1120
Rp1121
tp1122
a(S'new bulgarian university'
p1123
g2
(g6
S'\\T\x1dR\xc6\x1f\xd9?'
p1124
tp1125
Rp1126
tp1127
a(S'spanish cognitive linguistics association'
p1128
g2
(g6
S'W\xa5\x0cu%\x16\xd9?'
p1129
tp1130
Rp1131
tp1132
a(S'mental chronometry'
p1133
g2
(g6
S'\xfc\x9e\xf0\xda\xf3\x12\xd9?'
p1134
tp1135
Rp1136
tp1137
a(S'elizabeth spelke'
p1138
g2
(g6
S'\\\xc8\x91bv\x02\xd9?'
p1139
tp1140
Rp1141
tp1142
a(S'jacques mehler'
p1143
g2
(g6
S'[O\xfc\x8dB\x00\xd9?'
p1144
tp1145
Rp1146
tp1147
a(S'outline of the human brain'
p1148
g2
(g6
S'3\x10\xcf%\x0b\xfd\xd8?'
p1149
tp1150
Rp1151
tp1152
a(S'augmented cognition'
p1153
g2
(g6
S'\x82&\x9e.\xc4\xfb\xd8?'
p1154
tp1155
Rp1156
tp1157
a(S'attribute hierarchy method'
p1158
g2
(g6
S'\xc8\xbd\r\x00{\xf4\xd8?'
p1159
tp1160
Rp1161
tp1162
a(S'extended mind thesis'
p1163
g2
(g6
S'\x91p\xff\xed]\xe3\xd8?'
p1164
tp1165
Rp1166
tp1167
a(S'michael tomasello'
p1168
g2
(g6
S'Gc\x88\x05\xf7\xd4\xd8?'
p1169
tp1170
Rp1171
tp1172
a(S'dedre gentner'
p1173
g2
(g6
S'\xf5\xa5\x06\x89\xb9\xd1\xd8?'
p1174
tp1175
Rp1176
tp1177
a(S'cognitive semiotics'
p1178
g2
(g6
S'/0qOP\xd0\xd8?'
p1179
tp1180
Rp1181
tp1182
a(S'lorenza colzato'
p1183
g2
(g6
S'\xc2\xcd\x86a\xa4\xc4\xd8?'
p1184
tp1185
Rp1186
tp1187
a(S'leonard talmy'
p1188
g2
(g6
S'\xdc+\xae,\xc3\xb0\xd8?'
p1189
tp1190
Rp1191
tp1192
a(S'andy clark'
p1193
g2
(g6
S'\x82\xa3\t\x00\xf6\xad\xd8?'
p1194
tp1195
Rp1196
tp1197
a(S'keith stenning'
p1198
g2
(g6
S'\xa1\x86\xe9\x15c\xaa\xd8?'
p1199
tp1200
Rp1201
tp1202
a(S'allan m. collins'
p1203
g2
(g6
S'fy\xf1|^\xaa\xd8?'
p1204
tp1205
Rp1206
tp1207
a(S'cognitive justice'
p1208
g2
(g6
S"4\x1b'\xd5\xcc\xa6\xd8?"
p1209
tp1210
Rp1211
tp1212
a(S'timeline of scientific thought'
p1213
g2
(g6
S'\xb3\xb3\x1d\x9a\xa5\xa4\xd8?'
p1214
tp1215
Rp1216
tp1217
a(S'outline of thought'
p1218
g2
(g6
S'\xf4\x8f\xccu%\x8e\xd8?'
p1219
tp1220
Rp1221
tp1222
a(S'cognitive models of information retrieval'
p1223
g2
(g6
S'\xad\x80\xfd\x97\xb5\x8d\xd8?'
p1224
tp1225
Rp1226
tp1227
a(S'cognitive distortion'
p1228
g2
(g6
S'\xf4FT\xafg\x8a\xd8?'
p1229
tp1230
Rp1231
tp1232
a(S'cognitive-affective personality system'
p1233
g2
(g6
S'-\xb2\xb0\xa5M\x86\xd8?'
p1234
tp1235
Rp1236
tp1237
a(S'exocortex'
p1238
g2
(g6
S'\x9d`k\xe1}|\xd8?'
p1239
tp1240
Rp1241
tp1242
a(S'psycholinguistics'
p1243
g2
(g6
S'\xa4\xcd\x84\xa6\xc2r\xd8?'
p1244
tp1245
Rp1246
tp1247
a(S'leiden institute for brain and cognition'
p1248
g2
(g6
S'Z\xdfC\x94\x86o\xd8?'
p1249
tp1250
Rp1251
tp1252
a(S'daphne bavelier'
p1253
g2
(g6
S'A\x9c\x0b\x89Zf\xd8?'
p1254
tp1255
Rp1256
tp1257
a(S'boicho kokinov'
p1258
g2
(g6
S'(\xec*&\xa7G\xd8?'
p1259
tp1260
Rp1261
tp1262
a(S'cognitive response model'
p1263
g2
(g6
S'g\xae4\xd2wE\xd8?'
p1264
tp1265
Rp1266
tp1267
a(S'mind model'
p1268
g2
(g6
S'\x9eB2t\xbc:\xd8?'
p1269
tp1270
Rp1271
tp1272
a(S'martha farah'
p1273
g2
(g6
S'\xce1\xb7\xf2`-\xd8?'
p1274
tp1275
Rp1276
tp1277
a(S'michael corballis'
p1278
g2
(g6
S'b|5\xf9R$\xd8?'
p1279
tp1280
Rp1281
tp1282
a(S'rumelhart prize'
p1283
g2
(g6
S'\xb1\t\x19\xb2n\x1e\xd8?'
p1284
tp1285
Rp1286
tp1287
a(S'laura schulz'
p1288
g2
(g6
S'\x91o\x15ga\x1d\xd8?'
p1289
tp1290
Rp1291
tp1292
a(S'centre for cognitive ageing and cognitive epidemiology'
p1293
g2
(g6
S'o1\xd8\xab"\x1b\xd8?'
p1294
tp1295
Rp1296
tp1297
a(S'4caps'
p1298
g2
(g6
S'\xc9p\xd1\xa1\xd4\x18\xd8?'
p1299
tp1300
Rp1301
tp1302
a(S'torkel klingberg'
p1303
g2
(g6
S'\x14}/\x82\x0e\x0e\xd8?'
p1304
tp1305
Rp1306
tp1307
a(S'yuichi shoda'
p1308
g2
(g6
S'\xb1\xc4P,\x04\xf4\xd7?'
p1309
tp1310
Rp1311
tp1312
a(S'lumosity'
p1313
g2
(g6
S'\xbe\xee\xbf\xee\x8b\xf0\xd7?'
p1314
tp1315
Rp1316
tp1317
a(S'cognitive sociology'
p1318
g2
(g6
S'\x9a\xc3+H\xfc\xee\xd7?'
p1319
tp1320
Rp1321
tp1322
a(S'cognitive therapies for dementia'
p1323
g2
(g6
S'N"\xd0\xbe\x8e\xe9\xd7?'
p1324
tp1325
Rp1326
tp1327
a(S'vyvyan evans'
p1328
g2
(g6
S'\r\x8ed\xdb1\xe9\xd7?'
p1329
tp1330
Rp1331
tp1332
a(S'michael t. ullman'
p1333
g2
(g6
S'\x07\xcd\xac[9\xe8\xd7?'
p1334
tp1335
Rp1336
tp1337
a(S'institut jean nicod'
p1338
g2
(g6
S'\xf0\x9c*\xa6\xa1\xe2\xd7?'
p1339
tp1340
Rp1341
tp1342
a(S'nilli lavie'
p1343
g2
(g6
S'vx\xddm\xaf\xe0\xd7?'
p1344
tp1345
Rp1346
tp1347
a(S'dynamicism'
p1348
g2
(g6
S'\x91\x16\xc7\x03\x13\xce\xd7?'
p1349
tp1350
Rp1351
tp1352
a(S'cognitive dissonance'
p1353
g2
(g6
S'@\x8d\x02\xa1\xc4\xc2\xd7?'
p1354
tp1355
Rp1356
tp1357
a(S'cognitive radio'
p1358
g2
(g6
S'\x9c\x10\xc1O\xd6\xb8\xd7?'
p1359
tp1360
Rp1361
tp1362
a(S'wolfgang prinz'
p1363
g2
(g6
S'\xbbl\x80\x97m\xb4\xd7?'
p1364
tp1365
Rp1366
tp1367
a(S"beck's cognitive triad"
p1368
g2
(g6
S'\xba\xc1O\xa6U\xa0\xd7?'
p1369
tp1370
Rp1371
tp1372
a(S'saint louis university mental status exam'
p1373
g2
(g6
S'q\xd90\x9a\x8c\x99\xd7?'
p1374
tp1375
Rp1376
tp1377
a(S'embodied embedded cognition'
p1378
g2
(g6
S'\x973\xa5#\xa4\x98\xd7?'
p1379
tp1380
Rp1381
tp1382
a(S'moshe bar (neuroscientist)'
p1383
g2
(g6
S'6\xdb\xd3\xc1B\x98\xd7?'
p1384
tp1385
Rp1386
tp1387
a(S'john sweller'
p1388
g2
(g6
S'\xb9 \x04#\xa8\x8f\xd7?'
p1389
tp1390
Rp1391
tp1392
a(S'british association for behavioural and cognitive psychotherapies'
p1393
g2
(g6
S'\x895e\xa1\xb6\x81\xd7?'
p1394
tp1395
Rp1396
tp1397
a(S'neurodevelopmental framework for learning'
p1398
g2
(g6
S'\xf53R;\xc3~\xd7?'
p1399
tp1400
Rp1401
tp1402
a(S'computational-representational understanding of mind'
p1403
g2
(g6
S'\xd2\x023\xe9!z\xd7?'
p1404
tp1405
Rp1406
tp1407
a(S'nora newcombe'
p1408
g2
(g6
S'\xbdlV\x8a\xd4h\xd7?'
p1409
tp1410
Rp1411
tp1412
a(S'robert sylwester'
p1413
g2
(g6
S'\x9a\x10. Wc\xd7?'
p1414
tp1415
Rp1416
tp1417
a(S'association for behavioral and cognitive therapies'
p1418
g2
(g6
S'\x0c\x8e\x7f\xa5\x9cX\xd7?'
p1419
tp1420
Rp1421
tp1422
a(S'olaf sporns'
p1423
g2
(g6
S'\x85\x0c.L\xadW\xd7?'
p1424
tp1425
Rp1426
tp1427
a(S'unified theories of cognition'
p1428
g2
(g6
S'\x0e PL\x95N\xd7?'
p1429
tp1430
Rp1431
tp1432
a(S'laura-ann petitto'
p1433
g2
(g6
S'\xc8;\r\xacDG\xd7?'
p1434
tp1435
Rp1436
tp1437
a(S'barbara sahakian'
p1438
g2
(g6
S'\xf6nt\xb1\x8f=\xd7?'
p1439
tp1440
Rp1441
tp1442
a(S'university of edinburgh school of philosophy, psychology and language sciences'
p1443
g2
(g6
S'\xce\x17^\x9e\x98 \xd7?'
p1444
tp1445
Rp1446
tp1447
a(S'hypostatic model of personality'
p1448
g2
(g6
S'\x8e\xa0\x99\xb0\xff\x1e\xd7?'
p1449
tp1450
Rp1451
tp1452
a(S'william clancey'
p1453
g2
(g6
S'\xd4|i\x1ci\x1e\xd7?'
p1454
tp1455
Rp1456
tp1457
a(S'alva no\xc3\xab'
p1458
g2
(g6
S'!\x8eoa\x08\x15\xd7?'
p1459
tp1460
Rp1461
tp1462
a(S'peter harder (academic)'
p1463
g2
(g6
S"\x15']-C\x14\xd7?"
p1464
tp1465
Rp1466
tp1467
a(S'cognitive test'
p1468
g2
(g6
S'(n\xa7\x9c\xe4\x0c\xd7?'
p1469
tp1470
Rp1471
tp1472
a(S'cognitive surplus'
p1473
g2
(g6
S'L\xbe\xe4\xfcm\x0b\xd7?'
p1474
tp1475
Rp1476
tp1477
a(S'hal pashler'
p1478
g2
(g6
S'\xc7G\x18\xe7,\x08\xd7?'
p1479
tp1480
Rp1481
tp1482
a(S'stephen stich'
p1483
g2
(g6
S'`\x9f\xe9v\t\xfb\xd6?'
p1484
tp1485
Rp1486
tp1487
a(S'peter d. eimas'
p1488
g2
(g6
S"&E\xaa'K\xf9\xd6?"
p1489
tp1490
Rp1491
tp1492
a(S'jagannath prasad das (psychologist)'
p1493
g2
(g6
S'\x86\x0c*\x9a\x7f\xeb\xd6?'
p1494
tp1495
Rp1496
tp1497
a(S'olga uskova'
p1498
g2
(g6
S'\x7fNu\xbe\xb1\xea\xd6?'
p1499
tp1500
Rp1501
tp1502
a(S'paolo petta'
p1503
g2
(g6
S'\x1a\xee\xcfl\xbd\xe6\xd6?'
p1504
tp1505
Rp1506
tp1507
a(S'lauren alloy'
p1508
g2
(g6
S'`"4\t8\xe5\xd6?'
p1509
tp1510
Rp1511
tp1512
a.