(lp0
(S'collective'
p1
cnumpy.core.multiarray
scalar
p2
(cnumpy
dtype
p3
(S'f8'
p4
I0
I1
tp5
Rp6
(I3
S'<'
p7
NNNI-1
I-1
I0
tp8
bS'\xff\xff\xff\xff\xff\xff\xef?'
p9
tp10
Rp11
tp12
a(S'collective (disambiguation)'
p13
g2
(g6
S'#LUEH\xfd\xe4?'
p14
tp15
Rp16
tp17
a(S'artist collective'
p18
g2
(g6
S'\x90\x9e\x07\xed7e\xe1?'
p19
tp20
Rp21
tp22
a(S'musical collective'
p23
g2
(g6
S'\xff\xc2\x90\x1c\x80\xe9\xe0?'
p24
tp25
Rp26
tp27
a(S'collective identity'
p28
g2
(g6
S'8m\xbe\x08\xfe\xf0\xdd?'
p29
tp30
Rp31
tp32
a(S'scott neri'
p33
g2
(g6
S'sFH\xe0M\x83\xdd?'
p34
tp35
Rp36
tp37
a(S'collective wisdom'
p38
g2
(g6
S'\xcb\xa5:\xeb9O\xdd?'
p39
tp40
Rp41
tp42
a(S'workingman collective'
p43
g2
(g6
S'\xea66\xd3o<\xdd?'
p44
tp45
Rp46
tp47
a(S'collective action'
p48
g2
(g6
S'v=\xf7\x0c\xac5\xdd?'
p49
tp50
Rp51
tp52
a(S'puffball collective'
p53
g2
(g6
S'\xc1\x10\xec\x0c\x8d\xd1\xdc?'
p54
tp55
Rp56
tp57
a(S'collective security'
p58
g2
(g6
S'\x0e\xa0\xce\xb5;\xd1\xdc?'
p59
tp60
Rp61
tp62
a(S'collective intelligence'
p63
g2
(g6
S'7\xbejj\x18\x84\xdc?'
p64
tp65
Rp66
tp67
a(S'virtual collective consciousness'
p68
g2
(g6
S'\xbfY\xdc~\xc0\xdb\xdb?'
p69
tp70
Rp71
tp72
a(S'collective depression'
p73
g2
(g6
S'\xbe~)e\r\x87\xdb?'
p74
tp75
Rp76
tp77
a(S'collective for living cinema'
p78
g2
(g6
S'N\x82r\x15<\xb6\xda?'
p79
tp80
Rp81
tp82
a(S'national collective'
p83
g2
(g6
S'\xb0#\xd9\xd5W\x83\xda?'
p84
tp85
Rp86
tp87
a(S'collective impact'
p88
g2
(g6
S'Q\xab\x93rUu\xda?'
p89
tp90
Rp91
tp92
a(S'collective trade mark'
p93
g2
(g6
S'\xf6S\xa6\xa6\xa4n\xda?'
p94
tp95
Rp96
tp97
a(S'collective agreement coverage'
p98
g2
(g6
S'\xf0\x08\xa3ZI\x1f\xda?'
p99
tp100
Rp101
tp102
a(S'collective intentionality'
p103
g2
(g6
S'\x1cZ\xd4\x10\xed\xec\xd9?'
p104
tp105
Rp106
tp107
a(S'ilmenau (samtgemeinde)'
p108
g2
(g6
S'g\xea=U`\xb1\xd9?'
p109
tp110
Rp111
tp112
a(S'collective memory'
p113
g2
(g6
S'\xca8U7\xb5\xac\xd9?'
p114
tp115
Rp116
tp117
a(S'collective responsibility'
p118
g2
(g6
S'f\x9a\x92\x8b\xab|\xd9?'
p119
tp120
Rp121
tp122
a(S'collective man'
p123
g2
(g6
S'b\x1b\xf6\xd1\xe5m\xd9?'
p124
tp125
Rp126
tp127
a(S'collective agreement'
p128
g2
(g6
S'\xfey\xbf\x0b\xdad\xd9?'
p129
tp130
Rp131
tp132
a(S'collective switching'
p133
g2
(g6
S'\xc9\xb4\xf5\x806c\xd9?'
p134
tp135
Rp136
tp137
a(S'law collective'
p138
g2
(g6
S'\xa4\x05oP7`\xd9?'
p139
tp140
Rp141
tp142
a(S'lollybot collective'
p143
g2
(g6
S'\x9e}\x0b\tq#\xd9?'
p144
tp145
Rp146
tp147
a(S'collective farming'
p148
g2
(g6
S'\xa5\xab\xbc/2\xf6\xd8?'
p149
tp150
Rp151
tp152
a(S'collective:unconscious'
p153
g2
(g6
S'\xaaJ\xa2\xf2m\xde\xd8?'
p154
tp155
Rp156
tp157
a(S'heresies collective'
p158
g2
(g6
S'3"(6B\xd9\xd8?'
p159
tp160
Rp161
tp162
a(S'iqhiya collective'
p163
g2
(g6
S'8kW\xe9\xdb\x88\xd8?'
p164
tp165
Rp166
tp167
a(S'nmp (art collective)'
p168
g2
(g6
S'p\xdc\xef\xb9\xe9S\xd8?'
p169
tp170
Rp171
tp172
a(S'nortec collective'
p173
g2
(g6
S'Z\xec.\x90\x9b<\xd8?'
p174
tp175
Rp176
tp177
a(S'dancing in the streets'
p178
g2
(g6
S'\xb6n\xaf\x0858\xd8?'
p179
tp180
Rp181
tp182
a(S'collective noun'
p183
g2
(g6
S'_\x89\xe3~\x96\x16\xd8?'
p184
tp185
Rp186
tp187
a(S'collective salvation'
p188
g2
(g6
S'\xa8\x84\x94\\b\xeb\xd7?'
p189
tp190
Rp191
tp192
a(S'muistardeaux collective'
p193
g2
(g6
S'\xb2\x9e\x9fm\xcb\xaf\xd7?'
p194
tp195
Rp196
tp197
a(S'collective network'
p198
g2
(g6
S'\xe9\xbd\xdd\xcfu\xaa\xd7?'
p199
tp200
Rp201
tp202
a(S'joel kosche'
p203
g2
(g6
S'\xce\xa1\xb2\x1b\xeeP\xd7?'
p204
tp205
Rp206
tp207
a(S'another life (song)'
p208
g2
(g6
S'\xcb\xbcT\xc84K\xd7?'
p209
tp210
Rp211
tp212
a(S'combahee river collective'
p213
g2
(g6
S'\x98\x9c\xda\xc2\xc71\xd7?'
p214
tp215
Rp216
tp217
a(S'envelope collective'
p218
g2
(g6
S'\x87\xddm\n\t$\xd7?'
p219
tp220
Rp221
tp222
a(S'sociology of human consciousness'
p223
g2
(g6
S'B\x86\xfe\xc3\xbcU\xd6?'
p224
tp225
Rp226
tp227
a(S'black audio film collective'
p228
g2
(g6
S'\xa8\xc7m\x12\x98F\xd6?'
p229
tp230
Rp231
tp232
a(S'collective capitalism'
p233
g2
(g6
S'\x96,\xab[\xee&\xd6?'
p234
tp235
Rp236
tp237
a(S'clarice mclean'
p238
g2
(g6
S'\xa9\xe8R\x16\xfa\x17\xd6?'
p239
tp240
Rp241
tp242
a(S'new york city office of collective bargaining'
p243
g2
(g6
S'\x9f\x1a%\x1f\x1d\x00\xd6?'
p244
tp245
Rp246
tp247
a(S'art group'
p248
g2
(g6
S"\xc7'\x00\x8dr\xe2\xd5?"
p249
tp250
Rp251
tp252
a(S'direct action anti-authoritarians collective'
p253
g2
(g6
S's\xbe\x16\xfd\xb3\xd1\xd5?'
p254
tp255
Rp256
tp257
a(S'mobilivre'
p258
g2
(g6
S'\x04\xe0\xa6\xb3\x11\xcf\xd5?'
p259
tp260
Rp261
tp262
a(S'werhof v freeway traffic systems gmbh & co kg'
p263
g2
(g6
S'\xda\x18\x87\xbe\xf8\xcd\xd5?'
p264
tp265
Rp266
tp267
a(S'radical society'
p268
g2
(g6
S'\xef\xfd%\xda\x80\xb1\xd5?'
p269
tp270
Rp271
tp272
a(S'the collective (the collective album)'
p273
g2
(g6
S'\x8bUN\xd2a\x9a\xd5?'
p274
tp275
Rp276
tp277
a(S'collective behavior'
p278
g2
(g6
S'\x08\xc0\xca\xccc\x8e\xd5?'
p279
tp280
Rp281
tp282
a(S'the journal of collective negotiations'
p283
g2
(g6
S'}\xbc\x1d6\xefn\xd5?'
p284
tp285
Rp286
tp287
a(S'nyc ya basta collective'
p288
g2
(g6
S'\xce\xd6\xd9\x07.S\xd5?'
p289
tp290
Rp291
tp292
a(S'collective administration of copyrights'
p293
g2
(g6
S'\xc4r+\xc6=H\xd5?'
p294
tp295
Rp296
tp297
a(S'asian american artists collective chicago'
p298
g2
(g6
S'\xbcq\x00\xb3/%\xd5?'
p299
tp300
Rp301
tp302
a(S'collective eye films'
p303
g2
(g6
S'i\xe6}\xbd\xda\x18\xd5?'
p304
tp305
Rp306
tp307
a(S'trummerflora collective'
p308
g2
(g6
S'\xf5e{m\x02\xad\xd4?'
p309
tp310
Rp311
tp312
a(S'henrik l\xc3\xb8d\xc3\xb8en'
p313
g2
(g6
S'\x17\x0c\x9f\x1co\x91\xd4?'
p314
tp315
Rp316
tp317
a(S'nsumi'
p318
g2
(g6
S'S\n\xe9*\x88\x88\xd4?'
p319
tp320
Rp321
tp322
a(S'network of bay area worker cooperatives'
p323
g2
(g6
S'\x82\x1c\x1a\xc5\xfe\x80\xd4?'
p324
tp325
Rp326
tp327
a(S'alan briskin'
p328
g2
(g6
S'\x911u\xa5S|\xd4?'
p329
tp330
Rp331
tp332
a(S'the collective (band)'
p333
g2
(g6
S'\x80\xfd\x97\n@x\xd4?'
p334
tp335
Rp336
tp337
a(S'studio 71'
p338
g2
(g6
S'P\x81<\xa9\xddp\xd4?'
p339
tp340
Rp341
tp342
a(S'craftivist collective'
p343
g2
(g6
S'\x9c\xda\x04#BW\xd4?'
p344
tp345
Rp346
tp347
a(S'collective bargaining'
p348
g2
(g6
S'\xceL\xe1\xeb\\N\xd4?'
p349
tp350
Rp351
tp352
a(S'de ploeg'
p353
g2
(g6
S'\xd7\\\x90\xcb\xfb?\xd4?'
p354
tp355
Rp356
tp357
a(S'union membership rate'
p358
g2
(g6
S'>\xb9\xffdC\xf8\xd3?'
p359
tp360
Rp361
tp362
a(S'the furies collective'
p363
g2
(g6
S'\x14e\x13"a\xe5\xd3?'
p364
tp365
Rp366
tp367
a(S'collective leadership in the soviet union'
p368
g2
(g6
S'\xc0\x10\xa4\xcds\xe2\xd3?'
p369
tp370
Rp371
tp372
a(S'cheney brannon'
p373
g2
(g6
S'\x91\xf1Lp;\xd4\xd3?'
p374
tp375
Rp376
tp377
a(S'collective rights management'
p378
g2
(g6
S'\xef\x84@\x9ff\xbd\xd3?'
p379
tp380
Rp381
tp382
a(S'collective leadership'
p383
g2
(g6
S'\xde4-\x9b\xbd\xbb\xd3?'
p384
tp385
Rp386
tp387
a(S'sectoral collective bargaining'
p388
g2
(g6
S'\xb3;\x1a<\xe2\xac\xd3?'
p389
tp390
Rp391
tp392
a(S'mosaiko'
p393
g2
(g6
S'\xac\x80&\xbcP\xa4\xd3?'
p394
tp395
Rp396
tp397
a(S'collective unconscious'
p398
g2
(g6
S'k8\xc0\x9aD\x8f\xd3?'
p399
tp400
Rp401
tp402
a(S'karl william'
p403
g2
(g6
S'9\xc8"\x17\x84m\xd3?'
p404
tp405
Rp406
tp407
a(S'pinchbottom burlesque'
p408
g2
(g6
S'\xa3aL\xda\x1bi\xd3?'
p409
tp410
Rp411
tp412
a(S'sicav'
p413
g2
(g6
S'\x17U\xe5\xc63g\xd3?'
p414
tp415
Rp416
tp417
a(S'collective consciousness'
p418
g2
(g6
S'\x8b\x8dQ+ZE\xd3?'
p419
tp420
Rp421
tp422
a(S'the fifth floor collective'
p423
g2
(g6
S'\xe3\x9c\xfa\x9cPA\xd3?'
p424
tp425
Rp426
tp427
a(S'poetry central'
p428
g2
(g6
S'14\xacj\x10\x17\xd3?'
p429
tp430
Rp431
tp432
a(S'dark room collective'
p433
g2
(g6
S'\xe8\xf2\xc9\xb8\xbf\x12\xd3?'
p434
tp435
Rp436
tp437
a(S'collective effects (accelerator physics)'
p438
g2
(g6
S'\xfdk\x16\x89\xa4\xf9\xd2?'
p439
tp440
Rp441
tp442
a(S'collective bargaining (album)'
p443
g2
(g6
S'\x01\x14\xff4\xcb\xad\xd2?'
p444
tp445
Rp446
tp447
a(S'real gold'
p448
g2
(g6
S'\xfe\xa8\xc0\x81\x0e\x95\xd2?'
p449
tp450
Rp451
tp452
a(S'benjamin herman'
p453
g2
(g6
S'\xcf\x14i\xeda\x88\xd2?'
p454
tp455
Rp456
tp457
a(S'pi o'
p458
g2
(g6
S'0\x05\x8bD\xbb\x83\xd2?'
p459
tp460
Rp461
tp462
a(S'council of three'
p463
g2
(g6
S'}\x12\x16b\xb4v\xd2?'
p464
tp465
Rp466
tp467
a(S'weusi artist collective'
p468
g2
(g6
S'\x06\xe3e\x87`u\xd2?'
p469
tp470
Rp471
tp472
a(S'trumbullplex'
p473
g2
(g6
S'\xfd\x9c!S\x081\xd2?'
p474
tp475
Rp476
tp477
a(S'collective protection'
p478
g2
(g6
S'\xc3\t\xde\x8e\xfe%\xd2?'
p479
tp480
Rp481
tp482
a(S'bandista'
p483
g2
(g6
S',\x85(\x833\x12\xd2?'
p484
tp485
Rp486
tp487
a(S'unlockedgroove'
p488
g2
(g6
S'\xee^\x96Wg\xf6\xd1?'
p489
tp490
Rp491
tp492
a(S'silberberg v the builders collective of australia inc'
p493
g2
(g6
S'\xecnW6\xc7\xeb\xd1?'
p494
tp495
Rp496
tp497
a(S'omni commons'
p498
g2
(g6
S'\xba\x98\xec,\xd4\xd4\xd1?'
p499
tp500
Rp501
tp502
a(S'collective punishment'
p503
g2
(g6
S's|\x17\x82G\xd4\xd1?'
p504
tp505
Rp506
tp507
a(S'collective efficacy'
p508
g2
(g6
S'oH\xd4\xf7z\xd2\xd1?'
p509
tp510
Rp511
tp512
a(S'the good life (the collective song)'
p513
g2
(g6
S'?x\x15\xfe\x86\xcf\xd1?'
p514
tp515
Rp516
tp517
a(S'collective operation'
p518
g2
(g6
S'\x13\x89P\xa0;\xc6\xd1?'
p519
tp520
Rp521
tp522
a(S'tariffnemnda'
p523
g2
(g6
S'\xc8`;\xc1\xcf\xb4\xd1?'
p524
tp525
Rp526
tp527
a(S'green mountain anarchist collective'
p528
g2
(g6
S'\xd7U\xba\x15\xff\xab\xd1?'
p529
tp530
Rp531
tp532
a(S'collective brands'
p533
g2
(g6
S'mn\xfd\xdf\x88\xab\xd1?'
p534
tp535
Rp536
tp537
a(S'lawyers collective'
p538
g2
(g6
S'\\<d\x18&\x8f\xd1?'
p539
tp540
Rp541
tp542
a(S'collective landscape'
p543
g2
(g6
S'\x1ai\x07r\x14\x8b\xd1?'
p544
tp545
Rp546
tp547
a(S'andreas sk\xc3\xa5r winther'
p548
g2
(g6
S'\x81"\x1fD\x8f\x7f\xd1?'
p549
tp550
Rp551
tp552
a(S'soundwalk collective'
p553
g2
(g6
S'O\x8c\xda\x01Fv\xd1?'
p554
tp555
Rp556
tp557
a(S'hurricane music group'
p558
g2
(g6
S'\xda\xdfP\xb6Lm\xd1?'
p559
tp560
Rp561
tp562
a(S'brian mackenzie infoshop'
p563
g2
(g6
S'\xf5\xf1I\xf6\xc5Z\xd1?'
p564
tp565
Rp566
tp567
a(S'salt lake city bicycle collective'
p568
g2
(g6
S'O\x9a\xac\xe5\xddF\xd1?'
p569
tp570
Rp571
tp572
a(S'collective behavior and social movements section of the asa'
p573
g2
(g6
S'\xd1d\xb7\xee\xa3E\xd1?'
p574
tp575
Rp576
tp577
a(S'singulative number'
p578
g2
(g6
S'\xbc\xac\xda\xc0\xdeB\xd1?'
p579
tp580
Rp581
tp582
a(S'clorofila (jorge verd\xc3\xadn)'
p583
g2
(g6
S'3\xcc\xe5\x18\x93.\xd1?'
p584
tp585
Rp586
tp587
a(S'list of worker cooperatives'
p588
g2
(g6
S'\x9d\xc41\xe6\xd7 \xd1?'
p589
tp590
Rp591
tp592
a(S'11 u.s.c. \xc2\xa71113 \xe2\x80\x93 rejection of collective bargaining agreements'
p593
g2
(g6
S'\xb2\xe9\xbaB\x99\x1e\xd1?'
p594
tp595
Rp596
tp597
a(S'hive mind'
p598
g2
(g6
S'\x82\x83\xfa\xc6l\r\xd1?'
p599
tp600
Rp601
tp602
a(S'ark collective'
p603
g2
(g6
S'\xe6g\xe9;\x8b\x04\xd1?'
p604
tp605
Rp606
tp607
a(S'moonsville collective'
p608
g2
(g6
S'\x08/\xb1\xbbp\xf9\xd0?'
p609
tp610
Rp611
tp612
a(S'private-collective model of innovation'
p613
g2
(g6
S'\xc4\n\x1a`1\xf4\xd0?'
p614
tp615
Rp616
tp617
a(S'ed roland'
p618
g2
(g6
S'\xfa\xb8\xe5\x8c(\xef\xd0?'
p619
tp620
Rp621
tp622
a(S'kolkhoz'
p623
g2
(g6
S'Q\xe6\x1e\xa1\xb0\xe4\xd0?'
p624
tp625
Rp626
tp627
a(S'artists collective, inc.'
p628
g2
(g6
S'\xcc\xc5yA\xcc\xe3\xd0?'
p629
tp630
Rp631
tp632
a(S'collective action theory'
p633
g2
(g6
S'\x14\xa3\xc8M\xe1\xda\xd0?'
p634
tp635
Rp636
tp637
a(S'sound collective'
p638
g2
(g6
S']\x94\x1a}4\xd0\xd0?'
p639
tp640
Rp641
tp642
a(S'nessma elaassar'
p643
g2
(g6
S'\x98;(4\xff\xcc\xd0?'
p644
tp645
Rp646
tp647
a(S'collective mental state'
p648
g2
(g6
S'\xf1\xb7\xa6(\xed\xba\xd0?'
p649
tp650
Rp651
tp652
a(S'networked advocacy'
p653
g2
(g6
S'[\xaa\x18\xa3:\xaf\xd0?'
p654
tp655
Rp656
tp657
a(S'maraa'
p658
g2
(g6
S'\x16\x97\xadB\x9c\xa3\xd0?'
p659
tp660
Rp661
tp662
a(S'amber films'
p663
g2
(g6
S'\xc3Y\xa1\xae\xa3\x8f\xd0?'
p664
tp665
Rp666
tp667
a(S'communist party of national liberation'
p668
g2
(g6
S'C\x01G\x02\x17\x8f\xd0?'
p669
tp670
Rp671
tp672
a(S'collective self-esteem'
p673
g2
(g6
S'\xfa$H*\xb5\x8c\xd0?'
p674
tp675
Rp676
tp677
a(S'camden collective'
p678
g2
(g6
S'\xe9\x8e\x90\xbe\x90l\xd0?'
p679
tp680
Rp681
tp682
a(S'unframe'
p683
g2
(g6
S'K\xd9~5\xc2b\xd0?'
p684
tp685
Rp686
tp687
a(S'jeffrey k. olick'
p688
g2
(g6
S'\x0f\xa1\xce\xfb\xf4a\xd0?'
p689
tp690
Rp691
tp692
a(S'fond commun de placement'
p693
g2
(g6
S'\n\xe8\x891\tY\xd0?'
p694
tp695
Rp696
tp697
a(S'collective title'
p698
g2
(g6
S'z\x82\xf1\x88vV\xd0?'
p699
tp700
Rp701
tp702
a(S'whitehaus'
p703
g2
(g6
S'\xb1\xb0z_\xd3H\xd0?'
p704
tp705
Rp706
tp707
a(S'cabinet collective responsibility'
p708
g2
(g6
S'tS6\x95\xba7\xd0?'
p709
tp710
Rp711
tp712
a(S'semillas collective'
p713
g2
(g6
S'\xb3"\';\xf8/\xd0?'
p714
tp715
Rp716
tp717
a(S'collective rapid reaction force'
p718
g2
(g6
S'\xa6\x93=\x1d\xd3\x1b\xd0?'
p719
tp720
Rp721
tp722
a(S'wassmann foundation'
p723
g2
(g6
S'\xc3QS\xebD\n\xd0?'
p724
tp725
Rp726
tp727
a(S'the ellis collective'
p728
g2
(g6
S'\xd9\xf2}\xf1y\xff\xcf?'
p729
tp730
Rp731
tp732
a(S'stadtoldendorf (samtgemeinde)'
p733
g2
(g6
S'J\xfc\xd6\xaat\xe7\xcf?'
p734
tp735
Rp736
tp737
a(S'eschershausen (samtgemeinde)'
p738
g2
(g6
S'J\xfc\xd6\xaat\xe7\xcf?'
p739
tp740
Rp741
tp742
a(S'historic house museum'
p743
g2
(g6
S'&\xab9\xe3U\xe2\xcf?'
p744
tp745
Rp746
tp747
a(S'performers and artists for nuclear disarmament'
p748
g2
(g6
S'e\xa3lpJ\xc5\xcf?'
p749
tp750
Rp751
tp752
a(S'nordkehdingen'
p753
g2
(g6
S'\xacG\xb7^E\xc5\xcf?'
p754
tp755
Rp756
tp757
a(S'beehive design collective'
p758
g2
(g6
S"\xd9pM\xcd'\xbc\xcf?"
p759
tp760
Rp761
tp762
a(S'polle (samtgemeinde)'
p763
g2
(g6
S'\xaf;\x8dV_\xb8\xcf?'
p764
tp765
Rp766
tp767
a(S'robertson v british gas corp'
p768
g2
(g6
S'Q\x8b\x05\rY\x9d\xcf?'
p769
tp770
Rp771
tp772
a(S'dean roland'
p773
g2
(g6
S'\xbbY\x83e\xa4\x92\xcf?'
p774
tp775
Rp776
tp777
a(S'desire machine collective'
p778
g2
(g6
S'F\xb0\x93-,\x92\xcf?'
p779
tp780
Rp781
tp782
a(S'eschershausen-stadtoldendorf'
p783
g2
(g6
S'Q\xbbr+\x02\x8e\xcf?'
p784
tp785
Rp786
tp787
a(S'madame binh graphics collective'
p788
g2
(g6
S'`x\x97\xba\x08z\xcf?'
p789
tp790
Rp791
tp792
a(S'paula santiago'
p793
g2
(g6
S'\xe0=\xfc\x97\xdey\xcf?'
p794
tp795
Rp796
tp797
a(S"if the smoke don't get you, the meatloaf will"
p798
g2
(g6
S'\x89\x8dFu\xcay\xcf?'
p799
tp800
Rp801
tp802
a(S'kroesos foundation'
p803
g2
(g6
S'\xa9\xf1\xce\xf1\x9ey\xcf?'
p804
tp805
Rp806
tp807
a(S'which side'
p808
g2
(g6
S'r^\xf7\x95\x9c]\xcf?'
p809
tp810
Rp811
tp812
a(S'ufo collective'
p813
g2
(g6
S'wPE\xe1EP\xcf?'
p814
tp815
Rp816
tp817
a(S'michael green (agent)'
p818
g2
(g6
S'\xbfi\xecTvO\xcf?'
p819
tp820
Rp821
tp822
a(S'of god and dogs'
p823
g2
(g6
S'\xe0[p\x00\xc0C\xcf?'
p824
tp825
Rp826
tp827
a(S'nascent state'
p828
g2
(g6
S'w\xc3\xe3ie)\xcf?'
p829
tp830
Rp831
tp832
a(S'collective tuning initiative'
p833
g2
(g6
S'"\xb73\xfez$\xcf?'
p834
tp835
Rp836
tp837
a(S'smashing young man'
p838
g2
(g6
S'\x12H\x9a\xbbE$\xcf?'
p839
tp840
Rp841
tp842
a(S'the stroj'
p843
g2
(g6
S'\xf3\x16M\xfc\xd7\x13\xcf?'
p844
tp845
Rp846
tp847
a(S'maryland food collective'
p848
g2
(g6
S'\xc4X\xccf&\x0e\xcf?'
p849
tp850
Rp851
tp852
a(S'collective trauma'
p853
g2
(g6
S'\xaeD\x7fC\xad\n\xcf?'
p854
tp855
Rp856
tp857
a(S'hearding cats collective'
p858
g2
(g6
S'<0\xe7\xfb\xe6\xf0\xce?'
p859
tp860
Rp861
tp862
a(S'collective narcissism'
p863
g2
(g6
S'\xeaU\x85\x05+\xc2\xce?'
p864
tp865
Rp866
tp867
a(S'flammersfeld (verbandsgemeinde)'
p868
g2
(g6
S'qLy6\xa4\xbe\xce?'
p869
tp870
Rp871
tp872
a(S'kelberg (verbandsgemeinde)'
p873
g2
(g6
S'qLy6\xa4\xbe\xce?'
p874
tp875
Rp876
tp877
a(S"red emma's bookstore coffeehouse"
p878
g2
(g6
S'\x01\x80\x08B\x9b\xb7\xce?'
p879
tp880
Rp881
tp882
a(S'collectivization in the soviet union'
p883
g2
(g6
S'\xbeyE\xb7H\x9f\xce?'
p884
tp885
Rp886
tp887
a(S'sociodrama'
p888
g2
(g6
S'\xa2\xdf\x1b\xe3g\x91\xce?'
p889
tp890
Rp891
tp892
a(S'professional institute of the public service of canada v northwest territories (commissioner)'
p893
g2
(g6
S'\x875\xf3\x0f\t\x84\xce?'
p894
tp895
Rp896
tp897
a(S'protest cycle'
p898
g2
(g6
S']0\xc3\xd2\x91z\xce?'
p899
tp900
Rp901
tp902
a(S'justus league'
p903
g2
(g6
S'U\xf0\xf5\xb2\xd6s\xce?'
p904
tp905
Rp906
tp907
a(S'genesis healthcare corp. v. symczyk'
p908
g2
(g6
S'#K\xe9\xcd\x0ck\xce?'
p909
tp910
Rp911
tp912
a(S'collective wedding'
p913
g2
(g6
S'\x80\xe3\x8e\xd0\x1c@\xce?'
p914
tp915
Rp916
tp917
a(S'crimethinc.'
p918
g2
(g6
S'\xf4\x0b\x05l\x9e\xf8\xcd?'
p919
tp920
Rp921
tp922
a(S'eurodusnie collective'
p923
g2
(g6
S'H\xba\xad\xc5:\xf7\xcd?'
p924
tp925
Rp926
tp927
a(S'anne thompson (artist)'
p928
g2
(g6
S'K\xfa\xf2\x9b~\xed\xcd?'
p929
tp930
Rp931
tp932
a(S'grievance (labour)'
p933
g2
(g6
S'B\xf6\xf6\xe7\xf8\xe9\xcd?'
p934
tp935
Rp936
tp937
a(S'sankofa film and video collective'
p938
g2
(g6
S'\x80C\xfd\xd8\xf0\xc5\xcd?'
p939
tp940
Rp941
tp942
a(S'westerburg (verbandsgemeinde)'
p943
g2
(g6
S'\xfe:8\xe5\xf7\xc2\xcd?'
p944
tp945
Rp946
tp947
a(S'valerie collective'
p948
g2
(g6
S'(\xd7\xcc\x1e\x00\xa1\xcd?'
p949
tp950
Rp951
tp952
a(S'alan viani'
p953
g2
(g6
S'{\xd5\xfc\xbau\x97\xcd?'
p954
tp955
Rp956
tp957
a(S'zoe leigh hopkins'
p958
g2
(g6
S'\x10{R\x08v\x7f\xcd?'
p959
tp960
Rp961
tp962
a(S'burn the bright lights'
p963
g2
(g6
S'n9\xb33\x10u\xcd?'
p964
tp965
Rp966
tp967
a(S'simone merli'
p968
g2
(g6
S'k}\xf1\x1e\x88h\xcd?'
p969
tp970
Rp971
tp972
a(S'animal collective'
p973
g2
(g6
S'\x1a\xdaXMwg\xcd?'
p974
tp975
Rp976
tp977
a(S'stories of our lives'
p978
g2
(g6
S'\x9c\xa2xd\x83a\xcd?'
p979
tp980
Rp981
tp982
a(S'list of iso 639-2 codes'
p983
g2
(g6
S'\xda\xabtcxA\xcd?'
p984
tp985
Rp986
tp987
a(S'herdorf-daaden'
p988
g2
(g6
S'\xe2\xf0\xd6~\xe7<\xcd?'
p989
tp990
Rp991
tp992
a(S'the fearless collective'
p993
g2
(g6
S'\x90K5L\xb5-\xcd?'
p994
tp995
Rp996
tp997
a(S'martin hellwig'
p998
g2
(g6
S't\xad\xca^\\#\xcd?'
p999
tp1000
Rp1001
tp1002
a(S'the new riverside cafe'
p1003
g2
(g6
S'\x8c\x8f\xb8\xd03\x1c\xcd?'
p1004
tp1005
Rp1006
tp1007
a(S'fueled collective'
p1008
g2
(g6
S'\xfaE\x8e.\x1a\x01\xcd?'
p1009
tp1010
Rp1011
tp1012
a(S'will turpin'
p1013
g2
(g6
S'\xb8\x8c:LL\xf7\xcc?'
p1014
tp1015
Rp1016
tp1017
a(S'polymarchs'
p1018
g2
(g6
S'\x059\xf2jB\xf5\xcc?'
p1019
tp1020
Rp1021
tp1022
a(S'legal abstentionism'
p1023
g2
(g6
S'\xf9)\x9f\xdb\x9f\xe1\xcc?'
p1024
tp1025
Rp1026
tp1027
a(S'lucky people center'
p1028
g2
(g6
S'\xc5\xf6\xf1\xd4\xca\xdb\xcc?'
p1029
tp1030
Rp1031
tp1032
a(S'gerald marwell'
p1033
g2
(g6
S'\x194\xd0\x1d\x9c\xc9\xcc?'
p1034
tp1035
Rp1036
tp1037
a(S'bound together bookstore collective'
p1038
g2
(g6
S'\x18->\xf1\n\xb5\xcc?'
p1039
tp1040
Rp1041
tp1042
a(S'bodenwerder (samtgemeinde)'
p1043
g2
(g6
S'\xc5\xbd\xcd*4\x97\xcc?'
p1044
tp1045
Rp1046
tp1047
a(S"socialist patients' collective"
p1048
g2
(g6
S'\xd0\xf2i\xd8\x9b\x94\xcc?'
p1049
tp1050
Rp1051
tp1052
a(S'macquarie university campus experience'
p1053
g2
(g6
S'\x03\x97"X\xa2\x92\xcc?'
p1054
tp1055
Rp1056
tp1057
a(S'gra\xc5\xbcyna wojcieszko'
p1058
g2
(g6
S'\xb7\xc0~\x84\xb8\x8c\xcc?'
p1059
tp1060
Rp1061
tp1062
a(S'collective ownership'
p1063
g2
(g6
S'\xaax&v\xc8\x88\xcc?'
p1064
tp1065
Rp1066
tp1067
a(S'abby portner'
p1068
g2
(g6
S'L\x0f\xead$p\xcc?'
p1069
tp1070
Rp1071
tp1072
a(S'r (national union of journalists) v central arbitration committee'
p1073
g2
(g6
S'OW\x9b\xf1{i\xcc?'
p1074
tp1075
Rp1076
tp1077
a(S'alexander v standard telephones & cables ltd (no 2)'
p1078
g2
(g6
S'\xd8\xf5\xff\xa0\xb2h\xcc?'
p1079
tp1080
Rp1081
tp1082
a(S'oldendorf-himmelpforten'
p1083
g2
(g6
S'\xf5\xe26{\x90\\\xcc?'
p1084
tp1085
Rp1086
tp1087
a(S'bodenwerder-polle'
p1088
g2
(g6
S'\xca\xa7[\x95\x9fV\xcc?'
p1089
tp1090
Rp1091
tp1092
a(S"jewish women artists' circle"
p1093
g2
(g6
S'\x84\x89S\xe6\x08Q\xcc?'
p1094
tp1095
Rp1096
tp1097
a(S'siberian minorities in the soviet era'
p1098
g2
(g6
S'\x03\x98B\xd3\x9bM\xcc?'
p1099
tp1100
Rp1101
tp1102
a(S'meditavolutions'
p1103
g2
(g6
S'\x92\x1a\xf4\xb7\xc3L\xcc?'
p1104
tp1105
Rp1106
tp1107
a(S'groupon mycitydeal'
p1108
g2
(g6
S'\x14\xe1\x81<\x16G\xcc?'
p1109
tp1110
Rp1111
tp1112
a(S'demir and baykara v turkey'
p1113
g2
(g6
S'+y\x07\x07\xec\x1a\xcc?'
p1114
tp1115
Rp1116
tp1117
a(S'marcin bogus\xc5\x82awski'
p1118
g2
(g6
S'N#\xf1\xc3\xe2\x1a\xcc?'
p1119
tp1120
Rp1121
tp1122
a(S'press gang publishers'
p1123
g2
(g6
S'\x8c\x07r\r\xbe\x14\xcc?'
p1124
tp1125
Rp1126
tp1127
a(S'hittite nursery and midwifery goddesses'
p1128
g2
(g6
S'\xad o\xf7\xb9\x0e\xcc?'
p1129
tp1130
Rp1131
tp1132
a(S'fall be kind'
p1133
g2
(g6
S'\xb5?.\xdb\xde\t\xcc?'
p1134
tp1135
Rp1136
tp1137
a(S'collective (bbc)'
p1138
g2
(g6
S'\x14C\xeb\xf8\xdd\x01\xcc?'
p1139
tp1140
Rp1141
tp1142
a(S'patrick meagher (artist)'
p1143
g2
(g6
S'}^] 1\xeb\xcb?'
p1144
tp1145
Rp1146
tp1147
a(S'h\xc3\xb6rnerkirchen'
p1148
g2
(g6
S'\xa7\xa8\x9e1\xc9\xe3\xcb?'
p1149
tp1150
Rp1151
tp1152
a(S'collective hardware'
p1153
g2
(g6
S'\xa86h\x19a\xd9\xcb?'
p1154
tp1155
Rp1156
tp1157
a(S'dead writers theatre collective'
p1158
g2
(g6
S'\x842\x19\xe0\xf0\xd8\xcb?'
p1159
tp1160
Rp1161
tp1162
a(S's\xc3\xbcdliches saaletal'
p1163
g2
(g6
S'\x80\xbe\x19\xb6L\xd1\xcb?'
p1164
tp1165
Rp1166
tp1167
a(S'collaborative intelligence'
p1168
g2
(g6
S'R\xab0f\x9c\xc5\xcb?'
p1169
tp1170
Rp1171
tp1172
a(S'metadynamics'
p1173
g2
(g6
S'\xb2\xc08\xfd\x16\xb8\xcb?'
p1174
tp1175
Rp1176
tp1177
a(S'sabot (newspaper)'
p1178
g2
(g6
S'/\xa3gG\xc7\xb4\xcb?'
p1179
tp1180
Rp1181
tp1182
a(S'iain couzin'
p1183
g2
(g6
S'%\xfb\no~\xae\xcb?'
p1184
tp1185
Rp1186
tp1187
a(S'sfjazz collective'
p1188
g2
(g6
S'\xfb\x01\xee\xb7P\xab\xcb?'
p1189
tp1190
Rp1191
tp1192
a(S'fauve'
p1193
g2
(g6
S'\xa9}\x15U\r\x89\xcb?'
p1194
tp1195
Rp1196
tp1197
a(S'afo records'
p1198
g2
(g6
S'>\xbaKG1\x81\xcb?'
p1199
tp1200
Rp1201
tp1202
a(S'volatile works'
p1203
g2
(g6
S'\x84\x8a\x85_Jz\xcb?'
p1204
tp1205
Rp1206
tp1207
a(S'president of the presidency of yugoslavia'
p1208
g2
(g6
S'\x96\xe7\x9cb0v\xcb?'
p1209
tp1210
Rp1211
tp1212
a(S'jaishri abichandani'
p1213
g2
(g6
S'\xda2\xb8h)q\xcb?'
p1214
tp1215
Rp1216
tp1217
a(S'capital terminus collective'
p1218
g2
(g6
S'uN\xfe\x03\no\xcb?'
p1219
tp1220
Rp1221
tp1222
a(S'bostich'
p1223
g2
(g6
S'\xb8\xce\t-\x00g\xcb?'
p1224
tp1225
Rp1226
tp1227
a(S'n\xc3\xbaria a\xc3\xb1\xc3\xb3'
p1228
g2
(g6
S'\xe0\xda\xcf\x15@`\xcb?'
p1229
tp1230
Rp1231
tp1232
a(S'collective effervescence'
p1233
g2
(g6
S'\xca\x10\x15\x13"U\xcb?'
p1234
tp1235
Rp1236
tp1237
a(S'manderscheid (verbandsgemeinde)'
p1238
g2
(g6
S'\xfe\x93\xd1q\xf1O\xcb?'
p1239
tp1240
Rp1241
tp1242
a(S'jonny phillips (musician)'
p1243
g2
(g6
S'\xd2\x1a\xe7O\xf7;\xcb?'
p1244
tp1245
Rp1246
tp1247
a(S'brandscheid, westerwaldkreis'
p1248
g2
(g6
S'3e\xca\xc1\xab8\xcb?'
p1249
tp1250
Rp1251
tp1252
a(S'wallmerod (verbandsgemeinde)'
p1253
g2
(g6
S'\xaf\x7f*\xce/4\xcb?'
p1254
tp1255
Rp1256
tp1257
a(S'cybernetic culture research unit'
p1258
g2
(g6
S'\x8f\xb7;\xe1\x93-\xcb?'
p1259
tp1260
Rp1261
tp1262
a(S'polvo chicago'
p1263
g2
(g6
S'^\x97\x82+\x94)\xcb?'
p1264
tp1265
Rp1266
tp1267
a(S'the leveller'
p1268
g2
(g6
S'\xad\xba\x00\x95q(\xcb?'
p1269
tp1270
Rp1271
tp1272
a(S'himmelpforten (samtgemeinde)'
p1273
g2
(g6
S'\xe7\xd8\x15?\xba\x18\xcb?'
p1274
tp1275
Rp1276
tp1277
a(S'oldendorf (samtgemeinde)'
p1278
g2
(g6
S'\xe7\xd8\x15?\xba\x18\xcb?'
p1279
tp1280
Rp1281
tp1282
a(S'dinnerware artspace'
p1283
g2
(g6
S'\xcf<\xaa\xb9\\\x07\xcb?'
p1284
tp1285
Rp1286
tp1287
a(S'architect africa film festival'
p1288
g2
(g6
S'\x98\xfa#\xbf\xab\xef\xca?'
p1289
tp1290
Rp1291
tp1292
a(S'betrothal of january'
p1293
g2
(g6
S'\xd4H\x9c\xa6P\xdb\xca?'
p1294
tp1295
Rp1296
tp1297
a(S'surrender (the collective song)'
p1298
g2
(g6
S'\x9c\xfc\xb1\x8a\xcb\xd0\xca?'
p1299
tp1300
Rp1301
tp1302
a(S'collective soul'
p1303
g2
(g6
S'b\xb126\x16\xcf\xca?'
p1304
tp1305
Rp1306
tp1307
a(S'cutout collective'
p1308
g2
(g6
S'\x03@u\xa9\xb9\xce\xca?'
p1309
tp1310
Rp1311
tp1312
a(S'digital maoism: the hazards of the new online collectivism'
p1313
g2
(g6
S'\xc9\xbe\xdee\xbb\xca\xca?'
p1314
tp1315
Rp1316
tp1317
a(S'2011 united states public employee protests'
p1318
g2
(g6
S'o\x1b\x19\x13\x95\xbe\xca?'
p1319
tp1320
Rp1321
tp1322
a(S'urban music festival'
p1323
g2
(g6
S'q\xe0Z\xb4-\xbc\xca?'
p1324
tp1325
Rp1326
tp1327
a(S"lehnert v. ferris faculty ass'n"
p1328
g2
(g6
S'Z\xbe\x9aJ\x93\xb6\xca?'
p1329
tp1330
Rp1331
tp1332
a(S'communalness'
p1333
g2
(g6
S'\xac\x0c.\xfcr\xb1\xca?'
p1334
tp1335
Rp1336
tp1337
a(S"wollongong undergraduate students' association"
p1338
g2
(g6
S'\xa1M\xd3\x10\xd0\xa6\xca?'
p1339
tp1340
Rp1341
tp1342
a(S'the werehouse'
p1343
g2
(g6
S'wC\xff\xbf\xff\x94\xca?'
p1344
tp1345
Rp1346
tp1347
a(S'tart collective'
p1348
g2
(g6
S'J.\xe1u\x1f\x81\xca?'
p1349
tp1350
Rp1351
tp1352
a(S'the logic of collective action'
p1353
g2
(g6
S'\xf4\x8a.:\x15\x7f\xca?'
p1354
tp1355
Rp1356
tp1357
a(S'wallhalben (verbandsgemeinde)'
p1358
g2
(g6
S'\xf6\x8e\x1em\xa9z\xca?'
p1359
tp1360
Rp1361
tp1362
a(S'collectivism'
p1363
g2
(g6
S'u\\jG\xa7t\xca?'
p1364
tp1365
Rp1366
tp1367
a(S'stephan crasneanscki'
p1368
g2
(g6
S'\x1dnY\x91\xc1i\xca?'
p1369
tp1370
Rp1371
tp1372
a(S'berkeley student food collective'
p1373
g2
(g6
S')W\x03\x19\xc6Z\xca?'
p1374
tp1375
Rp1376
tp1377
a(S'alemo-herron v parkwood leisure ltd'
p1378
g2
(g6
S'h}\xbc\xec\x89:\xca?'
p1379
tp1380
Rp1381
tp1382
a(S'floridada'
p1383
g2
(g6
S'\xae;&\x8e\xc5,\xca?'
p1384
tp1385
Rp1386
tp1387
a(S'marzhausen'
p1388
g2
(g6
S'\xf44\xb1\x17\x99%\xca?'
p1389
tp1390
Rp1391
tp1392
a(S'open house arts collective'
p1393
g2
(g6
S')\x8aSLB%\xca?'
p1394
tp1395
Rp1396
tp1397
a(S'migrantas'
p1398
g2
(g6
S'q\xaa\x85MQ\x1c\xca?'
p1399
tp1400
Rp1401
tp1402
a(S'nice collective'
p1403
g2
(g6
S'\xd7Tj\x03\xe9\x13\xca?'
p1404
tp1405
Rp1406
tp1407
a(S'rodenberg (samtgemeinde)'
p1408
g2
(g6
S'\xbc\x08!\xd1\xd4\x0c\xca?'
p1409
tp1410
Rp1411
tp1412
a(S'rfd (magazine)'
p1413
g2
(g6
S'\x1a^\x96\x93\xb2\xf7\xc9?'
p1414
tp1415
Rp1416
tp1417
a(S'exempted addressee'
p1418
g2
(g6
S'O\xa4\xca>\xe1\xed\xc9?'
p1419
tp1420
Rp1421
tp1422
a(S"international ass'n of machinists v. street"
p1423
g2
(g6
S"Ej'=\x1b\xed\xc9?"
p1424
tp1425
Rp1426
tp1427
a(S'billboard music award for top rock song'
p1428
g2
(g6
S'?\x96\x1f\x96\xc3\xe2\xc9?'
p1429
tp1430
Rp1431
tp1432
a(S'liquid tradable securities'
p1433
g2
(g6
S'\xdc}\xb1\xb8q\xdc\xc9?'
p1434
tp1435
Rp1436
tp1437
a(S'finnish association of business school graduates sefe'
p1438
g2
(g6
S'\\O\xc3!t\xd1\xc9?'
p1439
tp1440
Rp1441
tp1442
a(S'seattle weather collective'
p1443
g2
(g6
S'\x92\xe9 +\xbe\xc5\xc9?'
p1444
tp1445
Rp1446
tp1447
a(S'ministry (collective executive)'
p1448
g2
(g6
S'\xb7\xb2:~\xe7\xbe\xc9?'
p1449
tp1450
Rp1451
tp1452
a(S"royal commission on trade unions and employers' associations"
p1453
g2
(g6
S'\xa6)+\x99V\xbe\xc9?'
p1454
tp1455
Rp1456
tp1457
a(S'rabbit richards'
p1458
g2
(g6
S'\xb2f\xeb\xc2\x13\xbb\xc9?'
p1459
tp1460
Rp1461
tp1462
a(S'mit center for collective intelligence'
p1463
g2
(g6
S'\x87\x7f\xa4*S\xb2\xc9?'
p1464
tp1465
Rp1466
tp1467
a(S'midwest unrest'
p1468
g2
(g6
S'\x172\xf3B\xbe\xad\xc9?'
p1469
tp1470
Rp1471
tp1472
a(S'lloviznando cantos'
p1473
g2
(g6
S'\xa1}\xe6\x1c;\xac\xc9?'
p1474
tp1475
Rp1476
tp1477
a(S'rolls royce plc v unite the union'
p1478
g2
(g6
S'\xc9\x8e\xe8)\xf5\xa5\xc9?'
p1479
tp1480
Rp1481
tp1482
a(S'kommune niederkaufungen'
p1483
g2
(g6
S'\xec\x19\x1d\x16\xd2\xa2\xc9?'
p1484
tp1485
Rp1486
tp1487
a(S'george edward harris'
p1488
g2
(g6
S'+\x9b\x1c\xbe\xbd\x94\xc9?'
p1489
tp1490
Rp1491
tp1492
a(S'jonathan bratoeff'
p1493
g2
(g6
S'\xa5M\xeeA\xa8\x8c\xc9?'
p1494
tp1495
Rp1496
tp1497
a(S'the collective (company)'
p1498
g2
(g6
S'f\x1cUy\x14\x87\xc9?'
p1499
tp1500
Rp1501
tp1502
a(S'the radical therapist'
p1503
g2
(g6
S'C\xe5x4\xe2\x83\xc9?'
p1504
tp1505
Rp1506
tp1507
a(S'the justice collective'
p1508
g2
(g6
S'\xdc\xe6C\x9a\xbb\x82\xc9?'
p1509
tp1510
Rp1511
tp1512
a.