(lp0
(S'collection (artwork)'
p1
cnumpy.core.multiarray
scalar
p2
(cnumpy
dtype
p3
(S'f8'
p4
I0
I1
tp5
Rp6
(I3
S'<'
p7
NNNI-1
I-1
I0
tp8
bS'\xef\xff\xff\xff\xff\xff\xef?'
p9
tp10
Rp11
tp12
a(S'museum'
p13
g2
(g6
S'Ws,\xf9\xa2\xac\xe3?'
p14
tp15
Rp16
tp17
a(S'collections management (museum)'
p18
g2
(g6
S'\x9f\xed\xe2\xb3Pb\xe2?'
p19
tp20
Rp21
tp22
a(S'deaccessioning (museum)'
p23
g2
(g6
S'\x17\xdd\xbc\xef&2\xe2?'
p24
tp25
Rp26
tp27
a(S'collection management policy'
p28
g2
(g6
S'RON\xc06t\xe1?'
p29
tp30
Rp31
tp32
a(S'exhibition of cultural heritage objects'
p33
g2
(g6
S'N;I\x80^m\xe1?'
p34
tp35
Rp36
tp37
a(S'collection manager'
p38
g2
(g6
S'nH\xba \xd7\xfc\xe0?'
p39
tp40
Rp41
tp42
a(S'object (computer science)'
p43
g2
(g6
S'\xef]D\xc3l\x91\xe0?'
p44
tp45
Rp46
tp47
a(S'object manager (windows)'
p48
g2
(g6
S'\x8d\xb4r\xcc\xc9/\xe0?'
p49
tp50
Rp51
tp52
a(S'open museum'
p53
g2
(g6
S'j\xfe\\\xac\xea\xff\xde?'
p54
tp55
Rp56
tp57
a(S'list of museums of asian art'
p58
g2
(g6
S'\xf0g\xa8ca\xcb\xde?'
p59
tp60
Rp61
tp62
a(S'international museum day'
p63
g2
(g6
S'kr\xb9\x8a\xf6\xbb\xde?'
p64
tp65
Rp66
tp67
a(S'registrar (museum)'
p68
g2
(g6
S'\xc4-p\xfa\xac\x92\xde?'
p69
tp70
Rp71
tp72
a(S'documentation of cultural property'
p73
g2
(g6
S'\xc4Ly\xf3LK\xde?'
p74
tp75
Rp76
tp77
a(S'list of museums by country'
p78
g2
(g6
S'nM\x9dAC?\xde?'
p79
tp80
Rp81
tp82
a(S'national museums of the united kingdom'
p83
g2
(g6
S'\xe7\x92\x8b\xc5\xf7=\xde?'
p84
tp85
Rp86
tp87
a(S'art museum'
p88
g2
(g6
S'\xcdbA\xbe\xae\x1f\xde?'
p89
tp90
Rp91
tp92
a(S'university museum'
p93
g2
(g6
S'\x7f\xa1z\x1f \xf3\xdd?'
p94
tp95
Rp96
tp97
a(S'object'
p98
g2
(g6
S'\xb1Sa+,\x1c\xdd?'
p99
tp100
Rp101
tp102
a(S'list of museums in the faroe islands'
p103
g2
(g6
S'\xf8\x1d\xcc:R\x01\xdd?'
p104
tp105
Rp106
tp107
a(S'found in collection'
p108
g2
(g6
S'\xa1d*\x9f6\xfe\xdc?'
p109
tp110
Rp111
tp112
a(S'collections care'
p113
g2
(g6
S'\xb2G\xbe\xfay\xe7\xdc?'
p114
tp115
Rp116
tp117
a(S'object model'
p118
g2
(g6
S"'\xba\x12\xf3\x0b\xbb\xdc?"
p119
tp120
Rp121
tp122
a(S'international council of museums'
p123
g2
(g6
S'\x9e\xd8\xcc\x8cu\xa8\xdc?'
p124
tp125
Rp126
tp127
a(S'collections management system'
p128
g2
(g6
S'92\xc3\xfc\x0e\x95\xdc?'
p129
tp130
Rp131
tp132
a(S'object-oriented ontology'
p133
g2
(g6
S'\xa1SF4\xe7J\xdc?'
p134
tp135
Rp136
tp137
a(S'list of museums of greek and roman antiquities'
p138
g2
(g6
S'\xaf\xd8\x0e\xf2\x89.\xdc?'
p139
tp140
Rp141
tp142
a(S'japanese museums'
p143
g2
(g6
S'\x95\x88\x90\xde\xd5\x1a\xdc?'
p144
tp145
Rp146
tp147
a(S'list of museums'
p148
g2
(g6
S'\xd5\x82C\x87\xeb\x05\xdc?'
p149
tp150
Rp151
tp152
a(S'yulem'
p153
g2
(g6
S'\xb4|\x82"X\x03\xdc?'
p154
tp155
Rp156
tp157
a(S'list of museums in australia'
p158
g2
(g6
S'\xeck\x83.\xcc\xfc\xdb?'
p159
tp160
Rp161
tp162
a(S'list of numismatic museums'
p163
g2
(g6
S'\r\xf0\x89\x07\x92\xdb\xdb?'
p164
tp165
Rp166
tp167
a(S'physical body'
p168
g2
(g6
S'\xfc\xff\x06\x99/\xd7\xdb?'
p169
tp170
Rp171
tp172
a(S'object-based language'
p173
g2
(g6
S'\xf5\x85X0\xa6\xa7\xdb?'
p174
tp175
Rp176
tp177
a(S'object graph'
p178
g2
(g6
S'\xc8\xcc\xf74\x00\xa3\xdb?'
p179
tp180
Rp181
tp182
a(S'virtual museum'
p183
g2
(g6
S'\xb0$\x1c\xfa\xe1\x90\xdb?'
p184
tp185
Rp186
tp187
a(S'marjorie schwarzer'
p188
g2
(g6
S'|\xc0~\x81\xea,\xdb?'
p189
tp190
Rp191
tp192
a(S'object resurrection'
p193
g2
(g6
S'\x15\xc6\x85\x92\x1f\x19\xdb?'
p194
tp195
Rp196
tp197
a(S'omtroll'
p198
g2
(g6
S'{\xc0\xe1#,\x01\xdb?'
p199
tp200
Rp201
tp202
a(S'museum planning'
p203
g2
(g6
S'\xa1\xd4\xf5\x83V\xf5\xda?'
p204
tp205
Rp206
tp207
a(S'list of museums in canada'
p208
g2
(g6
S'\xb8\xc8N\x96f\xdf\xda?'
p209
tp210
Rp211
tp212
a(S'list of museums in the united states'
p213
g2
(g6
S'.\xf0\x98\x8d)\xdd\xda?'
p214
tp215
Rp216
tp217
a(S'association (object-oriented programming)'
p218
g2
(g6
S'\xdb\x1b\x98\xc7z\xda\xda?'
p219
tp220
Rp221
tp222
a(S'list of museums with major collections in ethnography and anthropology'
p223
g2
(g6
S'\xb3\xdf\xe8\x9e+\xac\xda?'
p224
tp225
Rp226
tp227
a(S'royal museums of art and history'
p228
g2
(g6
S'Sx\x98\x0e\xaa\x93\xda?'
p229
tp230
Rp231
tp232
a(S'identity (object-oriented programming)'
p233
g2
(g6
S'\x9bF\xab\xa5W\x85\xda?'
p234
tp235
Rp236
tp237
a(S'museums australia'
p238
g2
(g6
S"\xa6'\x1b0\x88~\xda?"
p239
tp240
Rp241
tp242
a(S'green museum'
p243
g2
(g6
S'\xba\xae\xc5\x90\x0eB\xda?'
p244
tp245
Rp246
tp247
a(S'swedish history museum'
p248
g2
(g6
S'\xc3\x9c^H\t?\xda?'
p249
tp250
Rp251
tp252
a(S'museum europ\xc3\xa4ischer kulturen'
p253
g2
(g6
S'\x92\xac\xf6\xe3\x087\xda?'
p254
tp255
Rp256
tp257
a(S'fralin museum of art'
p258
g2
(g6
S'@&\x801w\xfe\xd9?'
p259
tp260
Rp261
tp262
a(S'folk museum'
p263
g2
(g6
S'\xc2\xc6\xbb\x0f\xd7\xf8\xd9?'
p264
tp265
Rp266
tp267
a(S'object-oriented design'
p268
g2
(g6
S'?v{X\xe1\xf5\xd9?'
p269
tp270
Rp271
tp272
a(S'open-air museum'
p273
g2
(g6
S'\x83\xbf\xe4\xf9\xb0\xe5\xd9?'
p274
tp275
Rp276
tp277
a(S'object (grammar)'
p278
g2
(g6
S'\x1dz&\xf35\xce\xd9?'
p279
tp280
Rp281
tp282
a(S'cloning (programming)'
p283
g2
(g6
S'V\xb0\xbc\xfb\t\xb9\xd9?'
p284
tp285
Rp286
tp287
a(S'museology'
p288
g2
(g6
S'\x96\xb6z\xa8[\xb4\xd9?'
p289
tp290
Rp291
tp292
a(S'berlin state museums'
p293
g2
(g6
S'\xb9\xae\xe7\xc1E\xb1\xd9?'
p294
tp295
Rp296
tp297
a(S'list of museums and cultural institutions in indonesia'
p298
g2
(g6
S'\xd2\x0e\xe9\xed\xb3\xaf\xd9?'
p299
tp300
Rp301
tp302
a(S'museum mile, london'
p303
g2
(g6
S'\xe6H\xa1T\xafq\xd9?'
p304
tp305
Rp306
tp307
a(S'storage of cultural heritage objects'
p308
g2
(g6
S'v\xcb\xa3\xa31h\xd9?'
p309
tp310
Rp311
tp312
a(S'object storage'
p313
g2
(g6
S'\xfd\xde\x1a7\xfca\xd9?'
p314
tp315
Rp316
tp317
a(S'museums association'
p318
g2
(g6
S'\xc2\xb5\xea\xc8\x1eQ\xd9?'
p319
tp320
Rp321
tp322
a(S'designation scheme'
p323
g2
(g6
S'?\xa9\xe1\x0bkE\xd9?'
p324
tp325
Rp326
tp327
a(S'god object'
p328
g2
(g6
S'y!hQ\x1fE\xd9?'
p329
tp330
Rp331
tp332
a(S'objects conservator'
p333
g2
(g6
S'\xd9\x0e\xe1\xfe\xac?\xd9?'
p334
tp335
Rp336
tp337
a(S'persistent object store'
p338
g2
(g6
S'\x08\x9b\x82;B0\xd9?'
p339
tp340
Rp341
tp342
a(S'five college museums/historic deerfield'
p343
g2
(g6
S'\x0e\xf4e\xe2\xe7\xf9\xd8?'
p344
tp345
Rp346
tp347
a(S'zhejiang museum of natural history'
p348
g2
(g6
S'$;R\x8f\x03\xf3\xd8?'
p349
tp350
Rp351
tp352
a(S'object oriented management'
p353
g2
(g6
S'm\xe3\n\x80\xce\xf2\xd8?'
p354
tp355
Rp356
tp357
a(S'value object'
p358
g2
(g6
S'\xd2oO6\xda\xe9\xd8?'
p359
tp360
Rp361
tp362
a(S'american alliance of museums'
p363
g2
(g6
S'\x86\xf3\x19\xd6L\xe4\xd8?'
p364
tp365
Rp366
tp367
a(S'museum of ethnology, hamburg'
p368
g2
(g6
S'4\xc1\xe8\xc09\xde\xd8?'
p369
tp370
Rp371
tp372
a(S'object-based attention'
p373
g2
(g6
S'\xf3i\xaf*\x02\xb9\xd8?'
p374
tp375
Rp376
tp377
a(S'idef4'
p378
g2
(g6
S',\x83\x19f\xf2\xb5\xd8?'
p379
tp380
Rp381
tp382
a(S'jet data access objects'
p383
g2
(g6
S'9k\x16\x9a\xe8\xaf\xd8?'
p384
tp385
Rp386
tp387
a(S'list of museums of ancient near eastern art'
p388
g2
(g6
S'R\xcf\x0bT\x7f\x9e\xd8?'
p389
tp390
Rp391
tp392
a(S'university art museums and galleries in the united states'
p393
g2
(g6
S'q\xc7\xac\x8dH\x9a\xd8?'
p394
tp395
Rp396
tp397
a(S'list of museums in austria'
p398
g2
(g6
S'L\xe4\xd3\xb1\x0b\x8b\xd8?'
p399
tp400
Rp401
tp402
a(S'local museum'
p403
g2
(g6
S'\xd7^\x00\xed\xe9\x89\xd8?'
p404
tp405
Rp406
tp407
a(S'national museum (prague)'
p408
g2
(g6
S'6\\\x020\xdc\x88\xd8?'
p409
tp410
Rp411
tp412
a(S'list of museums in saint petersburg'
p413
g2
(g6
S'\xd0\x03~\x12os\xd8?'
p414
tp415
Rp416
tp417
a(S'leipzig museum of ethnography'
p418
g2
(g6
S'\xb2!\xaf\xaaIm\xd8?'
p419
tp420
Rp421
tp422
a(S'list of museums in the democratic republic of the congo'
p423
g2
(g6
S')\xcc\xce\x9b3f\xd8?'
p424
tp425
Rp426
tp427
a(S'object-capability model'
p428
g2
(g6
S'8v\xe1\xac\x92T\xd8?'
p429
tp430
Rp431
tp432
a(S'african art in western collections'
p433
g2
(g6
S'tcl\t\xdcQ\xd8?'
p434
tp435
Rp436
tp437
a(S'list of largest art museums'
p438
g2
(g6
S'\xe5\xd3\x11t\x8a<\xd8?'
p439
tp440
Rp441
tp442
a(S'list of museums in tanzania'
p443
g2
(g6
S'\xa34\xd0\xb1u:\xd8?'
p444
tp445
Rp446
tp447
a(S'deutsches historisches museum'
p448
g2
(g6
S'\xb6R\xd2\x1939\xd8?'
p449
tp450
Rp451
tp452
a(S'fine arts museums of san francisco'
p453
g2
(g6
S'1\x1c!:\xb8)\xd8?'
p454
tp455
Rp456
tp457
a(S'museums journal'
p458
g2
(g6
S'\xb6\x83\xcc/"#\xd8?'
p459
tp460
Rp461
tp462
a(S'ditsong museums of south africa'
p463
g2
(g6
S'\xbeOy\x99\xf4\t\xd8?'
p464
tp465
Rp466
tp467
a(S'object (philosophy)'
p468
g2
(g6
S'}\xe9\x03\xe4 \x02\xd8?'
p469
tp470
Rp471
tp472
a(S'has-a'
p473
g2
(g6
S'\x86\x11\xee\xcc(\xf8\xd7?'
p474
tp475
Rp476
tp477
a(S'list of museums in nepal'
p478
g2
(g6
S'w\x18{"\xab\xf3\xd7?'
p479
tp480
Rp481
tp482
a(S'initial and terminal objects'
p483
g2
(g6
S'\x00\xdf*}\xa5\xf2\xd7?'
p484
tp485
Rp486
tp487
a(S'international committee for museology'
p488
g2
(g6
S'\xdc?Q\xb6\x9c\xe1\xd7?'
p489
tp490
Rp491
tp492
a(S'object database'
p493
g2
(g6
S'Iiv\x94Z\xcc\xd7?'
p494
tp495
Rp496
tp497
a(S'd\xc3\xbcnya m\xc3\xbczeleri m\xc3\xbczesi'
p498
g2
(g6
S'\xec\xef\xc6\xad\x11\xc6\xd7?'
p499
tp500
Rp501
tp502
a(S'list of museums in uganda'
p503
g2
(g6
S'\xf0\xcb2\xf9m\xbf\xd7?'
p504
tp505
Rp506
tp507
a(S"children's museum"
p508
g2
(g6
S'\xa1\xf4\xb5\x01\xcc\xbd\xd7?'
p509
tp510
Rp511
tp512
a(S'list of museums in england'
p513
g2
(g6
S'\x04IK\x80\x90\xb7\xd7?'
p514
tp515
Rp516
tp517
a(S"association of children's museums"
p518
g2
(g6
S'.\xc3}N\x0c\xb6\xd7?'
p519
tp520
Rp521
tp522
a(S'emergency response (museum)'
p523
g2
(g6
S'\\\xed\xfc\x8f\xa7\x9d\xd7?'
p524
tp525
Rp526
tp527
a(S'museums10'
p528
g2
(g6
S'\xb5\x93\xa6W-\x9b\xd7?'
p529
tp530
Rp531
tp532
a(S'list of museums in sri lanka'
p533
g2
(g6
S'e2\xb4\x95\xf8\x97\xd7?'
p534
tp535
Rp536
tp537
a(S'natural history museum'
p538
g2
(g6
S'\xed\x8b(S\x01\x8d\xd7?'
p539
tp540
Rp541
tp542
a(S'effects of the great recession on museums'
p543
g2
(g6
S'6\xb5H\xca\xd6\x8c\xd7?'
p544
tp545
Rp546
tp547
a(S'streetlife museum of transport'
p548
g2
(g6
S'3of\xbf\xf6\x8a\xd7?'
p549
tp550
Rp551
tp552
a(S'private collection'
p553
g2
(g6
S'O\xa7\x97\x11\xdf\x86\xd7?'
p554
tp555
Rp556
tp557
a(S'university of pennsylvania museum of archaeology and anthropology'
p558
g2
(g6
S'e6\xd3\xc0\x1a}\xd7?'
p559
tp560
Rp561
tp562
a(S'museumkaart'
p563
g2
(g6
S'\xe6\xc9\x99\xec\xa1x\xd7?'
p564
tp565
Rp566
tp567
a(S'museum of indian arts and culture'
p568
g2
(g6
S'\xd1\xa0\x88$yv\xd7?'
p569
tp570
Rp571
tp572
a(S'private museum'
p573
g2
(g6
S'|\xfbk\r\x81q\xd7?'
p574
tp575
Rp576
tp577
a(S'proactive'
p578
g2
(g6
S'\xaf\x02\xc7\xeb\xe7o\xd7?'
p579
tp580
Rp581
tp582
a(S'national history museum'
p583
g2
(g6
S'\xfe\x05D\xd5|f\xd7?'
p584
tp585
Rp586
tp587
a(S'satakunta museum'
p588
g2
(g6
S'\xb1\x0fZ1VY\xd7?'
p589
tp590
Rp591
tp592
a(S'museums in basel'
p593
g2
(g6
S'fH\xe8)\xd0W\xd7?'
p594
tp595
Rp596
tp597
a(S'durham university oriental museum'
p598
g2
(g6
S'\xae\xb1\xd4f\xebG\xd7?'
p599
tp600
Rp601
tp602
a(S'object pool pattern'
p603
g2
(g6
S'\x99\x0c\xe4\xd8\x0fG\xd7?'
p604
tp605
Rp606
tp607
a(S'list of museums of islamic art'
p608
g2
(g6
S'\xe5\x8f@a\xf8F\xd7?'
p609
tp610
Rp611
tp612
a(S'list of museums in albania'
p613
g2
(g6
S'qS3\xd1\x0fA\xd7?'
p614
tp615
Rp616
tp617
a(S'eurovision \xe2\x80\x93 museums exhibiting europe'
p618
g2
(g6
S'\xf4y\xc40g>\xd7?'
p619
tp620
Rp621
tp622
a(S'list of museums in china'
p623
g2
(g6
S'2\xa4\xe4M\xda$\xd7?'
p624
tp625
Rp626
tp627
a(S'geospy'
p628
g2
(g6
S')8\xee{(\x1c\xd7?'
p629
tp630
Rp631
tp632
a(S'museum island'
p633
g2
(g6
S'\x00\xbd\xc6v\xd2\x1b\xd7?'
p634
tp635
Rp636
tp637
a(S'prototype-based programming'
p638
g2
(g6
S'\x1c\xcbc\x93\xbe\x1a\xd7?'
p639
tp640
Rp641
tp642
a(S'euromuse'
p643
g2
(g6
S'\xad\xf7!\xbax\x13\xd7?'
p644
tp645
Rp646
tp647
a(S'dupont-kalorama museums consortium'
p648
g2
(g6
S'\x19\xb7f\x87\x97\x00\xd7?'
p649
tp650
Rp651
tp652
a(S'object-based spatial database'
p653
g2
(g6
S' \xb6\xd1\xb6r\xfe\xd6?'
p654
tp655
Rp656
tp657
a(S'object-oriented programming'
p658
g2
(g6
S'\x08\xebO\xc3\xa1\xfb\xd6?'
p659
tp660
Rp661
tp662
a(S'object linking and embedding'
p663
g2
(g6
S'_r\xe6Ag\xfa\xd6?'
p664
tp665
Rp666
tp667
a(S'object slicing'
p668
g2
(g6
S'\xf2KR\xfd\xe3\xef\xd6?'
p669
tp670
Rp671
tp672
a(S'object 478'
p673
g2
(g6
S'}Qy\xaf\x93\xea\xd6?'
p674
tp675
Rp676
tp677
a(S'european museum forum'
p678
g2
(g6
S'\xb6\x10\x00\xda\xea\xe9\xd6?'
p679
tp680
Rp681
tp682
a(S'the museum of innocence (museum)'
p683
g2
(g6
S'\xc0\x13\x10\xb8a\xdb\xd6?'
p684
tp685
Rp686
tp687
a(S'labelme'
p688
g2
(g6
S'\xf8\xe5\tEk\xda\xd6?'
p689
tp690
Rp691
tp692
a(S'zygomalas museum'
p693
g2
(g6
S'bJ\xc5\x0c\xba\xd2\xd6?'
p694
tp695
Rp696
tp697
a(S'list of museums in belgrade'
p698
g2
(g6
S'#\xea\x80\xbaC\xd1\xd6?'
p699
tp700
Rp701
tp702
a(S'tropenmuseum'
p703
g2
(g6
S'\xc1P\x8aDV\xd0\xd6?'
p704
tp705
Rp706
tp707
a(S'museum f\xc3\xbcr kommunikation hamburg'
p708
g2
(g6
S'\xf1\xec\xc0^[\xcf\xd6?'
p709
tp710
Rp711
tp712
a(S'replicanet'
p713
g2
(g6
S'\xe1\xd5\xf6\x06\x9d\xcd\xd6?'
p714
tp715
Rp716
tp717
a(S'world museum'
p718
g2
(g6
S'\xcf+=\xabY\xc5\xd6?'
p719
tp720
Rp721
tp722
a(S'association of art museum directors'
p723
g2
(g6
S'\xba\x99O\x82\x03\xc5\xd6?'
p724
tp725
Rp726
tp727
a(S'national museum of poland'
p728
g2
(g6
S'B\x8a:0\x95\xc2\xd6?'
p729
tp730
Rp731
tp732
a(S'collections trust'
p733
g2
(g6
S'._$\x17Z\xbe\xd6?'
p734
tp735
Rp736
tp737
a(S'activex data objects'
p738
g2
(g6
S'\xeb\x8c\x81\x13,\xb8\xd6?'
p739
tp740
Rp741
tp742
a(S'object-relational mapping'
p743
g2
(g6
S'\xbb\xe6\xfe\xee\xa9\xb7\xd6?'
p744
tp745
Rp746
tp747
a(S'museum label'
p748
g2
(g6
S'\xe9D\xd4\xee\xbc\xae\xd6?'
p749
tp750
Rp751
tp752
a(S'long island museum of american art, history, and carriages'
p753
g2
(g6
S'p\xb0_\xce\xc7\xa1\xd6?'
p754
tp755
Rp756
tp757
a(S'hafnarborg'
p758
g2
(g6
S'\x04..\x87U\x9d\xd6?'
p759
tp760
Rp761
tp762
a(S'dutch museum association'
p763
g2
(g6
S'^Fa\x8aP\x9c\xd6?'
p764
tp765
Rp766
tp767
a(S'list of museums in bucharest'
p768
g2
(g6
S'\xfdw\xbd\xcb\xf4\x97\xd6?'
p769
tp770
Rp771
tp772
a(S'yiush'
p773
g2
(g6
S'\x19\xab\x98\xbdl\x96\xd6?'
p774
tp775
Rp776
tp777
a(S'word learning biases'
p778
g2
(g6
S'\xabZ\\\x82$\x92\xd6?'
p779
tp780
Rp781
tp782
a(S'national museums liverpool'
p783
g2
(g6
S'IV\xb0\xf9\x8a\x91\xd6?'
p784
tp785
Rp786
tp787
a(S'central archive of the berlin state museums'
p788
g2
(g6
S'u\x02\x9f\xea\xb5\x8e\xd6?'
p789
tp790
Rp791
tp792
a(S'joconde'
p793
g2
(g6
S'\x93\xc0t\x02\xcc\x81\xd6?'
p794
tp795
Rp796
tp797
a(S'object type (object-oriented programming)'
p798
g2
(g6
S'\xce\xb9h\x04\xb8}\xd6?'
p799
tp800
Rp801
tp802
a(S'scenekit'
p803
g2
(g6
S'\xac\xb8\x96e\x9ez\xd6?'
p804
tp805
Rp806
tp807
a(S'fleming museum of art'
p808
g2
(g6
S';\x13Q-\xa1x\xd6?'
p809
tp810
Rp811
tp812
a(S'museum night (croatia)'
p813
g2
(g6
S'\xa7\xbb\x8b\xd7_v\xd6?'
p814
tp815
Rp816
tp817
a(S'avram moiseevich razgon'
p818
g2
(g6
S'\x8f\xfeM\x07\xa1k\xd6?'
p819
tp820
Rp821
tp822
a(S'list of museums in bihar'
p823
g2
(g6
S"\xfc\xb3\x9b'Nj\xd6?"
p824
tp825
Rp826
tp827
a(S'distributed object'
p828
g2
(g6
S'\xbe\xf5\x05\xa9\xdei\xd6?'
p829
tp830
Rp831
tp832
a(S'university museum (southern illinois university carbondale)'
p833
g2
(g6
S'D\x821\x08+e\xd6?'
p834
tp835
Rp836
tp837
a(S'object-z'
p838
g2
(g6
S'\x19{\xa0\x07Ub\xd6?'
p839
tp840
Rp841
tp842
a(S"king's museum"
p843
g2
(g6
S'v\x1f\x8c\x05\x9aW\xd6?'
p844
tp845
Rp846
tp847
a(S'foreign object'
p848
g2
(g6
S'\x02\xe1\x07\xae\xd3Q\xd6?'
p849
tp850
Rp851
tp852
a(S'list of national museums'
p853
g2
(g6
S'\xb4m\x01\xfdwQ\xd6?'
p854
tp855
Rp856
tp857
a(S'mount holyoke college art museum'
p858
g2
(g6
S'\xbc,\xfa\x9a\xa9P\xd6?'
p859
tp860
Rp861
tp862
a(S'list of museums in mauritius'
p863
g2
(g6
S'\x9ar"kGO\xd6?'
p864
tp865
Rp866
tp867
a(S'national museums of canada'
p868
g2
(g6
S'\x80\xf369\rF\xd6?'
p869
tp870
Rp871
tp872
a(S'national museums scotland'
p873
g2
(g6
S"'\x8f_\xb9(B\xd6?"
p874
tp875
Rp876
tp877
a(S'list of museums in north korea'
p878
g2
(g6
S'\xeaa\x0epN?\xd6?'
p879
tp880
Rp881
tp882
a(S'object data management group'
p883
g2
(g6
S'"i\xd1\x89\xe99\xd6?'
p884
tp885
Rp886
tp887
a(S'schizophrenia (object-oriented programming)'
p888
g2
(g6
S'!\xd2\xa7\xcb\x9a8\xd6?'
p889
tp890
Rp891
tp892
a(S'collections maintenance'
p893
g2
(g6
S'\xfd&za\xd95\xd6?'
p894
tp895
Rp896
tp897
a(S'new jersey state museum'
p898
g2
(g6
S'\xcb,\xbetU,\xd6?'
p899
tp900
Rp901
tp902
a(S'delegation (computing)'
p903
g2
(g6
S'\xbfF,\xc0\x98)\xd6?'
p904
tp905
Rp906
tp907
a(S'list of museums in germany'
p908
g2
(g6
S'(\x11\xd6\x84\x8b \xd6?'
p909
tp910
Rp911
tp912
a(S'imperial war museum'
p913
g2
(g6
S'\x00k1[\xb3\x19\xd6?'
p914
tp915
Rp916
tp917
a(S'museum of east asian art, bath'
p918
g2
(g6
S'\xd0\x9a\x06\xf44\x11\xd6?'
p919
tp920
Rp921
tp922
a(S'appleevent object model'
p923
g2
(g6
S'\xe1z#\x11u\t\xd6?'
p924
tp925
Rp926
tp927
a(S'national museum of afghanistan'
p928
g2
(g6
S'\xdfc\xcc\x0e\xcd\x05\xd6?'
p929
tp930
Rp931
tp932
a(S'list of museums in stockholm'
p933
g2
(g6
S"'\xe2\xe7\rR\x05\xd6?"
p934
tp935
Rp936
tp937
a(S'canadian museums association'
p938
g2
(g6
S'\xed\x9e\xf8-U\xff\xd5?'
p939
tp940
Rp941
tp942
a(S'modoc county historical museum'
p943
g2
(g6
S'S\x982u\xa1\xf9\xd5?'
p944
tp945
Rp946
tp947
a(S'field museum of natural history'
p948
g2
(g6
S'\x10"h\xf9\x88\xf6\xd5?'
p949
tp950
Rp951
tp952
a(S'museo del objeto del objeto'
p953
g2
(g6
S'Ls\tf\xd7\xf4\xd5?'
p954
tp955
Rp956
tp957
a(S'virtual library museums pages'
p958
g2
(g6
S'A\x13\xa7\x9dI\xf2\xd5?'
p959
tp960
Rp961
tp962
a(S'technology museum'
p963
g2
(g6
S'\xbc\x84:\xdb\x9c\xe9\xd5?'
p964
tp965
Rp966
tp967
a(S'component-based scalable logical architecture'
p968
g2
(g6
S'e\xc7\x98{\xc0\xe5\xd5?'
p969
tp970
Rp971
tp972
a(S'list of museums in madagascar'
p973
g2
(g6
S'\xe5\x11\xcf\x03\xfa\xd6\xd5?'
p974
tp975
Rp976
tp977
a(S'robert and frances fullerton museum of art'
p978
g2
(g6
S'\xd22\x08m\xf9\xd2\xd5?'
p979
tp980
Rp981
tp982
a(S'object copying'
p983
g2
(g6
S'\xeb\x16K%\x0f\xd0\xd5?'
p984
tp985
Rp986
tp987
a(S'smart objects'
p988
g2
(g6
S'o\xa5\x12\xfc\xb7\xcb\xd5?'
p989
tp990
Rp991
tp992
a(S'cambridge university museum of zoology'
p993
g2
(g6
S':2\xe8\xf1\xb1\xca\xd5?'
p994
tp995
Rp996
tp997
a(S'university of colorado museum of natural history'
p998
g2
(g6
S'\xc7\x01\xae\x05$\xc9\xd5?'
p999
tp1000
Rp1001
tp1002
a(S'creational pattern'
p1003
g2
(g6
S'\xf2\xe3d\xa3\xb4\xc1\xd5?'
p1004
tp1005
Rp1006
tp1007
a(S'list of museums in romania'
p1008
g2
(g6
S'J>\x82p\t\xc0\xd5?'
p1009
tp1010
Rp1011
tp1012
a(S'list of museums in armenia'
p1013
g2
(g6
S'[\x97\xa9\xeeI\xb4\xd5?'
p1014
tp1015
Rp1016
tp1017
a(S'design museum'
p1018
g2
(g6
S'X6\xe7\x983\xae\xd5?'
p1019
tp1020
Rp1021
tp1022
a(S'irish museums association'
p1023
g2
(g6
S'\x1f\xb6,s\xc4\xa8\xd5?'
p1024
tp1025
Rp1026
tp1027
a(S'north east land, sea and air museums'
p1028
g2
(g6
S'^\x8a;\x03l\xa5\xd5?'
p1029
tp1030
Rp1031
tp1032
a(S'object skill'
p1033
g2
(g6
S'\x8c[\x08\xb5\x15\x9f\xd5?'
p1034
tp1035
Rp1036
tp1037
a(S'shefton museum'
p1038
g2
(g6
S'\xee\xdc\x8a\xd2\x07\x99\xd5?'
p1039
tp1040
Rp1041
tp1042
a(S'museum accreditation in america'
p1043
g2
(g6
S'\x91\xef8\x0c.\x8d\xd5?'
p1044
tp1045
Rp1046
tp1047
a(S'inheritance (genetic algorithm)'
p1048
g2
(g6
S'\xca\xfb\x1d\xa5+\x8c\xd5?'
p1049
tp1050
Rp1051
tp1052
a(S'natural history museum, london'
p1053
g2
(g6
S'\xc8\xc1\xa9\xee\xcd\x86\xd5?'
p1054
tp1055
Rp1056
tp1057
a(S'jule collins smith museum of fine art'
p1058
g2
(g6
S'\xd2\xbc!\xc4[\x86\xd5?'
p1059
tp1060
Rp1061
tp1062
a(S'minas de matahambre municipal museum'
p1063
g2
(g6
S'\x96\x18T]\x06\x7f\xd5?'
p1064
tp1065
Rp1066
tp1067
a(S'collection catalog'
p1068
g2
(g6
S'\xa2\x9bE\xc1Iy\xd5?'
p1069
tp1070
Rp1071
tp1072
a(S'hotel and restaurant museum'
p1073
g2
(g6
S'\x14\xbd[\x80\xd2x\xd5?'
p1074
tp1075
Rp1076
tp1077
a(S'art museum of the university of memphis'
p1078
g2
(g6
S'\xa0\x89\xce\xf5\x05x\xd5?'
p1079
tp1080
Rp1081
tp1082
a(S'list of museums in prague'
p1083
g2
(g6
S'G.d\xf9\x9bw\xd5?'
p1084
tp1085
Rp1086
tp1087
a(S'science museum'
p1088
g2
(g6
S'\x90o\x94\xe3\xeep\xd5?'
p1089
tp1090
Rp1091
tp1092
a(S'list of museums in nigeria'
p1093
g2
(g6
S'\xf4\xf9\xeaE\xdbk\xd5?'
p1094
tp1095
Rp1096
tp1097
a(S'military museum'
p1098
g2
(g6
S'\x05\x90Z\xf4\xe0i\xd5?'
p1099
tp1100
Rp1101
tp1102
a(S'budapest museum quarter'
p1103
g2
(g6
S'\x8e\x1c\xe0,\xc2c\xd5?'
p1104
tp1105
Rp1106
tp1107
a(S'bergen city museum'
p1108
g2
(g6
S'\xca\xf6\xccTo_\xd5?'
p1109
tp1110
Rp1111
tp1112
a(S'de young (museum)'
p1113
g2
(g6
S'\x81\xb8~\xda\x93Z\xd5?'
p1114
tp1115
Rp1116
tp1117
a(S'monaghan county museum'
p1118
g2
(g6
S'\xb0o\x1c\x1f\xadW\xd5?'
p1119
tp1120
Rp1121
tp1122
a(S'historic house museum'
p1123
g2
(g6
S'*\xc0|\x9a\xe2V\xd5?'
p1124
tp1125
Rp1126
tp1127
a(S'self (programming language)'
p1128
g2
(g6
S'@]\xe1(\xceV\xd5?'
p1129
tp1130
Rp1131
tp1132
a(S'museums victoria'
p1133
g2
(g6
S'\xd3\xcd\x93\xfe\x91U\xd5?'
p1134
tp1135
Rp1136
tp1137
a(S'official museums of amsterdam'
p1138
g2
(g6
S'\xc0O]hvO\xd5?'
p1139
tp1140
Rp1141
tp1142
a(S'list of museums in cologne'
p1143
g2
(g6
S',\xc7\xb1\x8c\x06L\xd5?'
p1144
tp1145
Rp1146
tp1147
a(S'national museum of the american indian'
p1148
g2
(g6
S'\x8ba6T\xc2G\xd5?'
p1149
tp1150
Rp1151
tp1152
a(S'chinese association of museums'
p1153
g2
(g6
S'Z\x05\xea\x1cQ?\xd5?'
p1154
tp1155
Rp1156
tp1157
a(S'museum night'
p1158
g2
(g6
S'\x7f\x86\xc3X9>\xd5?'
p1159
tp1160
Rp1161
tp1162
a(S'class-based programming'
p1163
g2
(g6
S'\x9e=xK\x0e=\xd5?'
p1164
tp1165
Rp1166
tp1167
a(S'natural history museum, vienna'
p1168
g2
(g6
S'v\x0ep#\xf7<\xd5?'
p1169
tp1170
Rp1171
tp1172
a(S'quickdb orm'
p1173
g2
(g6
S'\x1c\xa6K\x0649\xd5?'
p1174
tp1175
Rp1176
tp1177
a(S'university of cambridge museums'
p1178
g2
(g6
S'"\x89\xa53\xce3\xd5?'
p1179
tp1180
Rp1181
tp1182
a(S'list of museums in karnataka'
p1183
g2
(g6
S'\x0f\x87\xa4!|0\xd5?'
p1184
tp1185
Rp1186
tp1187
a(S'list of museums in kazakhstan'
p1188
g2
(g6
S'\xa1"D\xf5!/\xd5?'
p1189
tp1190
Rp1191
tp1192
a(S'mykolayiv regional museum of local history'
p1193
g2
(g6
S'\x1d\x88\xc1\xbbB+\xd5?'
p1194
tp1195
Rp1196
tp1197
a(S'state museum'
p1198
g2
(g6
S'\xc2@\x9dM\xae\x1e\xd5?'
p1199
tp1200
Rp1201
tp1202
a(S'art museum partnership'
p1203
g2
(g6
S'\xad\xc4\xdb\xcb\xe3\x1c\xd5?'
p1204
tp1205
Rp1206
tp1207
a(S'list of most visited art museums'
p1208
g2
(g6
S'-\xdc\\\x0ch\x16\xd5?'
p1209
tp1210
Rp1211
tp1212
a(S'museum education'
p1213
g2
(g6
S'\x08G\xb5K\xe7\x14\xd5?'
p1214
tp1215
Rp1216
tp1217
a(S'lowell d. holmes museum of anthropology'
p1218
g2
(g6
S'\x13\xeb\xb9I3\n\xd5?'
p1219
tp1220
Rp1221
tp1222
a(S'.net remoting'
p1223
g2
(g6
S'\x882=\x99\xda\x07\xd5?'
p1224
tp1225
Rp1226
tp1227
a(S'gilcrease museum'
p1228
g2
(g6
S'\x8cA\xa9\xc5b\xfd\xd4?'
p1229
tp1230
Rp1231
tp1232
a(S"winchester's military museums"
p1233
g2
(g6
S'zal\xa4\xda\xf6\xd4?'
p1234
tp1235
Rp1236
tp1237
a(S'alexandria national museum'
p1238
g2
(g6
S'v\x98\xa1\xf1\x84\xf5\xd4?'
p1239
tp1240
Rp1241
tp1242
a(S'list of museums and collections at the university of michigan'
p1243
g2
(g6
S'\r\xbbJ\x183\xf0\xd4?'
p1244
tp1245
Rp1246
tp1247
a(S'list of museums in myanmar'
p1248
g2
(g6
S'U\x18\xfcd\xf4\xef\xd4?'
p1249
tp1250
Rp1251
tp1252
a(S'object-oriented operating system'
p1253
g2
(g6
S'\x1f#Ee\xc1\xec\xd4?'
p1254
tp1255
Rp1256
tp1257
a(S'the london museums of health & medicine'
p1258
g2
(g6
S'R?\xdf\x84>\xe5\xd4?'
p1259
tp1260
Rp1261
tp1262
a(S'virginia museum of fine arts'
p1263
g2
(g6
S'\xea\x19\xb0\x99\xf8\xe2\xd4?'
p1264
tp1265
Rp1266
tp1267
a(S'museums in turkey'
p1268
g2
(g6
S'\x14\xe3\xecV6\xe2\xd4?'
p1269
tp1270
Rp1271
tp1272
a(S'national war museum (disambiguation)'
p1273
g2
(g6
S'$\x80?X\xe7\xdb\xd4?'
p1274
tp1275
Rp1276
tp1277
a(S"the children's museum"
p1278
g2
(g6
S'C\x8e4H\x05\xda\xd4?'
p1279
tp1280
Rp1281
tp1282
a(S'fashion museum'
p1283
g2
(g6
S'\x94r\xe2 \xfd\xd6\xd4?'
p1284
tp1285
Rp1286
tp1287
a(S'north carolina museum of art'
p1288
g2
(g6
S'\x94R\xbe*\xda\xd3\xd4?'
p1289
tp1290
Rp1291
tp1292
a(S'manchester museum'
p1293
g2
(g6
S'\xdf\xdfS\x8b\xcc\xd0\xd4?'
p1294
tp1295
Rp1296
tp1297
a(S'museums at night (uk)'
p1298
g2
(g6
S'\r\xd7\x8cl\xa3\xcd\xd4?'
p1299
tp1300
Rp1301
tp1302
a(S'metropolitan museum of art'
p1303
g2
(g6
S'\xde\x99\x85\x86%\xc3\xd4?'
p1304
tp1305
Rp1306
tp1307
a(S'list of museums in belgium'
p1308
g2
(g6
S'\x01\xa5V\xb4\xc8\xc1\xd4?'
p1309
tp1310
Rp1311
tp1312
a(S'museums in kiev'
p1313
g2
(g6
S'\xe4\x1a\xad\x1f\xe0\xbd\xd4?'
p1314
tp1315
Rp1316
tp1317
a(S'yorkshire museum'
p1318
g2
(g6
S'\xcc\xbb,\xcf\xe8\xb7\xd4?'
p1319
tp1320
Rp1321
tp1322
a(S'sinebrychoff art museum'
p1323
g2
(g6
S'\x93D\xd0\x99;\xb4\xd4?'
p1324
tp1325
Rp1326
tp1327
a(S'dusable museum of african american history'
p1328
g2
(g6
S'\x00R\x01\xdc\x1f\xb4\xd4?'
p1329
tp1330
Rp1331
tp1332
a(S'list of museums in ecuador'
p1333
g2
(g6
S'\xd3\xe1\x12T\x86\xb3\xd4?'
p1334
tp1335
Rp1336
tp1337
a(S'fred jones jr. museum of art'
p1338
g2
(g6
S'I^c-8\xa8\xd4?'
p1339
tp1340
Rp1341
tp1342
a(S'naked objects'
p1343
g2
(g6
S'\xac!X"\x8a\xa5\xd4?'
p1344
tp1345
Rp1346
tp1347
a(S'design patterns'
p1348
g2
(g6
S'\xe4\xa9C\x94\x02\xa4\xd4?'
p1349
tp1350
Rp1351
tp1352
a(S'subobject'
p1353
g2
(g6
S'A\xf5\xb1i\xda\xa0\xd4?'
p1354
tp1355
Rp1356
tp1357
a(S'antikensammlung berlin'
p1358
g2
(g6
S'\xf7:`\xf8\xd0\x9e\xd4?'
p1359
tp1360
Rp1361
tp1362
a(S'list of museums in trinidad and tobago'
p1363
g2
(g6
S'\xe7\x15\x16}r\x9e\xd4?'
p1364
tp1365
Rp1366
tp1367
a(S'department of national museum (sri lanka)'
p1368
g2
(g6
S'\x00m\xe8\x10\x13\x9d\xd4?'
p1369
tp1370
Rp1371
tp1372
a(S'polytechnic museum'
p1373
g2
(g6
S'\xed}c\xa2i\x9c\xd4?'
p1374
tp1375
Rp1376
tp1377
a(S'delegation pattern'
p1378
g2
(g6
S'\x0c\xc8@%a\x93\xd4?'
p1379
tp1380
Rp1381
tp1382
a(S'national museum of african art'
p1383
g2
(g6
S'\xdf\xd4\x99\xcbn\x90\xd4?'
p1384
tp1385
Rp1386
tp1387
a(S'institute of museum and library services'
p1388
g2
(g6
S'\x17\xcd\xdaL\\\x8e\xd4?'
p1389
tp1390
Rp1391
tp1392
a(S'list of museums in georgia (country)'
p1393
g2
(g6
S'\xc4>\xadu&\x8b\xd4?'
p1394
tp1395
Rp1396
tp1397
a(S"international association of women's museums"
p1398
g2
(g6
S'-y\xde!\xb7\x85\xd4?'
p1399
tp1400
Rp1401
tp1402
a(S'object-oriented analysis and design'
p1403
g2
(g6
S'\x19q\xad\xb1\xeb\x84\xd4?'
p1404
tp1405
Rp1406
tp1407
a(S'motion diagram'
p1408
g2
(g6
S'\x99\x8f\xd8L\x88\x82\xd4?'
p1409
tp1410
Rp1411
tp1412
a(S'museum of asian art'
p1413
g2
(g6
S'\x87\xd6\x8f\x1a\xf5y\xd4?'
p1414
tp1415
Rp1416
tp1417
a(S'national foundation of museums of morocco'
p1418
g2
(g6
S'\xed\xd5l-\x06v\xd4?'
p1419
tp1420
Rp1421
tp1422
a(S'museum of arts and crafts, zagreb'
p1423
g2
(g6
S'%\xb31\x12\x1bt\xd4?'
p1424
tp1425
Rp1426
tp1427
a(S'inventory (museum)'
p1428
g2
(g6
S'Y\xc9\xa0\xceOr\xd4?'
p1429
tp1430
Rp1431
tp1432
a(S'cognitive neuroscience of visual object recognition'
p1433
g2
(g6
S'\xc4)\xdd,~p\xd4?'
p1434
tp1435
Rp1436
tp1437
a(S'recognition-by-components theory'
p1438
g2
(g6
S'\x1f\x03\x17\x12In\xd4?'
p1439
tp1440
Rp1441
tp1442
a(S'museum of the peaceful arts'
p1443
g2
(g6
S'\x8c\x02\xd4\xdf\xcck\xd4?'
p1444
tp1445
Rp1446
tp1447
a(S'mock object'
p1448
g2
(g6
S'\x11\xa2\x10$\x16h\xd4?'
p1449
tp1450
Rp1451
tp1452
a(S'list of automobile museums'
p1453
g2
(g6
S'\xb7\x8f\xc6l\x04g\xd4?'
p1454
tp1455
Rp1456
tp1457
a(S'museum of natural history, belgrade'
p1458
g2
(g6
S'\\0\x90\xad\x82`\xd4?'
p1459
tp1460
Rp1461
tp1462
a(S'\xc3\x96demi\xc5\x9f museum'
p1463
g2
(g6
S'R\xa5\x80\x14\x97V\xd4?'
p1464
tp1465
Rp1466
tp1467
a(S'whipple museum of the history of science'
p1468
g2
(g6
S'\xcfw0\xa8fV\xd4?'
p1469
tp1470
Rp1471
tp1472
a(S'conservation and restoration at the smithsonian institution'
p1473
g2
(g6
S'\x8fB[p\xe4U\xd4?'
p1474
tp1475
Rp1476
tp1477
a(S'brooklyn museum libraries and archives'
p1478
g2
(g6
S'9\xaa\x94X\x9bT\xd4?'
p1479
tp1480
Rp1481
tp1482
a(S'scale error'
p1483
g2
(g6
S'.B@\xb4\xbfR\xd4?'
p1484
tp1485
Rp1486
tp1487
a(S'mount maker'
p1488
g2
(g6
S'\xd4&\xd0\xd5\x91P\xd4?'
p1489
tp1490
Rp1491
tp1492
a(S'national museums of kenya'
p1493
g2
(g6
S'\xe3\x93y\xe6\x90O\xd4?'
p1494
tp1495
Rp1496
tp1497
a(S'museum of the integrated police'
p1498
g2
(g6
S'Vx\xc0vuO\xd4?'
p1499
tp1500
Rp1501
tp1502
a(S'recordset'
p1503
g2
(g6
S'B\xddTaqM\xd4?'
p1504
tp1505
Rp1506
tp1507
a(S'frost art museum'
p1508
g2
(g6
S'<\xbbd\xe7HH\xd4?'
p1509
tp1510
Rp1511
tp1512
a.