(lp0
(S'computational science'
p1
cnumpy.core.multiarray
scalar
p2
(cnumpy
dtype
p3
(S'f8'
p4
I0
I1
tp5
Rp6
(I3
S'<'
p7
NNNI-1
I-1
I0
tp8
bS'\x03\x00\x00\x00\x00\x00\xf0?'
p9
tp10
Rp11
tp12
a(S'computational x'
p13
g2
(g6
S'\xb7\xb5\xcf\xb5XM\xe9?'
p14
tp15
Rp16
tp17
a(S'computational engineering'
p18
g2
(g6
S'\xbag\x81\x83\t\xe8\xe6?'
p19
tp20
Rp21
tp22
a(S'computational mathematics'
p23
g2
(g6
S'\xeeN\xb5\xe9\xae\xba\xe6?'
p24
tp25
Rp26
tp27
a(S'computational biology'
p28
g2
(g6
S'\x8b\x94$\x9a\xfc%\xe6?'
p29
tp30
Rp31
tp32
a(S'computational physics'
p33
g2
(g6
S'\xbe\x9d\xb72\xe6\xed\xe5?'
p34
tp35
Rp36
tp37
a(S'georgia institute of technology school of computational science & engineering'
p38
g2
(g6
S'\x10\xf2z.15\xe5?'
p39
tp40
Rp41
tp42
a(S'siam journal on scientific computing'
p43
g2
(g6
S'M\x06>\xaa"*\xe5?'
p44
tp45
Rp46
tp47
a(S'computational resource'
p48
g2
(g6
S'b\x84N\xc6\x9a\xc0\xe4?'
p49
tp50
Rp51
tp52
a(S'computational mechanics'
p53
g2
(g6
S'[R\x0c\xa1\xb4\xa6\xe4?'
p54
tp55
Rp56
tp57
a(S'computational theology'
p58
g2
(g6
S'\x1a\xc6^\xfa@\x16\xe4?'
p59
tp60
Rp61
tp62
a(S'computational lexicology'
p63
g2
(g6
S'A7\xec\xf5S\xc4\xe3?'
p64
tp65
Rp66
tp67
a(S'computational economics'
p68
g2
(g6
S'\x13\x84\xa39},\xe3?'
p69
tp70
Rp71
tp72
a(S'uzi landman'
p73
g2
(g6
S'\xf5f+IV\xf1\xe2?'
p74
tp75
Rp76
tp77
a(S'computational thinking'
p78
g2
(g6
S'<\xbe\x81F\xfb\xab\xe2?'
p79
tp80
Rp81
tp82
a(S'computational linguistics'
p83
g2
(g6
S'\xc5n\xd6\x84\xdc\xa4\xe2?'
p84
tp85
Rp86
tp87
a(S'computational statistics'
p88
g2
(g6
S'E\xe1\x1d]1P\xe2?'
p89
tp90
Rp91
tp92
a(S'computational finance'
p93
g2
(g6
S'\xa9\xf7\x8f\x0f\xf7(\xe2?'
p94
tp95
Rp96
tp97
a(S'high performance computing collaboratory'
p98
g2
(g6
S'q\xba\x1c\xcc\xf3\x00\xe2?'
p99
tp100
Rp101
tp102
a(S'foundations of computational mathematics'
p103
g2
(g6
S'I_L\x85\x96\xf0\xe1?'
p104
tp105
Rp106
tp107
a(S'computational transportation science'
p108
g2
(g6
S'\xc52\xdf\x86\x1e\xe3\xe1?'
p109
tp110
Rp111
tp112
a(S'institute for computational sustainability'
p113
g2
(g6
S'\x162\xf9\xe3\x0f\xdf\xe1?'
p114
tp115
Rp116
tp117
a(S'computational steering'
p118
g2
(g6
S'\xcb1\xee\x1a\x1eO\xe1?'
p119
tp120
Rp121
tp122
a(S'computational complexity'
p123
g2
(g6
S'\xbe\xf5R\x96\x82<\xe1?'
p124
tp125
Rp126
tp127
a(S'computational model'
p128
g2
(g6
S'\xe5\x9e"\x9f\xfe$\xe1?'
p129
tp130
Rp131
tp132
a(S'research center for modeling and simulation'
p133
g2
(g6
S' !\x1e\x96D\x06\xe1?'
p134
tp135
Rp136
tp137
a(S'computational geometry (journal)'
p138
g2
(g6
S'2\xcfg\xd6i\x02\xe1?'
p139
tp140
Rp141
tp142
a(S'jacob fish'
p143
g2
(g6
S'\x98l\xfb\x080\xd9\xe0?'
p144
tp145
Rp146
tp147
a(S'john b. bell'
p148
g2
(g6
S'\xb8\xd3\xf94Z\x91\xe0?'
p149
tp150
Rp151
tp152
a(S'computational geometry'
p153
g2
(g6
S'\xd4\xb6\xce\x86\x9cz\xe0?'
p154
tp155
Rp156
tp157
a(S'theoretical computer science'
p158
g2
(g6
S'\x06\xcb\x12\x0e\x84z\xe0?'
p159
tp160
Rp161
tp162
a(S'natural computing (journal)'
p163
g2
(g6
S'N\rw\x8c%q\xe0?'
p164
tp165
Rp166
tp167
a(S'osman ya\xc5\x9far'
p168
g2
(g6
S'0R\xb9\xd5.o\xe0?'
p169
tp170
Rp171
tp172
a(S'robert j. harrison'
p173
g2
(g6
S'\x82\x0b\x19\xd3=h\xe0?'
p174
tp175
Rp176
tp177
a(S'computational scientist'
p178
g2
(g6
S'=\x8a\xdf\xfa\xd2g\xe0?'
p179
tp180
Rp181
tp182
a(S'nicholas harrison'
p183
g2
(g6
S'\x1c!\x85UE?\xe0?'
p184
tp185
Rp186
tp187
a(S'basel computational biology conference'
p188
g2
(g6
S'\xe2\xd3\xcc\xe2\x08=\xe0?'
p189
tp190
Rp191
tp192
a(S'computational irreducibility'
p193
g2
(g6
S'\x8d8\xafTM7\xe0?'
p194
tp195
Rp196
tp197
a(S'computational neuroscience'
p198
g2
(g6
S'%\x1dNc\xad\t\xe0?'
p199
tp200
Rp201
tp202
a(S'computational genomics'
p203
g2
(g6
S'\x9e\xbd4\xcb\x9a\x07\xe0?'
p204
tp205
Rp206
tp207
a(S'computational chemistry list'
p208
g2
(g6
S'\x19\xa6\xa3\xf14\xe7\xdf?'
p209
tp210
Rp211
tp212
a(S'outline of computer science'
p213
g2
(g6
S'\x88{3\xa7\xe0\xe5\xdf?'
p214
tp215
Rp216
tp217
a(S'hans petter langtangen'
p218
g2
(g6
S'-\xffK\x7f\r\xdc\xdf?'
p219
tp220
Rp221
tp222
a(S'acm transactions on computational logic'
p223
g2
(g6
S'\x03F\x17\xd8\x86\xd1\xdf?'
p224
tp225
Rp226
tp227
a(S'leigh tesfatsion'
p228
g2
(g6
S'7\xffS\xe7B\xc5\xdf?'
p229
tp230
Rp231
tp232
a(S'institute for computational engineering and sciences'
p233
g2
(g6
S'+!e\x87\x10\x9a\xdf?'
p234
tp235
Rp236
tp237
a(S'computational photography'
p238
g2
(g6
S'\x05\x81\x9c\\a\x93\xdf?'
p239
tp240
Rp241
tp242
a(S'sidney fernbach award'
p243
g2
(g6
S'\xcd\x1cU\xec\x81_\xdf?'
p244
tp245
Rp246
tp247
a(S'ziv bar-joseph'
p248
g2
(g6
S'\x19 .\xc3\x17[\xdf?'
p249
tp250
Rp251
tp252
a(S'center for computational chemistry'
p253
g2
(g6
S'\xd0%\x82\xfe\x87T\xdf?'
p254
tp255
Rp256
tp257
a(S'semantic analysis (computational)'
p258
g2
(g6
S'\x87\x97k\xdc\xed\x02\xdf?'
p259
tp260
Rp261
tp262
a(S'computational social science'
p263
g2
(g6
S'\x84U\x90\x99\xdc\x01\xdf?'
p264
tp265
Rp266
tp267
a(S'computational statistics & data analysis'
p268
g2
(g6
S'\xe6\xd5\xbf\xcc\xaf\xd8\xde?'
p269
tp270
Rp271
tp272
a(S'joseph s. b. mitchell'
p273
g2
(g6
S'\x90\xbae\xa8\xd7\xd5\xde?'
p274
tp275
Rp276
tp277
a(S'san diego supercomputer center'
p278
g2
(g6
S'3?\xd8@\xef\xd3\xde?'
p279
tp280
Rp281
tp282
a(S'tomaso poggio'
p283
g2
(g6
S'\xf8V\x0c,\x12\xcf\xde?'
p284
tp285
Rp286
tp287
a(S'chandrajit bajaj'
p288
g2
(g6
S'@JU\xe84\xc6\xde?'
p289
tp290
Rp291
tp292
a(S'computational statistics (journal)'
p293
g2
(g6
S'(@\x88;#U\xde?'
p294
tp295
Rp296
tp297
a(S'computational visualistics'
p298
g2
(g6
S'l\x85\x07FY8\xde?'
p299
tp300
Rp301
tp302
a(S'computational number theory'
p303
g2
(g6
S'\x13\x1e\xe6P_4\xde?'
p304
tp305
Rp306
tp307
a(S'carl herbert smith'
p308
g2
(g6
S'\xb2C@\x90"\xef\xdd?'
p309
tp310
Rp311
tp312
a(S'thomas lengauer'
p313
g2
(g6
S'\x89E\xa2\x17\xb5\xc1\xdd?'
p314
tp315
Rp316
tp317
a(S'computational journalism'
p318
g2
(g6
S'\xadN\xce@V\xb2\xdd?'
p319
tp320
Rp321
tp322
a(S'aslak tveito'
p323
g2
(g6
S'W\xd0F\xdc,\xb1\xdd?'
p324
tp325
Rp326
tp327
a(S'archives of computational methods in engineering'
p328
g2
(g6
S'\xc8M\xb0\\U\x8d\xdd?'
p329
tp330
Rp331
tp332
a(S'computer science'
p333
g2
(g6
S'\x80\x0e\xc5,D\x85\xdd?'
p334
tp335
Rp336
tp337
a(S'joint cmu-pitt ph.d. program in computational biology'
p338
g2
(g6
S'\x8blZ\x82Lt\xdd?'
p339
tp340
Rp341
tp342
a(S'john tsotsos'
p343
g2
(g6
S'\xde\x19\xa6\xa9\x83r\xdd?'
p344
tp345
Rp346
tp347
a(S'school of computational sciences, swami ramanand teerth marathwada university'
p348
g2
(g6
S'\x8e\xaf\x18\xb0\x0bY\xdd?'
p349
tp350
Rp351
tp352
a(S'computational chemistry grid'
p353
g2
(g6
S'\x82\xe1\xd5j\x90V\xdd?'
p354
tp355
Rp356
tp357
a(S'bj\xc3\xb6rn engquist'
p358
g2
(g6
S'q\xf62\x00\xbeM\xdd?'
p359
tp360
Rp361
tp362
a(S'list of books in computational geometry'
p363
g2
(g6
S'\xf6]GG\xac-\xdd?'
p364
tp365
Rp366
tp367
a(S'computational science graduate fellowship'
p368
g2
(g6
S'n3;\xe5\xc6\x06\xdd?'
p369
tp370
Rp371
tp372
a(S'list of awards in bioinformatics and computational biology'
p373
g2
(g6
S'zr\xcb\xa8\x80\xf4\xdc?'
p374
tp375
Rp376
tp377
a(S'computational chemistry'
p378
g2
(g6
S'T\t\x13\xaf\x8e\xc5\xdc?'
p379
tp380
Rp381
tp382
a(S'james m. bower'
p383
g2
(g6
S'\xa7VX\xf2\xe1\xb5\xdc?'
p384
tp385
Rp386
tp387
a(S'asymptotic computational complexity'
p388
g2
(g6
S'G\xb4\xf3\xd9_\xb4\xdc?'
p389
tp390
Rp391
tp392
a(S'gary b. fogel'
p393
g2
(g6
S'P\xbf\xe6&\xe6\x9a\xdc?'
p394
tp395
Rp396
tp397
a(S'computational biology department'
p398
g2
(g6
S'_?\xad\xe0\n\x87\xdc?'
p399
tp400
Rp401
tp402
a(S'debora marks'
p403
g2
(g6
S'\xe0R\xd7\xbd\xf7n\xdc?'
p404
tp405
Rp406
tp407
a(S'computational linguistics (journal)'
p408
g2
(g6
S'Ctb\xee\xeaf\xdc?'
p409
tp410
Rp411
tp412
a(S'computational intelligence'
p413
g2
(g6
S'|\x86\x02$-!\xdc?'
p414
tp415
Rp416
tp417
a(S'charbel farhat'
p418
g2
(g6
S'\x19\x8d\xc8K\xb5\x12\xdc?'
p419
tp420
Rp421
tp422
a(S'per arne rikvold'
p423
g2
(g6
S'\xfc\xd93\xda\xca\x0b\xdc?'
p424
tp425
Rp426
tp427
a(S'farid f. abraham'
p428
g2
(g6
S'\xcf\xc7\x9a\n\xb2\xe5\xdb?'
p429
tp430
Rp431
tp432
a(S'policypitch'
p433
g2
(g6
S'\xdc\x817\xff\xae\xe4\xdb?'
p434
tp435
Rp436
tp437
a(S'itu national center for high performance computing'
p438
g2
(g6
S'*\xf0\x12\x94\xea\xe0\xdb?'
p439
tp440
Rp441
tp442
a(S'computational informatics'
p443
g2
(g6
S'\xa7\xa0o\x8eI\xae\xdb?'
p444
tp445
Rp446
tp447
a(S'joseph zachary'
p448
g2
(g6
S'[\x90\xc7\xd1f\x9d\xdb?'
p449
tp450
Rp451
tp452
a(S'computational cognition'
p453
g2
(g6
S'\xf45\x80\xe7\xcc\x9a\xdb?'
p454
tp455
Rp456
tp457
a(S'nancy m. amato'
p458
g2
(g6
S'QeF\x12S\x8c\xdb?'
p459
tp460
Rp461
tp462
a(S'international journal of computational intelligence and applications'
p463
g2
(g6
S'\xad\xd9^\x14\xb3\x86\xdb?'
p464
tp465
Rp466
tp467
a(S'computational astrophysics'
p468
g2
(g6
S'\x15D\xd0\xf9#{\xdb?'
p469
tp470
Rp471
tp472
a(S'robert swendsen'
p473
g2
(g6
S'\xab\xcc\xe0h:q\xdb?'
p474
tp475
Rp476
tp477
a(S'michael l. klein'
p478
g2
(g6
S'\x95A:\xcc\xd1*\xdb?'
p479
tp480
Rp481
tp482
a(S'microsoft award'
p483
g2
(g6
S'\xc9hYj\xd9\n\xdb?'
p484
tp485
Rp486
tp487
a(S'gamess'
p488
g2
(g6
S'.\xdf[\xeb{\xfb\xda?'
p489
tp490
Rp491
tp492
a(S'lawrence hunter'
p493
g2
(g6
S'\x91\to}=\xfa\xda?'
p494
tp495
Rp496
tp497
a(S'outline of science'
p498
g2
(g6
S'\xea^I\x96\xc9\xf4\xda?'
p499
tp500
Rp501
tp502
a(S'robert gentleman (statistician)'
p503
g2
(g6
S'\xb6Z\x90\x95\xfd\xe4\xda?'
p504
tp505
Rp506
tp507
a(S'journal of computational geometry'
p508
g2
(g6
S'c\xa1\xb6\xe58\xe1\xda?'
p509
tp510
Rp511
tp512
a(S'list of computer scientists'
p513
g2
(g6
S'\x8fyo\xe3\x94\xc9\xda?'
p514
tp515
Rp516
tp517
a(S'computational law'
p518
g2
(g6
S'\xa9sR\xce\xb4\xc1\xda?'
p519
tp520
Rp521
tp522
a(S'dimitris drikakis'
p523
g2
(g6
S'\x83\xfeT\xb0\xc2\xb4\xda?'
p524
tp525
Rp526
tp527
a(S'dorodnitsyn computing centre'
p528
g2
(g6
S'\x99qR>\xb2\xb4\xda?'
p529
tp530
Rp531
tp532
a(S'mcmaster school of computational engineering and science'
p533
g2
(g6
S'^\x86\x88\x89\x85\xaa\xda?'
p534
tp535
Rp536
tp537
a(S'computational infrastructure for geodynamics'
p538
g2
(g6
S'\xf3\x16"%\xf1\x99\xda?'
p539
tp540
Rp541
tp542
a(S'african society for bioinformatics and computational biology'
p543
g2
(g6
S'\x8d\xf86\x1f\xf1\x97\xda?'
p544
tp545
Rp546
tp547
a(S'research in computational molecular biology'
p548
g2
(g6
S'\xded\xa0\x82k\x91\xda?'
p549
tp550
Rp551
tp552
a(S'ted belytschko'
p553
g2
(g6
S'?k1Q\xf6}\xda?'
p554
tp555
Rp556
tp557
a(S'neuromimetic intelligence'
p558
g2
(g6
S'UAE\xf8\xdeq\xda?'
p559
tp560
Rp561
tp562
a(S'computational and structural biotechnology journal'
p563
g2
(g6
S'\xecd\xc1\xab\xceo\xda?'
p564
tp565
Rp566
tp567
a(S'joel h. ferziger'
p568
g2
(g6
S'5b\x19\xc4\x07e\xda?'
p569
tp570
Rp571
tp572
a(S'symposium on computational geometry'
p573
g2
(g6
S'\xe8\x16\xdf\xad W\xda?'
p574
tp575
Rp576
tp577
a(S'glossary of artificial intelligence'
p578
g2
(g6
S'\xdf\xad\x1c\xab\xecS\xda?'
p579
tp580
Rp581
tp582
a(S'ethnocomputing'
p583
g2
(g6
S'\x8b\x03\xdaaMG\xda?'
p584
tp585
Rp586
tp587
a(S'journal of computational biology'
p588
g2
(g6
S"\x01\xd3}\x9c\x9e'\xda?"
p589
tp590
Rp591
tp592
a(S'interdisciplinary center for scientific computing'
p593
g2
(g6
S'\x9d\x9e\x0e{\xb4\x15\xda?'
p594
tp595
Rp596
tp597
a(S'computational epidemiology'
p598
g2
(g6
S'\xf2D8\xe0/\n\xda?'
p599
tp600
Rp601
tp602
a(S'computational theory of mind'
p603
g2
(g6
S'%MF_\xee\x03\xda?'
p604
tp605
Rp606
tp607
a(S'michael kearns (computer scientist)'
p608
g2
(g6
S'|?\x1fM=\xf4\xd9?'
p609
tp610
Rp611
tp612
a(S'ieee/acm transactions on computational biology and bioinformatics'
p613
g2
(g6
S'm\x91yR\xb9\xf0\xd9?'
p614
tp615
Rp616
tp617
a(S'agent-based computational economics'
p618
g2
(g6
S'\xb0\xd1\xcf\x89\x9f\xdb\xd9?'
p619
tp620
Rp621
tp622
a(S'pavel a. pevzner'
p623
g2
(g6
S'\xe6\xdb\xe3w\x08\xd9\xd9?'
p624
tp625
Rp626
tp627
a(S'computational particle physics'
p628
g2
(g6
S'WA\x05O\xdf\xd8\xd9?'
p629
tp630
Rp631
tp632
a(S'alemdar hasano\xc4\x9flu'
p633
g2
(g6
S'"Z\xcb\x19;\xb5\xd9?'
p634
tp635
Rp636
tp637
a(S'journal of theoretical and computational chemistry'
p638
g2
(g6
S'\xbdZ|5\x18\xa1\xd9?'
p639
tp640
Rp641
tp642
a(S'computational logic'
p643
g2
(g6
S'\x86;C\x0f\xf6\x9f\xd9?'
p644
tp645
Rp646
tp647
a(S'piek vossen'
p648
g2
(g6
S'\x85M\xca\xd0\xa0\x89\xd9?'
p649
tp650
Rp651
tp652
a(S'william a. stein'
p653
g2
(g6
S'"\x0b`\x7f\xb2\x86\xd9?'
p654
tp655
Rp656
tp657
a(S'georgia institute of technology college of computing'
p658
g2
(g6
S'\xbe\xc7\xa0\xba\xcf~\xd9?'
p659
tp660
Rp661
tp662
a(S'computational photography (artistic)'
p663
g2
(g6
S']\x82\xa9\xb0\xdf{\xd9?'
p664
tp665
Rp666
tp667
a(S'aceges'
p668
g2
(g6
S'7\x879\xc1eY\xd9?'
p669
tp670
Rp671
tp672
a(S'sheri markose'
p673
g2
(g6
S'\xca\xf6%\xd6\xa2E\xd9?'
p674
tp675
Rp676
tp677
a(S'j\xc3\xb6rg-r\xc3\xbcdiger sack'
p678
g2
(g6
S'e\x1e\x0ed\xa18\xd9?'
p679
tp680
Rp681
tp682
a(S"joseph o'rourke (professor)"
p683
g2
(g6
S'\xb1\xb7\x8dE(7\xd9?'
p684
tp685
Rp686
tp687
a(S'david gavaghan'
p688
g2
(g6
S'\xcd\x89P^\xd2-\xd9?'
p689
tp690
Rp691
tp692
a(S'e-science'
p693
g2
(g6
S'\xcc\x180\xc0\xb5-\xd9?'
p694
tp695
Rp696
tp697
a(S'ren\xc3\xa9 de borst'
p698
g2
(g6
S'c\xfe\x9a\xa9\x16)\xd9?'
p699
tp700
Rp701
tp702
a(S'a new kind of science'
p703
g2
(g6
S'&+\x93=\xb2\x14\xd9?'
p704
tp705
Rp706
tp707
a(S'computational musicology'
p708
g2
(g6
S'\x9f*k\x17\xa5\xea\xd8?'
p709
tp710
Rp711
tp712
a(S'sean ekins'
p713
g2
(g6
S' @\xb0\x04v\xe7\xd8?'
p714
tp715
Rp716
tp717
a(S'trey ideker'
p718
g2
(g6
S'\x89p\xcc\xe6s\xe5\xd8?'
p719
tp720
Rp721
tp722
a(S'computational science & discovery'
p723
g2
(g6
S'\xeca\x11\x00\xbf\xe1\xd8?'
p724
tp725
Rp726
tp727
a(S'international journal of computational geometry and applications'
p728
g2
(g6
S'\t\xdf/\xdb-\xdb\xd8?'
p729
tp730
Rp731
tp732
a(S'david eppstein'
p733
g2
(g6
S'\x19\x98\x93\xc9j\xc3\xd8?'
p734
tp735
Rp736
tp737
a(S'biological computation'
p738
g2
(g6
S'\xe0u\xc9sw\xc1\xd8?'
p739
tp740
Rp741
tp742
a(S'computational sociology'
p743
g2
(g6
S'\xce\x08=\xdd\x0b\xb3\xd8?'
p744
tp745
Rp746
tp747
a(S'astronomy and computing'
p748
g2
(g6
S'\x90\xd6\xd0j@\xb0\xd8?'
p749
tp750
Rp751
tp752
a(S'lior pachter'
p753
g2
(g6
S"9y@\xf2'\xa8\xd8?"
p754
tp755
Rp756
tp757
a(S'computational semantics'
p758
g2
(g6
S'r\xbf-%\xa4\x8d\xd8?'
p759
tp760
Rp761
tp762
a(S'peptide computing'
p763
g2
(g6
S'\x13T]\x97\x98\x82\xd8?'
p764
tp765
Rp766
tp767
a(S'arieh iserles'
p768
g2
(g6
S'\xacV!}\xf6}\xd8?'
p769
tp770
Rp771
tp772
a(S'icme cyberinfrastructure'
p773
g2
(g6
S'+\xb9\xc8E1w\xd8?'
p774
tp775
Rp776
tp777
a(S'supercomputer education research centre'
p778
g2
(g6
S'9\xe9\x1b\x8f\xd0q\xd8?'
p779
tp780
Rp781
tp782
a(S'david leinweber'
p783
g2
(g6
S'"\x9727cf\xd8?'
p784
tp785
Rp786
tp787
a(S'european phd program in computational logic'
p788
g2
(g6
S';|(K\xb6U\xd8?'
p789
tp790
Rp791
tp792
a(S'computational materials science'
p793
g2
(g6
S'\r\xday6:T\xd8?'
p794
tp795
Rp796
tp797
a(S'jill p. mesirov'
p798
g2
(g6
S'O\xf2t\xd2\xbdQ\xd8?'
p799
tp800
Rp801
tp802
a(S'godfried toussaint'
p803
g2
(g6
S'1\x859\x98\x89=\xd8?'
p804
tp805
Rp806
tp807
a(S'list of computer science journals'
p808
g2
(g6
S'\x87\xca\xc5\x0bu8\xd8?'
p809
tp810
Rp811
tp812
a(S'the journal of computational finance'
p813
g2
(g6
S'5\x18\xf2l\x16&\xd8?'
p814
tp815
Rp816
tp817
a(S'thomas zacharia'
p818
g2
(g6
S'>"\x8c\xd4d"\xd8?'
p819
tp820
Rp821
tp822
a(S'mark steedman'
p823
g2
(g6
S'\x06d\xfd%T \xd8?'
p824
tp825
Rp826
tp827
a(S'ryan williams (computer scientist)'
p828
g2
(g6
S'\xd1\xa1\xb1\x86\x1a\x17\xd8?'
p829
tp830
Rp831
tp832
a(S'department of computer science, university of oxford'
p833
g2
(g6
S'~L~\xb5\xdf\t\xd8?'
p834
tp835
Rp836
tp837
a(S'manolis papadrakakis'
p838
g2
(g6
S'\xbfH\x15\xa1l\xf8\xd7?'
p839
tp840
Rp841
tp842
a(S'robert f. murphy (computational biologist)'
p843
g2
(g6
S'\x07\xae\x9c\xd7\xf1\xd0\xd7?'
p844
tp845
Rp846
tp847
a(S'research network of computational and structural biotechnology'
p848
g2
(g6
S'\x95^\x9b\x13\xf0\xc8\xd7?'
p849
tp850
Rp851
tp852
a(S'roscoe giles'
p853
g2
(g6
S'\x12\xbf\x96\x86\xe2\xb9\xd7?'
p854
tp855
Rp856
tp857
a(S'timothy m. chan'
p858
g2
(g6
S'U\xa7\xdb\xbep\xb1\xd7?'
p859
tp860
Rp861
tp862
a(S'numerical methods in fluid mechanics'
p863
g2
(g6
S'\x0e\x1b\xb3\x88\xa7\xb0\xd7?'
p864
tp865
Rp866
tp867
a(S'international society for computational biology'
p868
g2
(g6
S'i\x8a\xa1!B\xb0\xd7?'
p869
tp870
Rp871
tp872
a(S'centro de investigaci\xc3\xb3n de m\xc3\xa9todos computacionales'
p873
g2
(g6
S'l\x0c<\xd8K\xa0\xd7?'
p874
tp875
Rp876
tp877
a(S'computational heuristic intelligence'
p878
g2
(g6
S'kX\x83HG\x9b\xd7?'
p879
tp880
Rp881
tp882
a(S'computational cybernetics'
p883
g2
(g6
S'\x97f\xcf`K\x8d\xd7?'
p884
tp885
Rp886
tp887
a(S'jean-daniel boissonnat'
p888
g2
(g6
S'\xd0\x8b\x13\xfcP\x81\xd7?'
p889
tp890
Rp891
tp892
a(S'thomas j.r. hughes'
p893
g2
(g6
S'h\x0fs\x7f\xc6h\xd7?'
p894
tp895
Rp896
tp897
a(S'natural computing'
p898
g2
(g6
S'U\xe5\xa5\xf8f]\xd7?'
p899
tp900
Rp901
tp902
a(S'international journal of computational methods'
p903
g2
(g6
S'\x8b\x87l|\xb8I\xd7?'
p904
tp905
Rp906
tp907
a(S'computational problem'
p908
g2
(g6
S'}\xcf\x9fFU@\xd7?'
p909
tp910
Rp911
tp912
a(S'david andreoff evans'
p913
g2
(g6
S'\xca\x04\xbc\x84\x93>\xd7?'
p914
tp915
Rp916
tp917
a(S'studies in natural language processing'
p918
g2
(g6
S'Q\xfb\x97Z\x9a7\xd7?'
p919
tp920
Rp921
tp922
a(S'rmetrics'
p923
g2
(g6
S'\x16\x0c\xf5\x16N$\xd7?'
p924
tp925
Rp926
tp927
a(S'shoshana wodak'
p928
g2
(g6
S'1/yyW"\xd7?'
p929
tp930
Rp931
tp932
a(S'anne trefethen'
p933
g2
(g6
S'2j\x17\x87;\x07\xd7?'
p934
tp935
Rp936
tp937
a(S'charles l. brooks iii'
p938
g2
(g6
S'\x972\x1c\x94\xe9\xef\xd6?'
p939
tp940
Rp941
tp942
a(S'discrete and computational geometry'
p943
g2
(g6
S'&:p\xa4\xd5\xed\xd6?'
p944
tp945
Rp946
tp947
a(S'pierluigi crescenzi'
p948
g2
(g6
S'\x970y\xf1\x1d\xec\xd6?'
p949
tp950
Rp951
tp952
a(S'levent g\xc3\xbcrel'
p953
g2
(g6
S'(3\xe1\tG\xd3\xd6?'
p954
tp955
Rp956
tp957
a(S'artificial society'
p958
g2
(g6
S'\xba\xd8U?\xb0\xcd\xd6?'
p959
tp960
Rp961
tp962
a(S'chi-wang shu'
p963
g2
(g6
S'0\x1d$\xb4^\xcc\xd6?'
p964
tp965
Rp966
tp967
a(S'terry sejnowski'
p968
g2
(g6
S'\x15\x8f\xa3\xcf\x03\xc4\xd6?'
p969
tp970
Rp971
tp972
a(S'computational criminology'
p973
g2
(g6
S'\x1d9\xf0\xad\xff\xc2\xd6?'
p974
tp975
Rp976
tp977
a(S'new mathematics and natural computation'
p978
g2
(g6
S'\x8c\xaf\xb8\xa4d\xbf\xd6?'
p979
tp980
Rp981
tp982
a(S'population informatics'
p983
g2
(g6
S'\x9b\xb3X\xaf\xa9\xa2\xd6?'
p984
tp985
Rp986
tp987
a(S'johanna moore'
p988
g2
(g6
S'2\xed\xd0\xd0f\x89\xd6?'
p989
tp990
Rp991
tp992
a(S'david sankoff'
p993
g2
(g6
S'\xa2\x01\xd5.g\x86\xd6?'
p994
tp995
Rp996
tp997
a(S'bioinformatics (journal)'
p998
g2
(g6
S'/=\x1a`\xa7u\xd6?'
p999
tp1000
Rp1001
tp1002
a(S'the ten computational canons'
p1003
g2
(g6
S'\xe9\xeb\xb3\xbb\x12m\xd6?'
p1004
tp1005
Rp1006
tp1007
a(S'uo computer and information science department'
p1008
g2
(g6
S'\x14\x05\xe2\x93\x86j\xd6?'
p1009
tp1010
Rp1011
tp1012
a(S'daniel a. reed (computer scientist)'
p1013
g2
(g6
S'\x9a\xa2)/SW\xd6?'
p1014
tp1015
Rp1016
tp1017
a(S'les hatton'
p1018
g2
(g6
S"\xb8'\xce&\x0eV\xd6?"
p1019
tp1020
Rp1021
tp1022
a(S'technical computing'
p1023
g2
(g6
S"Q\x04'\xdbeO\xd6?"
p1024
tp1025
Rp1026
tp1027
a(S'nogrid points'
p1028
g2
(g6
S'\xdf*\xf5R\xd2N\xd6?'
p1029
tp1030
Rp1031
tp1032
a(S'delano award for computational biosciences'
p1033
g2
(g6
S'\x8b\xe3\xe4\xf7\xc3F\xd6?'
p1034
tp1035
Rp1036
tp1037
a(S'computational geophysics'
p1038
g2
(g6
S'at\xc8\xc2\xb56\xd6?'
p1039
tp1040
Rp1041
tp1042
a(S'finite-difference time-domain method'
p1043
g2
(g6
S'rB\xed"\x9b6\xd6?'
p1044
tp1045
Rp1046
tp1047
a(S'lexing ying'
p1048
g2
(g6
S'\x80\xcaH(_\x1d\xd6?'
p1049
tp1050
Rp1051
tp1052
a(S'oniom'
p1053
g2
(g6
S'9.#8"\x1d\xd6?'
p1054
tp1055
Rp1056
tp1057
a(S'ieee computational intelligence society'
p1058
g2
(g6
S'\x11JB\xf9\x04\x17\xd6?'
p1059
tp1060
Rp1061
tp1062
a(S'robert moser'
p1063
g2
(g6
S'l\xf7\xa5\xc0\xad\xf6\xd5?'
p1064
tp1065
Rp1066
tp1067
a(S'virtual scientific community'
p1068
g2
(g6
S'\x11iA\xa8_\xf1\xd5?'
p1069
tp1070
Rp1071
tp1072
a(S'plos computational biology'
p1073
g2
(g6
S'j\x96\x1dk\x07\xeb\xd5?'
p1074
tp1075
Rp1076
tp1077
a(S'constantine pozrikidis'
p1078
g2
(g6
S'J\xe1`\xbb\x19\xea\xd5?'
p1079
tp1080
Rp1081
tp1082
a(S'bernstein network'
p1083
g2
(g6
S'l\x80\xc3w\xa9\xdf\xd5?'
p1084
tp1085
Rp1086
tp1087
a(S'metacomputing'
p1088
g2
(g6
S'-n\xa1\xec\x1f\xd8\xd5?'
p1089
tp1090
Rp1091
tp1092
a(S'kenneth judd'
p1093
g2
(g6
S'0\xe7\x9cz\x9d\xce\xd5?'
p1094
tp1095
Rp1096
tp1097
a(S'bachelor of computing'
p1098
g2
(g6
S'#\xc2\xea\xb6\x8e\xbd\xd5?'
p1099
tp1100
Rp1101
tp1102
a(S'j. tinsley oden'
p1103
g2
(g6
S'C\x9c\xc0O1\xb7\xd5?'
p1104
tp1105
Rp1106
tp1107
a(S'ciml community portal'
p1108
g2
(g6
S'\xc5,\xc5\x00\xa8\xb3\xd5?'
p1109
tp1110
Rp1111
tp1112
a(S'timeline of numerical analysis after 1945'
p1113
g2
(g6
S'\xea;2\xa9\x8e\xa7\xd5?'
p1114
tp1115
Rp1116
tp1117
a(S'journal of computational and graphical statistics'
p1118
g2
(g6
S'\x1d|3UR\xa6\xd5?'
p1119
tp1120
Rp1121
tp1122
a(S'centre for theoretical and computational chemistry'
p1123
g2
(g6
S'\x15\xa5\xe3E\x19\xa1\xd5?'
p1124
tp1125
Rp1126
tp1127
a(S'ariel d. procaccia'
p1128
g2
(g6
S"8i\x9b\x07'\x92\xd5?"
p1129
tp1130
Rp1131
tp1132
a(S"mark a. o'neill"
p1133
g2
(g6
S"\x06'}\xee\xe2\x8f\xd5?"
p1134
tp1135
Rp1136
tp1137
a(S'sociedade brasileira de matem\xc3\xa1tica aplicada e computacional'
p1138
g2
(g6
S'\xf2z1\xb7:\x8c\xd5?'
p1139
tp1140
Rp1141
tp1142
a(S'computational topology'
p1143
g2
(g6
S'4\x03\xb7\x95(\x8a\xd5?'
p1144
tp1145
Rp1146
tp1147
a(S'institute of mathematical problems of biology'
p1148
g2
(g6
S'\x04\x84K\x17\x9e\x89\xd5?'
p1149
tp1150
Rp1151
tp1152
a(S'hans uszkoreit'
p1153
g2
(g6
S'\xe1\xb5\xd6\xed\xdez\xd5?'
p1154
tp1155
Rp1156
tp1157
a(S'peter coveney'
p1158
g2
(g6
S'-\x18\xaf\xa3\xa3q\xd5?'
p1159
tp1160
Rp1161
tp1162
a(S'krell institute'
p1163
g2
(g6
S'5\x80\\1\xefp\xd5?'
p1164
tp1165
Rp1166
tp1167
a(S'university of edinburgh school of informatics'
p1168
g2
(g6
S'\x86\xe7\xc6@6p\xd5?'
p1169
tp1170
Rp1171
tp1172
a(S'computational social choice'
p1173
g2
(g6
S'*4\xc6)\x82f\xd5?'
p1174
tp1175
Rp1176
tp1177
a(S'david p. landau'
p1178
g2
(g6
S'\xcbW:\xd3\x14Y\xd5?'
p1179
tp1180
Rp1181
tp1182
a(S'department of computer science, university of illinois at urbana\xe2\x80\x93champaign'
p1183
g2
(g6
S'\xbe2\xc6\xbdpI\xd5?'
p1184
tp1185
Rp1186
tp1187
a(S'david g. hays'
p1188
g2
(g6
S'ANvT\xa6F\xd5?'
p1189
tp1190
Rp1191
tp1192
a(S'marius vassiliou'
p1193
g2
(g6
S'X\x05\xc51XC\xd5?'
p1194
tp1195
Rp1196
tp1197
a(S'school of computing (robert gordon university)'
p1198
g2
(g6
S'z\x96t9t=\xd5?'
p1199
tp1200
Rp1201
tp1202
a(S'the computer journal'
p1203
g2
(g6
S'\xab1T\\\x1f;\xd5?'
p1204
tp1205
Rp1206
tp1207
a(S'eugene salamin (mathematician)'
p1208
g2
(g6
S'\x04\xc3p\x9a\x0e/\xd5?'
p1209
tp1210
Rp1211
tp1212
a(S'diane litman'
p1213
g2
(g6
S'\x0ctP\xc08,\xd5?'
p1214
tp1215
Rp1216
tp1217
a(S'stanley osher'
p1218
g2
(g6
S'\xd7\x17\xba"\xb2*\xd5?'
p1219
tp1220
Rp1221
tp1222
a(S'complex and adaptive systems laboratory'
p1223
g2
(g6
S'\xc8\x06\xfd|\xc4"\xd5?'
p1224
tp1225
Rp1226
tp1227
a(S'list of open-source software for mathematics'
p1228
g2
(g6
S'\xb1\x89\x82\xabr\x06\xd5?'
p1229
tp1230
Rp1231
tp1232
a(S'mark guzdial'
p1233
g2
(g6
S'\x87v\x98NI\x06\xd5?'
p1234
tp1235
Rp1236
tp1237
a(S'journal of computational acoustics'
p1238
g2
(g6
S'\x02\xdb\x11\xa6\x83\x03\xd5?'
p1239
tp1240
Rp1241
tp1242
a(S'computing'
p1243
g2
(g6
S'\xbc\\7\xad\x87\xff\xd4?'
p1244
tp1245
Rp1246
tp1247
a(S'list of numerical computational geometry topics'
p1248
g2
(g6
S'\xff\xd4\xa8\xbc\xa9\xe6\xd4?'
p1249
tp1250
Rp1251
tp1252
a(S'integrated computational materials engineering'
p1253
g2
(g6
S'\xef\xbe\x9b\xcb\x9b\xd9\xd4?'
p1254
tp1255
Rp1256
tp1257
a(S'phillip colella'
p1258
g2
(g6
S'\xe0:D,\xfe\xd4\xd4?'
p1259
tp1260
Rp1261
tp1262
a(S'tetsuo asano'
p1263
g2
(g6
S'\x10\xc8\xde\x1c\xe1\xd1\xd4?'
p1264
tp1265
Rp1266
tp1267
a(S'swartz prize'
p1268
g2
(g6
S'\xcb\xccI2;\xca\xd4?'
p1269
tp1270
Rp1271
tp1272
a(S'igor jurisica'
p1273
g2
(g6
S'<eIH\xa9\xc2\xd4?'
p1274
tp1275
Rp1276
tp1277
a(S'weinan e'
p1278
g2
(g6
S'\x92\x8a\x9a\xb7\x04\xbc\xd4?'
p1279
tp1280
Rp1281
tp1282
a(S'emo welzl'
p1283
g2
(g6
S'm\x1f\x1aR\xfb\xb9\xd4?'
p1284
tp1285
Rp1286
tp1287
a(S'alistair sinclair'
p1288
g2
(g6
S'9\xb6&)E\xb2\xd4?'
p1289
tp1290
Rp1291
tp1292
a(S'gamess (uk)'
p1293
g2
(g6
S'1\xe7w\xb2\xa2\xb1\xd4?'
p1294
tp1295
Rp1296
tp1297
a(S'nikolai nikolaevich yanenko'
p1298
g2
(g6
S'\x16\xfd\xf5\x9d\xc0\xaf\xd4?'
p1299
tp1300
Rp1301
tp1302
a(S'ann s. almgren'
p1303
g2
(g6
S'f\x07O\xc5\xdc\xab\xd4?'
p1304
tp1305
Rp1306
tp1307
a(S'buchberger'
p1308
g2
(g6
S'k\xea\x9b\x05\x1c\xaa\xd4?'
p1309
tp1310
Rp1311
tp1312
a(S'oded goldreich'
p1313
g2
(g6
S'^\x89+k\x13\xa9\xd4?'
p1314
tp1315
Rp1316
tp1317
a(S'agentsheets'
p1318
g2
(g6
S'\xba\xf1\x0c\xcd\x9d\xa8\xd4?'
p1319
tp1320
Rp1321
tp1322
a(S'computational anatomy'
p1323
g2
(g6
S'\xb3\xfb\xed\xe2\xf1\xa6\xd4?'
p1324
tp1325
Rp1326
tp1327
a(S'larry stockmeyer'
p1328
g2
(g6
S'\xd32\xf0\xbf\xe9\xa6\xd4?'
p1329
tp1330
Rp1331
tp1332
a(S'heidelberg institute for theoretical studies'
p1333
g2
(g6
S'3\xb2g\xf2\x8d\xa4\xd4?'
p1334
tp1335
Rp1336
tp1337
a(S'peter dayan'
p1338
g2
(g6
S'o\x80\x89Gh\xa0\xd4?'
p1339
tp1340
Rp1341
tp1342
a(S'christophe bisciglia'
p1343
g2
(g6
S'\xdc\xbf\xa3\x9f\x99\x9e\xd4?'
p1344
tp1345
Rp1346
tp1347
a(S'arieh warshel'
p1348
g2
(g6
S'\xdc\x95\x1e\xca?\x9c\xd4?'
p1349
tp1350
Rp1351
tp1352
a(S'victorian life sciences computation initiative'
p1353
g2
(g6
S' ppBO\x9b\xd4?'
p1354
tp1355
Rp1356
tp1357
a(S'numerical linear algebra'
p1358
g2
(g6
S'\xf3\xc1\t@\xf0\x94\xd4?'
p1359
tp1360
Rp1361
tp1362
a(S'david vanderbilt'
p1363
g2
(g6
S')\x90k\xfb\xfc\x93\xd4?'
p1364
tp1365
Rp1366
tp1367
a(S"jun'ichi tsujii"
p1368
g2
(g6
S'\xa7CvAU\x92\xd4?'
p1369
tp1370
Rp1371
tp1372
a(S'dan klein'
p1373
g2
(g6
S'<\xf57L(\x92\xd4?'
p1374
tp1375
Rp1376
tp1377
a(S'aachen institute for advanced study in computational engineering science'
p1378
g2
(g6
S'\xc4\xab\xfc1K\x90\xd4?'
p1379
tp1380
Rp1381
tp1382
a(S'mcgill university school of computer science'
p1383
g2
(g6
S',\x9b\xb1\x94\x14\x88\xd4?'
p1384
tp1385
Rp1386
tp1387
a(S'unconventional computing'
p1388
g2
(g6
S':\x92E\x7f\xa6\x86\xd4?'
p1389
tp1390
Rp1391
tp1392
a(S'jonathan shewchuk'
p1393
g2
(g6
S'ps\xd9c\x12\x86\xd4?'
p1394
tp1395
Rp1396
tp1397
a(S'diane souvaine'
p1398
g2
(g6
S'\xcak2\xa3\xcd\x85\xd4?'
p1399
tp1400
Rp1401
tp1402
a(S'eugenio o\xc3\xb1ate iba\xc3\xb1ez de navarra'
p1403
g2
(g6
S'm4\x86=A|\xd4?'
p1404
tp1405
Rp1406
tp1407
a(S'gyanendra nath pande'
p1408
g2
(g6
S'4v\xcc\x0b\x9ed\xd4?'
p1409
tp1410
Rp1411
tp1412
a(S'haesun park'
p1413
g2
(g6
S'\xbf;\xd6\xc3G_\xd4?'
p1414
tp1415
Rp1416
tp1417
a(S'james demmel'
p1418
g2
(g6
S'\xe2\x07\\~\x0e_\xd4?'
p1419
tp1420
Rp1421
tp1422
a(S'chemical computing group'
p1423
g2
(g6
S'\xf6\xfdD\x85^^\xd4?'
p1424
tp1425
Rp1426
tp1427
a(S'computational biology and chemistry'
p1428
g2
(g6
S'U\x0f=E\xe1\\\xd4?'
p1429
tp1430
Rp1431
tp1432
a(S'suhas patankar'
p1433
g2
(g6
S'O\x94@z\xc5[\xd4?'
p1434
tp1435
Rp1436
tp1437
a(S'jussi karlgren'
p1438
g2
(g6
S'\xf1\xcaq\x8d\xacV\xd4?'
p1439
tp1440
Rp1441
tp1442
a(S'simon colton'
p1443
g2
(g6
S'\xea\xdfy\xa6\xc0R\xd4?'
p1444
tp1445
Rp1446
tp1447
a(S'russell impagliazzo'
p1448
g2
(g6
S'a\xf9\xad>\x88N\xd4?'
p1449
tp1450
Rp1451
tp1452
a(S'kimeme'
p1453
g2
(g6
S'\x8b\xd8d RK\xd4?'
p1454
tp1455
Rp1456
tp1457
a(S'curtis huttenhower'
p1458
g2
(g6
S'Ji\n\xd1^H\xd4?'
p1459
tp1460
Rp1461
tp1462
a(S'information and computer science'
p1463
g2
(g6
S'\xae\xb3\ta\xa2>\xd4?'
p1464
tp1465
Rp1466
tp1467
a(S'andrew clive simpson'
p1468
g2
(g6
S'$g[\xff\xda7\xd4?'
p1469
tp1470
Rp1471
tp1472
a(S'erik van nimwegen'
p1473
g2
(g6
S',\xa8\xb8E\xd53\xd4?'
p1474
tp1475
Rp1476
tp1477
a(S'brian cantwell smith'
p1478
g2
(g6
S'\xb3\xbaV\x94B.\xd4?'
p1479
tp1480
Rp1481
tp1482
a(S'herbert edelsbrunner'
p1483
g2
(g6
S'\xf1\xb9\x7fH\xd7%\xd4?'
p1484
tp1485
Rp1486
tp1487
a(S'computational archaeology'
p1488
g2
(g6
S'\x06\x87\x8e\xd3\xb1!\xd4?'
p1489
tp1490
Rp1491
tp1492
a(S'george karniadakis'
p1493
g2
(g6
S'\xa3\xe7t\xa4\xf1\x1e\xd4?'
p1494
tp1495
Rp1496
tp1497
a(S'timeline of modern scientific computing'
p1498
g2
(g6
S'\xa9\xea\x84M\xa3\x16\xd4?'
p1499
tp1500
Rp1501
tp1502
a(S'shi zhongci'
p1503
g2
(g6
S'\xb0\x15F\xc12\x13\xd4?'
p1504
tp1505
Rp1506
tp1507
a(S'keldysh institute of applied mathematics'
p1508
g2
(g6
S'zG~\x84\xa6\x0f\xd4?'
p1509
tp1510
Rp1511
tp1512
a.