(lp0
(S'courant institute of mathematical sciences'
p1
cnumpy.core.multiarray
scalar
p2
(cnumpy
dtype
p3
(S'f8'
p4
I0
I1
tp5
Rp6
(I3
S'<'
p7
NNNI-1
I-1
I0
tp8
bS'\x01\x00\x00\x00\x00\x00\xf0?'
p9
tp10
Rp11
tp12
a(S'list of nyu courant institute people'
p13
g2
(g6
S'\x03Uw\xed\x8c\xd1\xe3?'
p14
tp15
Rp16
tp17
a(S'andrew majda'
p18
g2
(g6
S'\x05\xee_\xa7\xac\xa0\xe1?'
p19
tp20
Rp21
tp22
a(S'russel e. caflisch'
p23
g2
(g6
S'\xf2MgA7\x8a\xe1?'
p24
tp25
Rp26
tp27
a(S'richard courant'
p28
g2
(g6
S'\x87U\xb6\x9d\x16\x8e\xe0?'
p29
tp30
Rp31
tp32
a(S'tamar schlick'
p33
g2
(g6
S'\x82<:\xb6t?\xe0?'
p34
tp35
Rp36
tp37
a(S'leslie greengard'
p38
g2
(g6
S'\x8fQeP\xbf\xf6\xde?'
p39
tp40
Rp41
tp42
a(S'courant'
p43
g2
(g6
S'\xea\xd3\x8eC\xde\xa0\xde?'
p44
tp45
Rp46
tp47
a(S'department of computer science (university of toronto)'
p48
g2
(g6
S'\x15\xdc\x86"\xb75\xde?'
p49
tp50
Rp51
tp52
a(S'david r. cheriton school of computer science'
p53
g2
(g6
S'\xa0\xcd\x10\xc0\xec\xeb\xdd?'
p54
tp55
Rp56
tp57
a(S'weinan e'
p58
g2
(g6
S'\x82Y\x9f\xec\xe4\xbe\xdd?'
p59
tp60
Rp61
tp62
a(S'boris aronov'
p63
g2
(g6
S'm\xfb\x0eL+\xb1\xdd?'
p64
tp65
Rp66
tp67
a(S'michael shelley (mathematician)'
p68
g2
(g6
S'\xbb8\xde\x0bq\xa9\xdd?'
p69
tp70
Rp71
tp72
a(S'list of new york university faculty'
p73
g2
(g6
S'E\xb7>QF\x1a\xdd?'
p74
tp75
Rp76
tp77
a(S'department of computer science, university of illinois at urbana\xe2\x80\x93champaign'
p78
g2
(g6
S'\x83\xb5\xfbL\x86\xbc\xdc?'
p79
tp80
Rp81
tp82
a(S'cathleen synge morawetz'
p83
g2
(g6
S'\xb2FNdr\x96\xdc?'
p84
tp85
Rp86
tp87
a(S'department of computer science, university of oxford'
p88
g2
(g6
S'\xbc,\x90W\x13[\xdc?'
p89
tp90
Rp91
tp92
a(S'university of colorado boulder computer science department'
p93
g2
(g6
S'\xf5\xc9o\x1cR\x1d\xdc?'
p94
tp95
Rp96
tp97
a(S'prasad v. tetali'
p98
g2
(g6
S'c\xd7\xe8\xf4G\x02\xdc?'
p99
tp100
Rp101
tp102
a(S'instituto de investigaciones en matem\xc3\xa1ticas aplicadas y sistemas'
p103
g2
(g6
S'\x90B8\xe8W\xfc\xdb?'
p104
tp105
Rp106
tp107
a(S'applied mathematics'
p108
g2
(g6
S's*\x00T\x9c\xc1\xdb?'
p109
tp110
Rp111
tp112
a(S'national consortium for specialized secondary schools of mathematics, science and technology'
p113
g2
(g6
S'\xca\xe7\xc2IR\xa2\xdb?'
p114
tp115
Rp116
tp117
a(S'hartford courant'
p118
g2
(g6
S'Z\xb5\x11\xa5\xfc:\xdb?'
p119
tp120
Rp121
tp122
a(S'demetri terzopoulos'
p123
g2
(g6
S'\xed\x99w\x96r\xfe\xda?'
p124
tp125
Rp126
tp127
a(S'institute of mathematics'
p128
g2
(g6
S'\x14\xbc\x9c\x8c\xcf\xfc\xda?'
p129
tp130
Rp131
tp132
a(S'louis nirenberg'
p133
g2
(g6
S'\xc6\xef(T\x9e\xa9\xda?'
p134
tp135
Rp136
tp137
a(S'university of maryland college of computer, mathematical, and natural sciences'
p138
g2
(g6
S'\x84\xdf\xe4Y\xc2\xa0\xda?'
p139
tp140
Rp141
tp142
a(S'computer science'
p143
g2
(g6
S'\x0f\xbf\xa7\xd6\xc6v\xda?'
p144
tp145
Rp146
tp147
a(S'margaret h. wright'
p148
g2
(g6
S'\xf8\x99`?Hf\xda?'
p149
tp150
Rp151
tp152
a(S'university of campinas institute of computing'
p153
g2
(g6
S'\x87\x16pq/L\xda?'
p154
tp155
Rp156
tp157
a(S'up diliman department of computer science'
p158
g2
(g6
S'\x8bnb\xde|,\xda?'
p159
tp160
Rp161
tp162
a(S'ioana dumitriu'
p163
g2
(g6
S'5\xc75W2\x0e\xda?'
p164
tp165
Rp166
tp167
a(S'seema nanda'
p168
g2
(g6
S'-\x024I\xe4\xe1\xd9?'
p169
tp170
Rp171
tp172
a(S'charles m. newman'
p173
g2
(g6
S'V\xf9\x11\nw\xd9\xd9?'
p174
tp175
Rp176
tp177
a(S'university of waterloo faculty of mathematics'
p178
g2
(g6
S'\x8c\xafB\x9b\x10\xb2\xd9?'
p179
tp180
Rp181
tp182
a(S'faculty of mathematical sciences, alzahra university'
p183
g2
(g6
S"'\xb3\xbf\xaf;\xb1\xd9?"
p184
tp185
Rp186
tp187
a(S'history of science and technology'
p188
g2
(g6
S'\xf3Yp\x01a\x91\xd9?'
p189
tp190
Rp191
tp192
a(S'paul courant'
p193
g2
(g6
S'\x1b\xca\xd4;\x19h\xd9?'
p194
tp195
Rp196
tp197
a(S'virginia tech college of science'
p198
g2
(g6
S'\x85\x0f\xbd\xfa\xe4`\xd9?'
p199
tp200
Rp201
tp202
a(S'the university of texas at brownsville college of science, mathematics, and technology'
p203
g2
(g6
S'\xb2\x9c\x9d\xbf\x89V\xd9?'
p204
tp205
Rp206
tp207
a(S'monroe d. donsker'
p208
g2
(g6
S'\xa0\xdf\x9b\xa9\x03I\xd9?'
p209
tp210
Rp211
tp212
a(S'wayne state university computer science department'
p213
g2
(g6
S'\xd4Pgl\xba<\xd9?'
p214
tp215
Rp216
tp217
a(S'georgia institute of technology college of computing'
p218
g2
(g6
S'\x04\x94\xc9cq6\xd9?'
p219
tp220
Rp221
tp222
a(S's. r. srinivasa varadhan'
p223
g2
(g6
S'\xba\rk\x18\x143\xd9?'
p224
tp225
Rp226
tp227
a(S'mannheim school of computer science and mathematics'
p228
g2
(g6
S'q\xab\xcfu\xad,\xd9?'
p229
tp230
Rp231
tp232
a(S'uo computer and information science department'
p233
g2
(g6
S'\xf9Z"\x89\xa1\x0e\xd9?'
p234
tp235
Rp236
tp237
a(S'michigan state university college of natural science'
p238
g2
(g6
S'Z^\xaa\xb1f\n\xd9?'
p239
tp240
Rp241
tp242
a(S'dalhousie university faculty of computer science'
p243
g2
(g6
S'\x00\xae\tpt\xf3\xd8?'
p244
tp245
Rp246
tp247
a(S'ingrid daubechies'
p248
g2
(g6
S'\xcb\xfa\t\xaf\xa5\xdd\xd8?'
p249
tp250
Rp251
tp252
a(S'j. p. freidberg'
p253
g2
(g6
S'r\xb6\\\x13I\xd2\xd8?'
p254
tp255
Rp256
tp257
a(S'theodore james courant'
p258
g2
(g6
S'C!\xed~\xb3\xc9\xd8?'
p259
tp260
Rp261
tp262
a(S'methoden der mathematischen physik'
p263
g2
(g6
S'\xf8\xc0\xe2\xdc%\xad\xd8?'
p264
tp265
Rp266
tp267
a(S'bachelor of computer science'
p268
g2
(g6
S'\xff\xeb\x03o\xaa\x8c\xd8?'
p269
tp270
Rp271
tp272
a(S'paul garabedian'
p273
g2
(g6
S'\xe5\xd9\xa8\x1e\x94\x89\xd8?'
p274
tp275
Rp276
tp277
a(S'foundation university institute of management & computer sciences'
p278
g2
(g6
S':\x0e\xe4gKV\xd8?'
p279
tp280
Rp281
tp282
a(S'ernest courant'
p283
g2
(g6
S'\n\xa4\x12\x98\x8aO\xd8?'
p284
tp285
Rp286
tp287
a(S'lin fanghua'
p288
g2
(g6
S'\xe5 \xef\x08\xc0/\xd8?'
p289
tp290
Rp291
tp292
a(S'northeastern university college of computer and information science'
p293
g2
(g6
S'\xf6%\xc2\x1c\xac$\xd8?'
p294
tp295
Rp296
tp297
a(S'charles s. peskin'
p298
g2
(g6
S'\xca\xe5\x98\xf0)\x1f\xd8?'
p299
tp300
Rp301
tp302
a(S'list of university of waterloo people'
p303
g2
(g6
S'\x8f\xc9\xddZ\xbe\x1b\xd8?'
p304
tp305
Rp306
tp307
a(S'carnegie mellon school of computer science'
p308
g2
(g6
S'\x0e,\xc1\x9e2\x1a\xd8?'
p309
tp310
Rp311
tp312
a(S'university of texas at austin college of natural sciences'
p313
g2
(g6
S'$\xa1\x87`=\x02\xd8?'
p314
tp315
Rp316
tp317
a(S'outline of science'
p318
g2
(g6
S'\r\x98z\x1a\xfa\xff\xd7?'
p319
tp320
Rp321
tp322
a(S'mathematics'
p323
g2
(g6
S'\\e\xb4f\xd4\xf0\xd7?'
p324
tp325
Rp326
tp327
a(S'university of maryland department of computer science'
p328
g2
(g6
S'\x82\xbfN\xf0\xba\xed\xd7?'
p329
tp330
Rp331
tp332
a(S'computers and mathematics with applications'
p333
g2
(g6
S'\xe58\xb7\xb9\xaf\xd2\xd7?'
p334
tp335
Rp336
tp337
a(S'vladimir rokhlin, jr.'
p338
g2
(g6
S'\xbc\xc4t\xd5j\xae\xd7?'
p339
tp340
Rp341
tp342
a(S'communications on pure and applied mathematics'
p343
g2
(g6
S'\xa6A\nD8\x9d\xd7?'
p344
tp345
Rp346
tp347
a(S'g\xc3\xa9rard ben arous'
p348
g2
(g6
S'o\x8d0Z\xf9\x8d\xd7?'
p349
tp350
Rp351
tp352
a(S'mcgill university school of computer science'
p353
g2
(g6
S'\xe9\x94_\n\xf8\x89\xd7?'
p354
tp355
Rp356
tp357
a(S'jennifer tour chayes'
p358
g2
(g6
S'\xea\xd3;!\x08}\xd7?'
p359
tp360
Rp361
tp362
a(S'new york university graduate school of arts and science'
p363
g2
(g6
S'\x00\xaa;1\x1az\xd7?'
p364
tp365
Rp366
tp367
a(S'temple university college of science and technology'
p368
g2
(g6
S'\x88Y\xfe\xb6\xe3r\xd7?'
p369
tp370
Rp371
tp372
a(S'abel prize'
p373
g2
(g6
S'\xbd\x16\x950\xb0k\xd7?'
p374
tp375
Rp376
tp377
a(S'j.k institute of applied physics and technology'
p378
g2
(g6
S'\x81>d!/Y\xd7?'
p379
tp380
Rp381
tp382
a(S'centro de investigaci\xc3\xb3n en matem\xc3\xa1ticas'
p383
g2
(g6
S'Y\xa0\xba;\xe5Q\xd7?'
p384
tp385
Rp386
tp387
a(S'information and computer science'
p388
g2
(g6
S'\xd8I5%\xfdE\xd7?'
p389
tp390
Rp391
tp392
a(S'kurt mehlhorn'
p393
g2
(g6
S'R\x83\x97\xbf\xdd9\xd7?'
p394
tp395
Rp396
tp397
a(S'lisa fauci'
p398
g2
(g6
S'\xfdP:\xac.*\xd7?'
p399
tp400
Rp401
tp402
a(S'computer university, pyay'
p403
g2
(g6
S'\xcf\x03\x97\xc3\xbf(\xd7?'
p404
tp405
Rp406
tp407
a(S'university of texas at san antonio college of sciences'
p408
g2
(g6
S'\xb4A\xcb\xecl\x00\xd7?'
p409
tp410
Rp411
tp412
a(S'diane souvaine'
p413
g2
(g6
S'\xaf\xe3\xdd\xc5\t\xfd\xd6?'
p414
tp415
Rp416
tp417
a(S'university of houston\xe2\x80\x93downtown college of sciences and technology'
p418
g2
(g6
S'C\x1c\xac\x9a_\xec\xd6?'
p419
tp420
Rp421
tp422
a(S'amir pnueli'
p423
g2
(g6
S'\x86\xcaF<\x08\xe5\xd6?'
p424
tp425
Rp426
tp427
a(S'toyota technological institute at chicago'
p428
g2
(g6
S'\x81\xdbA\xbc\xd7\xe1\xd6?'
p429
tp430
Rp431
tp432
a(S'james glimm'
p433
g2
(g6
S'u\x8d\x1c\xc8\xf3\xde\xd6?'
p434
tp435
Rp436
tp437
a(S'jonathan borwein'
p438
g2
(g6
S'\xb6mK\x1f\xf9\xd3\xd6?'
p439
tp440
Rp441
tp442
a(S'linda petzold'
p443
g2
(g6
S'\xe2\x98\x034\x1f\xd2\xd6?'
p444
tp445
Rp446
tp447
a(S'ateneo school of science and engineering'
p448
g2
(g6
S'y\x1e\xf1^\xda\xbe\xd6?'
p449
tp450
Rp451
tp452
a(S'haesun park'
p453
g2
(g6
S'>\x87\xd6\xc6\xb2\xbe\xd6?'
p454
tp455
Rp456
tp457
a(S'jack dongarra'
p458
g2
(g6
S'\x0b\xc1\xeb<\xfd\xa1\xd6?'
p459
tp460
Rp461
tp462
a(S'university of toronto department of mathematics'
p463
g2
(g6
S'\x8c#u\xce\xa7\x9f\xd6?'
p464
tp465
Rp466
tp467
a(S'science education'
p468
g2
(g6
S'I\xd7\x8c\xed\x8e\x9f\xd6?'
p469
tp470
Rp471
tp472
a(S'international journal of software and informatics'
p473
g2
(g6
S'\x9d\xa1a\x98\x06\x97\xd6?'
p474
tp475
Rp476
tp477
a(S'uc davis college of letters and science'
p478
g2
(g6
S'\xa0\x1fp\xefj\x95\xd6?'
p479
tp480
Rp481
tp482
a(S'silvio micali'
p483
g2
(g6
S'\xf3&=J\xf0\x94\xd6?'
p484
tp485
Rp486
tp487
a(S'tony f. chan'
p488
g2
(g6
S'\xe3\x1a\xa4\xc7f\x93\xd6?'
p489
tp490
Rp491
tp492
a(S'list of institute professors at the massachusetts institute of technology'
p493
g2
(g6
S'\xfb8\xf9\x8e\xd5\x8f\xd6?'
p494
tp495
Rp496
tp497
a(S'shafi goldwasser'
p498
g2
(g6
S'kN\xfd\xf2\xdf\x87\xd6?'
p499
tp500
Rp501
tp502
a(S'eric vanden-eijnden'
p503
g2
(g6
S'\x81c\xf0t\xdc\x86\xd6?'
p504
tp505
Rp506
tp507
a(S'university of science and technology of china'
p508
g2
(g6
S'P\xbc\xd1*\x96\x7f\xd6?'
p509
tp510
Rp511
tp512
a(S'rayongwittayakom school'
p513
g2
(g6
S'\xc0K\xdc8\xf4{\xd6?'
p514
tp515
Rp516
tp517
a(S'steven strogatz'
p518
g2
(g6
S'\x00\xab\x9f\x91\xfex\xd6?'
p519
tp520
Rp521
tp522
a(S'ken perlin'
p523
g2
(g6
S'\xb1\xd6\xf5\x8b\x1bo\xd6?'
p524
tp525
Rp526
tp527
a(S'madhavan mukund'
p528
g2
(g6
S'%\xfe\\|\x1b^\xd6?'
p529
tp530
Rp531
tp532
a(S'marsha berger'
p533
g2
(g6
S'\xe7:i\x01\xbcX\xd6?'
p534
tp535
Rp536
tp537
a(S'regional science high school union'
p538
g2
(g6
S'\xa4~x\xa1\xe6W\xd6?'
p539
tp540
Rp541
tp542
a(S'outline of mathematics'
p543
g2
(g6
S'Dc\xb7\xf3kR\xd6?'
p544
tp545
Rp546
tp547
a(S'north carolina school of science and mathematics'
p548
g2
(g6
S'q\x8f\x94\x19\x17O\xd6?'
p549
tp550
Rp551
tp552
a(S'micha sharir'
p553
g2
(g6
S'\r\xca4\xaf\tN\xd6?'
p554
tp555
Rp556
tp557
a(S'lynn steen'
p558
g2
(g6
S'\x8e\xfd\x915\xe0G\xd6?'
p559
tp560
Rp561
tp562
a(S'university of the chinese academy of sciences'
p563
g2
(g6
S'c<ov26\xd6?'
p564
tp565
Rp566
tp567
a(S'scottish informatics and computer science alliance'
p568
g2
(g6
S'UTs\x0f"1\xd6?'
p569
tp570
Rp571
tp572
a(S"united states president's council of advisors on science and technology"
p573
g2
(g6
S'B8\x1d\xe2\xa80\xd6?'
p574
tp575
Rp576
tp577
a(S'neil trudinger'
p578
g2
(g6
S'\xd1\x1a\xe7\x0e\x81.\xd6?'
p579
tp580
Rp581
tp582
a(S'james (mac) hyman'
p583
g2
(g6
S'\xb9C\xe2[\x11*\xd6?'
p584
tp585
Rp586
tp587
a(S'donald bren school of information and computer sciences'
p588
g2
(g6
S";\x18x\xd1w'\xd6?"
p589
tp590
Rp591
tp592
a(S'national chiao tung university'
p593
g2
(g6
S'8\xa5\xf0\x17\x9e"\xd6?'
p594
tp595
Rp596
tp597
a(S'university of computer studies, yangon'
p598
g2
(g6
S'k\xc2t\x19s\x1c\xd6?'
p599
tp600
Rp601
tp602
a(S'hse faculty of mathematics'
p603
g2
(g6
S';\xbelr\x80\x17\xd6?'
p604
tp605
Rp606
tp607
a(S'school of mathematics, university of manchester'
p608
g2
(g6
S'\xe4K\x97w\x91\r\xd6?'
p609
tp610
Rp611
tp612
a(S'homi bhabha centre for science education'
p613
g2
(g6
S'\xe8\x8c\xb0\x16 \x0c\xd6?'
p614
tp615
Rp616
tp617
a(S'list of stony brook university people'
p618
g2
(g6
S'\xac\x1e"\xc4^\x07\xd6?'
p619
tp620
Rp621
tp622
a(S'university of santo tomas institute of information and computing sciences'
p623
g2
(g6
S'_"(\x90\xc9\x05\xd6?'
p624
tp625
Rp626
tp627
a(S'endre szemer\xc3\xa9di'
p628
g2
(g6
S'\x9c>\xd7\x84P\x05\xd6?'
p629
tp630
Rp631
tp632
a(S'department of computer science, fmpi, comenius university'
p633
g2
(g6
S'| \xa1\x88\x12\xe7\xd5?'
p634
tp635
Rp636
tp637
a(S'ursula martin'
p638
g2
(g6
S'G\x969\x12\x95\xd5\xd5?'
p639
tp640
Rp641
tp642
a(S'national institute for science and mathematics education development'
p643
g2
(g6
S'\x9f\xc4\x8d \xd3\xd4\xd5?'
p644
tp645
Rp646
tp647
a(S'institute of cryptography, telecommunications and computer science'
p648
g2
(g6
S'\xc1\x8d\x8c\x19\xfb\xd0\xd5?'
p649
tp650
Rp651
tp652
a(S'computer science in sport'
p653
g2
(g6
S'\x1e\xba\xfc\x1d(\xd0\xd5?'
p654
tp655
Rp656
tp657
a(S'arts and sciences at washington university in st. louis'
p658
g2
(g6
S'\x86\x1ei\xce\xd6\xcb\xd5?'
p659
tp660
Rp661
tp662
a(S'horng-tzer yau'
p663
g2
(g6
S'#\xdd\x84\xe9_\xc9\xd5?'
p664
tp665
Rp666
tp667
a(S'fern hunt'
p668
g2
(g6
S'\x1b\xc8>\xb0\xfb\xc7\xd5?'
p669
tp670
Rp671
tp672
a(S'anu college of engineering and computer science'
p673
g2
(g6
S'\xa0E1\xfe7\xc6\xd5?'
p674
tp675
Rp676
tp677
a(S'faculty of science, university of zagreb'
p678
g2
(g6
S'\x1aD\x95j\xd7\xbf\xd5?'
p679
tp680
Rp681
tp682
a(S'mathematics education'
p683
g2
(g6
S'\xd6\x95\xc1\xedA\xbb\xd5?'
p684
tp685
Rp686
tp687
a(S'columbia school of engineering and applied science'
p688
g2
(g6
S'\xb0\xec\xb6\xbf\xa7\xaf\xd5?'
p689
tp690
Rp691
tp692
a(S'gunther uhlmann'
p693
g2
(g6
S'\xfd\xaf\xeaS\x1d\x96\xd5?'
p694
tp695
Rp696
tp697
a(S'mathematical sciences'
p698
g2
(g6
S'\xe0\xdblq\xda\x95\xd5?'
p699
tp700
Rp701
tp702
a(S'indian institute of science'
p703
g2
(g6
S'\\\xc9\xa75\xa0\x95\xd5?'
p704
tp705
Rp706
tp707
a(S'claudio silva (computer scientist)'
p708
g2
(g6
S'\xc2\xf4rX\xc8v\xd5?'
p709
tp710
Rp711
tp712
a(S'computer mathematics'
p713
g2
(g6
S'\xcd\\\xceY~l\xd5?'
p714
tp715
Rp716
tp717
a(S'institute of science, banaras hindu university'
p718
g2
(g6
S'\xa5\x07h\xa4\x1bj\xd5?'
p719
tp720
Rp721
tp722
a(S'uc berkeley college of letters and science'
p723
g2
(g6
S'\xe4R\x86{\x00i\xd5?'
p724
tp725
Rp726
tp727
a(S'larry s. davis'
p728
g2
(g6
S':\xe4\x90\xbc8]\xd5?'
p729
tp730
Rp731
tp732
a(S'university of waterloo faculty of science'
p733
g2
(g6
S',\x89\xae.-Q\xd5?'
p734
tp735
Rp736
tp737
a(S'gui-qiang chen'
p738
g2
(g6
S'\xcc\xad\xa7\xe7:O\xd5?'
p739
tp740
Rp741
tp742
a(S'chris tofts'
p743
g2
(g6
S'M\x86&\xce6J\xd5?'
p744
tp745
Rp746
tp747
a(S'joseph zachary'
p748
g2
(g6
S']2 \x96\xcaI\xd5?'
p749
tp750
Rp751
tp752
a(S'lexing ying'
p753
g2
(g6
S'Q\xcc\x98\xe8oI\xd5?'
p754
tp755
Rp756
tp757
a(S'ludvig faddeev'
p758
g2
(g6
S'\x0e\xc0\xc2\x87\x86A\xd5?'
p759
tp760
Rp761
tp762
a(S'science'
p763
g2
(g6
S'|\xe1N8\x14<\xd5?'
p764
tp765
Rp766
tp767
a(S'regional science high school for region 1'
p768
g2
(g6
S'[k\xc2\xc1\x00<\xd5?'
p769
tp770
Rp771
tp772
a(S'de la salle university college of computer studies'
p773
g2
(g6
S'\xedt\x99F\xfc:\xd5?'
p774
tp775
Rp776
tp777
a(S'indian institute of science education and research, bhopal'
p778
g2
(g6
S' \n\x98&\x1a9\xd5?'
p779
tp780
Rp781
tp782
a(S'bhubaneswar mishra'
p783
g2
(g6
S'(\xb7L\xfdo7\xd5?'
p784
tp785
Rp786
tp787
a(S'felix otto (mathematician)'
p788
g2
(g6
S'\xc3K\x94\xbcT,\xd5?'
p789
tp790
Rp791
tp792
a(S'willard l. miranker'
p793
g2
(g6
S'fp\x13\x047*\xd5?'
p794
tp795
Rp796
tp797
a(S'joint mathematical council'
p798
g2
(g6
S'\xf8A\x98}\xfd"\xd5?'
p799
tp800
Rp801
tp802
a(S'andrew m. stuart'
p803
g2
(g6
S'\xf4\xcb\xe1ly\x1f\xd5?'
p804
tp805
Rp806
tp807
a(S'david h. bailey'
p808
g2
(g6
S'~\x83|$3\x1c\xd5?'
p809
tp810
Rp811
tp812
a(S'vaidyeswaran rajaraman'
p813
g2
(g6
S'\x07\xb2\xba\xf8G\x13\xd5?'
p814
tp815
Rp816
tp817
a(S'peter sarnak'
p818
g2
(g6
S'\x8a\x07\x88\xc4\x80\x03\xd5?'
p819
tp820
Rp821
tp822
a(S'paul greengard'
p823
g2
(g6
S'\x00\x8a\x89<\x85\xf0\xd4?'
p824
tp825
Rp826
tp827
a(S'australian mathematical sciences institute'
p828
g2
(g6
S'%\xe1\xd3\rR\xf0\xd4?'
p829
tp830
Rp831
tp832
a(S'list of mathematics education journals'
p833
g2
(g6
S'\xfdD\x97rq\xe5\xd4?'
p834
tp835
Rp836
tp837
a(S'branches of science'
p838
g2
(g6
S'\xa8.\x18\xc6\x12\xe4\xd4?'
p839
tp840
Rp841
tp842
a(S'chungnam national university'
p843
g2
(g6
S'@\x8b\xe6o\xad\xdf\xd4?'
p844
tp845
Rp846
tp847
a(S'list of years in science'
p848
g2
(g6
S'\xad\x97u\xf4\xfb\xd8\xd4?'
p849
tp850
Rp851
tp852
a(S'kapil hari paranjape'
p853
g2
(g6
S'\xda\xfbL\xb8\xea\xd5\xd4?'
p854
tp855
Rp856
tp857
a(S'georgia institute of technology school of computer science'
p858
g2
(g6
S'\xc8*tXP\xd5\xd4?'
p859
tp860
Rp861
tp862
a(S'olof b. widlund'
p863
g2
(g6
S'$9\xa1\x90O\xce\xd4?'
p864
tp865
Rp866
tp867
a(S'n.i. lobachevsky institute of mathematics and mechanics'
p868
g2
(g6
S'\xff\xc7\xc6A\xae\xc2\xd4?'
p869
tp870
Rp871
tp872
a(S'school of sciences, unam'
p873
g2
(g6
S'N\xd4\xda(\x10\xc2\xd4?'
p874
tp875
Rp876
tp877
a(S'list of california institute of technology people'
p878
g2
(g6
S'\xa4U\xdf\x8c\r\xc2\xd4?'
p879
tp880
Rp881
tp882
a(S'nara institute of science and technology'
p883
g2
(g6
S'\xfb\xf7\xdc\x880\xb6\xd4?'
p884
tp885
Rp886
tp887
a(S'michael t. goodrich'
p888
g2
(g6
S'\xc3B2W\xb2\xb5\xd4?'
p889
tp890
Rp891
tp892
a(S'university of computer studies, mandalay'
p893
g2
(g6
S'KH\xd62j\xaf\xd4?'
p894
tp895
Rp896
tp897
a(S'e-science'
p898
g2
(g6
S'\xc6y_\x1f\xb3\xa9\xd4?'
p899
tp900
Rp901
tp902
a(S'university of the philippines los ba\xc3\xb1os college of arts and sciences'
p903
g2
(g6
S'\x84\x92/$\x16\xa4\xd4?'
p904
tp905
Rp906
tp907
a(S'andrea bertozzi'
p908
g2
(g6
S'C.=~\x14\x9f\xd4?'
p909
tp910
Rp911
tp912
a(S'ralph e. gomory'
p913
g2
(g6
S'\xc1\xf0\xd1]\xbf\x9d\xd4?'
p914
tp915
Rp916
tp917
a(S'suryanarayanasastry ramasesha'
p918
g2
(g6
S'\x9d\xbc{\xf1\x9c\x8e\xd4?'
p919
tp920
Rp921
tp922
a(S'applied science'
p923
g2
(g6
S'N\xd1\x8f#O\x87\xd4?'
p924
tp925
Rp926
tp927
a(S'institute of computer science'
p928
g2
(g6
S'\x9bt\xc5\xc0s\x85\xd4?'
p929
tp930
Rp931
tp932
a(S'eric s. roberts'
p933
g2
(g6
S'\xcc\xa5\xba\xab\xd3\x7f\xd4?'
p934
tp935
Rp936
tp937
a(S'vladimir dragovi\xc4\x87'
p938
g2
(g6
S'\xf1\xc5r\x00\x0c|\xd4?'
p939
tp940
Rp941
tp942
a(S'university of sydney school of mathematics and statistics'
p943
g2
(g6
S'+\x0f:\x7f\x0ex\xd4?'
p944
tp945
Rp946
tp947
a(S'lai-sang young'
p948
g2
(g6
S'\x18\xdc\xf8D\xf8t\xd4?'
p949
tp950
Rp951
tp952
a(S'joseph keller'
p953
g2
(g6
S'\xd4\xb5\xd2\xc5\x90p\xd4?'
p954
tp955
Rp956
tp957
a(S"dianne p. o'leary"
p958
g2
(g6
S'1\xd6\xaf\xb8\x16k\xd4?'
p959
tp960
Rp961
tp962
a(S'list of prizes, medals, and awards for women in science'
p963
g2
(g6
S'\xf8 }\xa6\xe6e\xd4?'
p964
tp965
Rp966
tp967
a(S'kirikkale science high school'
p968
g2
(g6
S'R\xdaL \xabd\xd4?'
p969
tp970
Rp971
tp972
a(S'mississippi school for mathematics and science'
p973
g2
(g6
S'f\xd0^\x1f\x80d\xd4?'
p974
tp975
Rp976
tp977
a(S'irene m. gamba'
p978
g2
(g6
S'&\xa4\x90\x1fmd\xd4?'
p979
tp980
Rp981
tp982
a(S'barbara keyfitz'
p983
g2
(g6
S'n\xfa\xdf\xaa\x06b\xd4?'
p984
tp985
Rp986
tp987
a(S'infosys prize'
p988
g2
(g6
S'\xd4\x9a\x0f{\xda[\xd4?'
p989
tp990
Rp991
tp992
a(S'he jifeng'
p993
g2
(g6
S'\xe9\x00\xec\xb5\x08Y\xd4?'
p994
tp995
Rp996
tp997
a(S'steve cunningham (computer scientist)'
p998
g2
(g6
S'7\xd2\xa5\xbc\xddU\xd4?'
p999
tp1000
Rp1001
tp1002
a(S'the bronx high school of science'
p1003
g2
(g6
S'd\xe6\xcc\x9f\xddU\xd4?'
p1004
tp1005
Rp1006
tp1007
a(S'mathematics and science academy utb'
p1008
g2
(g6
S'\xa2\xb4\xf9\xa6\xb2R\xd4?'
p1009
tp1010
Rp1011
tp1012
a(S'computer science teachers association'
p1013
g2
(g6
S'\x1e\xcb\xdc@KJ\xd4?'
p1014
tp1015
Rp1016
tp1017
a(S'david gavaghan'
p1018
g2
(g6
S'\xb1\xf3\x1fT\x96D\xd4?'
p1019
tp1020
Rp1021
tp1022
a(S"southwest virginia governor's school for science, mathematics, and technology"
p1023
g2
(g6
S'\x1e\xb0r\xa6\x84C\xd4?'
p1024
tp1025
Rp1026
tp1027
a(S'marang centre for mathematics and science education'
p1028
g2
(g6
S'\x81M\xaf\xba\xe9B\xd4?'
p1029
tp1030
Rp1031
tp1032
a(S'college of science al-zulfi'
p1033
g2
(g6
S'\xf2{\x9b\xb0\xb08\xd4?'
p1034
tp1035
Rp1036
tp1037
a(S'institute of computing technology, chinese academy of sciences'
p1038
g2
(g6
S'\xc6\xec\xcd\x87e7\xd4?'
p1039
tp1040
Rp1041
tp1042
a(S'george washington university school of engineering and applied science'
p1043
g2
(g6
S'\xb4\x01\x96\xd7\xf40\xd4?'
p1044
tp1045
Rp1046
tp1047
a(S'university of zielona g\xc3\xb3ra'
p1048
g2
(g6
S'\xa7\xe3nY\xd4+\xd4?'
p1049
tp1050
Rp1051
tp1052
a(S'peter lax'
p1053
g2
(g6
S'\xf7\xc2-\x9a\x90\x1f\xd4?'
p1054
tp1055
Rp1056
tp1057
a(S'ayyappanpillai ajayaghosh'
p1058
g2
(g6
S'\x8b\xb6\xee"2\x1f\xd4?'
p1059
tp1060
Rp1061
tp1062
a(S'science (disambiguation)'
p1063
g2
(g6
S'\xfe\x88\xf2?"\x1b\xd4?'
p1064
tp1065
Rp1066
tp1067
a(S'engineering and science education program'
p1068
g2
(g6
S'\xd65i\xf7\x0b\x19\xd4?'
p1069
tp1070
Rp1071
tp1072
a(S'david donoho'
p1073
g2
(g6
S'\x9e\x0ej\xf6c\x18\xd4?'
p1074
tp1075
Rp1076
tp1077
a(S'human-computer interaction institute'
p1078
g2
(g6
S'\xa0!\xde\xc74\x16\xd4?'
p1079
tp1080
Rp1081
tp1082
a(S'purdue university college of science'
p1083
g2
(g6
S':\n\xb9\xfd\xc9\x13\xd4?'
p1084
tp1085
Rp1086
tp1087
a(S'gregory kriegsmann'
p1088
g2
(g6
S'0\xb4\xb8a\x0e\x13\xd4?'
p1089
tp1090
Rp1091
tp1092
a(S'korea university college of science'
p1093
g2
(g6
S'\x92E7\x83\x16\x12\xd4?'
p1094
tp1095
Rp1096
tp1097
a(S'national board for higher mathematics'
p1098
g2
(g6
S'{72gg\x11\xd4?'
p1099
tp1100
Rp1101
tp1102
a(S'subhash khot'
p1103
g2
(g6
S'\x93\x18\x94\xdb\xcf\x10\xd4?'
p1104
tp1105
Rp1106
tp1107
a(S"south carolina governor's school for science and mathematics"
p1108
g2
(g6
S"'\xe4X\x89\x16\x0f\xd4?"
p1109
tp1110
Rp1111
tp1112
a(S'k. r. sreenivasan'
p1113
g2
(g6
S'$\x01\x97g\x07\r\xd4?'
p1114
tp1115
Rp1116
tp1117
a(S'thomas hou'
p1118
g2
(g6
S'0\xfc\xdb\x10\xbd\x08\xd4?'
p1119
tp1120
Rp1121
tp1122
a(S'university of the witwatersrand faculty of science'
p1123
g2
(g6
S'%\x98 \xe0\xff\x01\xd4?'
p1124
tp1125
Rp1126
tp1127
a(S'steklov institute of mathematics'
p1128
g2
(g6
S'\xd4\xf2\xceL\xf0\xfa\xd3?'
p1129
tp1130
Rp1131
tp1132
a(S'outline of computer science'
p1133
g2
(g6
S'\xf2\xb0\xc2I)\xf3\xd3?'
p1134
tp1135
Rp1136
tp1137
a(S'ijmuider courant'
p1138
g2
(g6
S'#&\xad\x12\xf1\xf2\xd3?'
p1139
tp1140
Rp1141
tp1142
a(S'bernard galler'
p1143
g2
(g6
S' +\xd7\x02-\xf2\xd3?'
p1144
tp1145
Rp1146
tp1147
a(S'science council'
p1148
g2
(g6
S'\xf7}KV\xb3\xf1\xd3?'
p1149
tp1150
Rp1151
tp1152
a(S'gerald b. whitham'
p1153
g2
(g6
S"\xe7\xf7\x1d\xde'\xf0\xd3?"
p1154
tp1155
Rp1156
tp1157
a(S'university of science and technology beijing'
p1158
g2
(g6
S'\xd4O"\xb4\x96\xee\xd3?'
p1159
tp1160
Rp1161
tp1162
a(S'institut gaspard monge'
p1163
g2
(g6
S' \x91\x918x\xee\xd3?'
p1164
tp1165
Rp1166
tp1167
a(S'college of physical and engineering science (university of guelph)'
p1168
g2
(g6
S'\x93R\xc2Ew\xec\xd3?'
p1169
tp1170
Rp1171
tp1172
a(S'university of ruhuna'
p1173
g2
(g6
S'\xf0\x9c\x11\x96\xe8\xe3\xd3?'
p1174
tp1175
Rp1176
tp1177
a(S'myles jackson'
p1178
g2
(g6
S'\xe4\xb6\x9fR\xaf\xe3\xd3?'
p1179
tp1180
Rp1181
tp1182
a(S'cal poly pomona college of science'
p1183
g2
(g6
S'Y\xc1`\xec\xdf\xe2\xd3?'
p1184
tp1185
Rp1186
tp1187
a(S'fsu young scholars program'
p1188
g2
(g6
S'Eh\xad`,\xdf\xd3?'
p1189
tp1190
Rp1191
tp1192
a(S'larry stockmeyer'
p1193
g2
(g6
S'\xca\x05\xba\xa0M\xce\xd3?'
p1194
tp1195
Rp1196
tp1197
a(S'uprm college of arts and sciences'
p1198
g2
(g6
S'O\xfa\xc0\xaa\xf5\xcd\xd3?'
p1199
tp1200
Rp1201
tp1202
a(S'eli upfal'
p1203
g2
(g6
S'"\xf4\x00Bd\xcb\xd3?'
p1204
tp1205
Rp1206
tp1207
a(S'richard demillo'
p1208
g2
(g6
S'\x93\x19\x83\xb5\x0e\xcb\xd3?'
p1209
tp1210
Rp1211
tp1212
a(S'list of princeton university people'
p1213
g2
(g6
S'\xebF\x97\xb3\x87\xca\xd3?'
p1214
tp1215
Rp1216
tp1217
a(S'james demmel'
p1218
g2
(g6
S'u\x80$z\xa3\xc5\xd3?'
p1219
tp1220
Rp1221
tp1222
a(S'science of team science'
p1223
g2
(g6
S'\xe8\xfe\xcf!\x1a\xc5\xd3?'
p1224
tp1225
Rp1226
tp1227
a(S'science school'
p1228
g2
(g6
S'|K\xf8\xa5H\xc4\xd3?'
p1229
tp1230
Rp1231
tp1232
a(S'james j. stoker'
p1233
g2
(g6
S'\xd4\x19\x05\xbcy\xbf\xd3?'
p1234
tp1235
Rp1236
tp1237
a(S'aaron bobick'
p1238
g2
(g6
S'\xa5&\xefT\xac\xbc\xd3?'
p1239
tp1240
Rp1241
tp1242
a(S'school of computing and information sciences, saint louis university, baguio'
p1243
g2
(g6
S'\xb6\x1e\xd3x\xd5\xbb\xd3?'
p1244
tp1245
Rp1246
tp1247
a(S'fields institute'
p1248
g2
(g6
S'\xa6\xe6\x0e\xadx\xba\xd3?'
p1249
tp1250
Rp1251
tp1252
a(S'mark guzdial'
p1253
g2
(g6
S'\xbe\x93\x9e#^\xb8\xd3?'
p1254
tp1255
Rp1256
tp1257
a(S'society for science and the public'
p1258
g2
(g6
S'\x17KeN\xd4\xb1\xd3?'
p1259
tp1260
Rp1261
tp1262
a(S'saint petersburg academic university'
p1263
g2
(g6
S'\xbe\x8c\x8b\xd2\xe2\xaf\xd3?'
p1264
tp1265
Rp1266
tp1267
a(S'michael aizenman'
p1268
g2
(g6
S'3\x06\x8d\xd6\x94\xa8\xd3?'
p1269
tp1270
Rp1271
tp1272
a(S'institute of science'
p1273
g2
(g6
S'\x884B\xbfs\xa8\xd3?'
p1274
tp1275
Rp1276
tp1277
a(S'sylvia serfaty'
p1278
g2
(g6
S'\xca\x11\xe9Zg\xa5\xd3?'
p1279
tp1280
Rp1281
tp1282
a(S'william g. mccallum'
p1283
g2
(g6
S'\xe6\x92\x93\x1c\x06\xa4\xd3?'
p1284
tp1285
Rp1286
tp1287
a(S'ruzena bajcsy'
p1288
g2
(g6
S'\xd9\xa1UQO\x9f\xd3?'
p1289
tp1290
Rp1291
tp1292
a(S'loudoun academy of science'
p1293
g2
(g6
S'K\x1f\x0e6\xb7\x9e\xd3?'
p1294
tp1295
Rp1296
tp1297
a(S'frederic bertley'
p1298
g2
(g6
S'[\x8e\x8b6\xce\x99\xd3?'
p1299
tp1300
Rp1301
tp1302
a(S'texas a&m college of science'
p1303
g2
(g6
S'\xb6tb \x93\x97\xd3?'
p1304
tp1305
Rp1306
tp1307
a(S'lucas bernard'
p1308
g2
(g6
S'V\x1d\xf4o\xa3\x93\xd3?'
p1309
tp1310
Rp1311
tp1312
a(S'edward d. lazowska'
p1313
g2
(g6
S't\xafl5#\x92\xd3?'
p1314
tp1315
Rp1316
tp1317
a(S'amsterdam science park'
p1318
g2
(g6
S'\xd7\x1a\xf5\x90Z\x8e\xd3?'
p1319
tp1320
Rp1321
tp1322
a(S'university of strathclyde faculty of science'
p1323
g2
(g6
S"\x17'a\x08d\x8d\xd3?"
p1324
tp1325
Rp1326
tp1327
a(S'drexel university college of computing and informatics'
p1328
g2
(g6
S'\xd9\xecLg\xf0\x8b\xd3?'
p1329
tp1330
Rp1331
tp1332
a(S'bj\xc3\xb6rn engquist'
p1333
g2
(g6
S'\xce\xc0\xb64T\x88\xd3?'
p1334
tp1335
Rp1336
tp1337
a(S'madhu sudan'
p1338
g2
(g6
S'\xe6\x9cr\x9e\xea\x86\xd3?'
p1339
tp1340
Rp1341
tp1342
a(S'indian institute of science education and research, pune'
p1343
g2
(g6
S'\xa8\xbf\xbb\xdd\xc4\x85\xd3?'
p1344
tp1345
Rp1346
tp1347
a(S'carlos castillo-chavez'
p1348
g2
(g6
S'>\x04\xb1\xdch\x85\xd3?'
p1349
tp1350
Rp1351
tp1352
a(S'hilcoe college'
p1353
g2
(g6
S'\xeark\xb6\xf5\x84\xd3?'
p1354
tp1355
Rp1356
tp1357
a(S'center for women in mathematics'
p1358
g2
(g6
S'}\x1e\x0f\xf9~\x82\xd3?'
p1359
tp1360
Rp1361
tp1362
a(S'the science academy society of turkey'
p1363
g2
(g6
S',u\x01\xc5\xe2\x7f\xd3?'
p1364
tp1365
Rp1366
tp1367
a(S'list of cornell university alumni'
p1368
g2
(g6
S'\xc4\xf5OI\xdf~\xd3?'
p1369
tp1370
Rp1371
tp1372
a(S'angelo state university college of sciences'
p1373
g2
(g6
S'\xff\x94\x17\xad\x91|\xd3?'
p1374
tp1375
Rp1376
tp1377
a(S'csusb college of natural sciences'
p1378
g2
(g6
S'\xb6Pd\xddf|\xd3?'
p1379
tp1380
Rp1381
tp1382
a(S'sundaram thangavelu'
p1383
g2
(g6
S'm\r\xbex\x7fy\xd3?'
p1384
tp1385
Rp1386
tp1387
a(S'institute of applied mathematics'
p1388
g2
(g6
S'\x96\xcf\x82\xcc\xd3x\xd3?'
p1389
tp1390
Rp1391
tp1392
a(S'mathematician'
p1393
g2
(g6
S'\x8a\x901\xa9\xb9x\xd3?'
p1394
tp1395
Rp1396
tp1397
a(S'australian mathematical society'
p1398
g2
(g6
S'\x14\xa0:_\nw\xd3?'
p1399
tp1400
Rp1401
tp1402
a(S'henson school of science and technology'
p1403
g2
(g6
S'\xbc\x7f\x91\xb2 o\xd3?'
p1404
tp1405
Rp1406
tp1407
a(S'texas a&m college of agriculture and life sciences'
p1408
g2
(g6
S'\xe4R\xd1\x1aFj\xd3?'
p1409
tp1410
Rp1411
tp1412
a(S'university of georgia computer science'
p1413
g2
(g6
S'U2\x81~\xfai\xd3?'
p1414
tp1415
Rp1416
tp1417
a(S'vincent blondel'
p1418
g2
(g6
S';\x076\x0f\x1eh\xd3?'
p1419
tp1420
Rp1421
tp1422
a(S'modern elementary mathematics'
p1423
g2
(g6
S'@\x1d\x16\xbd\xf8g\xd3?'
p1424
tp1425
Rp1426
tp1427
a(S'anatoly samoilenko'
p1428
g2
(g6
S'YP\x01\xad\xacg\xd3?'
p1429
tp1430
Rp1431
tp1432
a(S'ucsb college of engineering'
p1433
g2
(g6
S'V+\xac\x8ecg\xd3?'
p1434
tp1435
Rp1436
tp1437
a(S'the citadel school of science and mathematics'
p1438
g2
(g6
S'g;\xdf6\x11e\xd3?'
p1439
tp1440
Rp1441
tp1442
a(S'international academy of the history of science'
p1443
g2
(g6
S'\\S\xdfR\xf5d\xd3?'
p1444
tp1445
Rp1446
tp1447
a(S'james sethian'
p1448
g2
(g6
S'C!\xc2\xad\xf6c\xd3?'
p1449
tp1450
Rp1451
tp1452
a(S'michael fourman'
p1453
g2
(g6
S'\x93\x16:?n]\xd3?'
p1454
tp1455
Rp1456
tp1457
a(S'lahore university of management sciences'
p1458
g2
(g6
S'L\xac\xc9\x80\xb2V\xd3?'
p1459
tp1460
Rp1461
tp1462
a(S'sullamussalam science college'
p1463
g2
(g6
S'\x7f\xc9\xd8+\\V\xd3?'
p1464
tp1465
Rp1466
tp1467
a(S'the boston courant'
p1468
g2
(g6
S'\x1d\x1b\x0f\x14\x95U\xd3?'
p1469
tp1470
Rp1471
tp1472
a(S'ap computer science'
p1473
g2
(g6
S'\xd0\xa4|\x19\x8cR\xd3?'
p1474
tp1475
Rp1476
tp1477
a(S'institute of information theory and automation of the cas'
p1478
g2
(g6
S'\rB\xf0\xbbhR\xd3?'
p1479
tp1480
Rp1481
tp1482
a(S'digipen institute of technology'
p1483
g2
(g6
S'C\x8c\xbeb6N\xd3?'
p1484
tp1485
Rp1486
tp1487
a(S'computer laboratory, university of cambridge'
p1488
g2
(g6
S'\xe75\xf6\xe0\x15K\xd3?'
p1489
tp1490
Rp1491
tp1492
a(S'center for undergraduate research in mathematics'
p1493
g2
(g6
S'sGU\xa7\tI\xd3?'
p1494
tp1495
Rp1496
tp1497
a(S'ultracomputer'
p1498
g2
(g6
S'rzZ\xcd\xdd@\xd3?'
p1499
tp1500
Rp1501
tp1502
a(S'alexey stakhov'
p1503
g2
(g6
S'\xf8&\xfe*\xc5<\xd3?'
p1504
tp1505
Rp1506
tp1507
a(S'engineering mathematics'
p1508
g2
(g6
S'-B\xef\xd2\x1d;\xd3?'
p1509
tp1510
Rp1511
tp1512
a.