(lp0
(S'dalle molle institute for artificial intelligence research'
p1
cnumpy.core.multiarray
scalar
p2
(cnumpy
dtype
p3
(S'f8'
p4
I0
I1
tp5
Rp6
(I3
S'<'
p7
NNNI-1
I-1
I0
tp8
bS'\x01\x00\x00\x00\x00\x00\xf0?'
p9
tp10
Rp11
tp12
a(S'dalle molle institute for semantic and cognitive studies'
p13
g2
(g6
S'\xe30\xbe{r\xbd\xe8?'
p14
tp15
Rp16
tp17
a(S'angelo dalle molle'
p18
g2
(g6
S'%\x90i-\xd8\x1b\xe7?'
p19
tp20
Rp21
tp22
a(S'idiap research institute'
p23
g2
(g6
S'8Z\xc2@0\x8d\xe4?'
p24
tp25
Rp26
tp27
a(S'molle'
p28
g2
(g6
S'\xaf+\xf9l\xd5$\xde?'
p29
tp30
Rp31
tp32
a(S'bernard dalle'
p33
g2
(g6
S':h\xf8+\x1c\xb4\xda?'
p34
tp35
Rp36
tp37
a(S'combretum molle'
p38
g2
(g6
S'\x9d|G,\x0e\x01\xda?'
p39
tp40
Rp41
tp42
a(S'brody dalle'
p43
g2
(g6
S'\xa1\tF\xe0;\xec\xd9?'
p44
tp45
Rp46
tp47
a(S'j\xc3\xbcrgen schmidhuber'
p48
g2
(g6
S'B\xcf\x0c\xd6\xfeI\xd9?'
p49
tp50
Rp51
tp52
a(S'schinus molle'
p53
g2
(g6
S'\x1b\x16\x95\xcc\xa5%\xd9?'
p54
tp55
Rp56
tp57
a(S'molle'
p58
g2
(g6
S'|\x84\xf7\x8ew\t\xd9?'
p59
tp60
Rp61
tp62
a(S'south molle island'
p63
g2
(g6
S'\xea\x1d\xd1sk\xe1\xd7?'
p64
tp65
Rp66
tp67
a(S'triarchy of negroponte'
p68
g2
(g6
S')\xc3\x1a\x1a\xd4\x9d\xd7?'
p69
tp70
Rp71
tp72
a(S'molle islands national park'
p73
g2
(g6
S'\xca\x9cG\xe8\xaf\xd6\xd6?'
p74
tp75
Rp76
tp77
a(S'marcus hutter'
p78
g2
(g6
S'I\x9a6y\xf1\xbe\xd6?'
p79
tp80
Rp81
tp82
a(S'outline of artificial intelligence'
p83
g2
(g6
S"\x1b\x0e\t]'<\xd6?"
p84
tp85
Rp86
tp87
a(S'geranium molle'
p88
g2
(g6
S'\xbf\xbf>\xcc\xf3\x07\xd5?'
p89
tp90
Rp91
tp92
a(S'robert molle'
p93
g2
(g6
S'gQ\xcd\xc5-Y\xd4?'
p94
tp95
Rp96
tp97
a(S'artificial intelligence (disambiguation)'
p98
g2
(g6
S'\xb6\xe2\x13R\x90\xd4\xd3?'
p99
tp100
Rp101
tp102
a(S'association for the advancement of artificial intelligence'
p103
g2
(g6
S'j\xcf#\xd6\xa5\xc4\xd3?'
p104
tp105
Rp106
tp107
a(S'molle glacier'
p108
g2
(g6
S'D\xec\xbf\x86\xec\x93\xd3?'
p109
tp110
Rp111
tp112
a(S'mark dalle cort'
p113
g2
(g6
S'\xf3\x11L\x0e\xff[\xd3?'
p114
tp115
Rp116
tp117
a(S'dario floreano'
p118
g2
(g6
S'S>0\xad\x9d\xf4\xd2?'
p119
tp120
Rp121
tp122
a(S'spinnerette'
p123
g2
(g6
S'\x96\xa6N\xe8\x99\xc7\xd2?'
p124
tp125
Rp126
tp127
a(S'austrian research institute for artificial intelligence'
p128
g2
(g6
S'\x02\xb2\xafpi\x19\xd2?'
p129
tp130
Rp131
tp132
a(S'schinus'
p133
g2
(g6
S'7\x0ej\xd7\x91\x16\xd2?'
p134
tp135
Rp136
tp137
a(S'list of articles about things which are artificial'
p138
g2
(g6
S'\x83\xc9\xd0/g\x15\xd2?'
p139
tp140
Rp141
tp142
a(S'artificial intelligence'
p143
g2
(g6
S'\xd7O\x18\xe8\xb5\xfe\xd1?'
p144
tp145
Rp146
tp147
a(S'symbolic artificial intelligence'
p148
g2
(g6
S'\xc5\xca\x9f\xa0\xa9N\xd1?'
p149
tp150
Rp151
tp152
a(S'yrrol'
p153
g2
(g6
S'\x92h\x8b\xf7TN\xd1?'
p154
tp155
Rp156
tp157
a(S'toby walsh'
p158
g2
(g6
S'8E\xab\x1b\xb0K\xd1?'
p159
tp160
Rp161
tp162
a(S'peter dalle'
p163
g2
(g6
S'\x80\x05\x0f,\x99\x1a\xd1?'
p164
tp165
Rp166
tp167
a(S'thomas g. dietterich'
p168
g2
(g6
S'\x8b\xe0\xfb\x95\xa7\xa1\xd0?'
p169
tp170
Rp171
tp172
a(S'the distillers (album)'
p173
g2
(g6
S'\x03\xcb2#\xd2\x98\xd0?'
p174
tp175
Rp176
tp177
a(S'applications of artificial intelligence'
p178
g2
(g6
S'\xc0.\xdf>x\x89\xd0?'
p179
tp180
Rp181
tp182
a(S'pascal kaufmann'
p183
g2
(g6
S'?_Bw\xbe\x84\xd0?'
p184
tp185
Rp186
tp187
a(S'ipke wachsmuth'
p188
g2
(g6
S'\x068]/Wy\xd0?'
p189
tp190
Rp191
tp192
a(S'actinoptilum molle'
p193
g2
(g6
S'\xb5\xb2\x9b\xda\xa0.\xd0?'
p194
tp195
Rp196
tp197
a(S'massimo negrotti'
p198
g2
(g6
S'r\x816\xb45\x1d\xd0?'
p199
tp200
Rp201
tp202
a(S'maria dalle donne'
p203
g2
(g6
S'\x0c\xe2W\xfas\x0c\xd0?'
p204
tp205
Rp206
tp207
a(S'supsi'
p208
g2
(g6
S'\x9fW\x94n\xff\t\xd0?'
p209
tp210
Rp211
tp212
a(S'lugano'
p213
g2
(g6
S'm\x1c\xf3K\x80\xe0\xcf?'
p214
tp215
Rp216
tp217
a(S'daniel crevier'
p218
g2
(g6
S'\xc7e\x0b\xbaP\\\xcf?'
p219
tp220
Rp221
tp222
a(S'international joint conferences on artificial intelligence'
p223
g2
(g6
S'\xe4f\x08\xbe\x98J\xcf?'
p224
tp225
Rp226
tp227
a(S'ticino'
p228
g2
(g6
S'@\xe7O\x17\xa2 \xcf?'
p229
tp230
Rp231
tp232
a(S'acrocercops pnosmodiella'
p233
g2
(g6
S'*T\x17?8\x1f\xcf?'
p234
tp235
Rp236
tp237
a(S'the distillers'
p238
g2
(g6
S"AA'\tw\xda\xce?"
p239
tp240
Rp241
tp242
a(S'b\xc3\xa9atrice dalle'
p243
g2
(g6
S'\xb3^\xcf\xf9\n\x92\xce?'
p244
tp245
Rp246
tp247
a(S'lugano (disambiguation)'
p248
g2
(g6
S'`\x9e\x07B\xdd\x87\xce?'
p249
tp250
Rp251
tp252
a(S'university of lugano'
p253
g2
(g6
S'R[\xab\xefay\xce?'
p254
tp255
Rp256
tp257
a(S'nicholas iii dalle carceri'
p258
g2
(g6
S'\xda\xc9@y"Y\xce?'
p259
tp260
Rp261
tp262
a(S'ethics of artificial intelligence'
p263
g2
(g6
S'N\x1ech\xde\x07\xce?'
p264
tp265
Rp266
tp267
a(S'rhododendron molle'
p268
g2
(g6
S'&\x8ba\xf3t\x07\xce?'
p269
tp270
Rp271
tp272
a(S'giovanni dalle carceri'
p273
g2
(g6
S"%\x1c\x92'p\xf5\xcd?"
p274
tp275
Rp276
tp277
a(S'centibots'
p278
g2
(g6
S'\xf4~\xc4$\xf0\x85\xcd?'
p279
tp280
Rp281
tp282
a(S'artificial (disambiguation)'
p283
g2
(g6
S'/\xb2\xb1\xc3\nv\xcd?'
p284
tp285
Rp286
tp287
a(S'friendly artificial intelligence'
p288
g2
(g6
S'\x10\tGa\xe5i\xcd?'
p289
tp290
Rp291
tp292
a(S'strong ai'
p293
g2
(g6
S'\xae8*W\xb1f\xcd?'
p294
tp295
Rp296
tp297
a(S'eric horvitz'
p298
g2
(g6
S'\x04\x8d\xa1\x06\xf9F\xcd?'
p299
tp300
Rp301
tp302
a(S'soragno'
p303
g2
(g6
S"~\x9e\x0f'\x80B\xcd?"
p304
tp305
Rp306
tp307
a(S'davesco'
p308
g2
(g6
S"~\x9e\x0f'\x80B\xcd?"
p309
tp310
Rp311
tp312
a(S'lachnocladium'
p313
g2
(g6
S'q\x9c\xef\xf7\x16"\xcd?'
p314
tp315
Rp316
tp317
a(S'ticino (disambiguation)'
p318
g2
(g6
S'.v_\xda!\x1e\xcd?'
p319
tp320
Rp321
tp322
a(S'synthetic intelligence'
p323
g2
(g6
S'\xef\xe6\xa0\xd7:\xd4\xcc?'
p324
tp325
Rp326
tp327
a(S'dysoxylum mollissimum'
p328
g2
(g6
S'Oy\xbc8\xdc\xa8\xcc?'
p329
tp330
Rp331
tp332
a(S'european coordinating committee for artificial intelligence'
p333
g2
(g6
S'*\xe2al\xa3\xa0\xcc?'
p334
tp335
Rp336
tp337
a(S'francesca rossi'
p338
g2
(g6
S'e1*e6\x94\xcc?'
p339
tp340
Rp341
tp342
a(S'partnership on ai'
p343
g2
(g6
S'p\xd7!\x88\x8e}\xcc?'
p344
tp345
Rp346
tp347
a(S'didemnidae'
p348
g2
(g6
S'\x96\x1ei\xfd\xc2k\xcc?'
p349
tp350
Rp351
tp352
a(S'domain (film)'
p353
g2
(g6
S'\x17\x00s\xa8\re\xcc?'
p354
tp355
Rp356
tp357
a(S'international journal of pattern recognition and artificial intelligence'
p358
g2
(g6
S"J\xc1'Z\x15`\xcc?"
p359
tp360
Rp361
tp362
a(S'lighthill report'
p363
g2
(g6
S'\xccC\x0f\x89\xf5V\xcc?'
p364
tp365
Rp366
tp367
a(S'roboticist'
p368
g2
(g6
S'A\xda\xb0\xd2\xbbV\xcc?'
p369
tp370
Rp371
tp372
a(S'artificial general intelligence research institute'
p373
g2
(g6
S"\xd4r'T\xe97\xcc?"
p374
tp375
Rp376
tp377
a(S'artificial intelligence: a modern approach'
p378
g2
(g6
S'\x8b\x93\x0f\xb5\xfe&\xcc?'
p379
tp380
Rp381
tp382
a(S'leslie p. kaelbling'
p383
g2
(g6
S'\xa6\x96;)\x0f\x18\xcc?'
p384
tp385
Rp386
tp387
a(S'ben goertzel'
p388
g2
(g6
S'\x88\xd6Rz*\x15\xcc?'
p389
tp390
Rp391
tp392
a(S'society for the study of artificial intelligence and the simulation of behaviour'
p393
g2
(g6
S'\xa1L\x985m\x04\xcc?'
p394
tp395
Rp396
tp397
a(S'walter daelemans'
p398
g2
(g6
S'\xb3\xa3>}z\xf8\xcb?'
p399
tp400
Rp401
tp402
a(S'pentagonlight'
p403
g2
(g6
S'{^C/W\xf6\xcb?'
p404
tp405
Rp406
tp407
a(S'rodney brooks'
p408
g2
(g6
S'\xb9\xefh\xb0(\xf3\xcb?'
p409
tp410
Rp411
tp412
a(S'institute of robotics and intelligent systems'
p413
g2
(g6
S"\xd6#\xa9'\x13\xee\xcb?"
p414
tp415
Rp416
tp417
a(S'our final invention'
p418
g2
(g6
S'@\xd6\x8e\x17\xe0\xd5\xcb?'
p419
tp420
Rp421
tp422
a(S'agnuzzo'
p423
g2
(g6
S'W9\x04B\xfd\xaf\xcb?'
p424
tp425
Rp426
tp427
a(S'cassarate'
p428
g2
(g6
S'\x8av\r\x0b\x07\xa6\xcb?'
p429
tp430
Rp431
tp432
a(S'florida institute for human and machine cognition'
p433
g2
(g6
S':>l\xe8\xe1\x8c\xcb?'
p434
tp435
Rp436
tp437
a(S'james j. kuffner jr.'
p438
g2
(g6
S'\x13\x16D\x03Ix\xcb?'
p439
tp440
Rp441
tp442
a(S'starmind international'
p443
g2
(g6
S'g\xd3\xc4Q\x83T\xcb?'
p444
tp445
Rp446
tp447
a(S'michael casanova'
p448
g2
(g6
S'L\x83R\xadSD\xcb?'
p449
tp450
Rp451
tp452
a(S'russell greiner'
p453
g2
(g6
S'\x90\\\xf6eB6\xcb?'
p454
tp455
Rp456
tp457
a(S'dieter fox'
p458
g2
(g6
S';<\x8a\xf8\x87)\xcb?'
p459
tp460
Rp461
tp462
a(S'sottoceneri'
p463
g2
(g6
S'\xf1\xac\xbd\t\xb9\x11\xcb?'
p464
tp465
Rp466
tp467
a(S'evolutionary robotics'
p468
g2
(g6
S'\xc1\xca\xa3\xce\xc9\x04\xcb?'
p469
tp470
Rp471
tp472
a(S'list of museums in ticino'
p473
g2
(g6
S'\xc0=B\xa3)\xe5\xca?'
p474
tp475
Rp476
tp477
a(S'michael dalle stelle'
p478
g2
(g6
S'\xab\x94\xfe\x01G\xd9\xca?'
p479
tp480
Rp481
tp482
a(S'artificial psychology'
p483
g2
(g6
S'\x80\xe5\xe5\xc4\x11\xbd\xca?'
p484
tp485
Rp486
tp487
a(S'allen institute for artificial intelligence'
p488
g2
(g6
S'\ta\x9b\x80\xda\x9f\xca?'
p489
tp490
Rp491
tp492
a(S'roman catholic diocese of lugano'
p493
g2
(g6
S'\xde\xe6\x92\x88\x8b\x9a\xca?'
p494
tp495
Rp496
tp497
a(S'teresina bontempi'
p498
g2
(g6
S't\xad*\xd9M\x93\xca?'
p499
tp500
Rp501
tp502
a(S'peter norvig'
p503
g2
(g6
S'\xf6;2l \x8f\xca?'
p504
tp505
Rp506
tp507
a(S'"ibrahim kodra" foundation'
p508
g2
(g6
S"\xdb'\x878\x0f\x86\xca?"
p509
tp510
Rp511
tp512
a(S'castagnola-cassarate'
p513
g2
(g6
S'\x97,\x12\xffLh\xca?'
p514
tp515
Rp516
tp517
a(S'robotics institute'
p518
g2
(g6
S'k\x08I_\xee-\xca?'
p519
tp520
Rp521
tp522
a(S'university of edinburgh school of informatics'
p523
g2
(g6
S'z\\HT\x8a&\xca?'
p524
tp525
Rp526
tp527
a(S'robert trappl'
p528
g2
(g6
S'\x1e\x9eGF\xc1\x1c\xca?'
p529
tp530
Rp531
tp532
a(S'artificial chemistry'
p533
g2
(g6
S'\x03\xab\xa0;|\x0b\xca?'
p534
tp535
Rp536
tp537
a(S'smartaction'
p538
g2
(g6
S'}\xc8\x8f~\x11\xe9\xc9?'
p539
tp540
Rp541
tp542
a(S'bio-inspired computing'
p543
g2
(g6
S'\xe9|\xd2\x1c\xab\xd2\xc9?'
p544
tp545
Rp546
tp547
a(S'blue force gear'
p548
g2
(g6
S'`\xbb,\xe7\x82\xd1\xc9?'
p549
tp550
Rp551
tp552
a(S'marco dorigo'
p553
g2
(g6
S'>G\xb7\xffC\xcb\xc9?'
p554
tp555
Rp556
tp557
a(S'science and technology in switzerland'
p558
g2
(g6
S'2a\x15[%\xa0\xc9?'
p559
tp560
Rp561
tp562
a(S'paolo petta'
p563
g2
(g6
S'\xe6\x91\x88L\xc5\x98\xc9?'
p564
tp565
Rp566
tp567
a(S'john m. hollerbach'
p568
g2
(g6
S'\xd1\xfc)\x05\x04\x87\xc9?'
p569
tp570
Rp571
tp572
a(S'sing sing death house'
p573
g2
(g6
S'\xc2\x0f@\xee\x8cs\xc9?'
p574
tp575
Rp576
tp577
a(S'mulli'
p578
g2
(g6
S'e\x19\xf5g\xb5b\xc9?'
p579
tp580
Rp581
tp582
a(S'artificial general intelligence'
p583
g2
(g6
S'\x80r\xd0\x8d\xb3b\xc9?'
p584
tp585
Rp586
tp587
a(S'existential risk from artificial general intelligence'
p588
g2
(g6
S'\xa9\xb1\xd5\xa0\xab_\xc9?'
p589
tp590
Rp591
tp592
a(S'cureggia'
p593
g2
(g6
S'\xc0r\xac\xd08U\xc9?'
p594
tp595
Rp596
tp597
a(S'pierre dalle nogare'
p598
g2
(g6
S'\xffP\x86\x12\xc8G\xc9?'
p599
tp600
Rp601
tp602
a(S'eliezer yudkowsky'
p603
g2
(g6
S'z\xc8UuJ<\xc9?'
p604
tp605
Rp606
tp607
a(S'sven koenig (computer scientist)'
p608
g2
(g6
S'\x8a\xb2t\xc8\xb27\xc9?'
p609
tp610
Rp611
tp612
a(S'as viganello basket'
p613
g2
(g6
S'\xa51\x967F2\xc9?'
p614
tp615
Rp616
tp617
a(S'outline of robotics'
p618
g2
(g6
S'\x7f5\xdb\xaf\xfd0\xc9?'
p619
tp620
Rp621
tp622
a(S'artificial imagination'
p623
g2
(g6
S'\x85{\xef\x97\xce#\xc9?'
p624
tp625
Rp626
tp627
a(S'ai & society'
p628
g2
(g6
S'\x9e0>\x8c3\x1d\xc9?'
p629
tp630
Rp631
tp632
a(S'list of european union robotics projects'
p633
g2
(g6
S'4d\xcbY,\x11\xc9?'
p634
tp635
Rp636
tp637
a(S'paolo vollmeier'
p638
g2
(g6
S'\xbd\xcb\xc8\x1cV\x0c\xc9?'
p639
tp640
Rp641
tp642
a(S'history of artificial intelligence'
p643
g2
(g6
S'\x12\xeba.\xdf\x05\xc9?'
p644
tp645
Rp646
tp647
a(S'lugano district'
p648
g2
(g6
S'm\x0e\xb7\x16\xd6\xf4\xc8?'
p649
tp650
Rp651
tp652
a(S'aaron bobick'
p653
g2
(g6
S'"V\x8a\xc8@\xea\xc8?'
p654
tp655
Rp656
tp657
a(S'c. raymond perrault'
p658
g2
(g6
S'\xe4\x81\x83\xba\xc2\xe4\xc8?'
p659
tp660
Rp661
tp662
a(S'alan mackworth'
p663
g2
(g6
S'\x97M\xe3L3\xe2\xc8?'
p664
tp665
Rp666
tp667
a(S'rolf pfeifer'
p668
g2
(g6
S"\x82\xdf'\xed\xe5\xd1\xc8?"
p669
tp670
Rp671
tp672
a(S'austin tate'
p673
g2
(g6
S'\x0e\xe6\x8b\x18\x17\xc9\xc8?'
p674
tp675
Rp676
tp677
a(S'glossary of artificial intelligence'
p678
g2
(g6
S'\xa0\xa3\x07\xaf\x1b\xa9\xc8?'
p679
tp680
Rp681
tp682
a(S'giuliano bignasca'
p683
g2
(g6
S'\x8cR8\x9e\xf9\x9d\xc8?'
p684
tp685
Rp686
tp687
a(S'utku k\xc3\xb6se'
p688
g2
(g6
S'\x9d\xe1\xc0\x95\x96\x94\xc8?'
p689
tp690
Rp691
tp692
a(S'corriere del ticino'
p693
g2
(g6
S'w\xd6\xd0\xd6\r\x8d\xc8?'
p694
tp695
Rp696
tp697
a(S'journal of artificial intelligence research'
p698
g2
(g6
S'\xc7\xb1\x16;\xffe\xc8?'
p699
tp700
Rp701
tp702
a(S'francesco mondada'
p703
g2
(g6
S'\xf8\xb2Z\x04]`\xc8?'
p704
tp705
Rp706
tp707
a(S'lugano\xe2\x80\x93tesserete railway'
p708
g2
(g6
S'\xe3\x82&C\x92S\xc8?'
p709
tp710
Rp711
tp712
a(S'open letter on artificial intelligence'
p713
g2
(g6
S'\xdc\xd2\xean<S\xc8?'
p714
tp715
Rp716
tp717
a(S'developmental robotics'
p718
g2
(g6
S'\x81\xe4W\x1c\xd2D\xc8?'
p719
tp720
Rp721
tp722
a(S'index of robotics articles'
p723
g2
(g6
S'\xfb\xa7\x01t@<\xc8?'
p724
tp725
Rp726
tp727
a(S'pazzallo'
p728
g2
(g6
S'\x00\x07\xfaP\xf03\xc8?'
p729
tp730
Rp731
tp732
a(S'opennn'
p733
g2
(g6
S'\x07\xf9-l{0\xc8?'
p734
tp735
Rp736
tp737
a(S'swarm robotics'
p738
g2
(g6
S'\x00i\x0e\x02\xf0-\xc8?'
p739
tp740
Rp741
tp742
a(S'ruzena bajcsy'
p743
g2
(g6
S'\n\x9e\xe3\x1e\xbd$\xc8?'
p744
tp745
Rp746
tp747
a(S'david a. mcallester'
p748
g2
(g6
S'\\;+\xf4` \xc8?'
p749
tp750
Rp751
tp752
a(S'castagnola'
p753
g2
(g6
S'\xfa\x08\xa8B\xbb\x1c\xc8?'
p754
tp755
Rp756
tp757
a(S'stefano nolfi'
p758
g2
(g6
S'\xd6"\x13Xy\x1a\xc8?'
p759
tp760
Rp761
tp762
a(S'artificial life'
p763
g2
(g6
S'\xfc\xddl\xb6?\x15\xc8?'
p764
tp765
Rp766
tp767
a(S'raj reddy'
p768
g2
(g6
S'\xae\x02\xd836\x06\xc8?'
p769
tp770
Rp771
tp772
a(S'robot learning'
p773
g2
(g6
S'sF\xc1\x9d\xef\x00\xc8?'
p774
tp775
Rp776
tp777
a(S'peter nordin'
p778
g2
(g6
S'[0\x8a\xa1\x98\xf7\xc7?'
p779
tp780
Rp781
tp782
a(S'list of artificial intelligence projects'
p783
g2
(g6
S'\x85W\xe8\xdb\xf2\xe8\xc7?'
p784
tp785
Rp786
tp787
a(S'daniel g. bobrow'
p788
g2
(g6
S'\xbf\x1c\xc9\xbf\xe9\xe6\xc7?'
p789
tp790
Rp791
tp792
a(S'international joint conference on artificial intelligence'
p793
g2
(g6
S'\xea8\xde\xb7\xe8\xd8\xc7?'
p794
tp795
Rp796
tp797
a(S'pambio'
p798
g2
(g6
S'L\x0c`*\xa8\xd4\xc7?'
p799
tp800
Rp801
tp802
a(S'noranco'
p803
g2
(g6
S'L\x0c`*\xa8\xd4\xc7?'
p804
tp805
Rp806
tp807
a(S'history of the hc lugano'
p808
g2
(g6
S'\xf2\xf5$\x10V\xce\xc7?'
p809
tp810
Rp811
tp812
a(S'illusive tracks'
p813
g2
(g6
S'\x1c{\xe2\xa6\xca\xcc\xc7?'
p814
tp815
Rp816
tp817
a(S'phil husbands'
p818
g2
(g6
S'\xc0:\x85\xb1A\xca\xc7?'
p819
tp820
Rp821
tp822
a(S'hc lugano'
p823
g2
(g6
S'\x83Q\xb8*T\xc6\xc7?'
p824
tp825
Rp826
tp827
a(S'cassarate (river)'
p828
g2
(g6
S'\x8d\x17\x12a\t\xc0\xc7?'
p829
tp830
Rp831
tp832
a(S'cognitive robotics'
p833
g2
(g6
S'/\xafB\x1b\xfc\xab\xc7?'
p834
tp835
Rp836
tp837
a(S'indian underwater robotics society'
p838
g2
(g6
S'I\x9f\xab*!\xa5\xc7?'
p839
tp840
Rp841
tp842
a(S'peter dalle carceri'
p843
g2
(g6
S'/\x85\xc7\x1f\xcb\x99\xc7?'
p844
tp845
Rp846
tp847
a(S'memorial mario albisetti'
p848
g2
(g6
S'\xba(\xb2)\xb6\x97\xc7?'
p849
tp850
Rp851
tp852
a(S'fc lugano'
p853
g2
(g6
S'\x14\x0b\x1dt\x85\x95\xc7?'
p854
tp855
Rp856
tp857
a(S'biasca (disambiguation)'
p858
g2
(g6
S"\xf1\xe4'\xed\\\x94\xc7?"
p859
tp860
Rp861
tp862
a(S'constructionist design methodology'
p863
g2
(g6
S'\xffx\t\xce\x8a\x8a\xc7?'
p864
tp865
Rp866
tp867
a(S'italian irredentism in switzerland'
p868
g2
(g6
S'\x0e\x1e\xe2\x82K\x87\xc7?'
p869
tp870
Rp871
tp872
a(S'taverne-torricella railway station'
p873
g2
(g6
S'r\x1d\xdcG\x9f~\xc7?'
p874
tp875
Rp876
tp877
a(S'leonard uhr'
p878
g2
(g6
S'0\x93S6\xed{\xc7?'
p879
tp880
Rp881
tp882
a(S'mowhaugh'
p883
g2
(g6
S' p\x1b\x80\xa1w\xc7?'
p884
tp885
Rp886
tp887
a(S'intelligence'
p888
g2
(g6
S"'9\xa9}\x90t\xc7?"
p889
tp890
Rp891
tp892
a(S'computational intelligence'
p893
g2
(g6
S'i.\xb4P\xffW\xc7?'
p894
tp895
Rp896
tp897
a(S'morphogenetic robotics'
p898
g2
(g6
S'\xc7\x1a\xc8\xc8JW\xc7?'
p899
tp900
Rp901
tp902
a(S'diane litman'
p903
g2
(g6
S'x\xe4\x99\r\xf2P\xc7?'
p904
tp905
Rp906
tp907
a(S'jean-christophe baillie'
p908
g2
(g6
S'Vt\xcaN\x10E\xc7?'
p909
tp910
Rp911
tp912
a(S'the violent patriot'
p913
g2
(g6
S'XFO#2D\xc7?'
p914
tp915
Rp916
tp917
a(S'artificial life organizations'
p918
g2
(g6
S'\xe72\x8b\xf6\x83A\xc7?'
p919
tp920
Rp921
tp922
a(S'igor aleksander'
p923
g2
(g6
S',g\x00S\xe0<\xc7?'
p924
tp925
Rp926
tp927
a(S'lists of artificial objects'
p928
g2
(g6
S'\xbb\x9ay\xaf\xf9:\xc7?'
p929
tp930
Rp931
tp932
a(S'luigi imperatori'
p933
g2
(g6
S'\xd7\x89s\xab\x9b6\xc7?'
p934
tp935
Rp936
tp937
a(S'martha e. pollack'
p938
g2
(g6
S'hl\xfdw\x193\xc7?'
p939
tp940
Rp941
tp942
a(S'interaction and robotics research center'
p943
g2
(g6
S'\x9c\xab\xba\x80M1\xc7?'
p944
tp945
Rp946
tp947
a(S'outline of switzerland'
p948
g2
(g6
S'\xafF\x11\x12\x87.\xc7?'
p949
tp950
Rp951
tp952
a(S'artificial brain'
p953
g2
(g6
S'9\x1f\x06SC,\xc7?'
p954
tp955
Rp956
tp957
a(S'weak ai'
p958
g2
(g6
S'\x00\x02\xa4\xeeM*\xc7?'
p959
tp960
Rp961
tp962
a(S'gran premio di lugano'
p963
g2
(g6
S'#\xbb\x8c\n\x9e\x1f\xc7?'
p964
tp965
Rp966
tp967
a(S'hector levesque'
p968
g2
(g6
S'\x11wB\xe9r\x1e\xc7?'
p969
tp970
Rp971
tp972
a(S'machine ethics'
p973
g2
(g6
S'\xf7\x1ayg\\\x1a\xc7?'
p974
tp975
Rp976
tp977
a(S'artificial intelligence marketing'
p978
g2
(g6
S'\xffH\xab\xeaH\x13\xc7?'
p979
tp980
Rp981
tp982
a(S'opencog'
p983
g2
(g6
S',\xf9\xb4\xec\x14\x13\xc7?'
p984
tp985
Rp986
tp987
a(S'neural designer'
p988
g2
(g6
S'J$\xd7\xc2\x15\x0b\xc7?'
p989
tp990
Rp991
tp992
a(S'ticino (river)'
p993
g2
(g6
S'\xaaN\xb1\xf6\x1a\x06\xc7?'
p994
tp995
Rp996
tp997
a(S'instituto de autom\xc3\xa1tica'
p998
g2
(g6
S'\xe5[\x8e\xc2\xf9\x04\xc7?'
p999
tp1000
Rp1001
tp1002
a(S'michael uschold'
p1003
g2
(g6
S'\xfa]"\x13D\x04\xc7?'
p1004
tp1005
Rp1006
tp1007
a(S'steve omohundro'
p1008
g2
(g6
S'WT\x1d\xeaF\xfd\xc6?'
p1009
tp1010
Rp1011
tp1012
a(S'parashu pradhan'
p1013
g2
(g6
S'\x15\x08\xdd+\xf5\xf4\xc6?'
p1014
tp1015
Rp1016
tp1017
a(S'ponte tresa railway station'
p1018
g2
(g6
S'\xf3[\xfe?Z\xf2\xc6?'
p1019
tp1020
Rp1021
tp1022
a(S'superintelligence'
p1023
g2
(g6
S'\xcc\xf6\xd5\xb2\xdf\xe5\xc6?'
p1024
tp1025
Rp1026
tp1027
a(S'monte ceneri'
p1028
g2
(g6
S'E\xac\xbc\xcdj\xe2\xc6?'
p1029
tp1030
Rp1031
tp1032
a(S"moravec's paradox"
p1033
g2
(g6
S't\xc3E\xc8\xaf\xdf\xc6?'
p1034
tp1035
Rp1036
tp1037
a(S'laregione ticino'
p1038
g2
(g6
S'0T\x93\xbc\xe5\xde\xc6?'
p1039
tp1040
Rp1041
tp1042
a(S'didemnum molle'
p1043
g2
(g6
S'\xf1\xe0\xa8\x1cT\xdc\xc6?'
p1044
tp1045
Rp1046
tp1047
a(S'melide railway station'
p1048
g2
(g6
S'\xc2\xe9_\x94\xd5\xda\xc6?'
p1049
tp1050
Rp1051
tp1052
a(S'tom m. mitchell'
p1053
g2
(g6
S'h\x96\x03\xc5\xe2\xd6\xc6?'
p1054
tp1055
Rp1056
tp1057
a(S'viganello'
p1058
g2
(g6
S'*1\xce\x94 \xbd\xc6?'
p1059
tp1060
Rp1061
tp1062
a(S'davesco-soragno'
p1063
g2
(g6
S'\xf1\x04\xea\xe9L\xb8\xc6?'
p1064
tp1065
Rp1066
tp1067
a(S'strategic computing initiative'
p1068
g2
(g6
S'`\x9e\xaa\xefB\xb8\xc6?'
p1069
tp1070
Rp1071
tp1072
a(S'caprino, switzerland'
p1073
g2
(g6
S'\xa4G\xc0\xf1\x04\xb8\xc6?'
p1074
tp1075
Rp1076
tp1077
a(S'trasporti pubblici luganesi'
p1078
g2
(g6
S'\xd8F,\x06\xd1\xb7\xc6?'
p1079
tp1080
Rp1081
tp1082
a(S'sorengo railway station'
p1083
g2
(g6
S'\xe2h(xx\xb2\xc6?'
p1084
tp1085
Rp1086
tp1087
a(S'sorengo laghetto railway station'
p1088
g2
(g6
S'\xe2h(xx\xb2\xc6?'
p1089
tp1090
Rp1091
tp1092
a(S'artificiality'
p1093
g2
(g6
S'\x850\xd9h\xef\xb1\xc6?'
p1094
tp1095
Rp1096
tp1097
a(S'loreto, switzerland'
p1098
g2
(g6
S'~H\x9e\x88\xc5\xb0\xc6?'
p1099
tp1100
Rp1101
tp1102
a(S'caslano railway station'
p1103
g2
(g6
S'n\x16\xe1\xf3|\xa1\xc6?'
p1104
tp1105
Rp1106
tp1107
a(S'ai effect'
p1108
g2
(g6
S'\xeb\xdfF\x8c!\xa1\xc6?'
p1109
tp1110
Rp1111
tp1112
a(S'henry kautz'
p1113
g2
(g6
S'Zh\xd3-<\x91\xc6?'
p1114
tp1115
Rp1116
tp1117
a(S'meka robotics'
p1118
g2
(g6
S'\x92\xbabV\xbd\x8d\xc6?'
p1119
tp1120
Rp1121
tp1122
a(S'balerna railway station'
p1123
g2
(g6
S'\xd4\xf1\xe3\xca\r\x86\xc6?'
p1124
tp1125
Rp1126
tp1127
a(S'eugene charniak'
p1128
g2
(g6
S'\x13\xd1\xbc]&\x80\xc6?'
p1129
tp1130
Rp1131
tp1132
a(S'roman yampolskiy'
p1133
g2
(g6
S'\x0c\x16\x888\xb1y\xc6?'
p1134
tp1135
Rp1136
tp1137
a(S'soft robotics'
p1138
g2
(g6
S'\xf2\xfb\xeb\xc0\xb8a\xc6?'
p1139
tp1140
Rp1141
tp1142
a(S'mark e. stickel'
p1143
g2
(g6
S'Z\x18\xb2\xe7M`\xc6?'
p1144
tp1145
Rp1146
tp1147
a(S'museum of cultures (lugano)'
p1148
g2
(g6
S'\x15\xca\x0e\x05\xe4_\xc6?'
p1149
tp1150
Rp1151
tp1152
a(S'henrik i. christensen'
p1153
g2
(g6
S'\xc375pVZ\xc6?'
p1154
tp1155
Rp1156
tp1157
a(S'future of life institute'
p1158
g2
(g6
S'\xcaw\x14e\xfcS\xc6?'
p1159
tp1160
Rp1161
tp1162
a(S'intelligence explosion'
p1163
g2
(g6
S'F\xc9\x8f\xb3\xecJ\xc6?'
p1164
tp1165
Rp1166
tp1167
a(S'serocca railway station'
p1168
g2
(g6
S'J\xbd\x92\xac*;\xc6?'
p1169
tp1170
Rp1171
tp1172
a(S'bioggio railway station'
p1173
g2
(g6
S'J\xbd\x92\xac*;\xc6?'
p1174
tp1175
Rp1176
tp1177
a(S'cappella-agnuzzo railway station'
p1178
g2
(g6
S'V\xe1\x96\x16\xc68\xc6?'
p1179
tp1180
Rp1181
tp1182
a(S'magliaso paese railway station'
p1183
g2
(g6
S'\xd8o^\xee#4\xc6?'
p1184
tp1185
Rp1186
tp1187
a(S'societ\xc3\xa0 navigazione del lago di lugano'
p1188
g2
(g6
S'\xd9!\x0b~\x88,\xc6?'
p1189
tp1190
Rp1191
tp1192
a(S'mezzovico railway station'
p1193
g2
(g6
S'\xfa\xd3\xae)E&\xc6?'
p1194
tp1195
Rp1196
tp1197
a(S'artificial neural network'
p1198
g2
(g6
S"\xde\x85\x96'N\x1b\xc6?"
p1199
tp1200
Rp1201
tp1202
a(S'ticino league'
p1203
g2
(g6
S'\xcc\x16m\xa7\x0f\x18\xc6?'
p1204
tp1205
Rp1206
tp1207
a(S'magliaso railway station'
p1208
g2
(g6
S'\xb9\x91\xc4\xfcm\x0f\xc6?'
p1209
tp1210
Rp1211
tp1212
a(S'lugano airport'
p1213
g2
(g6
S'\xb4\xf8\xaa\x9b\xd9\x0e\xc6?'
p1214
tp1215
Rp1216
tp1217
a(S'the distillers (ep)'
p1218
g2
(g6
S'\x86\xc22\xd0\xc3\n\xc6?'
p1219
tp1220
Rp1221
tp1222
a(S'marketing and artificial intelligence'
p1223
g2
(g6
S'\xae\x06z\x1fO\n\xc6?'
p1224
tp1225
Rp1226
tp1227
a(S'lugano tigers'
p1228
g2
(g6
S'g\xd6\xc6Z_\t\xc6?'
p1229
tp1230
Rp1231
tp1232
a(S'artificial intelligence, situated approach'
p1233
g2
(g6
S'\n\xb9>\\%\x04\xc6?'
p1234
tp1235
Rp1236
tp1237
a(S'lamone-cadempino railway station'
p1238
g2
(g6
S'{\xa5V\x9d\xf1\x03\xc6?'
p1239
tp1240
Rp1241
tp1242
a(S'maria dalle carceri'
p1243
g2
(g6
S'\xbd\x18\xda\x00%\xfd\xc5?'
p1244
tp1245
Rp1246
tp1247
a(S'artificial turf'
p1248
g2
(g6
S'\xf5U\xd3Di\xf9\xc5?'
p1249
tp1250
Rp1251
tp1252
a(S'patrick winston'
p1253
g2
(g6
S'\xe4gO\xb5-\xf6\xc5?'
p1254
tp1255
Rp1256
tp1257
a(S'lugano railway station'
p1258
g2
(g6
S'\x9bT\xc5\xaff\xf4\xc5?'
p1259
tp1260
Rp1261
tp1262
a(S'chungnam national university'
p1263
g2
(g6
S'\x89R\xa9\n)\xd9\xc5?'
p1264
tp1265
Rp1266
tp1267
a(S'darwin caldwell'
p1268
g2
(g6
S'jW_\x08\xa0\xd1\xc5?'
p1269
tp1270
Rp1271
tp1272
a(S'aaron sloman'
p1273
g2
(g6
S"t\xb3\x1c'\xa7\xbf\xc5?"
p1274
tp1275
Rp1276
tp1277
a(S'artificial intelligence center'
p1278
g2
(g6
S'\xc6\xbc\xd3<\xba\xbe\xc5?'
p1279
tp1280
Rp1281
tp1282
a(S'shlomo zilberstein'
p1283
g2
(g6
S'\x83\x9flGa\xb2\xc5?'
p1284
tp1285
Rp1286
tp1287
a(S'lauro amad\xc3\xb2'
p1288
g2
(g6
S'\xfc\x82\x87\xb2\xcb\xa3\xc5?'
p1289
tp1290
Rp1291
tp1292
a(S'artificial intuition'
p1293
g2
(g6
S']\xf8\xcf\xdd\xee\x98\xc5?'
p1294
tp1295
Rp1296
tp1297
a(S'social robot'
p1298
g2
(g6
S'\xc9R3t\xca\x94\xc5?'
p1299
tp1300
Rp1301
tp1302
a(S'caritas ticino'
p1303
g2
(g6
S'\xc1\xfb\xb0\xc5\xaf\x8b\xc5?'
p1304
tp1305
Rp1306
tp1307
a(S'stuart j. russell'
p1308
g2
(g6
S'\x9d\x8aM\xa4\xd5\x89\xc5?'
p1309
tp1310
Rp1311
tp1312
a(S'robot ethics'
p1313
g2
(g6
S'\xa2\xe2\x94\x88{\x87\xc5?'
p1314
tp1315
Rp1316
tp1317
a(S'elqui river'
p1318
g2
(g6
S'\xacu\x8c`\x1cx\xc5?'
p1319
tp1320
Rp1321
tp1322
a(S'gandria'
p1323
g2
(g6
S'\xe1U\xb8\xa7ns\xc5?'
p1324
tp1325
Rp1326
tp1327
a(S'bioggio molinazzo railway station'
p1328
g2
(g6
S'\xb2^u{\xc1a\xc5?'
p1329
tp1330
Rp1331
tp1332
a(S'list of lakes of serbia'
p1333
g2
(g6
S'2)j\xf3\x15X\xc5?'
p1334
tp1335
Rp1336
tp1337
a(S"campione d'italia"
p1338
g2
(g6
S'b\x90QPgR\xc5?'
p1339
tp1340
Rp1341
tp1342
a(S'someo'
p1343
g2
(g6
S'\x13`w\xd4&O\xc5?'
p1344
tp1345
Rp1346
tp1347
a(S'intelligent robotics group'
p1348
g2
(g6
S'\xe0\x1b{Q\xb5K\xc5?'
p1349
tp1350
Rp1351
tp1352
a(S'nello cristianini'
p1353
g2
(g6
S'\x84Hc\x89\xbc7\xc5?'
p1354
tp1355
Rp1356
tp1357
a(S'daniela l. rus'
p1358
g2
(g6
S'f)\x99Kb5\xc5?'
p1359
tp1360
Rp1361
tp1362
a(S'pierre-yves oudeyer'
p1363
g2
(g6
S'\x8b\x07Q\xd5\xca-\xc5?'
p1364
tp1365
Rp1366
tp1367
a(S'timo honkela'
p1368
g2
(g6
S'`\xbdd8\xd7*\xc5?'
p1369
tp1370
Rp1371
tp1372
a(S'maroggia-melano railway station'
p1373
g2
(g6
S'\\\xba\xcc\xf1\x13\x1f\xc5?'
p1374
tp1375
Rp1376
tp1377
a(S'bernate ticino'
p1378
g2
(g6
S'\x92\xab]\x0f\xf3\x1e\xc5?'
p1379
tp1380
Rp1381
tp1382
a(S'artificial organ'
p1383
g2
(g6
S'\x01\xff=\xc0\x97\x07\xc5?'
p1384
tp1385
Rp1386
tp1387
a(S'artificial creation'
p1388
g2
(g6
S'J5l\x81,\xfe\xc4?'
p1389
tp1390
Rp1391
tp1392
a(S'list of research institutes in greece'
p1393
g2
(g6
S'\x11\x92\x1f\xfe!\xfe\xc4?'
p1394
tp1395
Rp1396
tp1397
a(S'intelligence (disambiguation)'
p1398
g2
(g6
S'\xeb\xbd\xf2Y\x12\xf1\xc4?'
p1399
tp1400
Rp1401
tp1402
a(S'\xc5\xa0ar\xc5\xabnas raudys'
p1403
g2
(g6
S'\xa3\x91\xdd\x9e\xac\xe1\xc4?'
p1404
tp1405
Rp1406
tp1407
a(S'aiva'
p1408
g2
(g6
S'\xe4\xf7\x01\x0bN\xdd\xc4?'
p1409
tp1410
Rp1411
tp1412
a(S'anki (company)'
p1413
g2
(g6
S'\x046\x15\xd8k\xdc\xc4?'
p1414
tp1415
Rp1416
tp1417
a(S'cenobio'
p1418
g2
(g6
S'\xcb\x14]\x15\xef\xdb\xc4?'
p1419
tp1420
Rp1421
tp1422
a(S'icaart'
p1423
g2
(g6
S'\x8c\xcfo\xeeM\xce\xc4?'
p1424
tp1425
Rp1426
tp1427
a(S'robovalley'
p1428
g2
(g6
S'P\xdb\xed\x95\xbd\xcb\xc4?'
p1429
tp1430
Rp1431
tp1432
a(S'robot research initiative'
p1433
g2
(g6
S'\x17\x97Ob\xe5\xc5\xc4?'
p1434
tp1435
Rp1436
tp1437
a(S'br\xc3\xa8-aldesago'
p1438
g2
(g6
S'\x0e\xd1E\xd24\xc4\xc4?'
p1439
tp1440
Rp1441
tp1442
a(S'ticino (train)'
p1443
g2
(g6
S'\xc6Z\xb7\xc0v\xc3\xc4?'
p1444
tp1445
Rp1446
tp1447
a(S'didier ruef'
p1448
g2
(g6
S'[0\x03\x97\xfc\xc1\xc4?'
p1449
tp1450
Rp1451
tp1452
a(S'neurodimension'
p1453
g2
(g6
S'\x88d\xe2\xdam\xc1\xc4?'
p1454
tp1455
Rp1456
tp1457
a(S'giuseppe sartori'
p1458
g2
(g6
S' \xbc\xa6\x9bx\xbf\xc4?'
p1459
tp1460
Rp1461
tp1462
a(S'artificial uterus'
p1463
g2
(g6
S'h\xa8K#\xf9\xba\xc4?'
p1464
tp1465
Rp1466
tp1467
a(S'robots in literature'
p1468
g2
(g6
S').\x86l\xe4\xb9\xc4?'
p1469
tp1470
Rp1471
tp1472
a(S'campestro'
p1473
g2
(g6
S'\x00\xfc\xdd?\x1a\xb9\xc4?'
p1474
tp1475
Rp1476
tp1477
a(S'bradley nelson'
p1478
g2
(g6
S'?\xa4\xf4\x85\xe5\xb6\xc4?'
p1479
tp1480
Rp1481
tp1482
a(S'willem johan kolff'
p1483
g2
(g6
S'f&\xdb\xb9\xa4\xad\xc4?'
p1484
tp1485
Rp1486
tp1487
a(S'l\xc3\xa9on bottou'
p1488
g2
(g6
S' c4&"\xa7\xc4?'
p1489
tp1490
Rp1491
tp1492
a(S'adelaide pandiani maraini'
p1493
g2
(g6
S'fr\x89\xe7H\xa4\xc4?'
p1494
tp1495
Rp1496
tp1497
a(S'espionage organizations'
p1498
g2
(g6
S'\x89A\xea\x16\xa4\xa0\xc4?'
p1499
tp1500
Rp1501
tp1502
a(S'arzo'
p1503
g2
(g6
S'\x9a\xc9{\x03\x13\x9a\xc4?'
p1504
tp1505
Rp1506
tp1507
a(S'ai takeover'
p1508
g2
(g6
S'H\xda\xb2\x1bT\x97\xc4?'
p1509
tp1510
Rp1511
tp1512
a.