(lp0
(S'data mining'
p1
cnumpy.core.multiarray
scalar
p2
(cnumpy
dtype
p3
(S'f8'
p4
I0
I1
tp5
Rp6
(I3
S'<'
p7
NNNI-1
I-1
I0
tp8
bS'\x03\x00\x00\x00\x00\x00\xf0?'
p9
tp10
Rp11
tp12
a(S'examples of data mining'
p13
g2
(g6
S'\xdd\xf9U\xe9\xdc@\xeb?'
p14
tp15
Rp16
tp17
a(S'structure mining'
p18
g2
(g6
S'v\x94\xf3\xc3\xcd5\xe9?'
p19
tp20
Rp21
tp22
a(S'teradata warehouse miner'
p23
g2
(g6
S'\xbc\xe3\xcc\\\xf6\xc7\xe7?'
p24
tp25
Rp26
tp27
a(S'usama fayyad'
p28
g2
(g6
S'\xa1=2r\x1eA\xe7?'
p29
tp30
Rp31
tp32
a(S'metropolitan areas in poland'
p33
g2
(g6
S'\xe3!\xc22Sg\xe6?'
p34
tp35
Rp36
tp37
a(S'atomic radii of the elements (data page)'
p38
g2
(g6
S'\xc8\x1a\xb6|o\x06\xe6?'
p39
tp40
Rp41
tp42
a(S'list of elements by atomic properties'
p43
g2
(g6
S'\xd1t\xc5w\xbd\xf3\xe5?'
p44
tp45
Rp46
tp47
a(S'data science'
p48
g2
(g6
S'\x9e|\xe8H8\xd1\xe5?'
p49
tp50
Rp51
tp52
a(S'big data'
p53
g2
(g6
S'\xcfF\xdcKe\xae\xe5?'
p54
tp55
Rp56
tp57
a(S'data'
p58
g2
(g6
S'B\n\x0c\xba\xdbo\xe5?'
p59
tp60
Rp61
tp62
a(S'educational data mining'
p63
g2
(g6
S'"\xa3\xb0\xaf*\x1d\xe5?'
p64
tp65
Rp66
tp67
a(S'data set'
p68
g2
(g6
S'\xb68\x8d\x7f=\xff\xe4?'
p69
tp70
Rp71
tp72
a(S'oracle data mining'
p73
g2
(g6
S"'b\xf9\xb8\xf1\xf2\xe4?"
p74
tp75
Rp76
tp77
a(S'data stream mining'
p78
g2
(g6
S':\x86\xca\xb0\xf7\xe7\xe4?'
p79
tp80
Rp81
tp82
a(S'semma'
p83
g2
(g6
S'\x16\xaa\xbf\x8a\\\xdd\xe4?'
p84
tp85
Rp86
tp87
a(S'list of woking f.c. seasons'
p88
g2
(g6
S'\r\xdfN\x17\xd3\xaa\xe4?'
p89
tp90
Rp91
tp92
a(S'java data mining'
p93
g2
(g6
S's\x9a\xfa\x11\x9a\x81\xe4?'
p94
tp95
Rp96
tp97
a(S'bing liu'
p98
g2
(g6
S'\x83\x08\x8b\xff\x7f}\xe4?'
p99
tp100
Rp101
tp102
a(S'data management plan'
p103
g2
(g6
S'\x8b\x0c}\xea\xc8v\xe4?'
p104
tp105
Rp106
tp107
a(S'data pre-processing'
p108
g2
(g6
S'\x8bP\x1f\xafIg\xe4?'
p109
tp110
Rp111
tp112
a(S'cross industry standard process for data mining'
p113
g2
(g6
S'\xdfD\xb1\xe5L\x10\xe4?'
p114
tp115
Rp116
tp117
a(S'multiway data analysis'
p118
g2
(g6
S';$p\xd4\xa9\x05\xe4?'
p119
tp120
Rp121
tp122
a(S'open data'
p123
g2
(g6
S"m9\xd2'\x04\x05\xe4?"
p124
tp125
Rp126
tp127
a(S'hans-peter kriegel'
p128
g2
(g6
S'7S\xe4R\xf2\xf6\xe3?'
p129
tp130
Rp131
tp132
a(S'gregory piatetsky-shapiro'
p133
g2
(g6
S'\x88\xde\xbb\xe6\x1b\xf4\xe3?'
p134
tp135
Rp136
tp137
a(S'data wrangling'
p138
g2
(g6
S'8\xe5\x97)\xea\xe8\xe3?'
p139
tp140
Rp141
tp142
a(S'small data'
p143
g2
(g6
S'gA\xf9%\x8b\xe3\xe3?'
p144
tp145
Rp146
tp147
a(S'administration data'
p148
g2
(g6
S'\x1c\xc7E\r*\xd3\xe3?'
p149
tp150
Rp151
tp152
a(S'jiawei han'
p153
g2
(g6
S'V\xe1\xd1\x94\n\xcd\xe3?'
p154
tp155
Rp156
tp157
a(S'data publishing'
p158
g2
(g6
S'\xb4\xbd\xe4\x9fe\xcb\xe3?'
p159
tp160
Rp161
tp162
a(S'data field'
p163
g2
(g6
S'9\x12r\xfd\xbc\xb6\xe3?'
p164
tp165
Rp166
tp167
a(S'data (computing)'
p168
g2
(g6
S'@\xfb\xab\xca!\xb4\xe3?'
p169
tp170
Rp171
tp172
a(S'data management'
p173
g2
(g6
S'@#=\x0bA\xae\xe3?'
p174
tp175
Rp176
tp177
a(S'industrial big data'
p178
g2
(g6
S'\x1c\xbc;\xcb~\xa2\xe3?'
p179
tp180
Rp181
tp182
a(S'data warehouse'
p183
g2
(g6
S'1_VI\x8c\xa1\xe3?'
p184
tp185
Rp186
tp187
a(S'data quality'
p188
g2
(g6
S'\xd7\xbejg\xf5\x9d\xe3?'
p189
tp190
Rp191
tp192
a(S'agent mining'
p193
g2
(g6
S"\x18LE'\x16\x94\xe3?"
p194
tp195
Rp196
tp197
a(S'data architecture'
p198
g2
(g6
S'\xbd\xd1\x1cj\x1d\x85\xe3?'
p199
tp200
Rp201
tp202
a(S'5 ways of conceptualizing data'
p203
g2
(g6
S'\x7f\x9cIz%y\xe3?'
p204
tp205
Rp206
tp207
a(S'bibliomining'
p208
g2
(g6
S'\x83!\x17sou\xe3?'
p209
tp210
Rp211
tp212
a(S'data.gov.uk'
p213
g2
(g6
S'\x9d\x17{\x9d5]\xe3?'
p214
tp215
Rp216
tp217
a(S'data at rest'
p218
g2
(g6
S'\x08p\xfdv\xe1L\xe3?'
p219
tp220
Rp221
tp222
a(S'technical data management system'
p223
g2
(g6
S'\x84\xc2\x9f\xa89J\xe3?'
p224
tp225
Rp226
tp227
a(S'data analysis'
p228
g2
(g6
S'\xd3b\x14\x8d_F\xe3?'
p229
tp230
Rp231
tp232
a(S'extract, transform, load'
p233
g2
(g6
S',\xa6{\xffgA\xe3?'
p234
tp235
Rp236
tp237
a(S'web mining'
p238
g2
(g6
S'\xed\x8b.\xd0\xc8*\xe3?'
p239
tp240
Rp241
tp242
a(S'data library'
p243
g2
(g6
S'\x0c\xa5\xc3\xee\xe6\x1b\xe3?'
p244
tp245
Rp246
tp247
a(S'data mining extensions'
p248
g2
(g6
S'\x80esf\x1b\x18\xe3?'
p249
tp250
Rp251
tp252
a(S'uk data service'
p253
g2
(g6
S'\xa4\xc4\xb4\xe4\xba\t\xe3?'
p254
tp255
Rp256
tp257
a(S'uk data archive'
p258
g2
(g6
S'|\x07\x9a\xd7\x1f\xf8\xe2?'
p259
tp260
Rp261
tp262
a(S'data custodian'
p263
g2
(g6
S'Y\xfbw\xd6\x7f\xf0\xe2?'
p264
tp265
Rp266
tp267
a(S'nerc data centres'
p268
g2
(g6
S'V\xd4\xa5F\xde\xef\xe2?'
p269
tp270
Rp271
tp272
a(S'open science data'
p273
g2
(g6
S'q\xf6_\\\x16\xe6\xe2?'
p274
tp275
Rp276
tp277
a(S'master data management'
p278
g2
(g6
S'!O\x8b\x14\x9d\xe0\xe2?'
p279
tp280
Rp281
tp282
a(S'data cleansing'
p283
g2
(g6
S'\x14\x7f\xcc\x9co\xe0\xe2?'
p284
tp285
Rp286
tp287
a(S'data protection act, 2012'
p288
g2
(g6
S'r\xda\xfa\xbf-\xc1\xe2?'
p289
tp290
Rp291
tp292
a(S'data-driven journalism'
p293
g2
(g6
S'\xd8\x97\xf0\x89s\xb0\xe2?'
p294
tp295
Rp296
tp297
a(S'data lake'
p298
g2
(g6
S'\xbac\xcd|V\xa0\xe2?'
p299
tp300
Rp301
tp302
a(S'data architect'
p303
g2
(g6
S'H\t>\x1a\xf4\x99\xe2?'
p304
tp305
Rp306
tp307
a(S'data model'
p308
g2
(g6
S'X\xa4\xf1~by\xe2?'
p309
tp310
Rp311
tp312
a(S'data as a service'
p313
g2
(g6
S'W\xd1\x06\xff\xb2h\xe2?'
p314
tp315
Rp316
tp317
a(S'evolutionary data mining'
p318
g2
(g6
S'\xee\xed\xea\xaf\xd4a\xe2?'
p319
tp320
Rp321
tp322
a(S'research data archiving'
p323
g2
(g6
S'\xe7\x81R\xe6/[\xe2?'
p324
tp325
Rp326
tp327
a(S'data administration'
p328
g2
(g6
S'\x07)\xa7\x8a\x1f.\xe2?'
p329
tp330
Rp331
tp332
a(S'raw data'
p333
g2
(g6
S'v\x12\ty>\x11\xe2?'
p334
tp335
Rp336
tp337
a(S'data (moth)'
p338
g2
(g6
S'i\x81\xa1\xee@\x07\xe2?'
p339
tp340
Rp341
tp342
a(S'astroinformatics'
p343
g2
(g6
S"\x9d\xfc\xd5'\x1e\x04\xe2?"
p344
tp345
Rp346
tp347
a(S'holistic data management'
p348
g2
(g6
S'\xc8\x02\x18\xc8\x83\xff\xe1?'
p349
tp350
Rp351
tp352
a(S'economics of open data'
p353
g2
(g6
S'\xad\xce\x94ZM\xf5\xe1?'
p354
tp355
Rp356
tp357
a(S'national geophysical data center'
p358
g2
(g6
S'\xb9\xc4\x82\xa5S\xef\xe1?'
p359
tp360
Rp361
tp362
a(S'data monetization'
p363
g2
(g6
S'\x13)\x8fvI\xe3\xe1?'
p364
tp365
Rp366
tp367
a(S'master data'
p368
g2
(g6
S'd\x85\x19t\x85\xe0\xe1?'
p369
tp370
Rp371
tp372
a(S'dark data'
p373
g2
(g6
S'\xf4\xde\xd8=`\xcc\xe1?'
p374
tp375
Rp376
tp377
a(S'icsu world data system'
p378
g2
(g6
S'%\x02B\xc9a\xcb\xe1?'
p379
tp380
Rp381
tp382
a(S'data sharing'
p383
g2
(g6
S'>A\x14f\x9b\xc9\xe1?'
p384
tp385
Rp386
tp387
a(S'reality mining'
p388
g2
(g6
S'\xf8+\x0c\x80\x86\xbe\xe1?'
p389
tp390
Rp391
tp392
a(S'critical data studies'
p393
g2
(g6
S'\x96\xc6\xden<\xb9\xe1?'
p394
tp395
Rp396
tp397
a(S'list of metropolitan areas in europe'
p398
g2
(g6
S'C\xf4\xaeY<\xb2\xe1?'
p399
tp400
Rp401
tp402
a(S"rexer's annual data miner survey"
p403
g2
(g6
S'\x13\x8e\x1dt\xa6\xa4\xe1?'
p404
tp405
Rp406
tp407
a(S'data literacy'
p408
g2
(g6
S'\xfc\x9e\x14c\x01\x98\xe1?'
p409
tp410
Rp411
tp412
a(S'european data portal'
p413
g2
(g6
S'\xbc\xe0\x04>L\x8b\xe1?'
p414
tp415
Rp416
tp417
a(S'data philanthropy'
p418
g2
(g6
S'\xd6\xa2k\xf8\xa6\x86\xe1?'
p419
tp420
Rp421
tp422
a(S'clinical data management'
p423
g2
(g6
S'\xaft\x98\r\x8f\x84\xe1?'
p424
tp425
Rp426
tp427
a(S'data protection directive'
p428
g2
(g6
S'8\xe5\xc7r%\x81\xe1?'
p429
tp430
Rp431
tp432
a(S'data modeling'
p433
g2
(g6
S'\xd0\xbd\x84\x93\xbe}\xe1?'
p434
tp435
Rp436
tp437
a(S'data mart'
p438
g2
(g6
S'\x90\x16\x06\xb2\xb4_\xe1?'
p439
tp440
Rp441
tp442
a(S'social data analysis'
p443
g2
(g6
S'S\x03\x8a=\xf0]\xe1?'
p444
tp445
Rp446
tp447
a(S'data hub'
p448
g2
(g6
S'k\xcb\x1e\x08\x8eZ\xe1?'
p449
tp450
Rp451
tp452
a(S'data virtualization'
p453
g2
(g6
S'\xc3O\xbe\xcajU\xe1?'
p454
tp455
Rp456
tp457
a(S'teradata'
p458
g2
(g6
S'W\xf7[\xfe\xd9G\xe1?'
p459
tp460
Rp461
tp462
a(S'data steward'
p463
g2
(g6
S'|>$NM7\xe1?'
p464
tp465
Rp466
tp467
a(S'data governance'
p468
g2
(g6
S'i\xe5\xe1\x03L)\xe1?'
p469
tp470
Rp471
tp472
a(S'first data'
p473
g2
(g6
S'{\x88\x03\x1aW&\xe1?'
p474
tp475
Rp476
tp477
a(S'text mining'
p478
g2
(g6
S'(\xa2\xd39e \xe1?'
p479
tp480
Rp481
tp482
a(S'iredes'
p483
g2
(g6
S'\x7f7\xd8Va\x1d\xe1?'
p484
tp485
Rp486
tp487
a(S'data structure'
p488
g2
(g6
S'\xe4/\x9b\x15\x9e\x16\xe1?'
p489
tp490
Rp491
tp492
a(S'data (disambiguation)'
p493
g2
(g6
S'd\xbd\xb2\xc9\xea\x10\xe1?'
p494
tp495
Rp496
tp497
a(S'source data'
p498
g2
(g6
S'\n\x81e\x80\x9c\x10\xe1?'
p499
tp500
Rp501
tp502
a(S'bundesdatenschutzgesetz'
p503
g2
(g6
S'\x969\xf7"\x80\x0c\xe1?'
p504
tp505
Rp506
tp507
a(S'data protection act 1998'
p508
g2
(g6
S'\x104\xde\n\xee\t\xe1?'
p509
tp510
Rp511
tp512
a(S'data classification (data management)'
p513
g2
(g6
S'\x9c\xab\xe2`\x12\xff\xe0?'
p514
tp515
Rp516
tp517
a(S'data profiling'
p518
g2
(g6
S'\xfe\x182\xf7\xcc\xfd\xe0?'
p519
tp520
Rp521
tp522
a(S'financial data vendor'
p523
g2
(g6
S'k\xab\x92}D\xfd\xe0?'
p524
tp525
Rp526
tp527
a(S'secondary data'
p528
g2
(g6
S'\xd4\x9cy\x0bi\xf8\xe0?'
p529
tp530
Rp531
tp532
a(S'weka (machine learning)'
p533
g2
(g6
S'\xb8M\x94l\x9f\xec\xe0?'
p534
tp535
Rp536
tp537
a(S'data applied'
p538
g2
(g6
S'\x0e9\x19\x83\xe8\xe0\xe0?'
p539
tp540
Rp541
tp542
a(S'attunity'
p543
g2
(g6
S'\x0e\xdf\xe2Q\xd2\xd7\xe0?'
p544
tp545
Rp546
tp547
a(S'data quality campaign'
p548
g2
(g6
S'\n\xee\xa0\xaf\xac\xcb\xe0?'
p549
tp550
Rp551
tp552
a(S'data deduplication'
p553
g2
(g6
S'\xdd`\xfeE}\xbf\xe0?'
p554
tp555
Rp556
tp557
a(S'data-centric security'
p558
g2
(g6
S'=7\xb0\xb7\xb3\xb4\xe0?'
p559
tp560
Rp561
tp562
a(S'social data revolution'
p563
g2
(g6
S'\xcfT\xedl%\xb0\xe0?'
p564
tp565
Rp566
tp567
a(S'data loss'
p568
g2
(g6
S'\x1e3\x9bI\xa8\xab\xe0?'
p569
tp570
Rp571
tp572
a(S'data loss prevention software'
p573
g2
(g6
S'b\x03\x08\x97\xb2\xa9\xe0?'
p574
tp575
Rp576
tp577
a(S'data discovery'
p578
g2
(g6
S'h\x1d"\xb5\x1e\xa9\xe0?'
p579
tp580
Rp581
tp582
a(S'data curation'
p583
g2
(g6
S',qo\x03\x9d\x8e\xe0?'
p584
tp585
Rp586
tp587
a(S'data forwarder'
p588
g2
(g6
S'\xc30dr\x0c\x8b\xe0?'
p589
tp590
Rp591
tp592
a(S'dataspaces'
p593
g2
(g6
S'\x861<`\x8a\x8a\xe0?'
p594
tp595
Rp596
tp597
a(S'data extraction'
p598
g2
(g6
S'\x9b\r\xe2c\xef{\xe0?'
p599
tp600
Rp601
tp602
a(S'social media analytics'
p603
g2
(g6
S'O\x1b\x1cU\xcdv\xe0?'
p604
tp605
Rp606
tp607
a(S'esdat'
p608
g2
(g6
S'Gf%\x89\x0eu\xe0?'
p609
tp610
Rp611
tp612
a(S'reference data'
p613
g2
(g6
S'\xa2\t\xa52\xa8d\xe0?'
p614
tp615
Rp616
tp617
a(S'synthetic data'
p618
g2
(g6
S'\x1e:\xf3\x81ya\xe0?'
p619
tp620
Rp621
tp622
a(S'data-informed decision-making'
p623
g2
(g6
S'\t\xa2c8\xbd\\\xe0?'
p624
tp625
Rp626
tp627
a(S'open data indicies'
p628
g2
(g6
S'x\xd1\x9cQ)[\xe0?'
p629
tp630
Rp631
tp632
a(S'data in transit'
p633
g2
(g6
S'\xe3\xa0\xe6\xb3\xe3Z\xe0?'
p634
tp635
Rp636
tp637
a(S'data based decision making'
p638
g2
(g6
S'\xd9C\x8c|\xdeZ\xe0?'
p639
tp640
Rp641
tp642
a(S'transducerml'
p643
g2
(g6
S'Dhd]\x89W\xe0?'
p644
tp645
Rp646
tp647
a(S'crowdsensing'
p648
g2
(g6
S'\x1cT\x82\xbb\xa6T\xe0?'
p649
tp650
Rp651
tp652
a(S'data processing'
p653
g2
(g6
S'\xd1\xe7\x8d\xc3\xceO\xe0?'
p654
tp655
Rp656
tp657
a(S'knime'
p658
g2
(g6
S'&\xbe\xe9\x84,N\xe0?'
p659
tp660
Rp661
tp662
a(S'market data'
p663
g2
(g6
S'\xdcWw\x15\xbeM\xe0?'
p664
tp665
Rp666
tp667
a(S'data redundancy'
p668
g2
(g6
S'\x9d\xffD\n\xa7L\xe0?'
p669
tp670
Rp671
tp672
a(S'software mining'
p673
g2
(g6
S'\x05-\xac\x82 J\xe0?'
p674
tp675
Rp676
tp677
a(S'social media mining'
p678
g2
(g6
S'\xe1]Z\x13\xd88\xe0?'
p679
tp680
Rp681
tp682
a(S'out-of-band data'
p683
g2
(g6
S'\xde\xa6$\x9a\xb80\xe0?'
p684
tp685
Rp686
tp687
a(S'aggregate data'
p688
g2
(g6
S'c\xa7s\x954+\xe0?'
p689
tp690
Rp691
tp692
a(S'bluetalon'
p693
g2
(g6
S'\x9c\x9b\xee\xb8\x17*\xe0?'
p694
tp695
Rp696
tp697
a(S'bs iso 20022-1'
p698
g2
(g6
S'$Bi\x02"!\xe0?'
p699
tp700
Rp701
tp702
a(S'data-intensive computing'
p703
g2
(g6
S'\xada\xe0\tZ \xe0?'
p704
tp705
Rp706
tp707
a(S'data residency'
p708
g2
(g6
S'sp/\xa9\xe1\x13\xe0?'
p709
tp710
Rp711
tp712
a(S'dirty data'
p713
g2
(g6
S'\xe3\xc01J\xde\x0f\xe0?'
p714
tp715
Rp716
tp717
a(S'data center'
p718
g2
(g6
S'e\x92\x7f\xe6\xcc\x0c\xe0?'
p719
tp720
Rp721
tp722
a(S'data processing system'
p723
g2
(g6
S'\xaa\xfe\xc8\xba\xb9\t\xe0?'
p724
tp725
Rp726
tp727
a(S'data lineage'
p728
g2
(g6
S'\x00\x07\x83\x8b\x1f\x03\xe0?'
p729
tp730
Rp731
tp732
a(S'national center for data mining'
p733
g2
(g6
S'\x9d3x^\xcf\xfe\xdf?'
p734
tp735
Rp736
tp737
a(S'data janitor'
p738
g2
(g6
S'\x83WC\xb7V\xf4\xdf?'
p739
tp740
Rp741
tp742
a(S'icdsc'
p743
g2
(g6
S'|\\\x7fVZ\xeb\xdf?'
p744
tp745
Rp746
tp747
a(S'microsoft sql server master data services'
p748
g2
(g6
S'\xaa8*\x93\xca\xe6\xdf?'
p749
tp750
Rp751
tp752
a(S'rayid ghani'
p753
g2
(g6
S'\xd2k\xf0}~\xe0\xdf?'
p754
tp755
Rp756
tp757
a(S'tanagra (machine learning)'
p758
g2
(g6
S'1\xcb\xcd`\xb4\xd8\xdf?'
p759
tp760
Rp761
tp762
a(S'eosdis'
p763
g2
(g6
S'\xf1>\x9f\xb5L\xce\xdf?'
p764
tp765
Rp766
tp767
a(S'quartile'
p768
g2
(g6
S'A\x00\xc3\x19\t\xc3\xdf?'
p769
tp770
Rp771
tp772
a(S'data pack'
p773
g2
(g6
S'^;\x9b\xc3\xcf\xb2\xdf?'
p774
tp775
Rp776
tp777
a(S'multidimensional analysis'
p778
g2
(g6
S'\x1bT\xe1\tX\xa7\xdf?'
p779
tp780
Rp781
tp782
a(S'data element'
p783
g2
(g6
S'?\xc4\xf6\x98\x01\xa2\xdf?'
p784
tp785
Rp786
tp787
a(S'forensic data analysis'
p788
g2
(g6
S'\xc4Y:,\x8a\x98\xdf?'
p789
tp790
Rp791
tp792
a(S'open data in canada'
p793
g2
(g6
S'\xd5S8\xf88\x90\xdf?'
p794
tp795
Rp796
tp797
a(S'data (star trek)'
p798
g2
(g6
S'G*+\x9c\xe1}\xdf?'
p799
tp800
Rp801
tp802
a(S'enterprise information integration'
p803
g2
(g6
S'\x86\x98\x8dK\xdb|\xdf?'
p804
tp805
Rp806
tp807
a(S'the mining journal (trade magazine)'
p808
g2
(g6
S'!l\x86\xa0\xcf{\xdf?'
p809
tp810
Rp811
tp812
a(S'open data in the united kingdom'
p813
g2
(g6
S'mG7"ow\xdf?'
p814
tp815
Rp816
tp817
a(S'disparate system'
p818
g2
(g6
S'}\xb7\x82\x13\np\xdf?'
p819
tp820
Rp821
tp822
a(S'the cancer imaging archive (tcia)'
p823
g2
(g6
S'\xe5g\xa6U\xc8m\xdf?'
p824
tp825
Rp826
tp827
a(S'data visualization'
p828
g2
(g6
S'#\xa4:#\xdeE\xdf?'
p829
tp830
Rp831
tp832
a(S'clinical data management system'
p833
g2
(g6
S'\x04\xfdm\x15\xddA\xdf?'
p834
tp835
Rp836
tp837
a(S'dataone'
p838
g2
(g6
S'\x93T\x90\x83\xdd9\xdf?'
p839
tp840
Rp841
tp842
a(S'general data protection regulation'
p843
g2
(g6
S'\x96\x8e\x99\xf7\x16)\xdf?'
p844
tp845
Rp846
tp847
a(S'data scientists'
p848
g2
(g6
S'\xbei\xf3\xcc\x9c"\xdf?'
p849
tp850
Rp851
tp852
a(S'data protection (privacy) laws in russia'
p853
g2
(g6
S'\x0fdW,\x99"\xdf?'
p854
tp855
Rp856
tp857
a(S'mining (disambiguation)'
p858
g2
(g6
S'\xaf\x8d^*\x1d"\xdf?'
p859
tp860
Rp861
tp862
a(S'data warehouse architectures'
p863
g2
(g6
S'\xe9\xad+6^!\xdf?'
p864
tp865
Rp866
tp867
a(S'neural designer'
p868
g2
(g6
S'\xd6\x10\xf4Jq\x03\xdf?'
p869
tp870
Rp871
tp872
a(S'xmdf'
p873
g2
(g6
S'\xf4%C\x9ao\xec\xde?'
p874
tp875
Rp876
tp877
a(S'data mapping'
p878
g2
(g6
S'\xd3\xb5?E\x8e\xe4\xde?'
p879
tp880
Rp881
tp882
a(S'outline of mining'
p883
g2
(g6
S'y\x88\xba\x8e\x03\xdb\xde?'
p884
tp885
Rp886
tp887
a(S'ckan'
p888
g2
(g6
S'@\xda\x9c\xb7 \xd0\xde?'
p889
tp890
Rp891
tp892
a(S'over-the-counter data'
p893
g2
(g6
S'\xa6L\x02t<\xcf\xde?'
p894
tp895
Rp896
tp897
a(S'data anonymization'
p898
g2
(g6
S'\xbf\x88Rx\x98\xc5\xde?'
p899
tp900
Rp901
tp902
a(S'open data in france'
p903
g2
(g6
S'\x95i\xfe\xe3\xaf\xc3\xde?'
p904
tp905
Rp906
tp907
a(S'datanet'
p908
g2
(g6
S'\xde\x7f\xf2\xa3\xfc\xc0\xde?'
p909
tp910
Rp911
tp912
a(S'philip s. yu'
p913
g2
(g6
S'\xe1-\x91\xa5:\xb5\xde?'
p914
tp915
Rp916
tp917
a(S'data fusion'
p918
g2
(g6
S'0\x02d\xac\xec\xb4\xde?'
p919
tp920
Rp921
tp922
a(S'data activism'
p923
g2
(g6
S'&\xc6\xd3P\xb8\x97\xde?'
p924
tp925
Rp926
tp927
a(S'machine-generated data'
p928
g2
(g6
S',X \xa8\x9c\x93\xde?'
p929
tp930
Rp931
tp932
a(S'data-driven instruction'
p933
g2
(g6
S'\xc5$\xfdh\x8b\x93\xde?'
p934
tp935
Rp936
tp937
a(S'data portability'
p938
g2
(g6
S'\xbb\xcf_\xec\xe0\x8c\xde?'
p939
tp940
Rp941
tp942
a(S'architectural pattern'
p943
g2
(g6
S'\xd4M\x1b\x00)\x8b\xde?'
p944
tp945
Rp946
tp947
a(S'paxata'
p948
g2
(g6
S'\xae\x10\xc9\x93C\x8a\xde?'
p949
tp950
Rp951
tp952
a(S'national oceanographic data center'
p953
g2
(g6
S'1\xf8\xc5\xc8r\x82\xde?'
p954
tp955
Rp956
tp957
a(S'european data protection supervisor'
p958
g2
(g6
S'\xe4\x80T.\xa3~\xde?'
p959
tp960
Rp961
tp962
a(S'robert lee grossman'
p963
g2
(g6
S'L{\xe5\xfd\xf0v\xde?'
p964
tp965
Rp966
tp967
a(S'pandas (software)'
p968
g2
(g6
S'\n\xde\x07P\xf7g\xde?'
p969
tp970
Rp971
tp972
a(S'data definition specification'
p973
g2
(g6
S'\xcf_\x17\xa3\x16]\xde?'
p974
tp975
Rp976
tp977
a(S'data processing (disambiguation)'
p978
g2
(g6
S'$\x16\xa5\xb4\xb9D\xde?'
p979
tp980
Rp981
tp982
a(S'list of financial data feeds'
p983
g2
(g6
S'w\xe7\x95\x05_@\xde?'
p984
tp985
Rp986
tp987
a(S'xdmf'
p988
g2
(g6
S'\x94\xe7\xc593=\xde?'
p989
tp990
Rp991
tp992
a(S'data masking'
p993
g2
(g6
S'\xeaOw\xfa!6\xde?'
p994
tp995
Rp996
tp997
a(S'open data in the united states'
p998
g2
(g6
S'\xbf\xe8\x08S?+\xde?'
p999
tp1000
Rp1001
tp1002
a(S'opendatasoft'
p1003
g2
(g6
S"\xe2b]m\xd5'\xde?"
p1004
tp1005
Rp1006
tp1007
a(S'data-centric programming language'
p1008
g2
(g6
S"1\xfd\xf0\xcc\x1e'\xde?"
p1009
tp1010
Rp1011
tp1012
a(S'registry of research data repositories'
p1013
g2
(g6
S'\xd1c\x0e\xd85!\xde?'
p1014
tp1015
Rp1016
tp1017
a(S'government polytechnic bhaga'
p1018
g2
(g6
S'}\x02\x95\xd9\xd5 \xde?'
p1019
tp1020
Rp1021
tp1022
a(S'surrogate data'
p1023
g2
(g6
S'\x15N\x1e\xb00\x1f\xde?'
p1024
tp1025
Rp1026
tp1027
a(S'omg standard'
p1028
g2
(g6
S'\x8b\x0e\x88\x1d\xd2\x1e\xde?'
p1029
tp1030
Rp1031
tp1032
a(S'standard data model'
p1033
g2
(g6
S'@\xdd\xa1\xd6\xfe\x08\xde?'
p1034
tp1035
Rp1036
tp1037
a(S'netcdf'
p1038
g2
(g6
S' @\x01\xaf\xe0\xfa\xdd?'
p1039
tp1040
Rp1041
tp1042
a(S'talend open studio for data integration'
p1043
g2
(g6
S'LR\x08e\xa1\xf6\xdd?'
p1044
tp1045
Rp1046
tp1047
a(S'list of big data companies'
p1048
g2
(g6
S'\x00\x86\xd1K\xd4\xf5\xdd?'
p1049
tp1050
Rp1051
tp1052
a(S'exploratory data analysis'
p1053
g2
(g6
S';7\xb9\xec\xc3\xed\xdd?'
p1054
tp1055
Rp1056
tp1057
a(S'national database for autism research'
p1058
g2
(g6
S'g8\xafsi\xe8\xdd?'
p1059
tp1060
Rp1061
tp1062
a(S'data transformation'
p1063
g2
(g6
S'\x1a\x8a\x9e\x81\xc0\xdf\xdd?'
p1064
tp1065
Rp1066
tp1067
a(S'xomgl'
p1068
g2
(g6
S'`c\xc0\xbd\x92\xdb\xdd?'
p1069
tp1070
Rp1071
tp1072
a(S'personal, inc.'
p1073
g2
(g6
S'E\xf0\x7f\xebD\xd8\xdd?'
p1074
tp1075
Rp1076
tp1077
a(S'data logger'
p1078
g2
(g6
S'\x03)\xd9I\x9a\xd6\xdd?'
p1079
tp1080
Rp1081
tp1082
a(S'data migration'
p1083
g2
(g6
S"=\xd8'J\x9e\xd0\xdd?"
p1084
tp1085
Rp1086
tp1087
a(S'statsoft'
p1088
g2
(g6
S'\xc6\xc7a\xf0v\xcf\xdd?'
p1089
tp1090
Rp1091
tp1092
a(S'open data now'
p1093
g2
(g6
S'u/>\xfe(\xcc\xdd?'
p1094
tp1095
Rp1096
tp1097
a(S'economic data'
p1098
g2
(g6
S'D\xdf\xaa)\xad\xc6\xdd?'
p1099
tp1100
Rp1101
tp1102
a(S'common education data standards'
p1103
g2
(g6
S'\xab5o%\x9e\xb8\xdd?'
p1104
tp1105
Rp1106
tp1107
a(S'data island'
p1108
g2
(g6
S'o\xea*\xb4\xf7\xb7\xdd?'
p1109
tp1110
Rp1111
tp1112
a(S'data system'
p1113
g2
(g6
S'\tO\x04\x1f\xd8\xab\xdd?'
p1114
tp1115
Rp1116
tp1117
a(S'romonet'
p1118
g2
(g6
S'\x05}\xce\x97N\xab\xdd?'
p1119
tp1120
Rp1121
tp1122
a(S'data desk'
p1123
g2
(g6
S':I\xd8\x08\xa1\xa1\xdd?'
p1124
tp1125
Rp1126
tp1127
a(S'geoff webb'
p1128
g2
(g6
S'\x0e\xbbS\xc2\xb9\x97\xdd?'
p1129
tp1130
Rp1131
tp1132
a(S'mining act'
p1133
g2
(g6
S'\x02\x83\xc6\xdf\xc6\x8c\xdd?'
p1134
tp1135
Rp1136
tp1137
a(S'data verification'
p1138
g2
(g6
S'\x13\xcb\x10\x06\xd7\x8a\xdd?'
p1139
tp1140
Rp1141
tp1142
a(S'global temperature-salinity profile program'
p1143
g2
(g6
S'\x9at\x99\x8f\x11g\xdd?'
p1144
tp1145
Rp1146
tp1147
a(S'data protection commissioner'
p1148
g2
(g6
S'\xdf\xadg\xc1+_\xdd?'
p1149
tp1150
Rp1151
tp1152
a(S'aimstor'
p1153
g2
(g6
S'6\x9e\x0f\x9e\xe6^\xdd?'
p1154
tp1155
Rp1156
tp1157
a(S'pseudonymization'
p1158
g2
(g6
S'x\xafM\xd1B^\xdd?'
p1159
tp1160
Rp1161
tp1162
a(S'thematic analysis'
p1163
g2
(g6
S'hd\x11\x8cdZ\xdd?'
p1164
tp1165
Rp1166
tp1167
a(S'overwriting (computer science)'
p1168
g2
(g6
S'\xfe\xe5yf`Z\xdd?'
p1169
tp1170
Rp1171
tp1172
a(S'mining institute'
p1173
g2
(g6
S'\xa1\x16\x07\xdc\x87S\xdd?'
p1174
tp1175
Rp1176
tp1177
a(S'uncomfortable science'
p1178
g2
(g6
S'\xa2\xdb\x97j\x02R\xdd?'
p1179
tp1180
Rp1181
tp1182
a(S'data east'
p1183
g2
(g6
S'\xceY\xfec.K\xdd?'
p1184
tp1185
Rp1186
tp1187
a(S'data collection system'
p1188
g2
(g6
S'\xb3o2\x02TH\xdd?'
p1189
tp1190
Rp1191
tp1192
a(S'real-time data'
p1193
g2
(g6
S'X\x96Q\x95\xd0F\xdd?'
p1194
tp1195
Rp1196
tp1197
a(S'statistica'
p1198
g2
(g6
S'Z\xb8 \xf8\x7fD\xdd?'
p1199
tp1200
Rp1201
tp1202
a(S'mining'
p1203
g2
(g6
S'\xf4\xfb\xac\x1b\x1e=\xdd?'
p1204
tp1205
Rp1206
tp1207
a(S'de-anonymization'
p1208
g2
(g6
S'\xe5\xd0\xae\xa2? \xdd?'
p1209
tp1210
Rp1211
tp1212
a(S'unnormalized form'
p1213
g2
(g6
S'\x14j-\xb1=\x19\xdd?'
p1214
tp1215
Rp1216
tp1217
a(S'sqlstream'
p1218
g2
(g6
S'-\x01$\xdd \x0b\xdd?'
p1219
tp1220
Rp1221
tp1222
a(S'linked data'
p1223
g2
(g6
S'8<\xbe\xf98\xfa\xdc?'
p1224
tp1225
Rp1226
tp1227
a(S'metpetdb'
p1228
g2
(g6
S'\neC\xbdA\xf7\xdc?'
p1229
tp1230
Rp1231
tp1232
a(S'data remanence'
p1233
g2
(g6
S'p\xa7\xae,\xb8\xf5\xdc?'
p1234
tp1235
Rp1236
tp1237
a(S'integrative bioinformatics'
p1238
g2
(g6
S'\x08&\xeb\xcb\xc9\xf2\xdc?'
p1239
tp1240
Rp1241
tp1242
a(S'system of record'
p1243
g2
(g6
S'\xbe\x02\xf087\xf2\xdc?'
p1244
tp1245
Rp1246
tp1247
a(S'data flow diagram'
p1248
g2
(g6
S'i?\xe5\xa1\x8f\xf0\xdc?'
p1249
tp1250
Rp1251
tp1252
a(S'dortmund data bank'
p1253
g2
(g6
S'\x95\x86\x0f[\x1a\xee\xdc?'
p1254
tp1255
Rp1256
tp1257
a(S'dataverse'
p1258
g2
(g6
S'\x9b8\xdd\x80%\xeb\xdc?'
p1259
tp1260
Rp1261
tp1262
a(S'dataveillance'
p1263
g2
(g6
S'\x0f\x058\xd9g\xe2\xdc?'
p1264
tp1265
Rp1266
tp1267
a(S'sunopsis'
p1268
g2
(g6
S'\x83\xf1\x16\xa6\x96\xce\xdc?'
p1269
tp1270
Rp1271
tp1272
a(S'infobright'
p1273
g2
(g6
S'>\xbd,W\xd7\xc6\xdc?'
p1274
tp1275
Rp1276
tp1277
a(S'indian space science data centre'
p1278
g2
(g6
S'Jw\xd9H\xc1\xc4\xdc?'
p1279
tp1280
Rp1281
tp1282
a(S'data sharing for demographic research'
p1283
g2
(g6
S'\x8d\xf7\xf6\xd2\x9a\xbc\xdc?'
p1284
tp1285
Rp1286
tp1287
a(S'materials data management'
p1288
g2
(g6
S'\xcd\x87#\x1d\xac\xb7\xdc?'
p1289
tp1290
Rp1291
tp1292
a(S'data corruption'
p1293
g2
(g6
S'{\xa4\xdf\xa1\n\x95\xdc?'
p1294
tp1295
Rp1296
tp1297
a(S'resource measurement facility'
p1298
g2
(g6
S'\xbd\xb3\xc4\x8cS\x93\xdc?'
p1299
tp1300
Rp1301
tp1302
a(S'arcmap'
p1303
g2
(g6
S'Z\x0b\xa2(\xe9\x89\xdc?'
p1304
tp1305
Rp1306
tp1307
a(S'green house data'
p1308
g2
(g6
S'\x88\x15g\x1db\x88\xdc?'
p1309
tp1310
Rp1311
tp1312
a(S'talend open studio for data quality'
p1313
g2
(g6
S'\x8a\x1d \x82<\x85\xdc?'
p1314
tp1315
Rp1316
tp1317
a(S'the most toys'
p1318
g2
(g6
S'^$\x1b\xda\xd0\x82\xdc?'
p1319
tp1320
Rp1321
tp1322
a(S'prosoft engineering'
p1323
g2
(g6
S'$\xc7=\xd2`\x82\xdc?'
p1324
tp1325
Rp1326
tp1327
a(S'ncsa brown dog'
p1328
g2
(g6
S'L\xd8\x14\xd8m}\xdc?'
p1329
tp1330
Rp1331
tp1332
a(S'business intelligence software'
p1333
g2
(g6
S'\xd3B)&\xd9v\xdc?'
p1334
tp1335
Rp1336
tp1337
a(S'information oriented software development'
p1338
g2
(g6
S'\xefB<\xd4\x95u\xdc?'
p1339
tp1340
Rp1341
tp1342
a(S'data bank'
p1343
g2
(g6
S'\xdb\x81\x98"_s\xdc?'
p1344
tp1345
Rp1346
tp1347
a(S'master of science in business analytics'
p1348
g2
(g6
S'Dc\x8aI\xb6q\xdc?'
p1349
tp1350
Rp1351
tp1352
a(S'national data protection authority'
p1353
g2
(g6
S'\xaf2\xcf\xf9.l\xdc?'
p1354
tp1355
Rp1356
tp1357
a(S'rapidminer'
p1358
g2
(g6
S',?\xde<kj\xdc?'
p1359
tp1360
Rp1361
tp1362
a(S'data dissemination'
p1363
g2
(g6
S'\x0f\x9f\x07\xb1\x0bg\xdc?'
p1364
tp1365
Rp1366
tp1367
a(S'medical data breach'
p1368
g2
(g6
S'"\xe9\x83\x17\xddf\xdc?'
p1369
tp1370
Rp1371
tp1372
a(S'saxon mining office'
p1373
g2
(g6
S'\xeb\xcc\x8c\xc3ad\xdc?'
p1374
tp1375
Rp1376
tp1377
a(S'the govlab'
p1378
g2
(g6
S'Z\xe8\x01\xfa\xedU\xdc?'
p1379
tp1380
Rp1381
tp1382
a(S'iso 8000'
p1383
g2
(g6
S'QO\xca~)L\xdc?'
p1384
tp1385
Rp1386
tp1387
a(S'telecommunications data retention'
p1388
g2
(g6
S'm \x10\x106G\xdc?'
p1389
tp1390
Rp1391
tp1392
a(S'professional petroleum data management association'
p1393
g2
(g6
S'fA\xde\xe7w@\xdc?'
p1394
tp1395
Rp1396
tp1397
a(S'public data group'
p1398
g2
(g6
S'@u\xf2\xf3\x00=\xdc?'
p1399
tp1400
Rp1401
tp1402
a(S'mining law'
p1403
g2
(g6
S'v\x19\xd7@G-\xdc?'
p1404
tp1405
Rp1406
tp1407
a(S'xaware'
p1408
g2
(g6
S"w\xa2\x90'\xf5)\xdc?"
p1409
tp1410
Rp1411
tp1412
a(S'data scraping'
p1413
g2
(g6
S"\xb8\xc5\xbf\x82i'\xdc?"
p1414
tp1415
Rp1416
tp1417
a(S'oak ridge national laboratory daac'
p1418
g2
(g6
S"#\x1e'\xbf\xb8%\xdc?"
p1419
tp1420
Rp1421
tp1422
a(S'dataiku'
p1423
g2
(g6
S'\xd0\x81\xa0\n\xc3"\xdc?'
p1424
tp1425
Rp1426
tp1427
a(S'oreda'
p1428
g2
(g6
S'\xcf\xff\x18\x00\x9a\x1f\xdc?'
p1429
tp1430
Rp1431
tp1432
a(S'tidy data'
p1433
g2
(g6
S'\xb3t\xc3\nO\x0c\xdc?'
p1434
tp1435
Rp1436
tp1437
a(S'clinical data acquisition'
p1438
g2
(g6
S'\x8f\x03\xe3\xdb\x13\n\xdc?'
p1439
tp1440
Rp1441
tp1442
a(S'data degradation'
p1443
g2
(g6
S'\xbakX\x05+\x01\xdc?'
p1444
tp1445
Rp1446
tp1447
a(S'reference data (financial markets)'
p1448
g2
(g6
S'\x8bc`\xb0\xe7\xf8\xdb?'
p1449
tp1450
Rp1451
tp1452
a(S'switch and data'
p1453
g2
(g6
S'\xc6Q\xff\xd0l\xf3\xdb?'
p1454
tp1455
Rp1456
tp1457
a(S'data dictionary'
p1458
g2
(g6
S'd6\x1aWt\xef\xdb?'
p1459
tp1460
Rp1461
tp1462
a(S'grib'
p1463
g2
(g6
S'\xbf\\\xcd\xe2V\xdf\xdb?'
p1464
tp1465
Rp1466
tp1467
a(S'agentless data collection'
p1468
g2
(g6
S'*\xf7\xcc\xd9l\xde\xdb?'
p1469
tp1470
Rp1471
tp1472
a(S'british oceanographic data centre'
p1473
g2
(g6
S's\xcdK+\x88\xd6\xdb?'
p1474
tp1475
Rp1476
tp1477
a(S'national centers for environmental information'
p1478
g2
(g6
S'\xdc`z\x03\x85\xcf\xdb?'
p1479
tp1480
Rp1481
tp1482
a(S'patent visualisation'
p1483
g2
(g6
S'\xc7\x1dni\x8b\xce\xdb?'
p1484
tp1485
Rp1486
tp1487
a(S'moscow state mining university'
p1488
g2
(g6
S'\xbc\xb8\xbd!\xa0\xcd\xdb?'
p1489
tp1490
Rp1491
tp1492
a(S'data integrity'
p1493
g2
(g6
S'\xa5\xbc\xfc\xaap\xc7\xdb?'
p1494
tp1495
Rp1496
tp1497
a(S'netminer'
p1498
g2
(g6
S'\x17?\xc9\xd0\xf5\xc6\xdb?'
p1499
tp1500
Rp1501
tp1502
a(S'contract data requirements list'
p1503
g2
(g6
S'7\x08\x12\xad\x1a\xc6\xdb?'
p1504
tp1505
Rp1506
tp1507
a(S'pennsylvania spatial data access'
p1508
g2
(g6
S'\xf7\xbc\x1b\xbb\r\xc2\xdb?'
p1509
tp1510
Rp1511
tp1512
a.