(lp0
(S'data'
p1
cnumpy.core.multiarray
scalar
p2
(cnumpy
dtype
p3
(S'f8'
p4
I0
I1
tp5
Rp6
(I3
S'<'
p7
NNNI-1
I-1
I0
tp8
bS'\xfe\xff\xff\xff\xff\xff\xef?'
p9
tp10
Rp11
tp12
a(S'metropolitan areas in poland'
p13
g2
(g6
S'\x15\x8a\x1d\xa37\xea\xeb?'
p14
tp15
Rp16
tp17
a(S'atomic radii of the elements (data page)'
p18
g2
(g6
S'\xf8\xd7\x01\x0c\xa7h\xeb?'
p19
tp20
Rp21
tp22
a(S'list of elements by atomic properties'
p23
g2
(g6
S'An\xddg1N\xeb?'
p24
tp25
Rp26
tp27
a(S'list of woking f.c. seasons'
p28
g2
(g6
S'<\xa9-\x06pr\xe9?'
p29
tp30
Rp31
tp32
a(S'data management plan'
p33
g2
(g6
S'\x06%\xa3\xd7\xc8p\xe9?'
p34
tp35
Rp36
tp37
a(S'big data'
p38
g2
(g6
S'\xee\xbf?e.\x1c\xe9?'
p39
tp40
Rp41
tp42
a(S'data (computing)'
p43
g2
(g6
S'l\x0bB7\xdc\x06\xe9?'
p44
tp45
Rp46
tp47
a(S'small data'
p48
g2
(g6
S'\xaa\xb0\xa7\x00\x9c\xa4\xe8?'
p49
tp50
Rp51
tp52
a(S'data set'
p53
g2
(g6
S'\xa6\x86\xd8\x94\xa6\x97\xe8?'
p54
tp55
Rp56
tp57
a(S'data publishing'
p58
g2
(g6
S'{\xc4\x85x\xa5\x91\xe8?'
p59
tp60
Rp61
tp62
a(S'data field'
p63
g2
(g6
S'\x96\xea\x0b-\xa8\x8e\xe8?'
p64
tp65
Rp66
tp67
a(S'administration data'
p68
g2
(g6
S'\x9a\x91\xdf\x1a\xb4#\xe8?'
p69
tp70
Rp71
tp72
a(S'5 ways of conceptualizing data'
p73
g2
(g6
S'\xaej\x05\xe1\xb4\x17\xe8?'
p74
tp75
Rp76
tp77
a(S'data at rest'
p78
g2
(g6
S"\xf0!\xf8'b\t\xe8?"
p79
tp80
Rp81
tp82
a(S'open data'
p83
g2
(g6
S'\xb6<\xc2\xa0\x11\x07\xe8?'
p84
tp85
Rp86
tp87
a(S'data wrangling'
p88
g2
(g6
S'7^\x97\xbe\xf9\xfb\xe7?'
p89
tp90
Rp91
tp92
a(S'data management'
p93
g2
(g6
S'o\xa1\x15&A\xd6\xe7?'
p94
tp95
Rp96
tp97
a(S'data quality'
p98
g2
(g6
S'\x01\xd1\x84\xfe\xb9\xc0\xe7?'
p99
tp100
Rp101
tp102
a(S'raw data'
p103
g2
(g6
S'\x06\xa4\xe6\xc1x\xb2\xe7?'
p104
tp105
Rp106
tp107
a(S'data architecture'
p108
g2
(g6
S'\xd6\xc5d\x08\r\x90\xe7?'
p109
tp110
Rp111
tp112
a(S'data.gov.uk'
p113
g2
(g6
S'\x94\xec^V\xb2}\xe7?'
p114
tp115
Rp116
tp117
a(S'data science'
p118
g2
(g6
S'\x0bBy\x7f\x95q\xe7?'
p119
tp120
Rp121
tp122
a(S'data warehouse'
p123
g2
(g6
S'\xa4`E\xec\rl\xe7?'
p124
tp125
Rp126
tp127
a(S'nerc data centres'
p128
g2
(g6
S'\x89\x9c\x0e\xe2\xd2k\xe7?'
p129
tp130
Rp131
tp132
a(S'data library'
p133
g2
(g6
S'T\x93\xce\xca\xaeW\xe7?'
p134
tp135
Rp136
tp137
a(S'data custodian'
p138
g2
(g6
S'\xe1\xbeW\xeb,I\xe7?'
p139
tp140
Rp141
tp142
a(S'uk data archive'
p143
g2
(g6
S'\xb9\xa4RL\x8f:\xe7?'
p144
tp145
Rp146
tp147
a(S'uk data service'
p148
g2
(g6
S'\xe7^n\x02\x0b6\xe7?'
p149
tp150
Rp151
tp152
a(S'technical data management system'
p153
g2
(g6
S'\xda\xeau|r5\xe7?'
p154
tp155
Rp156
tp157
a(S'data protection act, 2012'
p158
g2
(g6
S'"x\xe8\t\x19!\xe7?'
p159
tp160
Rp161
tp162
a(S'extract, transform, load'
p163
g2
(g6
S'f!\xd3\xdb~\xf5\xe6?'
p164
tp165
Rp166
tp167
a(S'master data management'
p168
g2
(g6
S'\x92\x0b\xc9\xa0l\xe0\xe6?'
p169
tp170
Rp171
tp172
a(S'industrial big data'
p173
g2
(g6
S'\xca\x0e,\xa9\xa7\xcd\xe6?'
p174
tp175
Rp176
tp177
a(S'multiway data analysis'
p178
g2
(g6
S'\x8f^\x9c\x82\xf2\xc8\xe6?'
p179
tp180
Rp181
tp182
a(S'research data archiving'
p183
g2
(g6
S'-\x04 \xe5\x8a\xb7\xe6?'
p184
tp185
Rp186
tp187
a(S'data lake'
p188
g2
(g6
S'\xeaE\x81t\t\xad\xe6?'
p189
tp190
Rp191
tp192
a(S'icsu world data system'
p193
g2
(g6
S'\xa1\xb0\\A\xec\x8f\xe6?'
p194
tp195
Rp196
tp197
a(S'national geophysical data center'
p198
g2
(g6
S'\xa3\x91\x18@\xffs\xe6?'
p199
tp200
Rp201
tp202
a(S'data cleansing'
p203
g2
(g6
S'\x92\xcf\x9e\xf7Pe\xe6?'
p204
tp205
Rp206
tp207
a(S'data-driven journalism'
p208
g2
(g6
S'-\xde\xdc7\x1ca\xe6?'
p209
tp210
Rp211
tp212
a(S'data administration'
p213
g2
(g6
S'}\xe88\x00\xae^\xe6?'
p214
tp215
Rp216
tp217
a(S'economics of open data'
p218
g2
(g6
S'!\xb19Y\x99S\xe6?'
p219
tp220
Rp221
tp222
a(S'data (moth)'
p223
g2
(g6
S'p\xfb\xbc\xd1\x05Q\xe6?'
p224
tp225
Rp226
tp227
a(S'data model'
p228
g2
(g6
S'|\xa7O\x805F\xe6?'
p229
tp230
Rp231
tp232
a(S'data architect'
p233
g2
(g6
S">\x81\xc7#R'\xe6?"
p234
tp235
Rp236
tp237
a(S'open science data'
p238
g2
(g6
S'V\x00\x89i\x95\x1c\xe6?'
p239
tp240
Rp241
tp242
a(S'data literacy'
p243
g2
(g6
S'\xa8\xe0C\xb5\xe0\x12\xe6?'
p244
tp245
Rp246
tp247
a(S'dark data'
p248
g2
(g6
S'\x06D\xe0-\xf6\x05\xe6?'
p249
tp250
Rp251
tp252
a(S'list of metropolitan areas in europe'
p253
g2
(g6
S'\x1dBq\xde\xe5\xeb\xe5?'
p254
tp255
Rp256
tp257
a(S'data as a service'
p258
g2
(g6
S'N\n_\x8f}\xd7\xe5?'
p259
tp260
Rp261
tp262
a(S'data sharing'
p263
g2
(g6
S'\xd7\xf6\x1d\xa5\xe4\xd6\xe5?'
p264
tp265
Rp266
tp267
a(S'data steward'
p268
g2
(g6
S'\x96\xddX\xd5\xb1\xd4\xe5?'
p269
tp270
Rp271
tp272
a(S'master data'
p273
g2
(g6
S'\x18QW\x80\xe4\xcb\xe5?'
p274
tp275
Rp276
tp277
a(S'european data portal'
p278
g2
(g6
S'a\xc7$\xa4>\xbe\xe5?'
p279
tp280
Rp281
tp282
a(S'data monetization'
p283
g2
(g6
S'\xb6K\x10\x95\x88\xb4\xe5?'
p284
tp285
Rp286
tp287
a(S'data analysis'
p288
g2
(g6
S'\x96\xc5\xebbs\xa2\xe5?'
p289
tp290
Rp291
tp292
a(S'holistic data management'
p293
g2
(g6
S'g\xc9\xc0\xf1\xb1\x9e\xe5?'
p294
tp295
Rp296
tp297
a(S'source data'
p298
g2
(g6
S'pZq\x9a\xc7\x97\xe5?'
p299
tp300
Rp301
tp302
a(S'critical data studies'
p303
g2
(g6
S'H\x0b\tC\xb3\x97\xe5?'
p304
tp305
Rp306
tp307
a(S'data pre-processing'
p308
g2
(g6
S'\x93\xe0\x17J\xed\x83\xe5?'
p309
tp310
Rp311
tp312
a(S'secondary data'
p313
g2
(g6
S'Sz&\x8fiu\xe5?'
p314
tp315
Rp316
tp317
a(S'data mining'
p318
g2
(g6
S'B\n\x0c\xba\xdbo\xe5?'
p319
tp320
Rp321
tp322
a(S'data mart'
p323
g2
(g6
S'\xb8\xa5[3\xf3W\xe5?'
p324
tp325
Rp326
tp327
a(S'data (disambiguation)'
p328
g2
(g6
S')G\xbb\xd0\xc4S\xe5?'
p329
tp330
Rp331
tp332
a(S'transducerml'
p333
g2
(g6
S'A=5.\x0bH\xe5?'
p334
tp335
Rp336
tp337
a(S'data hub'
p338
g2
(g6
S'\xc5\xf1\x99\x1dzF\xe5?'
p339
tp340
Rp341
tp342
a(S'clinical data management'
p343
g2
(g6
S'o\\\x1a\xbd?4\xe5?'
p344
tp345
Rp346
tp347
a(S'data governance'
p348
g2
(g6
S'\xb8\xa5Q\x85\xbb)\xe5?'
p349
tp350
Rp351
tp352
a(S'data philanthropy'
p353
g2
(g6
S'\xb7\xf9[\xfe\xf9\x1e\xe5?'
p354
tp355
Rp356
tp357
a(S'data modeling'
p358
g2
(g6
S'\x05\xe4\xbd\xc4\xe7\x1b\xe5?'
p359
tp360
Rp361
tp362
a(S'data forwarder'
p363
g2
(g6
S'\x96\xda\xdb\xc5\xef\xf0\xe4?'
p364
tp365
Rp366
tp367
a(S'financial data vendor'
p368
g2
(g6
S'F\xfd:4\x11\xd7\xe4?'
p369
tp370
Rp371
tp372
a(S'data virtualization'
p373
g2
(g6
S'"O\x87\'v\xd5\xe4?'
p374
tp375
Rp376
tp377
a(S'data protection act 1998'
p378
g2
(g6
S'B\xdae$\x0e\xc0\xe4?'
p379
tp380
Rp381
tp382
a(S'first data'
p383
g2
(g6
S'\x06\xac\xf0\x1fa\xb9\xe4?'
p384
tp385
Rp386
tp387
a(S'data profiling'
p388
g2
(g6
S'?~P\x0bM\xb4\xe4?'
p389
tp390
Rp391
tp392
a(S'data protection directive'
p393
g2
(g6
S'\xfd\xd5%$\x9c\xa2\xe4?'
p394
tp395
Rp396
tp397
a(S'data curation'
p398
g2
(g6
S'\xc3\x07\xf6\xb6\x84\xa1\xe4?'
p399
tp400
Rp401
tp402
a(S'data structure'
p403
g2
(g6
S'I\xfb\xdf\xcc\n\x99\xe4?'
p404
tp405
Rp406
tp407
a(S'bundesdatenschutzgesetz'
p408
g2
(g6
S'\x13icC\x01\x91\xe4?'
p409
tp410
Rp411
tp412
a(S'data quality campaign'
p413
g2
(g6
S'X\xaa?\xe3M\x86\xe4?'
p414
tp415
Rp416
tp417
a(S'data in transit'
p418
g2
(g6
S'\x04\x9ai\xae\xcdz\xe4?'
p419
tp420
Rp421
tp422
a(S'data loss'
p423
g2
(g6
S'p\x84q\n\x80n\xe4?'
p424
tp425
Rp426
tp427
a(S'crowdsensing'
p428
g2
(g6
S'k\xefC]\xb4k\xe4?'
p429
tp430
Rp431
tp432
a(S'data element'
p433
g2
(g6
S'q0\x83n\x82c\xe4?'
p434
tp435
Rp436
tp437
a(S'reference data'
p438
g2
(g6
S'\x95\xa5\xd0\xb6\xb5_\xe4?'
p439
tp440
Rp441
tp442
a(S'data-centric security'
p443
g2
(g6
S'\t\xc1a\x0f)[\xe4?'
p444
tp445
Rp446
tp447
a(S'data classification (data management)'
p448
g2
(g6
S'B\xcd\x01q\x0cJ\xe4?'
p449
tp450
Rp451
tp452
a(S'data redundancy'
p453
g2
(g6
S'\xcaQ\xdc\xf3\xdb7\xe4?'
p454
tp455
Rp456
tp457
a(S'data-informed decision-making'
p458
g2
(g6
S'#o\xa3\xa8w1\xe4?'
p459
tp460
Rp461
tp462
a(S'social data revolution'
p463
g2
(g6
S'\xa6mFf\x82)\xe4?'
p464
tp465
Rp466
tp467
a(S'examples of data mining'
p468
g2
(g6
S"\xe9c%d0'\xe4?"
p469
tp470
Rp471
tp472
a(S'out-of-band data'
p473
g2
(g6
S'\xe0k\xc2\x89\x02\x1b\xe4?'
p474
tp475
Rp476
tp477
a(S'data deduplication'
p478
g2
(g6
S'UI\xbd\xbc\xde\x14\xe4?'
p479
tp480
Rp481
tp482
a(S'structure mining'
p483
g2
(g6
S'\xef\x9b+//\x08\xe4?'
p484
tp485
Rp486
tp487
a(S'open data indicies'
p488
g2
(g6
S'\x93\x99_k\xe0\x05\xe4?'
p489
tp490
Rp491
tp492
a(S'data based decision making'
p493
g2
(g6
S']\xb4\x00\xdcg\x00\xe4?'
p494
tp495
Rp496
tp497
a(S'esdat'
p498
g2
(g6
S'A\xbe\xb8\x9d%\xea\xe3?'
p499
tp500
Rp501
tp502
a(S'aggregate data'
p503
g2
(g6
S'\x1fw\x8d\x03\xe1\xe7\xe3?'
p504
tp505
Rp506
tp507
a(S'data janitor'
p508
g2
(g6
S'n\xf4H<\xb5\xe7\xe3?'
p509
tp510
Rp511
tp512
a(S'data loss prevention software'
p513
g2
(g6
S'\xd7!f"\xc5\xe4\xe3?'
p514
tp515
Rp516
tp517
a(S'market data'
p518
g2
(g6
S'\xf0\xbbu\xd5\xa1\xda\xe3?'
p519
tp520
Rp521
tp522
a(S'quartile'
p523
g2
(g6
S'\xf4\x0f4CD\xb5\xe3?'
p524
tp525
Rp526
tp527
a(S'data processing'
p528
g2
(g6
S'\xba<\xa2t"\xa8\xe3?'
p529
tp530
Rp531
tp532
a(S'dataspaces'
p533
g2
(g6
S'\xa3\x00F\xd3\xdb\xa2\xe3?'
p534
tp535
Rp536
tp537
a(S'bs iso 20022-1'
p538
g2
(g6
S'A\x91W2\x9f\xa2\xe3?'
p539
tp540
Rp541
tp542
a(S'dirty data'
p543
g2
(g6
S';av\x86w\x8b\xe3?'
p544
tp545
Rp546
tp547
a(S'data center'
p548
g2
(g6
S'8CW\xeb\x02\x8a\xe3?'
p549
tp550
Rp551
tp552
a(S'data definition specification'
p553
g2
(g6
S'>\x9d\x13]^\x89\xe3?'
p554
tp555
Rp556
tp557
a(S'data extraction'
p558
g2
(g6
S'y%\xa4\xd9A\x87\xe3?'
p559
tp560
Rp561
tp562
a(S'eosdis'
p563
g2
(g6
S'b\xc0\xa9b\xcd\x7f\xe3?'
p564
tp565
Rp566
tp567
a(S'data pack'
p568
g2
(g6
S'\xbe\tMSU|\xe3?'
p569
tp570
Rp571
tp572
a(S'data processing system'
p573
g2
(g6
S'2\x9f\x0f~,x\xe3?'
p574
tp575
Rp576
tp577
a(S'xdmf'
p578
g2
(g6
S'\x154\xf1\xc1\x08s\xe3?'
p579
tp580
Rp581
tp582
a(S'data warehouse architectures'
p583
g2
(g6
S'\xbf\xf6\xe9\x85:m\xe3?'
p584
tp585
Rp586
tp587
a(S'data (star trek)'
p588
g2
(g6
S' \x1d\x1f\x89Ie\xe3?'
p589
tp590
Rp591
tp592
a(S'data residency'
p593
g2
(g6
S'\xf6{F\xda\xdd[\xe3?'
p594
tp595
Rp596
tp597
a(S'microsoft sql server master data services'
p598
g2
(g6
S'\xd0S\xdf\xe2\x8cI\xe3?'
p599
tp600
Rp601
tp602
a(S'disparate system'
p603
g2
(g6
S'\xf4\x83\xd3q\xceH\xe3?'
p604
tp605
Rp606
tp607
a(S'social data analysis'
p608
g2
(g6
S'\xe1H\x1at\xbdE\xe3?'
p609
tp610
Rp611
tp612
a(S'data visualization'
p613
g2
(g6
S'[\xdf\xab\xd6\xab;\xe3?'
p614
tp615
Rp616
tp617
a(S'multidimensional analysis'
p618
g2
(g6
S'Z>\xf8\x17\x918\xe3?'
p619
tp620
Rp621
tp622
a(S'bluetalon'
p623
g2
(g6
S'\x1d\xcc\n\xc1W8\xe3?'
p624
tp625
Rp626
tp627
a(S'data lineage'
p628
g2
(g6
S'\xb1\x0e\xb2 \xf53\xe3?'
p629
tp630
Rp631
tp632
a(S'synthetic data'
p633
g2
(g6
S'\xe8\x10B \xb4#\xe3?'
p634
tp635
Rp636
tp637
a(S'teradata'
p638
g2
(g6
S'_~\xd6\xe1,"\xe3?'
p639
tp640
Rp641
tp642
a(S'open data in canada'
p643
g2
(g6
S'k!\xf3\x0c\x92 \xe3?'
p644
tp645
Rp646
tp647
a(S'dataone'
p648
g2
(g6
S'f\xba\xfcJ4\x13\xe3?'
p649
tp650
Rp651
tp652
a(S'attunity'
p653
g2
(g6
S'0\xa38\xf6U\x08\xe3?'
p654
tp655
Rp656
tp657
a(S'data system'
p658
g2
(g6
S'|q rl\x05\xe3?'
p659
tp660
Rp661
tp662
a(S'data activism'
p663
g2
(g6
S'S\xcf\xdc\x89\xbe\xfb\xe2?'
p664
tp665
Rp666
tp667
a(S'data processing (disambiguation)'
p668
g2
(g6
S'\x8a\xecS\xa1\xd0\xf5\xe2?'
p669
tp670
Rp671
tp672
a(S'astroinformatics'
p673
g2
(g6
S'\xa0H\xe5uZ\xf4\xe2?'
p674
tp675
Rp676
tp677
a(S'national oceanographic data center'
p678
g2
(g6
S'\xef\xb1\\\xef\xf1\xf1\xe2?'
p679
tp680
Rp681
tp682
a(S'data protection (privacy) laws in russia'
p683
g2
(g6
S'\xebE_o\x9f\xf0\xe2?'
p684
tp685
Rp686
tp687
a(S'data-intensive computing'
p688
g2
(g6
S'\xf9D\xd4\r\xb1\xed\xe2?'
p689
tp690
Rp691
tp692
a(S'open data in the united kingdom'
p693
g2
(g6
S'\x0f\x90\x17\xc1\x99\xeb\xe2?'
p694
tp695
Rp696
tp697
a(S'the cancer imaging archive (tcia)'
p698
g2
(g6
S'PE\xfe\xcf\xfb\xea\xe2?'
p699
tp700
Rp701
tp702
a(S'clinical data management system'
p703
g2
(g6
S'\xa1-Rx(\xd9\xe2?'
p704
tp705
Rp706
tp707
a(S'usama fayyad'
p708
g2
(g6
S'\x00\xa6\xf9\xe6k\xc8\xe2?'
p709
tp710
Rp711
tp712
a(S'data fusion'
p713
g2
(g6
S'\xe7\x0c\xd6\xee\xe7\xc0\xe2?'
p714
tp715
Rp716
tp717
a(S'ckan'
p718
g2
(g6
S'\xcd\x955G,\xb8\xe2?'
p719
tp720
Rp721
tp722
a(S'open data in france'
p723
g2
(g6
S'\x05\xc6=\xcd\x81\xb5\xe2?'
p724
tp725
Rp726
tp727
a(S'data mapping'
p728
g2
(g6
S'\xa9+\x8fi9\xb4\xe2?'
p729
tp730
Rp731
tp732
a(S'open data in the united states'
p733
g2
(g6
S'\x9alV\xcd\xd2\xb0\xe2?'
p734
tp735
Rp736
tp737
a(S'data scientists'
p738
g2
(g6
S'\x11\xdb4W\x15\xa3\xe2?'
p739
tp740
Rp741
tp742
a(S'overwriting (computer science)'
p743
g2
(g6
S'r\xec\xad\xef\x9b\x9c\xe2?'
p744
tp745
Rp746
tp747
a(S'data logger'
p748
g2
(g6
S'\xa8\xdc!\x1f\xa1\x98\xe2?'
p749
tp750
Rp751
tp752
a(S'registry of research data repositories'
p753
g2
(g6
S'\x8d\xd9\x03p\x12\x8c\xe2?'
p754
tp755
Rp756
tp757
a(S'teradata warehouse miner'
p758
g2
(g6
S'g\xeb$]\xb9\x8a\xe2?'
p759
tp760
Rp761
tp762
a(S'surrogate data'
p763
g2
(g6
S'\x03\xf1N\xcbZ\x84\xe2?'
p764
tp765
Rp766
tp767
a(S'general data protection regulation'
p768
g2
(g6
S'\xd2`\xe2\xd8U\x82\xe2?'
p769
tp770
Rp771
tp772
a(S'talend open studio for data integration'
p773
g2
(g6
S'c5g\x8d)w\xe2?'
p774
tp775
Rp776
tp777
a(S'data island'
p778
g2
(g6
S'\xa8\x02\x94\xb9\x1fh\xe2?'
p779
tp780
Rp781
tp782
a(S'datanet'
p783
g2
(g6
S'c\xa2\xa6\xf1wf\xe2?'
p784
tp785
Rp786
tp787
a(S'data masking'
p788
g2
(g6
S'\xf0\xb8\x95\x11\xca`\xe2?'
p789
tp790
Rp791
tp792
a(S'european data protection supervisor'
p793
g2
(g6
S'\x9e\xfc&\xaf+\\\xe2?'
p794
tp795
Rp796
tp797
a(S'list of financial data feeds'
p798
g2
(g6
S'\xb8\x00n,\xeaP\xe2?'
p799
tp800
Rp801
tp802
a(S'opendatasoft'
p803
g2
(g6
S'\xc1\xac\x04\x0b\xe8F\xe2?'
p804
tp805
Rp806
tp807
a(S'machine-generated data'
p808
g2
(g6
S',%N\x19\xcc2\xe2?'
p809
tp810
Rp811
tp812
a(S'enterprise information integration'
p813
g2
(g6
S')\xcb\xb5$\xee/\xe2?'
p814
tp815
Rp816
tp817
a(S'data verification'
p818
g2
(g6
S'\x0fJ\x7f\xe4\x98"\xe2?'
p819
tp820
Rp821
tp822
a(S'economic data'
p823
g2
(g6
S'J\xfbt\xdc\xf2 \xe2?'
p824
tp825
Rp826
tp827
a(S'oak ridge national laboratory daac'
p828
g2
(g6
S'z,\xf5\x0b\xcc\x15\xe2?'
p829
tp830
Rp831
tp832
a(S'data anonymization'
p833
g2
(g6
S'\xfc}\x89W\xa4\x0c\xe2?'
p834
tp835
Rp836
tp837
a(S'data transformation'
p838
g2
(g6
S'+\xbf\x86\x90I\xfe\xe1?'
p839
tp840
Rp841
tp842
a(S'omg standard'
p843
g2
(g6
S'Z\xef\x10\x1f.\xfe\xe1?'
p844
tp845
Rp846
tp847
a(S'over-the-counter data'
p848
g2
(g6
S'\x87\\P\xc7C\xfd\xe1?'
p849
tp850
Rp851
tp852
a(S'forensic data analysis'
p853
g2
(g6
S'\xbeW\x86\xa4\xe8\xfc\xe1?'
p854
tp855
Rp856
tp857
a(S'reality mining'
p858
g2
(g6
S'\xe9\r\x1b\x0b\x0f\xfc\xe1?'
p859
tp860
Rp861
tp862
a(S'common education data standards'
p863
g2
(g6
S'\xf0\x84z\xfc\x90\xf3\xe1?'
p864
tp865
Rp866
tp867
a(S'data east'
p868
g2
(g6
S'o8VP\x15\xf3\xe1?'
p869
tp870
Rp871
tp872
a(S'global temperature-salinity profile program'
p873
g2
(g6
S'@v\xd5\xc6\x80\xf2\xe1?'
p874
tp875
Rp876
tp877
a(S'social media analytics'
p878
g2
(g6
S'\xbd\xd4\xc1\x9d`\xf2\xe1?'
p879
tp880
Rp881
tp882
a(S'real-time data'
p883
g2
(g6
S'\xdf\xe8`\xb5K\xf2\xe1?'
p884
tp885
Rp886
tp887
a(S'national database for autism research'
p888
g2
(g6
S'\xc4f\x86yg\xf0\xe1?'
p889
tp890
Rp891
tp892
a(S'xomgl'
p893
g2
(g6
S'tE\xa3\x10 \xe0\xe1?'
p894
tp895
Rp896
tp897
a(S'data sharing for demographic research'
p898
g2
(g6
S'\xfcL\xadqu\xd1\xe1?'
p899
tp900
Rp901
tp902
a(S'system of record'
p903
g2
(g6
S'I\xf8\xa5\xd6\x16\xd0\xe1?'
p904
tp905
Rp906
tp907
a(S'information oriented software development'
p908
g2
(g6
S'\xb5(\x02\xd1h\xcf\xe1?'
p909
tp910
Rp911
tp912
a(S'netcdf'
p913
g2
(g6
S'\x06S"\xd14\xc5\xe1?'
p914
tp915
Rp916
tp917
a(S'data desk'
p918
g2
(g6
S'4\xec\x83\xc8H\xc1\xe1?'
p919
tp920
Rp921
tp922
a(S'open data now'
p923
g2
(g6
S' \xa3P\x85\xb8\xbf\xe1?'
p924
tp925
Rp926
tp927
a(S'data bank'
p928
g2
(g6
S'=\xc2\xdbRv\xbf\xe1?'
p929
tp930
Rp931
tp932
a(S'data portability'
p933
g2
(g6
S'\xa4\xcb\xcb \x9b\xbe\xe1?'
p934
tp935
Rp936
tp937
a(S'data-driven instruction'
p938
g2
(g6
S'\xe9\xffN\xb5\xf6\xb3\xe1?'
p939
tp940
Rp941
tp942
a(S'personal, inc.'
p943
g2
(g6
S'H\xfa\xd0X\x82\xaa\xe1?'
p944
tp945
Rp946
tp947
a(S'dataverse'
p948
g2
(g6
S'[,\x16B\xa8\xa9\xe1?'
p949
tp950
Rp951
tp952
a(S'medical data breach'
p953
g2
(g6
S'\x06\xa5\xa7\x82\x16\xa7\xe1?'
p954
tp955
Rp956
tp957
a(S'data protection commissioner'
p958
g2
(g6
S'\xbf\xbc\xbc\x0b\xd8\xa3\xe1?'
p959
tp960
Rp961
tp962
a(S'data flow diagram'
p963
g2
(g6
S'\xf0|\x8acF\xa0\xe1?'
p964
tp965
Rp966
tp967
a(S'unnormalized form'
p968
g2
(g6
S'\xbd!\xdbF\x8f\x9a\xe1?'
p969
tp970
Rp971
tp972
a(S'metpetdb'
p973
g2
(g6
S'O\x86\x11\xf1q\x99\xe1?'
p974
tp975
Rp976
tp977
a(S'pandas (software)'
p978
g2
(g6
S'\xb9\x9ak\xbd\xe8\x97\xe1?'
p979
tp980
Rp981
tp982
a(S'national centers for environmental information'
p983
g2
(g6
S'\x92\x08\x80J.\x95\xe1?'
p984
tp985
Rp986
tp987
a(S'data corruption'
p988
g2
(g6
S"\x8b\xb1\xc0a'\x95\xe1?"
p989
tp990
Rp991
tp992
a(S'national data protection authority'
p993
g2
(g6
S',\x1d\x7f\x1d\x81\x94\xe1?'
p994
tp995
Rp996
tp997
a(S'green house data'
p998
g2
(g6
S'\x94\x81\x9e\x94\xec\x8f\xe1?'
p999
tp1000
Rp1001
tp1002
a(S'the most toys'
p1003
g2
(g6
S'\xb1L\x9e\xfe\xbb\x87\xe1?'
p1004
tp1005
Rp1006
tp1007
a(S'data migration'
p1008
g2
(g6
S'h\x18\xfc^5\x82\xe1?'
p1009
tp1010
Rp1011
tp1012
a(S'dortmund data bank'
p1013
g2
(g6
S'\xdex\x16\xff\x96~\xe1?'
p1014
tp1015
Rp1016
tp1017
a(S'data-centric programming language'
p1018
g2
(g6
S'\xf8I/\xca\x9et\xe1?'
p1019
tp1020
Rp1021
tp1022
a(S'linked data'
p1023
g2
(g6
S'\xe5\xd1\x0e\xfc\xf9q\xe1?'
p1024
tp1025
Rp1026
tp1027
a(S'dataveillance'
p1028
g2
(g6
S'\xe2\x0eLc\xf3m\xe1?'
p1029
tp1030
Rp1031
tp1032
a(S'pennsylvania spatial data access'
p1033
g2
(g6
S'\x99d\x8f\x0fDk\xe1?'
p1034
tp1035
Rp1036
tp1037
a(S'indian space science data centre'
p1038
g2
(g6
S'\x04A\r\r\xb1e\xe1?'
p1039
tp1040
Rp1041
tp1042
a(S'aimstor'
p1043
g2
(g6
S'=\xbd?P\xadY\xe1?'
p1044
tp1045
Rp1046
tp1047
a(S'great plains population and environment data series'
p1048
g2
(g6
S'Espz\x17U\xe1?'
p1049
tp1050
Rp1051
tp1052
a(S'reference data (financial markets)'
p1053
g2
(g6
S'K\xd6\x0b\x94\x8eT\xe1?'
p1054
tp1055
Rp1056
tp1057
a(S'iso 8000'
p1058
g2
(g6
S'W=\xecL\x08T\xe1?'
p1059
tp1060
Rp1061
tp1062
a(S'arcmap'
p1063
g2
(g6
S'.\xb1:\xf0\xa3L\xe1?'
p1064
tp1065
Rp1066
tp1067
a(S'bibliomining'
p1068
g2
(g6
S'\xe0\x87\xef\x81\xd4J\xe1?'
p1069
tp1070
Rp1071
tp1072
a(S'data discovery'
p1073
g2
(g6
S'D\xcf\x8e\xd4\x8bH\xe1?'
p1074
tp1075
Rp1076
tp1077
a(S'materials data management'
p1078
g2
(g6
S'\x1aL\xcb\x81\x92G\xe1?'
p1079
tp1080
Rp1081
tp1082
a(S'tidy data'
p1083
g2
(g6
S'4\xec\xf20\x0cG\xe1?'
p1084
tp1085
Rp1086
tp1087
a(S'data collection system'
p1088
g2
(g6
S'b\x0bG\xb6\xc6B\xe1?'
p1089
tp1090
Rp1091
tp1092
a(S'public data group'
p1093
g2
(g6
S'6l*\xdbpA\xe1?'
p1094
tp1095
Rp1096
tp1097
a(S'thematic analysis'
p1098
g2
(g6
S'R!.\x90"?\xe1?'
p1099
tp1100
Rp1101
tp1102
a(S'data degradation'
p1103
g2
(g6
S'\xbei\xc5\xb0\x1e9\xe1?'
p1104
tp1105
Rp1106
tp1107
a(S'the govlab'
p1108
g2
(g6
S'\x99\x83*Y45\xe1?'
p1109
tp1110
Rp1111
tp1112
a(S'pseudonymization'
p1113
g2
(g6
S'\x16\t2\x81f3\xe1?'
p1114
tp1115
Rp1116
tp1117
a(S'british oceanographic data centre'
p1118
g2
(g6
S'\x18_\xba\xbe\x82+\xe1?'
p1119
tp1120
Rp1121
tp1122
a(S'xmdf'
p1123
g2
(g6
S'Hd@\x87\xc4%\xe1?'
p1124
tp1125
Rp1126
tp1127
a(S'standard data model'
p1128
g2
(g6
S'\xd1\xf1\xac\x92\xfb$\xe1?'
p1129
tp1130
Rp1131
tp1132
a(S'switch and data'
p1133
g2
(g6
S'\xfe?\xdc\x83\xa9"\xe1?'
p1134
tp1135
Rp1136
tp1137
a(S'sunopsis'
p1138
g2
(g6
S'bN\x9c\xaa\x96!\xe1?'
p1139
tp1140
Rp1141
tp1142
a(S'ncsa brown dog'
p1143
g2
(g6
S'\xca_8W_\x1f\xe1?'
p1144
tp1145
Rp1146
tp1147
a(S'resource measurement facility'
p1148
g2
(g6
S'\x16\xc4=\xd6\xb8\x1c\xe1?'
p1149
tp1150
Rp1151
tp1152
a(S'data integrity'
p1153
g2
(g6
S']\xa46V\xaa\x1a\xe1?'
p1154
tp1155
Rp1156
tp1157
a(S'data remanence'
p1158
g2
(g6
S'&vq\xe3t\x10\xe1?'
p1159
tp1160
Rp1161
tp1162
a(S'clinical data acquisition'
p1163
g2
(g6
S'\xf4\xfb+ \x1a\x08\xe1?'
p1164
tp1165
Rp1166
tp1167
a(S'contract data requirements list'
p1168
g2
(g6
S'\x982\xc6\xe5\xde\xff\xe0?'
p1169
tp1170
Rp1171
tp1172
a(S'dynamic data'
p1173
g2
(g6
S'z?\x81UA\xfa\xe0?'
p1174
tp1175
Rp1176
tp1177
a(S'ocean data standards'
p1178
g2
(g6
S'\xf4\x90\x18\xab\xd3\xf4\xe0?'
p1179
tp1180
Rp1181
tp1182
a(S'data retention'
p1183
g2
(g6
S'\x1d7N\x05\xc1\xed\xe0?'
p1184
tp1185
Rp1186
tp1187
a(S'eu open data portal'
p1188
g2
(g6
S'%N\xc8\x91_\xec\xe0?'
p1189
tp1190
Rp1191
tp1192
a(S'data reduction'
p1193
g2
(g6
S':Z\x1ds\xc0\xe0\xe0?'
p1194
tp1195
Rp1196
tp1197
a(S'data element name'
p1198
g2
(g6
S'\x94\xa1\xb0\x85\xe8\xde\xe0?'
p1199
tp1200
Rp1201
tp1202
a(S'talend open studio for data quality'
p1203
g2
(g6
S't\x91g:\x1c\xdc\xe0?'
p1204
tp1205
Rp1206
tp1207
a(S'telecommunications data retention'
p1208
g2
(g6
S'\x10\xbd+Aq\xd6\xe0?'
p1209
tp1210
Rp1211
tp1212
a(S'data archaeology'
p1213
g2
(g6
S'\xef\\\xe5\x81%\xc5\xe0?'
p1214
tp1215
Rp1216
tp1217
a(S'transaction data'
p1218
g2
(g6
S'\xa1\x919Ww\xb3\xe0?'
p1219
tp1220
Rp1221
tp1222
a(S'datameet'
p1223
g2
(g6
S'\xd9\x8e01\x05\xb3\xe0?'
p1224
tp1225
Rp1226
tp1227
a(S'information capital'
p1228
g2
(g6
S'\xcf\xb0:]#\xb1\xe0?'
p1229
tp1230
Rp1231
tp1232
a(S'data binding'
p1233
g2
(g6
S'\xb4UB\x0c\x03\xaf\xe0?'
p1234
tp1235
Rp1236
tp1237
a(S'data dissemination'
p1238
g2
(g6
S'd\x19@V\xd9\xa2\xe0?'
p1239
tp1240
Rp1241
tp1242
a(S'core architecture data model'
p1243
g2
(g6
S'\x9c\xcc\x91G\xe4\x9f\xe0?'
p1244
tp1245
Rp1246
tp1247
a(S'infobright'
p1248
g2
(g6
S'j\xed\xe2]\xde\x9b\xe0?'
p1249
tp1250
Rp1251
tp1252
a(S'data dictionary'
p1253
g2
(g6
S'\xd7mh\x07\xcf\x9b\xe0?'
p1254
tp1255
Rp1256
tp1257
a(S'logical data model'
p1258
g2
(g6
S'\x8b\x99\x88\xf2\xee\x98\xe0?'
p1259
tp1260
Rp1261
tp1262
a(S'quandl'
p1263
g2
(g6
S'\xfbB\x8c(Q\x95\xe0?'
p1264
tp1265
Rp1266
tp1267
a(S'romonet'
p1268
g2
(g6
S'S\x1b\x19\x8di\x94\xe0?'
p1269
tp1270
Rp1271
tp1272
a(S'data grid'
p1273
g2
(g6
S'\x93N\xd4\xc9\x0e\x93\xe0?'
p1274
tp1275
Rp1276
tp1277
a(S'oreda'
p1278
g2
(g6
S'\xec\x9f\xcf\x99b\x8e\xe0?'
p1279
tp1280
Rp1281
tp1282
a(S'prosoft engineering'
p1283
g2
(g6
S'\xb5\x0bm*\xe1\x8a\xe0?'
p1284
tp1285
Rp1286
tp1287
a(S'dataadapter'
p1288
g2
(g6
S'\xf7\x94\xcb\xc9\xe2\x85\xe0?'
p1289
tp1290
Rp1291
tp1292
a(S'data hierarchy'
p1293
g2
(g6
S'\x0f\xf2\x04hs\x84\xe0?'
p1294
tp1295
Rp1296
tp1297
a(S'timetric'
p1298
g2
(g6
S'\xde\xcf\xe47\x9fw\xe0?'
p1299
tp1300
Rp1301
tp1302
a(S'data onboarding'
p1303
g2
(g6
S's\x1a\xf2\xd2\xf8v\xe0?'
p1304
tp1305
Rp1306
tp1307
a(S'data-driven'
p1308
g2
(g6
S'+\xbcEX\xceu\xe0?'
p1309
tp1310
Rp1311
tp1312
a(S'seabed survey data model'
p1313
g2
(g6
S'\x02\x13\xb5\x07\xfeh\xe0?'
p1314
tp1315
Rp1316
tp1317
a(S'national space science data center'
p1318
g2
(g6
S'j\xa4\xaf\xd5\xe0h\xe0?'
p1319
tp1320
Rp1321
tp1322
a(S'data jam'
p1323
g2
(g6
S'\x1c4fe\xf2[\xe0?'
p1324
tp1325
Rp1326
tp1327
a(S'data proliferation'
p1328
g2
(g6
S'bA_\x81\xe6Y\xe0?'
p1329
tp1330
Rp1331
tp1332
a(S'data haven'
p1333
g2
(g6
S'\x80@\xdb\xa2\xa0U\xe0?'
p1334
tp1335
Rp1336
tp1337
a(S'professional petroleum data management association'
p1338
g2
(g6
S'\xba/\xdfX\xecT\xe0?'
p1339
tp1340
Rp1341
tp1342
a(S'staging (data)'
p1343
g2
(g6
S'\x13\t\xf1\xd1\xa4S\xe0?'
p1344
tp1345
Rp1346
tp1347
a(S'uniform data access'
p1348
g2
(g6
S'\xcb\xb0d\x1a\xedQ\xe0?'
p1349
tp1350
Rp1351
tp1352
a(S'sqlstream'
p1353
g2
(g6
S"\xef\x1e'\n\xfeO\xe0?"
p1354
tp1355
Rp1356
tp1357
a(S'genomics data sharing'
p1358
g2
(g6
S'8= /\x9fM\xe0?'
p1359
tp1360
Rp1361
tp1362
a(S'sageworks'
p1363
g2
(g6
S'\x06z;)\xaeK\xe0?'
p1364
tp1365
Rp1366
tp1367
a(S'datacoup'
p1368
g2
(g6
S'\xc5\xff%\xf2<K\xe0?'
p1369
tp1370
Rp1371
tp1372
a(S'list of gis data sources'
p1373
g2
(g6
S'\x8f\xa5G\xb07G\xe0?'
p1374
tp1375
Rp1376
tp1377
a(S'toronto open data'
p1378
g2
(g6
S'}D\x87c\xcdB\xe0?'
p1379
tp1380
Rp1381
tp1382
a(S'list of big data companies'
p1383
g2
(g6
S'\xd3\xb4\xbc1\x03@\xe0?'
p1384
tp1385
Rp1386
tp1387
a(S'control(human, data, sound)'
p1388
g2
(g6
S'\xf7L\xa6D\xfd=\xe0?'
p1389
tp1390
Rp1391
tp1392
a(S'architectural pattern'
p1393
g2
(g6
S'\xa6\xce\xbfm\x143\xe0?'
p1394
tp1395
Rp1396
tp1397
a(S'data quality firewall'
p1398
g2
(g6
S'\xf6\xeeJ[\xaf.\xe0?'
p1399
tp1400
Rp1401
tp1402
a(S'dataversenl'
p1403
g2
(g6
S'\xf7\xb4\xf7U\xbe,\xe0?'
p1404
tp1405
Rp1406
tp1407
a(S'semantic web data space'
p1408
g2
(g6
S's\xaf+\xbc\xc2%\xe0?'
p1409
tp1410
Rp1411
tp1412
a(S'grib'
p1413
g2
(g6
S'\x03\xfd*t\xca#\xe0?'
p1414
tp1415
Rp1416
tp1417
a(S'de-anonymization'
p1418
g2
(g6
S'({\xbd!\x07"\xe0?'
p1419
tp1420
Rp1421
tp1422
a(S'euref permanent network'
p1423
g2
(g6
S'y\xf3\xaa\xc6\x16\x1b\xe0?'
p1424
tp1425
Rp1426
tp1427
a(S'monthly climatic data for the world'
p1428
g2
(g6
S'\xaa\xed\x9a&\x81\x19\xe0?'
p1429
tp1430
Rp1431
tp1432
a(S'virtual data room'
p1433
g2
(g6
S'm\xd4\xec\xd8\n\x19\xe0?'
p1434
tp1435
Rp1436
tp1437
a(S'winfs'
p1438
g2
(g6
S"']\xd6>\xa8\x12\xe0?"
p1439
tp1440
Rp1441
tp1442
a(S'data commingling'
p1443
g2
(g6
S'p\xc87\xf6\xcf\x0e\xe0?'
p1444
tp1445
Rp1446
tp1447
a(S'cynergy data'
p1448
g2
(g6
S'UR\x1f]\xd9\x0b\xe0?'
p1449
tp1450
Rp1451
tp1452
a(S'match report'
p1453
g2
(g6
S'V\x1f\xbf\xc5\xf6\n\xe0?'
p1454
tp1455
Rp1456
tp1457
a(S'pidba: the paleoindian database of the americas'
p1458
g2
(g6
S'*()\xda\xce\x08\xe0?'
p1459
tp1460
Rp1461
tp1462
a(S'bill inmon'
p1463
g2
(g6
S'\xf2\xb9\x99+r\x08\xe0?'
p1464
tp1465
Rp1466
tp1467
a(S'venti'
p1468
g2
(g6
S'\x98k\x00\xa6\x06\x03\xe0?'
p1469
tp1470
Rp1471
tp1472
a(S'collection (abstract data type)'
p1473
g2
(g6
S'\x19\xb0\xb4\xc3z\xfe\xdf?'
p1474
tp1475
Rp1476
tp1477
a(S'xaware'
p1478
g2
(g6
S'\xaflJ\\1\xfe\xdf?'
p1479
tp1480
Rp1481
tp1482
a(S'data.gov'
p1483
g2
(g6
S'X\x88\xac\xa3\x15\xf5\xdf?'
p1484
tp1485
Rp1486
tp1487
a(S'data truncation'
p1488
g2
(g6
S'\xa4dk\x17\x8b\xf2\xdf?'
p1489
tp1490
Rp1491
tp1492
a(S'ebird'
p1493
g2
(g6
S'pK\xce\x1a\xe2\xe7\xdf?'
p1494
tp1495
Rp1496
tp1497
a(S'data security'
p1498
g2
(g6
S'\x82W<\xb5\xf4\xcb\xdf?'
p1499
tp1500
Rp1501
tp1502
a(S'data documentation initiative'
p1503
g2
(g6
S'4\xf4\x12\xca\xea\xc5\xdf?'
p1504
tp1505
Rp1506
tp1507
a(S'data integration'
p1508
g2
(g6
S'N\xed\xa5\xf6(\xc3\xdf?'
p1509
tp1510
Rp1511
tp1512
a.