(lp0
(S'deepdream'
p1
cnumpy.core.multiarray
scalar
p2
(cnumpy
dtype
p3
(S'f8'
p4
I0
I1
tp5
Rp6
(I3
S'<'
p7
NNNI-1
I-1
I0
tp8
bS'\x00\x00\x00\x00\x00\x00\xf0?'
p9
tp10
Rp11
tp12
a(S'artificial neural network'
p13
g2
(g6
S'\xaa\xf2\xdb\xab\x81\x85\xd4?'
p14
tp15
Rp16
tp17
a(S'neural network software'
p18
g2
(g6
S'\xf9\xc8\xbd\xb2\xed\xd3\xd3?'
p19
tp20
Rp21
tp22
a(S'neural lab'
p23
g2
(g6
S'4fB\xeeW\x8d\xd3?'
p24
tp25
Rp26
tp27
a(S'deep learning'
p28
g2
(g6
S'\x14\xf2\xcc\x8f\xa49\xd3?'
p29
tp30
Rp31
tp32
a(S'neurosolutions'
p33
g2
(g6
S'E\xc8f\x05\xe6\x0e\xd3?'
p34
tp35
Rp36
tp37
a(S'images'
p38
g2
(g6
S'\x03u8L\xc9\xc9\xd2?'
p39
tp40
Rp41
tp42
a(S'deepdreaming'
p43
g2
(g6
S'\x01\x0f\xdb\xcd:o\xd2?'
p44
tp45
Rp46
tp47
a(S'neurodimension'
p48
g2
(g6
S'5\xb4\xc9\x98q7\xd2?'
p49
tp50
Rp51
tp52
a(S'joone'
p53
g2
(g6
S'\x96\xe2QHY\x0e\xd2?'
p54
tp55
Rp56
tp57
a(S'neuroph'
p58
g2
(g6
S'e\x9e\xfe.\xd9\x01\xd2?'
p59
tp60
Rp61
tp62
a(S'random neural network'
p63
g2
(g6
S'\x97\xbc[tM\xf0\xd1?'
p64
tp65
Rp66
tp67
a(S'spiking neural network'
p68
g2
(g6
S'\x93\xcc\xec\x01\xc9\xec\xd1?'
p69
tp70
Rp71
tp72
a(S'encog'
p73
g2
(g6
S'\x03\t\xaa\xb5H\xdd\xd1?'
p74
tp75
Rp76
tp77
a(S'modular neural network'
p78
g2
(g6
S'\x88\r`\x1c\x82\xc4\xd1?'
p79
tp80
Rp81
tp82
a(S'physical neural network'
p83
g2
(g6
S'>\xe8X)\xe4\x81\xd1?'
p84
tp85
Rp86
tp87
a(S'recurrent neural network'
p88
g2
(g6
S'>\xf5o\xdf\x96{\xd1?'
p89
tp90
Rp91
tp92
a(S'convolutional neural network'
p93
g2
(g6
S'\xe8\xda\xbe\x1a\xcf[\xd1?'
p94
tp95
Rp96
tp97
a(S'tensorflow'
p98
g2
(g6
S'\x9d\xb05\xda\x0fU\xd1?'
p99
tp100
Rp101
tp102
a(S'types of artificial neural networks'
p103
g2
(g6
S'|\xf17q$;\xd1?'
p104
tp105
Rp106
tp107
a(S'bcpnn'
p108
g2
(g6
S'$\xc6\x08aY\t\xd1?'
p109
tp110
Rp111
tp112
a(S'vanishing gradient problem'
p113
g2
(g6
S'\x0c\x14\xfc\xfdX\xec\xd0?'
p114
tp115
Rp116
tp117
a(S'snns'
p118
g2
(g6
S'N\x0c\xdc\x10\x16\xcf\xd0?'
p119
tp120
Rp121
tp122
a(S'computational neurogenetic modeling'
p123
g2
(g6
S'\x0b\xc6E8x}\xd0?'
p124
tp125
Rp126
tp127
a(S'keras'
p128
g2
(g6
S"H/'\x91uM\xd0?"
p129
tp130
Rp131
tp132
a(S'time delay neural network'
p133
g2
(g6
S' u\xccl<2\xd0?'
p134
tp135
Rp136
tp137
a(S'confabulation (neural networks)'
p138
g2
(g6
S'2\xf8\xb2\x95\x8d\xa4\xcf?'
p139
tp140
Rp141
tp142
a(S'rnn'
p143
g2
(g6
S'/\xa8t\xdb\xb9m\xcf?'
p144
tp145
Rp146
tp147
a(S'peltarion'
p148
g2
(g6
S'\xbc\xb6X\xe6\xea;\xcf?'
p149
tp150
Rp151
tp152
a(S'dnn'
p153
g2
(g6
S'\x86\xaa\x0b\xde\xa6\x1c\xcf?'
p154
tp155
Rp156
tp157
a(S'snn'
p158
g2
(g6
S'^R\xf5]\x95\x1c\xcf?'
p159
tp160
Rp161
tp162
a(S'neuro laboratory'
p163
g2
(g6
S'\x84\xfc\xc0\x888\x07\xcf?'
p164
tp165
Rp166
tp167
a(S'neural designer'
p168
g2
(g6
S'\xc8u`cH\xac\xce?'
p169
tp170
Rp171
tp172
a(S'standard test image'
p173
g2
(g6
S'v\xe5\xcd\xdf\xb6\x86\xce?'
p174
tp175
Rp176
tp177
a(S'graphic art software'
p178
g2
(g6
S'\xb8ET\x90\xbeo\xce?'
p179
tp180
Rp181
tp182
a(S'feedforward neural network'
p183
g2
(g6
S'\x0ef>\x01cg\xce?'
p184
tp185
Rp186
tp187
a(S'neural machine translation'
p188
g2
(g6
S'\xbc\xf3\x84\x02V5\xce?'
p189
tp190
Rp191
tp192
a(S'software'
p193
g2
(g6
S'8Iy\xdax\x1c\xce?'
p194
tp195
Rp196
tp197
a(S'darkforest'
p198
g2
(g6
S'\xbf\x97\xe1\x8b\xb4\xfa\xcd?'
p199
tp200
Rp201
tp202
a(S'opennn'
p203
g2
(g6
S'&\x87\xa7\xa2L\xf4\xcd?'
p204
tp205
Rp206
tp207
a(S'google photos'
p208
g2
(g6
S'\xb2\x98\xba\xec\xad\xc5\xcd?'
p209
tp210
Rp211
tp212
a(S'google image labeler'
p213
g2
(g6
S'P\xa3\x80\xe6}\x8c\xcd?'
p214
tp215
Rp216
tp217
a(S'biological neural network'
p218
g2
(g6
S'\xc2\x8cdG\xe2\x87\xcd?'
p219
tp220
Rp221
tp222
a(S'neural networks (journal)'
p223
g2
(g6
S'b\xbc=3\xech\xcd?'
p224
tp225
Rp226
tp227
a(S'mental image'
p228
g2
(g6
S' f W74\xcd?'
p229
tp230
Rp231
tp232
a(S'network management software'
p233
g2
(g6
S'{g\x84\xa0\xa5\x02\xcd?'
p234
tp235
Rp236
tp237
a(S'timeline of machine learning'
p238
g2
(g6
S"\x1cj'\x0c\xe9\xcb\xcc?"
p239
tp240
Rp241
tp242
a(S'outline of software'
p243
g2
(g6
S'\x85\xa9\x88\xdb\xf6\xc8\xcc?'
p244
tp245
Rp246
tp247
a(S'convolutional deep belief networks'
p248
g2
(g6
S'\xb7\x93n\x8b\xf7\xb9\xcc?'
p249
tp250
Rp251
tp252
a(S'grossberg network'
p253
g2
(g6
S'\xcb\xa5\x84\xb1\xfd\x92\xcc?'
p254
tp255
Rp256
tp257
a(S'object categorization from image search'
p258
g2
(g6
S'\x1b;\x87\xa1\xe7v\xcc?'
p259
tp260
Rp261
tp262
a(S'neural plate'
p263
g2
(g6
S'5V5\xff\xbar\xcc?'
p264
tp265
Rp266
tp267
a(S'neural cryptography'
p268
g2
(g6
S'\xe2\x11\x03\xec\xd8o\xcc?'
p269
tp270
Rp271
tp272
a(S'neural engineering'
p273
g2
(g6
S'\xb9aKT\xc4i\xcc?'
p274
tp275
Rp276
tp277
a(S'telecommunications control software'
p278
g2
(g6
S'0\xea\xf9\x18~F\xcc?'
p279
tp280
Rp281
tp282
a(S'paul werbos'
p283
g2
(g6
S'\xba\xf8\xfa\xb2\xad\x1c\xcc?'
p284
tp285
Rp286
tp287
a(S'google earth'
p288
g2
(g6
S' n\xd3\xba\xa3\x14\xcc?'
p289
tp290
Rp291
tp292
a(S'software categories'
p293
g2
(g6
S'\xd6\x14\xa64\x0b\x10\xcc?'
p294
tp295
Rp296
tp297
a(S'software diagnosis'
p298
g2
(g6
S'\xe9\xfb`\xf3\xf5\xf4\xcb?'
p299
tp300
Rp301
tp302
a(S'aniconism in christianity'
p303
g2
(g6
S'\xb7\x9c\x94\x83t\xf0\xcb?'
p304
tp305
Rp306
tp307
a(S'list of google products'
p308
g2
(g6
S'\xdd\xfd\x7f\x81)\xec\xcb?'
p309
tp310
Rp311
tp312
a(S'instantaneously trained neural networks'
p313
g2
(g6
S'\x0c;\xf4\xb7\xc4\xeb\xcb?'
p314
tp315
Rp316
tp317
a(S'imagenet'
p318
g2
(g6
S'\xe7uE\x07X\xeb\xcb?'
p319
tp320
Rp321
tp322
a(S'list of mergers and acquisitions by alphabet'
p323
g2
(g6
S'\xbe\x1b\xdb\xa5N\xe7\xcb?'
p324
tp325
Rp326
tp327
a(S'list of seattle landmarks'
p328
g2
(g6
S'\xc3\xbb/(|\xe6\xcb?'
p329
tp330
Rp331
tp332
a(S'neocognitron'
p333
g2
(g6
S'E\xbes\xe4_\xbb\xcb?'
p334
tp335
Rp336
tp337
a(S'classification system for serial criminal patterns'
p338
g2
(g6
S'a+jb\xed\xac\xcb?'
p339
tp340
Rp341
tp342
a(S'neural crest'
p343
g2
(g6
S'\x90\xe9\xcf\x014\xa9\xcb?'
p344
tp345
Rp346
tp347
a(S'optical neural network'
p348
g2
(g6
S'\x1b\x81\xa35\xd3\x9f\xcb?'
p349
tp350
Rp351
tp352
a(S'nch software'
p353
g2
(g6
S'\xbb\xb2\xf6\xda\x98\x99\xcb?'
p354
tp355
Rp356
tp357
a(S'free software'
p358
g2
(g6
S'}\x1f#{\x80\x98\xcb?'
p359
tp360
Rp361
tp362
a(S'neural gas'
p363
g2
(g6
S'n\x16\xee%2\x82\xcb?'
p364
tp365
Rp366
tp367
a(S'neural engineering object'
p368
g2
(g6
S'\xe7~^\xf2\xfd~\xcb?'
p369
tp370
Rp371
tp372
a(S'google image swirl'
p373
g2
(g6
S'\xee\xd4\x8b4pn\xcb?'
p374
tp375
Rp376
tp377
a(S'intelligent flight control system'
p378
g2
(g6
S'\x94\xaaj\x13\xb6i\xcb?'
p379
tp380
Rp381
tp382
a(S'esp game'
p383
g2
(g6
S'\xccCO(\x87`\xcb?'
p384
tp385
Rp386
tp387
a(S'commercial software'
p388
g2
(g6
S'zq\xdd!\x88T\xcb?'
p389
tp390
Rp391
tp392
a(S'google'
p393
g2
(g6
S'V\x05\x1f\x83\xbf5\xcb?'
p394
tp395
Rp396
tp397
a(S'application software'
p398
g2
(g6
S'\xfbA\x91)\xee#\xcb?'
p399
tp400
Rp401
tp402
a(S'camfind'
p403
g2
(g6
S',\x1d\xcb\xba\xd4#\xcb?'
p404
tp405
Rp406
tp407
a(S'nervous system network models'
p408
g2
(g6
S'\x98V\x92\x89\xe5\x1f\xcb?'
p409
tp410
Rp411
tp412
a(S'dbgallery'
p413
g2
(g6
S' \x85\x05z\xec\x1a\xcb?'
p414
tp415
Rp416
tp417
a(S'list of network theory topics'
p418
g2
(g6
S'\xf0\xfa\xbb5h\x1a\xcb?'
p419
tp420
Rp421
tp422
a(S'neurulation'
p423
g2
(g6
S'\xfef\xf6\xcb\x87\x18\xcb?'
p424
tp425
Rp426
tp427
a(S'software map'
p428
g2
(g6
S'F9\x08\x84\x83\x11\xcb?'
p429
tp430
Rp431
tp432
a(S'neural tube'
p433
g2
(g6
S'\x8a\xccf}\xe5\x0f\xcb?'
p434
tp435
Rp436
tp437
a(S'proprietary software'
p438
g2
(g6
S'\xcb\x84@0\xcf\xf5\xca?'
p439
tp440
Rp441
tp442
a(S'free and open-source software'
p443
g2
(g6
S't\xc3\x98\n\xb2\xcc\xca?'
p444
tp445
Rp446
tp447
a(S'neural fold'
p448
g2
(g6
S'\r\xc6T\x8f\\\xc5\xca?'
p449
tp450
Rp451
tp452
a(S'history of software engineering'
p453
g2
(g6
S'0\xb6A\xc7t\xbc\xca?'
p454
tp455
Rp456
tp457
a(S'google images'
p458
g2
(g6
S'\xd4e\xad\xdc\xad\xbb\xca?'
p459
tp460
Rp461
tp462
a(S'outline of software engineering'
p463
g2
(g6
S'\xd4\xe1\xceJa\xb2\xca?'
p464
tp465
Rp466
tp467
a(S'connectionism'
p468
g2
(g6
S'S\xbd\xfd\xb9*\xa3\xca?'
p469
tp470
Rp471
tp472
a(S'ronald j. williams'
p473
g2
(g6
S'\xba{\x03\xe2\xe3\x9e\xca?'
p474
tp475
Rp476
tp477
a(S'neural clique'
p478
g2
(g6
S'\xda\x92d\x18\x95\x8e\xca?'
p479
tp480
Rp481
tp482
a(S'aerial image library'
p483
g2
(g6
S'\xf5K\xfc\x90b\x89\xca?'
p484
tp485
Rp486
tp487
a(S'google pack'
p488
g2
(g6
S'\xaa\x80\x1b8\x8e\x80\xca?'
p489
tp490
Rp491
tp492
a(S'list of mergers and acquisitions by microsoft'
p493
g2
(g6
S'\xc6b\x91\xe8\x00\x80\xca?'
p494
tp495
Rp496
tp497
a(S'network effect'
p498
g2
(g6
S'\xcfp\\\x9a\x8dz\xca?'
p499
tp500
Rp501
tp502
a(S'neural groove'
p503
g2
(g6
S'\x860\x1f\x0c6w\xca?'
p504
tp505
Rp506
tp507
a(S'planet google'
p508
g2
(g6
S'\xaac\x04\xa3\xb9r\xca?'
p509
tp510
Rp511
tp512
a(S'pixsta'
p513
g2
(g6
S'\x95\xd1}\xcf\xd6p\xca?'
p514
tp515
Rp516
tp517
a(S'snapvillage'
p518
g2
(g6
S'\x90q\xbc\xd5\xd1o\xca?'
p519
tp520
Rp521
tp522
a(S'computer vision'
p523
g2
(g6
S'{\xfd\xed\x87\xccj\xca?'
p524
tp525
Rp526
tp527
a(S'recursive neural network'
p528
g2
(g6
S'\xb28r\x9az[\xca?'
p529
tp530
Rp531
tp532
a(S'vcn execuvision'
p533
g2
(g6
S'\x9a\n\xa3\xf0\tW\xca?'
p534
tp535
Rp536
tp537
a(S'jailbait images'
p538
g2
(g6
S'n\x1c6\xb0[I\xca?'
p539
tp540
Rp541
tp542
a(S'google+'
p543
g2
(g6
S'\xb6U\xea\x89\xcdB\xca?'
p544
tp545
Rp546
tp547
a(S'face recognition grand challenge'
p548
g2
(g6
S'\xbc\xa90\xcd\x937\xca?'
p549
tp550
Rp551
tp552
a(S'history of free and open-source software'
p553
g2
(g6
S'\xa0V\x03\xf6\x8d,\xca?'
p554
tp555
Rp556
tp557
a(S'outline of software development'
p558
g2
(g6
S'\x85W\xd2=o+\xca?'
p559
tp560
Rp561
tp562
a(S'backpropagation through time'
p563
g2
(g6
S'\xb9\x80|\xb6\xc8!\xca?'
p564
tp565
Rp566
tp567
a(S'image development'
p568
g2
(g6
S'\xcc7Y,\x9a\x1b\xca?'
p569
tp570
Rp571
tp572
a(S'european neural network society'
p573
g2
(g6
S'\xfc\xefW>\xcf\x17\xca?'
p574
tp575
Rp576
tp577
a(S'retail software'
p578
g2
(g6
S'HI\x88~a\x11\xca?'
p579
tp580
Rp581
tp582
a(S'software system'
p583
g2
(g6
S'\xeb-\xba\x04\xc6\x0f\xca?'
p584
tp585
Rp586
tp587
a(S'software development'
p588
g2
(g6
S'z\xa6\xf1st\x07\xca?'
p589
tp590
Rp591
tp592
a(S'google volume one'
p593
g2
(g6
S'_\xa1\xc6#1\x01\xca?'
p594
tp595
Rp596
tp597
a(S'neural turing machine'
p598
g2
(g6
S'\xd2\xbemA\x1b\xfd\xc9?'
p599
tp600
Rp601
tp602
a(S'network'
p603
g2
(g6
S'\xe43/Xe\xf9\xc9?'
p604
tp605
Rp606
tp607
a(S'list of music software'
p608
g2
(g6
S'\x02\x9b\xac\x08\xf2\xeb\xc9?'
p609
tp610
Rp611
tp612
a(S'neural network synchronization protocol'
p613
g2
(g6
S'\x89ld\xf1\x80\xe4\xc9?'
p614
tp615
Rp616
tp617
a(S'list of mergers and acquisitions by symantec'
p618
g2
(g6
S'\xafT#\xc3\x08\xd7\xc9?'
p619
tp620
Rp621
tp622
a(S'pulse-coupled networks'
p623
g2
(g6
S'\x97\xb6>\x04\xad\xcd\xc9?'
p624
tp625
Rp626
tp627
a(S'laurent gervereau'
p628
g2
(g6
S'\x0c(\x18\xc8f\xc2\xc9?'
p629
tp630
Rp631
tp632
a(S'christoph von der malsburg'
p633
g2
(g6
S'\xd7v\xefb\t\xc1\xc9?'
p634
tp635
Rp636
tp637
a(S'network dynamics'
p638
g2
(g6
S'$\xef[\xa4\xec\xbc\xc9?'
p639
tp640
Rp641
tp642
a(S'hopfield network'
p643
g2
(g6
S'\r\x15\xac\x01\xde\xba\xc9?'
p644
tp645
Rp646
tp647
a(S'gonvisor'
p648
g2
(g6
S'\x93E_\x93g\xba\xc9?'
p649
tp650
Rp651
tp652
a(S'bayimg'
p653
g2
(g6
S'\r\x06\xdf\xbd\xb4\xaa\xc9?'
p654
tp655
Rp656
tp657
a(S'google street view privacy concerns'
p658
g2
(g6
S'\xa9Z\x8dkc\xaa\xc9?'
p659
tp660
Rp661
tp662
a(S'mnist database'
p663
g2
(g6
S'\xe0\xb2\x8b\x15\xd3\xa9\xc9?'
p664
tp665
Rp666
tp667
a(S'criticism of google'
p668
g2
(g6
S'\xde\x95\x12$\x17\x93\xc9?'
p669
tp670
Rp671
tp672
a(S'stochastic neural network'
p673
g2
(g6
S'6\xee\xd5\xf3\x8bw\xc9?'
p674
tp675
Rp676
tp677
a(S'system software'
p678
g2
(g6
S'\x1b>\xee\x87gw\xc9?'
p679
tp680
Rp681
tp682
a(S'history of google'
p683
g2
(g6
S'\xb6v\x8b\xd6br\xc9?'
p684
tp685
Rp686
tp687
a(S'differentiable neural computer'
p688
g2
(g6
S'\x99/Kq f\xc9?'
p689
tp690
Rp691
tp692
a(S'green dam youth escort'
p693
g2
(g6
S'\x9aL\xb7\xb0\xa0e\xc9?'
p694
tp695
Rp696
tp697
a(S'software archaeology'
p698
g2
(g6
S'f\xfb\xee7\x17[\xc9?'
p699
tp700
Rp701
tp702
a(S'marketing and artificial intelligence'
p703
g2
(g6
S'i\xe6\xca\xb3\x96J\xc9?'
p704
tp705
Rp706
tp707
a(S'open-source software'
p708
g2
(g6
S'\xb2\xe2\xd37u2\xc9?'
p709
tp710
Rp711
tp712
a(S'software heritage'
p713
g2
(g6
S'\xea\xa6Q\x1fr)\xc9?'
p714
tp715
Rp716
tp717
a(S"list of google april fools' day jokes"
p718
g2
(g6
S'\xbdC?\xe4\x9b \xc9?'
p719
tp720
Rp721
tp722
a(S'alternative terms for free software'
p723
g2
(g6
S'I\xd7\xd2\xb3\xe6\x12\xc9?'
p724
tp725
Rp726
tp727
a(S'professional open source'
p728
g2
(g6
S'\x0b\xd8\x82t\x9a\x08\xc9?'
p729
tp730
Rp731
tp732
a(S'creative visualization'
p733
g2
(g6
S'\xc4\x89@\n\xea\x04\xc9?'
p734
tp735
Rp736
tp737
a(S'rock art in sweden'
p738
g2
(g6
S'lN\xf9\x82\x96\xf9\xc8?'
p739
tp740
Rp741
tp742
a(S'google art project'
p743
g2
(g6
S';S\\n\xf2\xf4\xc8?'
p744
tp745
Rp746
tp747
a(S'google developers'
p748
g2
(g6
S'.hC!"\xf0\xc8?'
p749
tp750
Rp751
tp752
a(S'software engineering'
p753
g2
(g6
S'\xa63~\xe2!\xee\xc8?'
p754
tp755
Rp756
tp757
a(S'feedforward'
p758
g2
(g6
S'\xf8\xb4\x06c\xd4\xdf\xc8?'
p759
tp760
Rp761
tp762
a(S'imgur'
p763
g2
(g6
S'B\t/\xe5\x10\xdd\xc8?'
p764
tp765
Rp766
tp767
a(S'software law'
p768
g2
(g6
S'T\x01\xdc"G\xd5\xc8?'
p769
tp770
Rp771
tp772
a(S'hp it management software'
p773
g2
(g6
S'\xa4\x00\xd8M,\xcd\xc8?'
p774
tp775
Rp776
tp777
a(S'software architectural style'
p778
g2
(g6
S"M\x8e'A*\xcd\xc8?"
p779
tp780
Rp781
tp782
a(S'software industry'
p783
g2
(g6
S'\xd7f\x9e\x81\x1e\xcd\xc8?'
p784
tp785
Rp786
tp787
a(S'business models for open-source software'
p788
g2
(g6
S'\xc3\xa6O\x9a-\xc8\xc8?'
p789
tp790
Rp791
tp792
a(S'software business'
p793
g2
(g6
S'\xfd\xb6v\x91\x7f\xc7\xc8?'
p794
tp795
Rp796
tp797
a(S'software studies'
p798
g2
(g6
S'\x8bhP\x9c\x9e\xc5\xc8?'
p799
tp800
Rp801
tp802
a(S'open-source software movement'
p803
g2
(g6
S'n\xcf\xdd\xd8\xdb\xc3\xc8?'
p804
tp805
Rp806
tp807
a(S'visual computing'
p808
g2
(g6
S'\xd4\xf4\xbf\x88\x8f\xc0\xc8?'
p809
tp810
Rp811
tp812
a(S'comparison of deep learning software/resources'
p813
g2
(g6
S'\xffp\xc6\x820\xba\xc8?'
p814
tp815
Rp816
tp817
a(S'google street view'
p818
g2
(g6
S'K\xed\x1a8\x91\xb4\xc8?'
p819
tp820
Rp821
tp822
a(S'free software movement'
p823
g2
(g6
S'\xeer\xd4 ^\xae\xc8?'
p824
tp825
Rp826
tp827
a(S'google brain'
p828
g2
(g6
S'Vq\xedJP\xad\xc8?'
p829
tp830
Rp831
tp832
a(S'charaxes galawadiwosi'
p833
g2
(g6
S'\xd6\xa1`G-\xac\xc8?'
p834
tp835
Rp836
tp837
a(S'gigapixel image'
p838
g2
(g6
S'\xd7{%\xf6\xc5\xab\xc8?'
p839
tp840
Rp841
tp842
a(S'picasa'
p843
g2
(g6
S'*\xa2~\x07\x11\xaa\xc8?'
p844
tp845
Rp846
tp847
a(S'google mobile services'
p848
g2
(g6
S'\x04\x92\x1a8\x13\x9d\xc8?'
p849
tp850
Rp851
tp852
a(S'censorship by google'
p853
g2
(g6
S'_\x16\xfd\x9a\xac\x84\xc8?'
p854
tp855
Rp856
tp857
a(S'google drive'
p858
g2
(g6
S'\xc6E\x8dY\x8b\x83\xc8?'
p859
tp860
Rp861
tp862
a(S'software analytics'
p863
g2
(g6
S'\x82\xbf\xfe/\xa8}\xc8?'
p864
tp865
Rp866
tp867
a(S'google earth engine'
p868
g2
(g6
S'!\x83\x9c\x9c\xb2{\xc8?'
p869
tp870
Rp871
tp872
a(S'codie award'
p873
g2
(g6
S'\xa7O\xfe\xa3Eq\xc8?'
p874
tp875
Rp876
tp877
a(S'educational software'
p878
g2
(g6
S'\xa1\xddHI\xc5h\xc8?'
p879
tp880
Rp881
tp882
a(S'software factory'
p883
g2
(g6
S':\xc1\xc1\xc1/Y\xc8?'
p884
tp885
Rp886
tp887
a(S'neural correlate'
p888
g2
(g6
S'X\xa9\xb1\xf7\xe1R\xc8?'
p889
tp890
Rp891
tp892
a(S'3d data acquisition and object reconstruction'
p893
g2
(g6
S"{\x9e\xc5%'G\xc8?"
p894
tp895
Rp896
tp897
a(S'imageamerica'
p898
g2
(g6
S'0\xbb`\x1e9?\xc8?'
p899
tp900
Rp901
tp902
a(S'genesis (software)'
p903
g2
(g6
S'\xda\x85\xdbs>:\xc8?'
p904
tp905
Rp906
tp907
a(S'outline of free software'
p908
g2
(g6
S'\x91\xee\x873C9\xc8?'
p909
tp910
Rp911
tp912
a(S'list of free and open-source software packages'
p913
g2
(g6
S'`$\x0f\xf1&3\xc8?'
p914
tp915
Rp916
tp917
a(S'hyperneat'
p918
g2
(g6
S'\x9c\xb4A\x13I.\xc8?'
p919
tp920
Rp921
tp922
a(S'software broadcasting'
p923
g2
(g6
S"\xcc5\xda6\xd0'\xc8?"
p924
tp925
Rp926
tp927
a(S'project naptha'
p928
g2
(g6
S'u\xad{\xb7j\x17\xc8?'
p929
tp930
Rp931
tp932
a(S'pixabay'
p933
g2
(g6
S'\xb7g\xba\xfa[\x12\xc8?'
p934
tp935
Rp936
tp937
a(S'orange and bronze software labs'
p938
g2
(g6
S'J\xd7\xc9\xd3L\x11\xc8?'
p939
tp940
Rp941
tp942
a(S'list of amstrad cpc games'
p943
g2
(g6
S'n\xa4\x91\x93\x88\xfd\xc7?'
p944
tp945
Rp946
tp947
a(S'productora de software'
p948
g2
(g6
S'\xd8\xadn \xb9\xf5\xc7?'
p949
tp950
Rp951
tp952
a(S'google home'
p953
g2
(g6
S'\xb4.\xa8\xaae\xf4\xc7?'
p954
tp955
Rp956
tp957
a(S'list of zx spectrum games'
p958
g2
(g6
S'U\xf4P\x15k\xf3\xc7?'
p959
tp960
Rp961
tp962
a(S'software visualization'
p963
g2
(g6
S'\xf3\xaeG\xe7)\xec\xc7?'
p964
tp965
Rp966
tp967
a(S'list of google apps for android'
p968
g2
(g6
S'r\x8e\x11!\xd1\xe3\xc7?'
p969
tp970
Rp971
tp972
a(S'social software'
p973
g2
(g6
S'\x8e\xdd\xa4\xf5P\xe1\xc7?'
p974
tp975
Rp976
tp977
a(S'social software engineering'
p978
g2
(g6
S'\x8c\xc9\xe8\xe1\x1c\xde\xc7?'
p979
tp980
Rp981
tp982
a(S'network agility'
p983
g2
(g6
S'\xf1l\xfd\x15\x88\xd9\xc7?'
p984
tp985
Rp986
tp987
a(S'playonmac'
p988
g2
(g6
S'\xf2GS\xe3\xa4\xd4\xc7?'
p989
tp990
Rp991
tp992
a(S'network administrator'
p993
g2
(g6
S'\xce\x8cfG\xa4\xd1\xc7?'
p994
tp995
Rp996
tp997
a(S'oloneo photoengine'
p998
g2
(g6
S'K\xaa\xe1\xc5\xe3\xce\xc7?'
p999
tp1000
Rp1001
tp1002
a(S'reverse image search'
p1003
g2
(g6
S"\xae'\xdf\xdd\t\xc7\xc7?"
p1004
tp1005
Rp1006
tp1007
a(S'google drawings'
p1008
g2
(g6
S'V\xa8\xdc\xe0\xc9\xc4\xc7?'
p1009
tp1010
Rp1011
tp1012
a(S'winner-take-all (computing)'
p1013
g2
(g6
S'\x8d\xa1\xd3\xf7;\xc0\xc7?'
p1014
tp1015
Rp1016
tp1017
a(S'james a. anderson'
p1018
g2
(g6
S'\x17\xc7\xd0yu\xb9\xc7?'
p1019
tp1020
Rp1021
tp1022
a(S'release engineering'
p1023
g2
(g6
S'\xe7S\xce!\xfc\xb8\xc7?'
p1024
tp1025
Rp1026
tp1027
a(S'free software (disambiguation)'
p1028
g2
(g6
S'\xd1cS\x1b\x82\xb7\xc7?'
p1029
tp1030
Rp1031
tp1032
a(S'overhead imagery research data set'
p1033
g2
(g6
S'D\xbe\xef\xba\x9e\xb2\xc7?'
p1034
tp1035
Rp1036
tp1037
a(S'software engineer'
p1038
g2
(g6
S'\xd6,p\x96_\xb1\xc7?'
p1039
tp1040
Rp1041
tp1042
a(S'long short-term memory'
p1043
g2
(g6
S'T.>\x8b$\xb1\xc7?'
p1044
tp1045
Rp1046
tp1047
a(S'google account'
p1048
g2
(g6
S'\xd7\x0b? \xd4\xae\xc7?'
p1049
tp1050
Rp1051
tp1052
a(S'privacy concerns regarding google'
p1053
g2
(g6
S'\xc7\xb7\t\x94\xe3\xaa\xc7?'
p1054
tp1055
Rp1056
tp1057
a(S'tineye'
p1058
g2
(g6
S'\xbb\xcb\x15\xf8\xda\xaa\xc7?'
p1059
tp1060
Rp1061
tp1062
a(S'image registration'
p1063
g2
(g6
S'/r3@8\xa9\xc7?'
p1064
tp1065
Rp1066
tp1067
a(S'index of software engineering articles'
p1068
g2
(g6
S'v\xabV\x16\xc4\xa7\xc7?'
p1069
tp1070
Rp1071
tp1072
a(S'cerebral polyopia'
p1073
g2
(g6
S'|\xb1\xfc2\xb7\xa7\xc7?'
p1074
tp1075
Rp1076
tp1077
a(S'hashicorp'
p1078
g2
(g6
S'\x1d\xcd\xa1r\xa8\x9a\xc7?'
p1079
tp1080
Rp1081
tp1082
a(S'software rot'
p1083
g2
(g6
S'\xd8_\x8f"\x1b\x9a\xc7?'
p1084
tp1085
Rp1086
tp1087
a(S'google now'
p1088
g2
(g6
S'\xf1\xbc\xe4\xa9~\x93\xc7?'
p1089
tp1090
Rp1091
tp1092
a(S'google maps'
p1093
g2
(g6
S'q\x89\xea?&\x90\xc7?'
p1094
tp1095
Rp1096
tp1097
a(S'software industry in china'
p1098
g2
(g6
S'\xe7 g\x96\xc5\x8a\xc7?'
p1099
tp1100
Rp1101
tp1102
a(S'terraserver.com'
p1103
g2
(g6
S'\xeb\n\x189U\x7f\xc7?'
p1104
tp1105
Rp1106
tp1107
a(S'google business solutions'
p1108
g2
(g6
S'\x15\x91p\x92\x11\x7f\xc7?'
p1109
tp1110
Rp1111
tp1112
a(S'software factory (microsoft .net)'
p1113
g2
(g6
S'+\xcd\x96t\x9b}\xc7?'
p1114
tp1115
Rp1116
tp1117
a(S'outline of google'
p1118
g2
(g6
S'%\xa6.P\x9cy\xc7?'
p1119
tp1120
Rp1121
tp1122
a(S'jeff dean (computer scientist)'
p1123
g2
(g6
S'\xa5%k\xbb\x86v\xc7?'
p1124
tp1125
Rp1126
tp1127
a(S'shutterstock'
p1128
g2
(g6
S'6\xb1$\x8cFt\xc7?'
p1129
tp1130
Rp1131
tp1132
a(S'probabilistic neural network'
p1133
g2
(g6
S'\xd7~j\xdf q\xc7?'
p1134
tp1135
Rp1136
tp1137
a(S'adware'
p1138
g2
(g6
S'5\xd6.\xc5[i\xc7?'
p1139
tp1140
Rp1141
tp1142
a(S'googlization'
p1143
g2
(g6
S'\xa7}6\xe4\xdbf\xc7?'
p1144
tp1145
Rp1146
tp1147
a(S'neural adaptation'
p1148
g2
(g6
S'\x7f\xdd\xcd\x1d\xd0d\xc7?'
p1149
tp1150
Rp1151
tp1152
a(S'spaces (app)'
p1153
g2
(g6
S'k\x17\xc4\x14p]\xc7?'
p1154
tp1155
Rp1156
tp1157
a(S'wesley chan'
p1158
g2
(g6
S'\xbc\xbf\x95\xc8\xc3\\\xc7?'
p1159
tp1160
Rp1161
tp1162
a(S'satellite imagery'
p1163
g2
(g6
S'^\x1b6\xe9\xdaY\xc7?'
p1164
tp1165
Rp1166
tp1167
a(S'stephen grossberg'
p1168
g2
(g6
S'=\x9f\xd3\xfd\rX\xc7?'
p1169
tp1170
Rp1171
tp1172
a(S'software developer'
p1173
g2
(g6
S'_\xdb4\xd8\xbeR\xc7?'
p1174
tp1175
Rp1176
tp1177
a(S'urs h\xc3\xb6lzle'
p1178
g2
(g6
S'\xa3\xc7V\xd7\x12L\xc7?'
p1179
tp1180
Rp1181
tp1182
a(S'google quick search box'
p1183
g2
(g6
S'6\xf2\x05"\xc5I\xc7?'
p1184
tp1185
Rp1186
tp1187
a(S'bachelor of software engineering'
p1188
g2
(g6
S'\x96\x17\xd9I#H\xc7?'
p1189
tp1190
Rp1191
tp1192
a(S'revulytics'
p1193
g2
(g6
S'\x99\x82\x16\xbf\xd0G\xc7?'
p1194
tp1195
Rp1196
tp1197
a(S'software (disambiguation)'
p1198
g2
(g6
S'\x97[\xddVQ;\xc7?'
p1199
tp1200
Rp1201
tp1202
a(S'abandonware'
p1203
g2
(g6
S'\xc7!O\x92\xd39\xc7?'
p1204
tp1205
Rp1206
tp1207
a(S'branded entertainment network'
p1208
g2
(g6
S'\xa3\xe0\xb2\xb7\x937\xc7?'
p1209
tp1210
Rp1211
tp1212
a(S'kak neural network'
p1213
g2
(g6
S'3\xb8\x98\xa3\xe94\xc7?'
p1214
tp1215
Rp1216
tp1217
a(S'robert l. glass'
p1218
g2
(g6
S',\xdb\x90u\x8f)\xc7?'
p1219
tp1220
Rp1221
tp1222
a(S'google litigation'
p1223
g2
(g6
S'\xcd\x1d5\x82\r%\xc7?'
p1224
tp1225
Rp1226
tp1227
a(S'software-defined mobile network'
p1228
g2
(g6
S'p\x1b\xd56\xfe$\xc7?'
p1229
tp1230
Rp1231
tp1232
a(S'neurula'
p1233
g2
(g6
S'\x7f\x04\x1f\x1c\xb3$\xc7?'
p1234
tp1235
Rp1236
tp1237
a(S'bitsdujour'
p1238
g2
(g6
S'\xaaa~\xcfb$\xc7?'
p1239
tp1240
Rp1241
tp1242
a(S'google desktop'
p1243
g2
(g6
S'v\xd8vv\x12"\xc7?'
p1244
tp1245
Rp1246
tp1247
a(S'phantogram'
p1248
g2
(g6
S'\xf9)t\x9b\xdb!\xc7?'
p1249
tp1250
Rp1251
tp1252
a(S'computing'
p1253
g2
(g6
S'\x84\xa8\xc0wD!\xc7?'
p1254
tp1255
Rp1256
tp1257
a(S'intelligent computer network'
p1258
g2
(g6
S')\xb1\xcb\xc2\xba \xc7?'
p1259
tp1260
Rp1261
tp1262
a(S'gigapan'
p1263
g2
(g6
S'KK\xe1\x88\xb5\x19\xc7?'
p1264
tp1265
Rp1266
tp1267
a(S'quantum neural network'
p1268
g2
(g6
S'`\xc3\x06\xd2\x91\x17\xc7?'
p1269
tp1270
Rp1271
tp1272
a(S'computer-generated imagery'
p1273
g2
(g6
S'\xa8\x19{\xba\x14\x16\xc7?'
p1274
tp1275
Rp1276
tp1277
a(S'google page creator'
p1278
g2
(g6
S'\xd4&\x01\xc2\xd7\x15\xc7?'
p1279
tp1280
Rp1281
tp1282
a(S'photomatix pro'
p1283
g2
(g6
S'\xd1\xb9\x91\xdaD\x12\xc7?'
p1284
tp1285
Rp1286
tp1287
a(S'google docs, sheets and slides'
p1288
g2
(g6
S'c\xc1\xc8d\xdb\x11\xc7?'
p1289
tp1290
Rp1291
tp1292
a(S'software license'
p1293
g2
(g6
S'\xdd,\xb9\xd6\xe6\x0c\xc7?'
p1294
tp1295
Rp1296
tp1297
a(S'neuroectoderm'
p1298
g2
(g6
S']\xdf\xf66\xe1\x0b\xc7?'
p1299
tp1300
Rp1301
tp1302
a(S'stipple (company)'
p1303
g2
(g6
S'\xa7\x08\xec\x9a\xf5\x06\xc7?'
p1304
tp1305
Rp1306
tp1307
a(S'google assistant'
p1308
g2
(g6
S'x\xc9\xc6}\xc0\x04\xc7?'
p1309
tp1310
Rp1311
tp1312
a(S'colocalization benchmark source'
p1313
g2
(g6
S'\xd0\xfe\x96!#\x04\xc7?'
p1314
tp1315
Rp1316
tp1317
a(S'picasa web albums'
p1318
g2
(g6
S'\xda\xba\x1f*I\x03\xc7?'
p1319
tp1320
Rp1321
tp1322
a(S'software crisis'
p1323
g2
(g6
S'\xd5MP\xd0\x0e\xfc\xc6?'
p1324
tp1325
Rp1326
tp1327
a(S'wiggle stereoscopy'
p1328
g2
(g6
S'_\xed\x90\xfd\x98\xfb\xc6?'
p1329
tp1330
Rp1331
tp1332
a(S'google wifi'
p1333
g2
(g6
S'\xac9\xb6\xdcI\xfb\xc6?'
p1334
tp1335
Rp1336
tp1337
a(S'list of gold coast suburbs'
p1338
g2
(g6
S'\xdb\x89\x9a^\x86\xfa\xc6?'
p1339
tp1340
Rp1341
tp1342
a(S'semantic neural network'
p1343
g2
(g6
S'E\xd4\x8e\xba\xf1\xee\xc6?'
p1344
tp1345
Rp1346
tp1347
a(S'tore dyb\xc3\xa5'
p1348
g2
(g6
S'@\xaa\xeb\xb4\x90\xeb\xc6?'
p1349
tp1350
Rp1351
tp1352
a(S'neuroevolution'
p1353
g2
(g6
S'\xd9\xe2\x90\xe1[\xeb\xc6?'
p1354
tp1355
Rp1356
tp1357
a(S'network emulation'
p1358
g2
(g6
S'\xab\x7fw*\xee\xe7\xc6?'
p1359
tp1360
Rp1361
tp1362
a(S'software design'
p1363
g2
(g6
S'\xf9Is\x9d\x8f\xe7\xc6?'
p1364
tp1365
Rp1366
tp1367
a(S'software manufacturing'
p1368
g2
(g6
S"\x00\x17\xad'x\xe6\xc6?"
p1369
tp1370
Rp1371
tp1372
a(S'list of australian game shows'
p1373
g2
(g6
S'\xda\xf0\xabbb\xe1\xc6?'
p1374
tp1375
Rp1376
tp1377
a(S'google china'
p1378
g2
(g6
S'\x1b\xf36:\xff\xe0\xc6?'
p1379
tp1380
Rp1381
tp1382
a(S'network domain'
p1383
g2
(g6
S"'\x1d\x94\x92\xee\xdd\xc6?"
p1384
tp1385
Rp1386
tp1387
a(S'g suite'
p1388
g2
(g6
S'\xa0\x10N z\xd8\xc6?'
p1389
tp1390
Rp1391
tp1392
a(S'computer network'
p1393
g2
(g6
S'\xacC\xbcU\xd1\xd6\xc6?'
p1394
tp1395
Rp1396
tp1397
a(S'wang institute of graduate studies'
p1398
g2
(g6
S'\x0b\xc3\x83\x85\x9a\xd0\xc6?'
p1399
tp1400
Rp1401
tp1402
a(S'index of dos games (b)'
p1403
g2
(g6
S'\x825\\X\xea\xcc\xc6?'
p1404
tp1405
Rp1406
tp1407
a(S'baltix'
p1408
g2
(g6
S'p\xde4\xe3\x9b\xca\xc6?'
p1409
tp1410
Rp1411
tp1412
a(S'google keep'
p1413
g2
(g6
S'\xde\xfc\xc4\xe4y\xca\xc6?'
p1414
tp1415
Rp1416
tp1417
a(S'massimiliano versace'
p1418
g2
(g6
S'+QZ\xe8\x00\xc4\xc6?'
p1419
tp1420
Rp1421
tp1422
a(S'picturenation'
p1423
g2
(g6
S'\xb0\x84\x91L\xb7\xc3\xc6?'
p1424
tp1425
Rp1426
tp1427
a(S'sigsoft'
p1428
g2
(g6
S'\x99\x8c\xde\xf6\x9b\xc0\xc6?'
p1429
tp1430
Rp1431
tp1432
a(S'updatestar'
p1433
g2
(g6
S'\xb2p\xff\xfa\x1e\xbf\xc6?'
p1434
tp1435
Rp1436
tp1437
a(S'software product line'
p1438
g2
(g6
S'\xbaA9}\x9c\xbc\xc6?'
p1439
tp1440
Rp1441
tp1442
a(S'google affiliate network'
p1443
g2
(g6
S'3\xea\xc0\xc3\x04\xbc\xc6?'
p1444
tp1445
Rp1446
tp1447
a(S'gigamacro'
p1448
g2
(g6
S'\xeay\x1a]\x82\xba\xc6?'
p1449
tp1450
Rp1451
tp1452
a(S'catastrophic interference'
p1453
g2
(g6
S'\x0f+\xd6\xf6\xba\xb6\xc6?'
p1454
tp1455
Rp1456
tp1457
a(S'software monetization'
p1458
g2
(g6
S'\xf0k$\xc09\xb6\xc6?'
p1459
tp1460
Rp1461
tp1462
a(S'guided imagery'
p1463
g2
(g6
S'ki\xceK\xaf\xb5\xc6?'
p1464
tp1465
Rp1466
tp1467
a(S'software metering'
p1468
g2
(g6
S'Z\x93\xb3wy\xb5\xc6?'
p1469
tp1470
Rp1471
tp1472
a(S'neural development'
p1473
g2
(g6
S'\x08\x15E\xba,\xb0\xc6?'
p1474
tp1475
Rp1476
tp1477
a(S'list of artificial intelligence projects'
p1478
g2
(g6
S'\x03\x16\xaf*\x8a\xac\xc6?'
p1479
tp1480
Rp1481
tp1482
a(S'buddha images in thailand'
p1483
g2
(g6
S'\xe9\xe7\x15C!\xa8\xc6?'
p1484
tp1485
Rp1486
tp1487
a(S'form constant'
p1488
g2
(g6
S'D_\xa0\xd2\xcb\xa7\xc6?'
p1489
tp1490
Rp1491
tp1492
a(S'caltech 101'
p1493
g2
(g6
S'\r\xb8\x0f\xc9\xeb\xa5\xc6?'
p1494
tp1495
Rp1496
tp1497
a(S'visualrank'
p1498
g2
(g6
S'\x16[\xc6\xa8\xc2\xa1\xc6?'
p1499
tp1500
Rp1501
tp1502
a(S'music software'
p1503
g2
(g6
S'\x82\xcd&aT\xa1\xc6?'
p1504
tp1505
Rp1506
tp1507
a(S'index of dos games (l)'
p1508
g2
(g6
S'\x0c \x8a\xf3\xb1\x94\xc6?'
p1509
tp1510
Rp1511
tp1512
a.