(lp0
(S'deep learning'
p1
cnumpy.core.multiarray
scalar
p2
(cnumpy
dtype
p3
(S'f8'
p4
I0
I1
tp5
Rp6
(I3
S'<'
p7
NNNI-1
I-1
I0
tp8
bS'\xfe\xff\xff\xff\xff\xff\xef?'
p9
tp10
Rp11
tp12
a(S'artificial neural network'
p13
g2
(g6
S'n\x9c\x14^hN\xe6?'
p14
tp15
Rp16
tp17
a(S'recurrent neural network'
p18
g2
(g6
S'\xf5\xf91\xee\x87\xb3\xe5?'
p19
tp20
Rp21
tp22
a(S'vanishing gradient problem'
p23
g2
(g6
S'\xee\xf2\x06\xf1\xba\xaa\xe5?'
p24
tp25
Rp26
tp27
a(S'types of artificial neural networks'
p28
g2
(g6
S'h\x151hnp\xe4?'
p29
tp30
Rp31
tp32
a(S'comparison of deep learning software/resources'
p33
g2
(g6
S'\x16}\xdb\x96\x93=\xe3?'
p34
tp35
Rp36
tp37
a(S'convolutional neural network'
p38
g2
(g6
S'\x90dU\xf4\xa0S\xe2?'
p39
tp40
Rp41
tp42
a(S'timeline of machine learning'
p43
g2
(g6
S'\x9b\xca\x10\x9d\xd8\x99\xe1?'
p44
tp45
Rp46
tp47
a(S'encog'
p48
g2
(g6
S'g\xb4\n\xaa\x9bi\xe1?'
p49
tp50
Rp51
tp52
a(S'machine learning'
p53
g2
(g6
S'\xd9G(\xb46Q\xe1?'
p54
tp55
Rp56
tp57
a(S'time delay neural network'
p58
g2
(g6
S'\x8b\xb2z\xf8D!\xe1?'
p59
tp60
Rp61
tp62
a(S'deep belief network'
p63
g2
(g6
S'V\x84\xff\xfa\xec\x06\xe1?'
p64
tp65
Rp66
tp67
a(S'opennn'
p68
g2
(g6
S'\n\x0eM\t\x1d\xb8\xe0?'
p69
tp70
Rp71
tp72
a(S'feature learning'
p73
g2
(g6
S"%\x19\x81'|\xab\xe0?"
p74
tp75
Rp76
tp77
a(S'feedforward neural network'
p78
g2
(g6
S'1P\xa43\xa5d\xe0?'
p79
tp80
Rp81
tp82
a(S'list of machine learning concepts'
p83
g2
(g6
S'\xca\xca\xbbw\x0e3\xe0?'
p84
tp85
Rp86
tp87
a(S'random neural network'
p88
g2
(g6
S'\xd3\xfau\xb8\xae\x1a\xe0?'
p89
tp90
Rp91
tp92
a(S'connectionism'
p93
g2
(g6
S'\x9f\xe8\x12\x1c!\xce\xdf?'
p94
tp95
Rp96
tp97
a(S'neuroph'
p98
g2
(g6
S'"\xe4\x91\xe5:Y\xdf?'
p99
tp100
Rp101
tp102
a(S'recursive neural network'
p103
g2
(g6
S'z}!\xb9u\x12\xdf?'
p104
tp105
Rp106
tp107
a(S'catastrophic interference'
p108
g2
(g6
S'\r\\\xf8\x90C\xf0\xde?'
p109
tp110
Rp111
tp112
a(S'neural network software'
p113
g2
(g6
S'\xfa\xae\xcc\xc0c\xe0\xde?'
p114
tp115
Rp116
tp117
a(S'convolutional deep belief networks'
p118
g2
(g6
S'\x84T\x9d\xc0\x87\x8d\xde?'
p119
tp120
Rp121
tp122
a(S'neural lab'
p123
g2
(g6
S'\xbd\xdb\xb6\x97\x02\x86\xde?'
p124
tp125
Rp126
tp127
a(S'deeplearning4j'
p128
g2
(g6
S'E/\t\xf4\xabp\xde?'
p129
tp130
Rp131
tp132
a(S'instantaneously trained neural networks'
p133
g2
(g6
S'M\xabB\xad\xc8+\xde?'
p134
tp135
Rp136
tp137
a(S'neurosolutions'
p138
g2
(g6
S'\xac\xfc\xf0\x85$\xa1\xdd?'
p139
tp140
Rp141
tp142
a(S'neural designer'
p143
g2
(g6
S'\x82\xba\xad@\xf4\x8c\xdd?'
p144
tp145
Rp146
tp147
a(S'sepp hochreiter'
p148
g2
(g6
S'\xf8q:D\xd3\x86\xdd?'
p149
tp150
Rp151
tp152
a(S'speech recognition'
p153
g2
(g6
S'W\xfd\xf5=\xf7{\xdd?'
p154
tp155
Rp156
tp157
a(S'stephen grossberg'
p158
g2
(g6
S'\x1d\xc5\xe0dPw\xdd?'
p159
tp160
Rp161
tp162
a(S'computational neurogenetic modeling'
p163
g2
(g6
S'5\x1f\x1b\xa3\t<\xdd?'
p164
tp165
Rp166
tp167
a(S'autoencoder'
p168
g2
(g6
S'\xd0\x9c1\x07#6\xdd?'
p169
tp170
Rp171
tp172
a(S'neural cryptography'
p173
g2
(g6
S'\xb9q\x17V8"\xdd?'
p174
tp175
Rp176
tp177
a(S'unsupervised learning'
p178
g2
(g6
S'\xc9\xad\xcd9\x0e\xe7\xdc?'
p179
tp180
Rp181
tp182
a(S'long short-term memory'
p183
g2
(g6
S'\xd9\x10>[|\xa3\xdc?'
p184
tp185
Rp186
tp187
a(S'joone'
p188
g2
(g6
S'\x87O\x0e\xb5\x9dm\xdc?'
p189
tp190
Rp191
tp192
a(S'physical neural network'
p193
g2
(g6
S'\xe7\x15)\x87\xecQ\xdc?'
p194
tp195
Rp196
tp197
a(S'skymind'
p198
g2
(g6
S'ou\x0e\x8cRE\xdc?'
p199
tp200
Rp201
tp202
a(S'perceptron'
p203
g2
(g6
S'?\x94\xc8\x941#\xdc?'
p204
tp205
Rp206
tp207
a(S'neocognitron'
p208
g2
(g6
S'eC\xb3\x0e\xc7\xf2\xdb?'
p209
tp210
Rp211
tp212
a(S'backpropagation'
p213
g2
(g6
S'\xd2\xa5\x85\x9d\x81\xeb\xdb?'
p214
tp215
Rp216
tp217
a(S'probabilistic neural network'
p218
g2
(g6
S'\x9cK\xad/^\xc0\xdb?'
p219
tp220
Rp221
tp222
a(S'ronald j. williams'
p223
g2
(g6
S'eV\xfeE\xeb\x95\xdb?'
p224
tp225
Rp226
tp227
a(S'differentiable neural computer'
p228
g2
(g6
S'\t\xe5\\`\x1d\x82\xdb?'
p229
tp230
Rp231
tp232
a(S'neural gas'
p233
g2
(g6
S'\x92\xb4\x87\xfd>b\xdb?'
p234
tp235
Rp236
tp237
a(S'keras'
p238
g2
(g6
S'\x1b\x15\x08\xf8\xf6G\xdb?'
p239
tp240
Rp241
tp242
a(S'modular neural network'
p243
g2
(g6
S' \xa3\x9c\x86\x14\xf5\xda?'
p244
tp245
Rp246
tp247
a(S'spiking neural network'
p248
g2
(g6
S'8Z;\x89\xfe\xf1\xda?'
p249
tp250
Rp251
tp252
a(S'supervised learning'
p253
g2
(g6
S'\x04xL\x89\x0f\xd9\xda?'
p254
tp255
Rp256
tp257
a(S'neural machine translation'
p258
g2
(g6
S'.\xc8\x9d\xa5\xcdi\xda?'
p259
tp260
Rp261
tp262
a(S'neural turing machine'
p263
g2
(g6
S'\x05V\xa1\xb1\x07\xa2\xd9?'
p264
tp265
Rp266
tp267
a(S'pattern recognition'
p268
g2
(g6
S'N\xd4\xdd\x9a\x85\x9a\xd9?'
p269
tp270
Rp271
tp272
a(S'mnist database'
p273
g2
(g6
S'{#\xa6k6\x8d\xd9?'
p274
tp275
Rp276
tp277
a(S'geoffrey hinton'
p278
g2
(g6
S'w\xd7\xad\xe7\x95<\xd9?'
p279
tp280
Rp281
tp282
a(S'hopfield network'
p283
g2
(g6
S'\xbe\xfd\xff\xea\xab2\xd9?'
p284
tp285
Rp286
tp287
a(S'winner-take-all (computing)'
p288
g2
(g6
S'\xe6\xb9\x98P\xcb \xd9?'
p289
tp290
Rp291
tp292
a(S'darkforest'
p293
g2
(g6
S'\xc08D\xf9\x92\x1f\xd9?'
p294
tp295
Rp296
tp297
a(S'rectifier (neural networks)'
p298
g2
(g6
S'rD\xd2\xf7\x11\x14\xd9?'
p299
tp300
Rp301
tp302
a(S'backpropagation through time'
p303
g2
(g6
S'\xdb\x98\x11\xba\xeb\x10\xd9?'
p304
tp305
Rp306
tp307
a(S'bidirectional recurrent neural networks'
p308
g2
(g6
S'n\x82\x9c\n\xf9\xec\xd8?'
p309
tp310
Rp311
tp312
a(S'yann lecun'
p313
g2
(g6
S'\xf0\xca\xa9\xc2\xfa\xb8\xd8?'
p314
tp315
Rp316
tp317
a(S'neural network synchronization protocol'
p318
g2
(g6
S'\x1cai\x9a\x97B\xd8?'
p319
tp320
Rp321
tp322
a(S'apache singa'
p323
g2
(g6
S'q\xf8\nz\x029\xd8?'
p324
tp325
Rp326
tp327
a(S'neural engineering'
p328
g2
(g6
S'u\xc5\xf4\x1e\x867\xd8?'
p329
tp330
Rp331
tp332
a(S'confabulation (neural networks)'
p333
g2
(g6
S'\xe6:\xe1\x04\xb53\xd8?'
p334
tp335
Rp336
tp337
a(S'paul werbos'
p338
g2
(g6
S"$W'\xcc\x84/\xd8?"
p339
tp340
Rp341
tp342
a(S'multilayer perceptron'
p343
g2
(g6
S'\xcd#U\xfe\xa9)\xd8?'
p344
tp345
Rp346
tp347
a(S'learning rule'
p348
g2
(g6
S'\x02\xcb<\xe7\x01\x0b\xd8?'
p349
tp350
Rp351
tp352
a(S'ieee transactions on neural networks and learning systems'
p353
g2
(g6
S'LC\x82o\xef\xf2\xd7?'
p354
tp355
Rp356
tp357
a(S'wake-sleep algorithm'
p358
g2
(g6
S'p\xfb\x80\x1a\xe9\xeb\xd7?'
p359
tp360
Rp361
tp362
a(S'adaline'
p363
g2
(g6
S'\xc1\x18w|\x89\xeb\xd7?'
p364
tp365
Rp366
tp367
a(S'learning'
p368
g2
(g6
S'\xde\xda\x8d\xad\x9c\xc5\xd7?'
p369
tp370
Rp371
tp372
a(S'marketing and artificial intelligence'
p373
g2
(g6
S'\x03\xb7\x15\x10\x1c\x94\xd7?'
p374
tp375
Rp376
tp377
a(S'snns'
p378
g2
(g6
S'h\x02\x1e\xb2\xcf\x86\xd7?'
p379
tp380
Rp381
tp382
a(S'almeida\xe2\x80\x93pineda recurrent backpropagation'
p383
g2
(g6
S'\xbdU8h\xf0r\xd7?'
p384
tp385
Rp386
tp387
a(S'q-learning'
p388
g2
(g6
S'\xc1\x83\xaf\x0f[f\xd7?'
p389
tp390
Rp391
tp392
a(S'optical neural network'
p393
g2
(g6
S'Z\xc7\xc3\x1a\xf4?\xd7?'
p394
tp395
Rp396
tp397
a(S'extreme learning machine'
p398
g2
(g6
S'\xe2c\xb9v\r2\xd7?'
p399
tp400
Rp401
tp402
a(S'deep'
p403
g2
(g6
S'5C\x1e\xd6E/\xd7?'
p404
tp405
Rp406
tp407
a(S'generalization error'
p408
g2
(g6
S'b\xba\x88\x1b\x82\x15\xd7?'
p409
tp410
Rp411
tp412
a(S'competitive learning'
p413
g2
(g6
S'dJ\xee&\x01\x08\xd7?'
p414
tp415
Rp416
tp417
a(S'biological neural network'
p418
g2
(g6
S'\x0f)\xb7P\xf3\xf9\xd6?'
p419
tp420
Rp421
tp422
a(S'bcpnn'
p423
g2
(g6
S'l9\xf1#\xcc\xd2\xd6?'
p424
tp425
Rp426
tp427
a(S'artificial intelligence'
p428
g2
(g6
S'\xcb\xd2\xaf\x15\xa7\xaf\xd6?'
p429
tp430
Rp431
tp432
a(S'massimiliano versace'
p433
g2
(g6
S'2\xc3\xd8\xd9\xa5\xa0\xd6?'
p434
tp435
Rp436
tp437
a(S'semi-supervised learning'
p438
g2
(g6
S'!\xf7O\x0c\xb2\x9a\xd6?'
p439
tp440
Rp441
tp442
a(S'cognitive architecture'
p443
g2
(g6
S'\xbe\x9c\xe3X\x7f\x8e\xd6?'
p444
tp445
Rp446
tp447
a(S"artur d'avila garcez"
p448
g2
(g6
S'p\x1c0\x95\xf1\x8c\xd6?'
p449
tp450
Rp451
tp452
a(S'neural networks (journal)'
p453
g2
(g6
S'\n\xd0g\xe97x\xd6?'
p454
tp455
Rp456
tp457
a(S'neural plate'
p458
g2
(g6
S'@e\xba|ti\xd6?'
p459
tp460
Rp461
tp462
a(S'service-learning'
p463
g2
(g6
S'\xfc\xf7\x9f\xaf\xa3d\xd6?'
p464
tp465
Rp466
tp467
a(S'hierarchical temporal memory'
p468
g2
(g6
S'P\xean\xd4\xa0d\xd6?'
p469
tp470
Rp471
tp472
a(S'learning cell'
p473
g2
(g6
S'\x19\xbb\xa0\x95\x01W\xd6?'
p474
tp475
Rp476
tp477
a(S'ensemble averaging (machine learning)'
p478
g2
(g6
S'\x07\xa0%\xad\xa54\xd6?'
p479
tp480
Rp481
tp482
a(S'neurodimension'
p483
g2
(g6
S'\x8b\xf0\x01:>#\xd6?'
p484
tp485
Rp486
tp487
a(S'nonlinear system identification'
p488
g2
(g6
S'\x80f\xd3"\xf6"\xd6?'
p489
tp490
Rp491
tp492
a(S'james a. anderson'
p493
g2
(g6
S'\xe6\xeb\x98?\xbe"\xd6?'
p494
tp495
Rp496
tp497
a(S'tensorflow'
p498
g2
(g6
S'I\x81@>\xcb\x1f\xd6?'
p499
tp500
Rp501
tp502
a(S'learning environment'
p503
g2
(g6
S'\xb9uX~\xad\x13\xd6?'
p504
tp505
Rp506
tp507
a(S'learning vector quantization'
p508
g2
(g6
S'\x7f\xa9\x9d(\x9d\x00\xd6?'
p509
tp510
Rp511
tp512
a(S'conference on neural information processing systems'
p513
g2
(g6
S'\x8d\x18~\xc2O\xfb\xd5?'
p514
tp515
Rp516
tp517
a(S'mxnet'
p518
g2
(g6
S'\xf7\x90\xd9\xc1\x12\xf9\xd5?'
p519
tp520
Rp521
tp522
a(S'list of artificial intelligence projects'
p523
g2
(g6
S'\x85}\xf0~\xad\xf6\xd5?'
p524
tp525
Rp526
tp527
a(S'steve omohundro'
p528
g2
(g6
S'\xcd\x19\x95h\xd1\xe2\xd5?'
p529
tp530
Rp531
tp532
a(S'logic learning machine'
p533
g2
(g6
S'\xd6\xde\xe6]\xb5\xd7\xd5?'
p534
tp535
Rp536
tp537
a(S'regulatory feedback network'
p538
g2
(g6
S'\x00\x85\x9e\xae\x92\xcf\xd5?'
p539
tp540
Rp541
tp542
a(S'neural crest'
p543
g2
(g6
S'\xc5\x0c\xff\x9c\xf1\xce\xd5?'
p544
tp545
Rp546
tp547
a(S'learning theory (education)'
p548
g2
(g6
S'&h|.3\xb7\xd5?'
p549
tp550
Rp551
tp552
a(S'neural fold'
p553
g2
(g6
S'B@\xb1\xdf\xe5\xa9\xd5?'
p554
tp555
Rp556
tp557
a(S'european neural network society'
p558
g2
(g6
S'\xfa\x81C\x89u\xa9\xd5?'
p559
tp560
Rp561
tp562
a(S'meta learning (computer science)'
p563
g2
(g6
S'\xe4\xe1\xb3H\xed\xa8\xd5?'
p564
tp565
Rp566
tp567
a(S'neurorobotics'
p568
g2
(g6
S'==2\x92@\x9a\xd5?'
p569
tp570
Rp571
tp572
a(S'neurulation'
p573
g2
(g6
S'\xccU\xa2\xc8\xeb\x83\xd5?'
p574
tp575
Rp576
tp577
a(S'learning plan'
p578
g2
(g6
S'\xbb\xe09Afx\xd5?'
p579
tp580
Rp581
tp582
a(S'quantum neural network'
p583
g2
(g6
S'\x85\x85\xe1\xd1\tq\xd5?'
p584
tp585
Rp586
tp587
a(S'hyperneat'
p588
g2
(g6
S'o\x9f\xc19\xa5j\xd5?'
p589
tp590
Rp591
tp592
a(S'educational technology'
p593
g2
(g6
S'n\x0fj\xca\xe3i\xd5?'
p594
tp595
Rp596
tp597
a(S'ai accelerator'
p598
g2
(g6
S'\xd4H,;\x83Q\xd5?'
p599
tp600
Rp601
tp602
a(S'statistical learning theory'
p603
g2
(g6
S'\xf6o\x1f%\x99D\xd5?'
p604
tp605
Rp606
tp607
a(S'connectivism'
p608
g2
(g6
S'\xf1ITn\xf3)\xd5?'
p609
tp610
Rp611
tp612
a(S'eager learning'
p613
g2
(g6
S'/\xfa\xd6\x12J)\xd5?'
p614
tp615
Rp616
tp617
a(S'active learning'
p618
g2
(g6
S"5,\xba.\x89'\xd5?"
p619
tp620
Rp621
tp622
a(S'neural tube'
p623
g2
(g6
S'STl\xe5\xec \xd5?'
p624
tp625
Rp626
tp627
a(S'extension neural network'
p628
g2
(g6
S'\xdd\x8e\nq\x9c\x17\xd5?'
p629
tp630
Rp631
tp632
a(S'situated learning'
p633
g2
(g6
S')\xe7\x91Dz\x0f\xd5?'
p634
tp635
Rp636
tp637
a(S'stochastic neural network'
p638
g2
(g6
S'b\xf6\xbap\xb4\t\xd5?'
p639
tp640
Rp641
tp642
a(S'hyper basis function network'
p643
g2
(g6
S'\x84\xf6$"\xc2\xff\xd4?'
p644
tp645
Rp646
tp647
a(S'learning object'
p648
g2
(g6
S'\xe3\xa4\x03\x1e\xd5\xfd\xd4?'
p649
tp650
Rp651
tp652
a(S'online machine learning'
p653
g2
(g6
S'\xad% ,\x16\xfc\xd4?'
p654
tp655
Rp656
tp657
a(S'networked learning'
p658
g2
(g6
S')7\xdc\xb3\xfc\xee\xd4?'
p659
tp660
Rp661
tp662
a(S'connected learning'
p663
g2
(g6
S'@&\x9dc\x8e\xeb\xd4?'
p664
tp665
Rp666
tp667
a(S'vowpal wabbit'
p668
g2
(g6
S'Q\xc3\x89\xb0\x92\xe4\xd4?'
p669
tp670
Rp671
tp672
a(S'learning sciences'
p673
g2
(g6
S'\x07\xca\xb3\x0b\xcf\xdd\xd4?'
p674
tp675
Rp676
tp677
a(S'action learning'
p678
g2
(g6
S'\xcf\x1b\xaf\xb3\x19\xdc\xd4?'
p679
tp680
Rp681
tp682
a(S'michael a. arbib'
p683
g2
(g6
S'M\x02\xb3|\xe7\xd8\xd4?'
p684
tp685
Rp686
tp687
a(S'learning society'
p688
g2
(g6
S'D\x8d\xd4T\xcd\xc0\xd4?'
p689
tp690
Rp691
tp692
a(S'kak neural network'
p693
g2
(g6
S'N\x8fB\x1a\xc8\xac\xd4?'
p694
tp695
Rp696
tp697
a(S'personal learning network'
p698
g2
(g6
S'\xf0\xeb\x8c\xbd\xdb\xa7\xd4?'
p699
tp700
Rp701
tp702
a(S'lifelong learning'
p703
g2
(g6
S'\x88\xe2~\xd03\xa2\xd4?'
p704
tp705
Rp706
tp707
a(S'learning styles'
p708
g2
(g6
S'\\x\xe1\xa6\x8e\x9c\xd4?'
p709
tp710
Rp711
tp712
a(S'multi-task learning'
p713
g2
(g6
S'+K\x9dhG\x92\xd4?'
p714
tp715
Rp716
tp717
a(S'evolutionary acquisition of neural topologies'
p718
g2
(g6
S'\xa2\x18\xf73\xe1w\xd4?'
p719
tp720
Rp721
tp722
a(S'active learning (machine learning)'
p723
g2
(g6
S'\x95\xc0\xa8\xe8\xe9s\xd4?'
p724
tp725
Rp726
tp727
a(S'microtraining'
p728
g2
(g6
S'5\xd7\xceN\xe9p\xd4?'
p729
tp730
Rp731
tp732
a(S'helmholtz machine'
p733
g2
(g6
S'\n\xbc\xb2\x17\xb9n\xd4?'
p734
tp735
Rp736
tp737
a(S'learning space'
p738
g2
(g6
S'\xb5\x9a\x10\x81p_\xd4?'
p739
tp740
Rp741
tp742
a(S'neural groove'
p743
g2
(g6
S'\x9f\x98\x93wGL\xd4?'
p744
tp745
Rp746
tp747
a(S'restricted boltzmann machine'
p748
g2
(g6
S'\xff\xbb\xcd\x8a\x01F\xd4?'
p749
tp750
Rp751
tp752
a(S'cellular neural network'
p753
g2
(g6
S'c\xcf\xd2D\xfc=\xd4?'
p754
tp755
Rp756
tp757
a(S'\xc5\xa0ar\xc5\xabnas raudys'
p758
g2
(g6
S'd\xbb\xed2\t7\xd4?'
p759
tp760
Rp761
tp762
a(S'informal learning'
p763
g2
(g6
S'\xd0\x90\xc0\xceE5\xd4?'
p764
tp765
Rp766
tp767
a(S'neural decoding'
p768
g2
(g6
S"\xc9'\x18\xbf\xaf*\xd4?"
p769
tp770
Rp771
tp772
a(S'social learning (social pedagogy)'
p773
g2
(g6
S'Z\x80\x0e2t\x1e\xd4?'
p774
tp775
Rp776
tp777
a(S'andrew furco'
p778
g2
(g6
S'\xd9\xfcP/\xcd\x18\xd4?'
p779
tp780
Rp781
tp782
a(S'microlearning'
p783
g2
(g6
S'\x8aM\x98\xae\n\x11\xd4?'
p784
tp785
Rp786
tp787
a(S'gail carpenter'
p788
g2
(g6
S'Yp9B9\xf7\xd3?'
p789
tp790
Rp791
tp792
a(S'l\xc3\xa9on bottou'
p793
g2
(g6
S'\xb5\x8dV"\x9b\xf5\xd3?'
p794
tp795
Rp796
tp797
a(S'hybrid neural network'
p798
g2
(g6
S'\xbd\xcf\x86wc\xf3\xd3?'
p799
tp800
Rp801
tp802
a(S'learning organization'
p803
g2
(g6
S'X,b%\x94\xde\xd3?'
p804
tp805
Rp806
tp807
a(S'kinesthetic learning'
p808
g2
(g6
S'\x97.\xebb\xf4\xdd\xd3?'
p809
tp810
Rp811
tp812
a(S'national center for e-learning'
p813
g2
(g6
S'\x92\x83\x11\xcbS\xd3\xd3?'
p814
tp815
Rp816
tp817
a(S'concept learning'
p818
g2
(g6
S'\x199h\xc5$\xd1\xd3?'
p819
tp820
Rp821
tp822
a(S'm-learning'
p823
g2
(g6
S'\xcbt\xd6\x0bK\xd0\xd3?'
p824
tp825
Rp826
tp827
a(S'learning tree international'
p828
g2
(g6
S"E\x1d\x01#'\xc8\xd3?"
p829
tp830
Rp831
tp832
a(S'celstec'
p833
g2
(g6
S'\xe4\xa6\xa60T\xc3\xd3?'
p834
tp835
Rp836
tp837
a(S'ieee transactions on learning technologies'
p838
g2
(g6
S'\x9e\xc4rl\x05\xc0\xd3?'
p839
tp840
Rp841
tp842
a(S'learning community'
p843
g2
(g6
S'\x82\xa8\xa5\xba\xa9\xbe\xd3?'
p844
tp845
Rp846
tp847
a(S'neural engineering object'
p848
g2
(g6
S'\x1dE\xd5\xa6\x10\xbd\xd3?'
p849
tp850
Rp851
tp852
a(S'action model learning'
p853
g2
(g6
S'\x0b:\xbf\xf0Y\xb0\xd3?'
p854
tp855
Rp856
tp857
a(S'nervous system network models'
p858
g2
(g6
S'M\xfe\x1b\xa1\xd1\xa3\xd3?'
p859
tp860
Rp861
tp862
a(S'fusion adaptive resonance theory'
p863
g2
(g6
S'\x1e\xbb\xd5\n\x85\x9f\xd3?'
p864
tp865
Rp866
tp867
a(S'classification system for serial criminal patterns'
p868
g2
(g6
S'nAS\x9fB\x9d\xd3?'
p869
tp870
Rp871
tp872
a(S'organizational metacognition'
p873
g2
(g6
S"'\xb3z_\xb5\x9a\xd3?"
p874
tp875
Rp876
tp877
a(S'lee giles'
p878
g2
(g6
S"?\x19'\xf7\xe6\x7f\xd3?"
p879
tp880
Rp881
tp882
a(S'learning power'
p883
g2
(g6
S'*\x87+\xd7|}\xd3?'
p884
tp885
Rp886
tp887
a(S'neural clique'
p888
g2
(g6
S'.;\xce\xb1}z\xd3?'
p889
tp890
Rp891
tp892
a(S'kumpati s. narendra'
p893
g2
(g6
S'\xbe}\xa3F\xaft\xd3?'
p894
tp895
Rp896
tp897
a(S'deep end'
p898
g2
(g6
S']&\x1f\xd4\xdep\xd3?'
p899
tp900
Rp901
tp902
a(S'out-of-school learning'
p903
g2
(g6
S'\xaa\x06\x0b\xb2\xadg\xd3?'
p904
tp905
Rp906
tp907
a(S'karim ouazzane'
p908
g2
(g6
S'j\x0c(l\x88f\xd3?'
p909
tp910
Rp911
tp912
a(S'adversarial machine learning'
p913
g2
(g6
S'\x9d\xf6M\xe1\xfe_\xd3?'
p914
tp915
Rp916
tp917
a(S'yoshua bengio'
p918
g2
(g6
S'\x7f\xa6u>Z]\xd3?'
p919
tp920
Rp921
tp922
a(S'alternative explanations of the "grandmother" cell'
p923
g2
(g6
S'\x80z\x0f\x11-]\xd3?'
p924
tp925
Rp926
tp927
a(S'intelligent control'
p928
g2
(g6
S'\x19\x03\xb4,\x87\\\xd3?'
p929
tp930
Rp931
tp932
a(S'reinforcement learning'
p933
g2
(g6
S'9\xe6M#\xf5Y\xd3?'
p934
tp935
Rp936
tp937
a(S'neural substrate'
p938
g2
(g6
S'\xe9\xe3\x93\x1c\xf7N\xd3?'
p939
tp940
Rp941
tp942
a(S'intelligent flight control system'
p943
g2
(g6
S"E\x9c\x87'\x0cK\xd3?"
p944
tp945
Rp946
tp947
a(S'generative adversarial networks'
p948
g2
(g6
S"b'lf*H\xd3?"
p949
tp950
Rp951
tp952
a(S'virtual learning environment'
p953
g2
(g6
S'\xc0\x038\x1f\xeaG\xd3?'
p954
tp955
Rp956
tp957
a(S'neurocomputational speech processing'
p958
g2
(g6
S'\xb7\x83\xe5\xfdL>\xd3?'
p959
tp960
Rp961
tp962
a(S'computational neuroscience'
p963
g2
(g6
S'\xc7jcjL:\xd3?'
p964
tp965
Rp966
tp967
a(S'deepdream'
p968
g2
(g6
S'\x14\xf2\xcc\x8f\xa49\xd3?'
p969
tp970
Rp971
tp972
a(S'regulated activation networks'
p973
g2
(g6
S"\xb4Z\xd1P\x96'\xd3?"
p974
tp975
Rp976
tp977
a(S'peer learning'
p978
g2
(g6
S'>\x8fDh\x86\x1f\xd3?'
p979
tp980
Rp981
tp982
a(S'contextual learning'
p983
g2
(g6
S'\xd5\xffK\xef\xfb\x18\xd3?'
p984
tp985
Rp986
tp987
a(S'klaus-robert m\xc3\xbcller'
p988
g2
(g6
S'y>\xdc\xbc\x16\x18\xd3?'
p989
tp990
Rp991
tp992
a(S'lifewide education'
p993
g2
(g6
S',]\x7f\x1e\xc3\x17\xd3?'
p994
tp995
Rp996
tp997
a(S'split up (expert system)'
p998
g2
(g6
S'\x06A\x96\xccE\x12\xd3?'
p999
tp1000
Rp1001
tp1002
a(S'radial basis function network'
p1003
g2
(g6
S'\x84t=g\xc4\xfc\xd2?'
p1004
tp1005
Rp1006
tp1007
a(S'christoph von der malsburg'
p1008
g2
(g6
S'\\D_-\xf3\xfa\xd2?'
p1009
tp1010
Rp1011
tp1012
a(S'metalearning (neuroscience)'
p1013
g2
(g6
S'\xc7\xfa\xf7\x04\xd4\xf3\xd2?'
p1014
tp1015
Rp1016
tp1017
a(S'teuvo kohonen'
p1018
g2
(g6
S'\xa7\xfb{\x83\xbb\xf1\xd2?'
p1019
tp1020
Rp1021
tp1022
a(S'john shawe-taylor'
p1023
g2
(g6
S'\xe9\x1c\xc6{\x99\xf0\xd2?'
p1024
tp1025
Rp1026
tp1027
a(S'learning resource center'
p1028
g2
(g6
S'\x9bh\\\x93\n\xf0\xd2?'
p1029
tp1030
Rp1031
tp1032
a(S'nervana systems'
p1033
g2
(g6
S'\x17\xafi\xa9\xec\xeb\xd2?'
p1034
tp1035
Rp1036
tp1037
a(S'language model'
p1038
g2
(g6
S'?a\x8d\x8c\x87\xe4\xd2?'
p1039
tp1040
Rp1041
tp1042
a(S'hava siegelmann'
p1043
g2
(g6
S'\xf5\xc9\xdc\xfe\xdd\xe0\xd2?'
p1044
tp1045
Rp1046
tp1047
a(S'nettalk (artificial neural network)'
p1048
g2
(g6
S'#\xca\x8e\xe7\xaa\xd6\xd2?'
p1049
tp1050
Rp1051
tp1052
a(S'stanford learning lab'
p1053
g2
(g6
S'\x82F\xf4\xf9\xcf\xd4\xd2?'
p1054
tp1055
Rp1056
tp1057
a(S'adaptive resonance theory'
p1058
g2
(g6
S'\xce\xe2"\xcaj\xd2\xd2?'
p1059
tp1060
Rp1061
tp1062
a(S'student approaches to learning'
p1063
g2
(g6
S'4\x9c\xf3\x0c\x99\xcd\xd2?'
p1064
tp1065
Rp1066
tp1067
a(S'neurula'
p1068
g2
(g6
S'\xe8sm\x06\xf3\xcc\xd2?'
p1069
tp1070
Rp1071
tp1072
a(S'decoded neurofeedback'
p1073
g2
(g6
S'\x88P\xbc\xbc\x82\xc0\xd2?'
p1074
tp1075
Rp1076
tp1077
a(S'learning pathway'
p1078
g2
(g6
S'W\xa0L\x91q\xbf\xd2?'
p1079
tp1080
Rp1081
tp1082
a(S'neuroectoderm'
p1083
g2
(g6
S'=\x0c\xd7I\xbb\xbb\xd2?'
p1084
tp1085
Rp1086
tp1087
a(S'rnn'
p1088
g2
(g6
S'<F\x84\xbf\x0e\xbb\xd2?'
p1089
tp1090
Rp1091
tp1092
a(S'computer-supported collaborative learning'
p1093
g2
(g6
S';\xa7./\x86\xb6\xd2?'
p1094
tp1095
Rp1096
tp1097
a(S'alchemyapi'
p1098
g2
(g6
S'!\x94\xce\xa9C\xb4\xd2?'
p1099
tp1100
Rp1101
tp1102
a(S'models of neural computation'
p1103
g2
(g6
S'V\xed\x9e\x7fZ\x9f\xd2?'
p1104
tp1105
Rp1106
tp1107
a(S'holographic associative memory'
p1108
g2
(g6
S'\xa2\x00\x05\xe7\x1a\x9b\xd2?'
p1109
tp1110
Rp1111
tp1112
a(S'collaborative learning'
p1113
g2
(g6
S'\xc5\x89\x9e\xc5\xef\x99\xd2?'
p1114
tp1115
Rp1116
tp1117
a(S'deep river'
p1118
g2
(g6
S'm\xa3H&\x11\x96\xd2?'
p1119
tp1120
Rp1121
tp1122
a(S'neurogammon'
p1123
g2
(g6
S'w\xbdwI\x87\x94\xd2?'
p1124
tp1125
Rp1126
tp1127
a(S'flexible learning'
p1128
g2
(g6
S'\x17\xb7\xf3X\xa1\x91\xd2?'
p1129
tp1130
Rp1131
tp1132
a(S'neuroevolution'
p1133
g2
(g6
S'/\xe2K\xf6E\x91\xd2?'
p1134
tp1135
Rp1136
tp1137
a(S'jay cross'
p1138
g2
(g6
S'w\x08\xd2 \\\x8b\xd2?'
p1139
tp1140
Rp1141
tp1142
a(S'michael i. jordan'
p1143
g2
(g6
S'\x1c\x95BW3\x8b\xd2?'
p1144
tp1145
Rp1146
tp1147
a(S'neural development'
p1148
g2
(g6
S'P\x863\xaa\xe3\x88\xd2?'
p1149
tp1150
Rp1151
tp1152
a(S'learning log'
p1153
g2
(g6
S'\xe2nn\x83\xbb\x88\xd2?'
p1154
tp1155
Rp1156
tp1157
a(S'deepmind'
p1158
g2
(g6
S'M\xbeJp\xeb\x83\xd2?'
p1159
tp1160
Rp1161
tp1162
a(S'multimodal learning'
p1163
g2
(g6
S'\x81\xb2\x18}\xc3}\xd2?'
p1164
tp1165
Rp1166
tp1167
a(S'national youth leadership council'
p1168
g2
(g6
S'\xc6\x94b\x85\xc9w\xd2?'
p1169
tp1170
Rp1171
tp1172
a(S'inductive transfer'
p1173
g2
(g6
S'e\x7f\xf5\xb3\xc3v\xd2?'
p1174
tp1175
Rp1176
tp1177
a(S'student-centred learning'
p1178
g2
(g6
S'\x94k\xe9\xe6kr\xd2?'
p1179
tp1180
Rp1181
tp1182
a(S'radford m. neal'
p1183
g2
(g6
S'\xfe\xc1\x0b\xd4\x81i\xd2?'
p1184
tp1185
Rp1186
tp1187
a(S'degreed'
p1188
g2
(g6
S'b\x14\xe0e<b\xd2?'
p1189
tp1190
Rp1191
tp1192
a(S'pulse-coupled networks'
p1193
g2
(g6
S'3\xc0\xf0\xd4cI\xd2?'
p1194
tp1195
Rp1196
tp1197
a(S'neural correlate'
p1198
g2
(g6
S'$\xf7\xc76\x9cG\xd2?'
p1199
tp1200
Rp1201
tp1202
a(S'computational learning theory'
p1203
g2
(g6
S'\x06\xc0\x91\xd4nG\xd2?'
p1204
tp1205
Rp1206
tp1207
a(S'madaline'
p1208
g2
(g6
S'K)\x1f\x87)G\xd2?'
p1209
tp1210
Rp1211
tp1212
a(S'sslearn'
p1213
g2
(g6
S'\xb1\x8fX\x90\x98E\xd2?'
p1214
tp1215
Rp1216
tp1217
a(S'deeper learning'
p1218
g2
(g6
S'\xbb\x7fA\t\xd1=\xd2?'
p1219
tp1220
Rp1221
tp1222
a(S'sequence learning'
p1223
g2
(g6
S'J\xe2\xf9l\xde<\xd2?'
p1224
tp1225
Rp1226
tp1227
a(S'learning development'
p1228
g2
(g6
S'\xb1\xefI\x1a@8\xd2?'
p1229
tp1230
Rp1231
tp1232
a(S'geometric feature learning'
p1233
g2
(g6
S'\xd4\x82\xd2\x13\xfd3\xd2?'
p1234
tp1235
Rp1236
tp1237
a(S'connectomics'
p1238
g2
(g6
S'\xcd/\x98\x8e\xb7(\xd2?'
p1239
tp1240
Rp1241
tp1242
a(S'robert m. gagn\xc3\xa9'
p1243
g2
(g6
S'[_\xdf\xdeQ(\xd2?'
p1244
tp1245
Rp1246
tp1247
a(S'dehaene\xe2\x80\x93changeux model'
p1248
g2
(g6
S'\xb8\xfb#\xa9\xf3&\xd2?'
p1249
tp1250
Rp1251
tp1252
a(S'deep water'
p1253
g2
(g6
S'8\xe5u\x9a\xdc&\xd2?'
p1254
tp1255
Rp1256
tp1257
a(S'e-learning (theory)'
p1258
g2
(g6
S'aZ\x15h\xdb!\xd2?'
p1259
tp1260
Rp1261
tp1262
a(S'rprop'
p1263
g2
(g6
S'\xde\xc1\xe9\xeaO\x1d\xd2?'
p1264
tp1265
Rp1266
tp1267
a(S'statistical language acquisition'
p1268
g2
(g6
S'S\xa0k9b\x18\xd2?'
p1269
tp1270
Rp1271
tp1272
a(S'multidimensional network'
p1273
g2
(g6
S'\x1e!\xa0\xa8\x8f\x0e\xd2?'
p1274
tp1275
Rp1276
tp1277
a(S'complex network'
p1278
g2
(g6
S'\xa2E\x9d\xf1Z\x06\xd2?'
p1279
tp1280
Rp1281
tp1282
a(S'ian goodfellow'
p1283
g2
(g6
S'f\xb6\t\x19\xb8\xf5\xd1?'
p1284
tp1285
Rp1286
tp1287
a(S'professional learning community'
p1288
g2
(g6
S'\x8d\xa2\x7f:\x89\xf2\xd1?'
p1289
tp1290
Rp1291
tp1292
a(S'terry sejnowski'
p1293
g2
(g6
S'|#`\x01M\xf0\xd1?'
p1294
tp1295
Rp1296
tp1297
a(S'leabra'
p1298
g2
(g6
S'\xfa8\xd3\xd2\xd5\xee\xd1?'
p1299
tp1300
Rp1301
tp1302
a(S'dbn'
p1303
g2
(g6
S'w\x8a\x1a\x94e\xe9\xd1?'
p1304
tp1305
Rp1306
tp1307
a(S'j\xc3\xbcrgen schmidhuber'
p1308
g2
(g6
S'\xc4\x8b\xaf\xb5\x17\xe7\xd1?'
p1309
tp1310
Rp1311
tp1312
a(S'erol gelenbe'
p1313
g2
(g6
S'\x82\x85\x96M\xf2\xdd\xd1?'
p1314
tp1315
Rp1316
tp1317
a(S'deep ellum, dallas'
p1318
g2
(g6
S'f\xc4\x0b%\xf6\xd3\xd1?'
p1319
tp1320
Rp1321
tp1322
a(S'discriminative model'
p1323
g2
(g6
S'\xa7\xb4j\xfb\xaa\xce\xd1?'
p1324
tp1325
Rp1326
tp1327
a(S'2007 in deep'
p1328
g2
(g6
S'\x91\x82\xabZ\xb9\xc5\xd1?'
p1329
tp1330
Rp1331
tp1332
a(S'memory-prediction framework'
p1333
g2
(g6
S'\x0b\x13\xee\x9c\xbc\xc3\xd1?'
p1334
tp1335
Rp1336
tp1337
a(S'igor aleksander'
p1338
g2
(g6
S'\xfau\xd5\x087\xbf\xd1?'
p1339
tp1340
Rp1341
tp1342
a(S'zeroth (software)'
p1343
g2
(g6
S'\x9e\x80\x8b\xd3\xe0\xba\xd1?'
p1344
tp1345
Rp1346
tp1347
a(S'caroline haythornthwaite'
p1348
g2
(g6
S'\xa6t\x9awp\xb0\xd1?'
p1349
tp1350
Rp1351
tp1352
a(S'1-2-ax working memory task'
p1353
g2
(g6
S'\xd7\x14;\xa0\xb0\xae\xd1?'
p1354
tp1355
Rp1356
tp1357
a(S'feedforward'
p1358
g2
(g6
S'\x90\xff\xbf\xc6\xa5\xac\xd1?'
p1359
tp1360
Rp1361
tp1362
a(S'neuro laboratory'
p1363
g2
(g6
S'\xdc\x06\xec\xcb\xfc\xaa\xd1?'
p1364
tp1365
Rp1366
tp1367
a(S'learning disability'
p1368
g2
(g6
S'*{\xac\xa6\xae\xa7\xd1?'
p1369
tp1370
Rp1371
tp1372
a(S'distributed learning'
p1373
g2
(g6
S'_\xb53gn\xa2\xd1?'
p1374
tp1375
Rp1376
tp1377
a(S'snn'
p1378
g2
(g6
S'bu\xa0\xd8\x11\x9b\xd1?'
p1379
tp1380
Rp1381
tp1382
a(S'norman longworth'
p1383
g2
(g6
S'\xcb\xaf{\xaaE\x98\xd1?'
p1384
tp1385
Rp1386
tp1387
a(S'melodic learning'
p1388
g2
(g6
S'\xdaK\x01\x9f1\x98\xd1?'
p1389
tp1390
Rp1391
tp1392
a(S'practice-based professional learning'
p1393
g2
(g6
S'i\x00\x95\xdc/\x98\xd1?'
p1394
tp1395
Rp1396
tp1397
a(S'deepdreaming'
p1398
g2
(g6
S'\xce\x8d\x97.\xdf\x88\xd1?'
p1399
tp1400
Rp1401
tp1402
a(S'experiential learning'
p1403
g2
(g6
S'\xd3\x04\xd8\x80\xbd~\xd1?'
p1404
tp1405
Rp1406
tp1407
a(S'neural binding'
p1408
g2
(g6
S'\x00{\xf0h\x97{\xd1?'
p1409
tp1410
Rp1411
tp1412
a(S'perceptual learning'
p1413
g2
(g6
S'JG\xe7M\x88{\xd1?'
p1414
tp1415
Rp1416
tp1417
a(S'governmental learning spiral'
p1418
g2
(g6
S"\x88'\xdb\x88Ny\xd1?"
p1419
tp1420
Rp1421
tp1422
a(S'biological network'
p1423
g2
(g6
S'\xc8\x90\x86\xc0Hy\xd1?'
p1424
tp1425
Rp1426
tp1427
a(S'thomas g. dietterich'
p1428
g2
(g6
S'\x91\xc0\xfc\x0bIq\xd1?'
p1429
tp1430
Rp1431
tp1432
a(S'glossary of artificial intelligence'
p1433
g2
(g6
S'\xe8\x9d\x9bsRf\xd1?'
p1434
tp1435
Rp1436
tp1437
a(S'interactive activation and competition networks'
p1438
g2
(g6
S'\xe1\x92SC\xc1c\xd1?'
p1439
tp1440
Rp1441
tp1442
a(S'counterpropagation network'
p1443
g2
(g6
S'\x89\xd4\x7f\xb1\x8bc\xd1?'
p1444
tp1445
Rp1446
tp1447
a(S'\xc3\x89ric mouquet'
p1448
g2
(g6
S'\x15\x96\xa4\x80\x00Z\xd1?'
p1449
tp1450
Rp1451
tp1452
a(S'digital learning'
p1453
g2
(g6
S'\xe5\xd4%oYY\xd1?'
p1454
tp1455
Rp1456
tp1457
a(S'flex model of learning'
p1458
g2
(g6
S'\xd6\x01\t@\xe3W\xd1?'
p1459
tp1460
Rp1461
tp1462
a(S'deep six'
p1463
g2
(g6
S'\xdaU\xbb\x82nU\xd1?'
p1464
tp1465
Rp1466
tp1467
a(S'history of virtual learning environments'
p1468
g2
(g6
S'\xbc-\tx\xd0R\xd1?'
p1469
tp1470
Rp1471
tp1472
a(S'self-organizing map'
p1473
g2
(g6
S')\x08v\xc9\xc9R\xd1?'
p1474
tp1475
Rp1476
tp1477
a(S'psychology of learning'
p1478
g2
(g6
S'\xf2\xa3\x9cfSP\xd1?'
p1479
tp1480
Rp1481
tp1482
a(S'open learning'
p1483
g2
(g6
S'.\xf3\xc5\xeb\xd4N\xd1?'
p1484
tp1485
Rp1486
tp1487
a(S'boltzmann machine'
p1488
g2
(g6
S'\xd5\x17\xbf\xd1GM\xd1?'
p1489
tp1490
Rp1491
tp1492
a(S'computational intelligence'
p1493
g2
(g6
S'\xc1bJ\x13|G\xd1?'
p1494
tp1495
Rp1496
tp1497
a(S'learning circle'
p1498
g2
(g6
S'\xf8\xfe\xbe\xc2BF\xd1?'
p1499
tp1500
Rp1501
tp1502
a(S'social software in education'
p1503
g2
(g6
S'\xa06\x93\x07\xacD\xd1?'
p1504
tp1505
Rp1506
tp1507
a(S'theano (software)'
p1508
g2
(g6
S'5\x80\xb5<SC\xd1?'
p1509
tp1510
Rp1511
tp1512
a.