(lp0
(S'eagle eye'
p1
cnumpy.core.multiarray
scalar
p2
(cnumpy
dtype
p3
(S'f8'
p4
I0
I1
tp5
Rp6
(I3
S'<'
p7
NNNI-1
I-1
I0
tp8
bS'\xf7\xff\xff\xff\xff\xff\xef?'
p9
tp10
Rp11
tp12
a(S'eagle'
p13
g2
(g6
S'\xe9O\x83\xcfYf\xe3?'
p14
tp15
Rp16
tp17
a(S'eagle (name)'
p18
g2
(g6
S'\xdc\xf8t\xd9\x92\xe4\xe1?'
p19
tp20
Rp21
tp22
a(S'eagle (disambiguation)'
p23
g2
(g6
S'<ML\xaf\xd9\xb1\xe1?'
p24
tp25
Rp26
tp27
a(S'order of the eagle'
p28
g2
(g6
S'\xad\x91D"\xde\x99\xe1?'
p29
tp30
Rp31
tp32
a(S"haast's eagle"
p33
g2
(g6
S'\xf8\xb5\xe2\xe7\r\xf3\xe0?'
p34
tp35
Rp36
tp37
a(S'eagle eye (disambiguation)'
p38
g2
(g6
S'\x91\xe9=\x04\xa6\xe2\xe0?'
p39
tp40
Rp41
tp42
a(S"verreaux's eagle"
p43
g2
(g6
S'\xd4d\xaa\xfe}\x8c\xe0?'
p44
tp45
Rp46
tp47
a(S'american eagle'
p48
g2
(g6
S'\x92\xefgQ\xc0s\xe0?'
p49
tp50
Rp51
tp52
a(S'golden eagles in human culture'
p53
g2
(g6
S'\xa6\xdfQ\r\x80d\xe0?'
p54
tp55
Rp56
tp57
a(S'philippine eagle'
p58
g2
(g6
S':\x9bEp\xb5o\xdf?'
p59
tp60
Rp61
tp62
a(S'black eagle (disambiguation)'
p63
g2
(g6
S'\x17]\xc5Mqo\xdf?'
p64
tp65
Rp66
tp67
a(S'white-tailed eagle'
p68
g2
(g6
S'qm*\xb0\xdc\xef\xde?'
p69
tp70
Rp71
tp72
a(S'sea eagle'
p73
g2
(g6
S'\x8fM\xf6iY\xe1\xde?'
p74
tp75
Rp76
tp77
a(S'crowned eagle'
p78
g2
(g6
S"n~/\x08\x1e'\xde?"
p79
tp80
Rp81
tp82
a(S'american eagle foundation'
p83
g2
(g6
S'W*,\xbf\x18\x1c\xde?'
p84
tp85
Rp86
tp87
a(S'operation eagle (disambiguation)'
p88
g2
(g6
S'\x8f\xf9\xde\x85\x98\x04\xde?'
p89
tp90
Rp91
tp92
a(S'bald eagle'
p93
g2
(g6
S'\xcc\xcb\xe6\xca\xd2\x00\xde?'
p94
tp95
Rp96
tp97
a(S'eagle day (disambiguation)'
p98
g2
(g6
S'\xfa\x90\xcf\x95\xf9\xee\xdd?'
p99
tp100
Rp101
tp102
a(S'eagle (heraldry)'
p103
g2
(g6
S'\x8f\x99Zl\xe6\xc6\xdd?'
p104
tp105
Rp106
tp107
a(S'mowag eagle'
p108
g2
(g6
S'\x8d\x03eC\x07\x8f\xdd?'
p109
tp110
Rp111
tp112
a(S'white eagle'
p113
g2
(g6
S'I\xaa\xa3\\\xd0j\xdd?'
p114
tp115
Rp116
tp117
a(S'war eagle (disambiguation)'
p118
g2
(g6
S'xG6\x92\xf3E\xdd?'
p119
tp120
Rp121
tp122
a(S'the eagle (newspaper)'
p123
g2
(g6
S'\x11(\xc4C\xc9*\xdd?'
p124
tp125
Rp126
tp127
a(S'eagle lake'
p128
g2
(g6
S'\\\x90\x9b\x10E\x03\xdd?'
p129
tp130
Rp131
tp132
a(S'african fish eagle'
p133
g2
(g6
S'\xa8\x81\xb1\xae\xea\xe2\xdc?'
p134
tp135
Rp136
tp137
a(S'eagle island'
p138
g2
(g6
S'@\xb9\xc3\x90\xe7\x93\xdc?'
p139
tp140
Rp141
tp142
a(S'golden eagle'
p143
g2
(g6
S"!\x1e\xad\x9f'e\xdc?"
p144
tp145
Rp146
tp147
a(S'don eagle'
p148
g2
(g6
S'>yU\xe1\xefc\xdc?'
p149
tp150
Rp151
tp152
a(S'french imperial eagle'
p153
g2
(g6
S'\r\x8a(X+\r\xdc?'
p154
tp155
Rp156
tp157
a(S'blue eagle (disambiguation)'
p158
g2
(g6
S'\xf0\xd2\x1adA\x07\xdc?'
p159
tp160
Rp161
tp162
a(S"steller's sea eagle"
p163
g2
(g6
S'\xcb7\xa0*\xd2\xb2\xdb?'
p164
tp165
Rp166
tp167
a(S'sea eagle (disambiguation)'
p168
g2
(g6
S'\x82g\xbd\xb1\xa5\xae\xdb?'
p169
tp170
Rp171
tp172
a(S'eagle rock'
p173
g2
(g6
S'v\x00\x9cv\x1c\x9b\xdb?'
p174
tp175
Rp176
tp177
a(S'eagle river'
p178
g2
(g6
S'\xd5\xe0\xd7\xf1\xe5\x8b\xdb?'
p179
tp180
Rp181
tp182
a(S'national eagle center'
p183
g2
(g6
S'N:x\xc6:d\xdb?'
p184
tp185
Rp186
tp187
a(S'eagle river (cook inlet)'
p188
g2
(g6
S'\x91\xc8\x06\xee\xc2A\xdb?'
p189
tp190
Rp191
tp192
a(S"sanford's sea eagle"
p193
g2
(g6
S'\x17\x1f\x9dPq<\xdb?'
p194
tp195
Rp196
tp197
a(S'martial eagle'
p198
g2
(g6
S'\x8a33\xc0\xcc:\xdb?'
p199
tp200
Rp201
tp202
a(S'war eagle, arkansas'
p203
g2
(g6
S'N\xab6m\xb6 \xdb?'
p204
tp205
Rp206
tp207
a(S'bald and golden eagle protection act'
p208
g2
(g6
S'`?t\xfdg\x1c\xdb?'
p209
tp210
Rp211
tp212
a(S'eagle mountain'
p213
g2
(g6
S'\xe0%\xa4\x9d5\x13\xdb?'
p214
tp215
Rp216
tp217
a(S'war eagle'
p218
g2
(g6
S'\xa5(\x92\xf0%\x05\xdb?'
p219
tp220
Rp221
tp222
a(S'dietary biology of the golden eagle'
p223
g2
(g6
S'`\xcajV\xc1\xfd\xda?'
p224
tp225
Rp226
tp227
a(S'eagle rock entertainment'
p228
g2
(g6
S'\xed:\x06d\xce\xcd\xda?'
p229
tp230
Rp231
tp232
a(S'circaetinae'
p233
g2
(g6
S'-\x05\xe8\xe2"\xc1\xda?'
p234
tp235
Rp236
tp237
a(S'golden eagle (disambiguation)'
p238
g2
(g6
S'\x0e-y&,\xbd\xda?'
p239
tp240
Rp241
tp242
a(S'spreadeagle'
p243
g2
(g6
S'\xe4fkb\xd2\xac\xda?'
p244
tp245
Rp246
tp247
a(S'first eagle investment management'
p248
g2
(g6
S'h\xc1h\xe7(n\xda?'
p249
tp250
Rp251
tp252
a(S'eagle valley'
p253
g2
(g6
S'er}\xc0dZ\xda?'
p254
tp255
Rp256
tp257
a(S'grey eagle'
p258
g2
(g6
S'\x9d\x80w\x9f-3\xda?'
p259
tp260
Rp261
tp262
a(S'eagle house'
p263
g2
(g6
S'lK\xe1\xbc\xd0\x1f\xda?'
p264
tp265
Rp266
tp267
a(S'red eagle'
p268
g2
(g6
S'\xd3E%/J\xff\xd9?'
p269
tp270
Rp271
tp272
a(S'eagle, alaska'
p273
g2
(g6
S'\xbb\xf6`\x97\x06\xfb\xd9?'
p274
tp275
Rp276
tp277
a(S'white-bellied sea eagle'
p278
g2
(g6
S'\xed\xe2HC\xc1\xf6\xd9?'
p279
tp280
Rp281
tp282
a(S'fish eagle'
p283
g2
(g6
S'q\xb2> .\xf3\xd9?'
p284
tp285
Rp286
tp287
a(S'eagle food centers'
p288
g2
(g6
S'\x15\xc1\xbf\x08G\xe3\xd9?'
p289
tp290
Rp291
tp292
a(S'imperial eagle (disambiguation)'
p293
g2
(g6
S'\x93\xf6\xc1zu\xe0\xd9?'
p294
tp295
Rp296
tp297
a(S'eagle point (community), wisconsin'
p298
g2
(g6
S'a\xcd\x03\xd4\xb9\xcd\xd9?'
p299
tp300
Rp301
tp302
a(S'eagle investment systems'
p303
g2
(g6
S'`\xa9\x0e\xd5\xb9\xac\xd9?'
p304
tp305
Rp306
tp307
a(S'eagle creek'
p308
g2
(g6
S'\xecSMVb\x96\xd9?'
p309
tp310
Rp311
tp312
a(S'eagle (united states coin)'
p313
g2
(g6
S'ovf\x9c\xe2K\xd9?'
p314
tp315
Rp316
tp317
a(S'eagle point, victoria'
p318
g2
(g6
S'?\xda\xb6\xdf2#\xd9?'
p319
tp320
Rp321
tp322
a(S'eagle township'
p323
g2
(g6
S'\xce\xa4@\xdeU\x0f\xd9?'
p324
tp325
Rp326
tp327
a(S'military eagle'
p328
g2
(g6
S'\xc3\xb7Y\xce\xfe\x01\xd9?'
p329
tp330
Rp331
tp332
a(S'eagle peak'
p333
g2
(g6
S'E\x91}m\x83\xf9\xd8?'
p334
tp335
Rp336
tp337
a(S'windecker eagle'
p338
g2
(g6
S'\xb0\x96\xd8_\xe2\xf1\xd8?'
p339
tp340
Rp341
tp342
a(S'eagle transporter'
p343
g2
(g6
S'\x93\xa1C\x94\xa3\xe5\xd8?'
p344
tp345
Rp346
tp347
a(S'hieraaetus'
p348
g2
(g6
S'A\xce\xbf/\x9b\xde\xd8?'
p349
tp350
Rp351
tp352
a(S'eagle, colorado'
p353
g2
(g6
S'\x9a\x93\xfe2\x7f\xc7\xd8?'
p354
tp355
Rp356
tp357
a(S'eagle rock, los angeles'
p358
g2
(g6
S'.\xef\xc0\xa0\x12\xc3\xd8?'
p359
tp360
Rp361
tp362
a(S'eagle academy'
p363
g2
(g6
S'&\x98z\x93`\xc2\xd8?'
p364
tp365
Rp366
tp367
a(S'bald eagle (disambiguation)'
p368
g2
(g6
S'\xc1ZX\x0b\x03\xba\xd8?'
p369
tp370
Rp371
tp372
a(S'national eagle repository'
p373
g2
(g6
S'\xc1{\xbc\x89\x06\xaf\xd8?'
p374
tp375
Rp376
tp377
a(S"pallas's fish eagle"
p378
g2
(g6
S'\x1a\x7fX\x0e\xdf\xa3\xd8?'
p379
tp380
Rp381
tp382
a(S'double eagle (disambiguation)'
p383
g2
(g6
S'L\x1d\x08?\\\xa0\xd8?'
p384
tp385
Rp386
tp387
a(S'eagle (comics)'
p388
g2
(g6
S'J0Ar}\x86\xd8?'
p389
tp390
Rp391
tp392
a(S'order of the white eagle (serbia)'
p393
g2
(g6
S'z\x91\xdel\xa3q\xd8?'
p394
tp395
Rp396
tp397
a(S'eagle lake (florida)'
p398
g2
(g6
S'\x86\xd9\xc7~\xd4o\xd8?'
p399
tp400
Rp401
tp402
a(S'ellen eagle'
p403
g2
(g6
S'\xb9\x18T\xf9\xe6k\xd8?'
p404
tp405
Rp406
tp407
a(S'baldwin the eagle'
p408
g2
(g6
S'\xc3I\x94S_\x1b\xd8?'
p409
tp410
Rp411
tp412
a(S'james philip eagle'
p413
g2
(g6
S'\x97?\xaa\xaeo\x1a\xd8?'
p414
tp415
Rp416
tp417
a(S'angela eagle'
p418
g2
(g6
S'<\x19\tB\x13\x10\xd8?'
p419
tp420
Rp421
tp422
a(S'lesser spotted eagle'
p423
g2
(g6
S'\xa9SJl\xac\x08\xd8?'
p424
tp425
Rp426
tp427
a(S'eagle bus'
p428
g2
(g6
S'\x96u\xeb\x93\xcc\x00\xd8?'
p429
tp430
Rp431
tp432
a(S'papuan eagle'
p433
g2
(g6
S'x[\xc8\x104\xee\xd7?'
p434
tp435
Rp436
tp437
a(S'order of the white eagle (russian empire)'
p438
g2
(g6
S',W+\xfe\xbc\xed\xd7?'
p439
tp440
Rp441
tp442
a(S"verreaux's eagle-owl"
p443
g2
(g6
S'\x08\xfd\xea\xae\xba\xec\xd7?'
p444
tp445
Rp446
tp447
a(S'eagle pass, texas'
p448
g2
(g6
S'5\xf5/\xddM\xe1\xd7?'
p449
tp450
Rp451
tp452
a(S'greater spotted eagle'
p453
g2
(g6
S',\xa8R~\x01\xc0\xd7?'
p454
tp455
Rp456
tp457
a(S'order of the german eagle'
p458
g2
(g6
S'\x85\x9d\x93\xd48\x9d\xd7?'
p459
tp460
Rp461
tp462
a(S'eagle force'
p463
g2
(g6
S'\xe4\x9c.\x03l\x88\xd7?'
p464
tp465
Rp466
tp467
a(S'eagle barnsdale'
p468
g2
(g6
S'c\x84\xbd\x94\xa8\x86\xd7?'
p469
tp470
Rp471
tp472
a(S'east fork eagle river'
p473
g2
(g6
S'\xde\x03\xc6\n"\x7f\xd7?'
p474
tp475
Rp476
tp477
a(S'eagle, lincolnshire'
p478
g2
(g6
S'b;x\xda\xfbl\xd7?'
p479
tp480
Rp481
tp482
a(S'eagle feather law'
p483
g2
(g6
S'\x17\xd5a\x05\xaek\xd7?'
p484
tp485
Rp486
tp487
a(S'center for the arts eagle rock'
p488
g2
(g6
S'\xbbK\xac`-h\xd7?'
p489
tp490
Rp491
tp492
a(S'eagle lake, texas'
p493
g2
(g6
S'pF\x0bS\x83U\xd7?'
p494
tp495
Rp496
tp497
a(S"eagle's nest"
p498
g2
(g6
S'|\xf7%1Y:\xd7?'
p499
tp500
Rp501
tp502
a(S'little eagle'
p503
g2
(g6
S'\xcf\x8c\x9c\xe1\x137\xd7?'
p504
tp505
Rp506
tp507
a(S"woodward's eagle"
p508
g2
(g6
S'e\xed\xb8/\xfd6\xd7?'
p509
tp510
Rp511
tp512
a(S'south fork eagle river'
p513
g2
(g6
S'_\x1a\xa2\x9cr/\xd7?'
p514
tp515
Rp516
tp517
a(S'paul eagle star'
p518
g2
(g6
S'\x05\xdf\x0e\xa7\x04$\xd7?'
p519
tp520
Rp521
tp522
a(S'eagle radio'
p523
g2
(g6
S'"\xa4K\xa0\xd6!\xd7?'
p524
tp525
Rp526
tp527
a(S'eagle-picher'
p528
g2
(g6
S'<\x1fu\xabH\x1e\xd7?'
p529
tp530
Rp531
tp532
a(S'eagle junction, queensland'
p533
g2
(g6
S'\xf9O\x89B\xa1\x0f\xd7?'
p534
tp535
Rp536
tp537
a(S'eagle (automobile)'
p538
g2
(g6
S'\xec\xc3\x1b\xd1\xc3\r\xd7?'
p539
tp540
Rp541
tp542
a(S'eagle theatre'
p543
g2
(g6
S'P?\xd0Z\xab\xfd\xd6?'
p544
tp545
Rp546
tp547
a(S'burkut'
p548
g2
(g6
S'B\x11\xf2Y\x07\xf9\xd6?'
p549
tp550
Rp551
tp552
a(S'eastern imperial eagle'
p553
g2
(g6
S'A\xd6\x0eoG\xe5\xd6?'
p554
tp555
Rp556
tp557
a(S'the tale of the eagle'
p558
g2
(g6
S'\xec\xc4Lz.\xde\xd6?'
p559
tp560
Rp561
tp562
a(S'\xc3\x81guia vit\xc3\xb3ria'
p563
g2
(g6
S'ir\x11\xb6-\xc2\xd6?'
p564
tp565
Rp566
tp567
a(S'fly like an eagle'
p568
g2
(g6
S'__\xa3\x15r\xb6\xd6?'
p569
tp570
Rp571
tp572
a(S'circaetus'
p573
g2
(g6
S'\xe9\x04\x9cM\x87\xb3\xd6?'
p574
tp575
Rp576
tp577
a(S'eagle city, ohio'
p578
g2
(g6
S'\\f:\xa5\xa9\xa1\xd6?'
p579
tp580
Rp581
tp582
a(S'triple-headed eagle'
p583
g2
(g6
S'|Q+\xe6!\x9b\xd6?'
p584
tp585
Rp586
tp587
a(S'eagle eye mysteries'
p588
g2
(g6
S'\xd6\x7f\x91\xb5\xad\x8d\xd6?'
p589
tp590
Rp591
tp592
a(S'eagle aviation'
p593
g2
(g6
S'\xf3dO\xa0\xcd\x89\xd6?'
p594
tp595
Rp596
tp597
a(S'eagle air'
p598
g2
(g6
S'\xef\xbc\xeaY\xc5\x86\xd6?'
p599
tp600
Rp601
tp602
a(S'eagle point high school'
p603
g2
(g6
S'\x8a\x00\xd5\xc3\x86\x85\xd6?'
p604
tp605
Rp606
tp607
a(S'eagle scout (boy scouts of america)'
p608
g2
(g6
S'\xfa\x97\x01:\xa7\x82\xd6?'
p609
tp610
Rp611
tp612
a(S'golden eagle award'
p613
g2
(g6
S'\xfcN,\x92\xd4\x7f\xd6?'
p614
tp615
Rp616
tp617
a(S'eagle rug'
p618
g2
(g6
S'\xde\xaf\x13W\xe8{\xd6?'
p619
tp620
Rp621
tp622
a(S'eagle mountain, california'
p623
g2
(g6
S't\x08f\xeb\xf8j\xd6?'
p624
tp625
Rp626
tp627
a(S'eagle bill'
p628
g2
(g6
S'\xb6\x180\x9b\x19h\xd6?'
p629
tp630
Rp631
tp632
a(S'uss lancaster eagle'
p633
g2
(g6
S'\xf8\x12\xc3\xcb.`\xd6?'
p634
tp635
Rp636
tp637
a(S'uss eagle boat 56 (pe-56)'
p638
g2
(g6
S'\xff\x97\xd4\xe3\x11U\xd6?'
p639
tp640
Rp641
tp642
a(S'booted eagle'
p643
g2
(g6
S's\xbe\xa1\x85\xdaG\xd6?'
p644
tp645
Rp646
tp647
a(S'aetomylaeus'
p648
g2
(g6
S'D\x17\x10\\\xf4B\xd6?'
p649
tp650
Rp651
tp652
a(S'bugat, bayan-\xc3\x96lgii'
p653
g2
(g6
S'\xb1\xea^\x19\x14@\xd6?'
p654
tp655
Rp656
tp657
a(S'mount eagle'
p658
g2
(g6
S'w\x811{\xfa<\xd6?'
p659
tp660
Rp661
tp662
a(S'british eagle'
p663
g2
(g6
S'\xcc\r\xc9k\x859\xd6?'
p664
tp665
Rp666
tp667
a(S'the red eagle'
p668
g2
(g6
S'\xec\xc2\xf1\xda\xc93\xd6?'
p669
tp670
Rp671
tp672
a(S'eagle computer'
p673
g2
(g6
S'yp\xba8p1\xd6?'
p674
tp675
Rp676
tp677
a(S'eagle helicopter eagle ii'
p678
g2
(g6
S'\x83\xc7\xfd\xf6s0\xd6?'
p679
tp680
Rp681
tp682
a(S'american eagle aircraft corporation'
p683
g2
(g6
S'\x10\\m|M)\xd6?'
p684
tp685
Rp686
tp687
a(S'battle mountain high school (colorado)'
p688
g2
(g6
S"'6W\xbd\xe4%\xd6?"
p689
tp690
Rp691
tp692
a(S'american eagle (marvel comics)'
p693
g2
(g6
S'\xdfw\x1d\xael \xd6?'
p694
tp695
Rp696
tp697
a(S'bald eagle, pennsylvania'
p698
g2
(g6
S'9\xf3V\x1a~\x10\xd6?'
p699
tp700
Rp701
tp702
a(S'long-crested eagle'
p703
g2
(g6
S'n\x8f\xd3\xfcz\x0c\xd6?'
p704
tp705
Rp706
tp707
a(S'eye'
p708
g2
(g6
S'5\x88\xac\xe3T\x04\xd6?'
p709
tp710
Rp711
tp712
a(S'status and conservation of the golden eagle'
p713
g2
(g6
S'\x97H\xfd\xa2\x8f\xfd\xd5?'
p714
tp715
Rp716
tp717
a(S'giant eagle'
p718
g2
(g6
S'5*\x05\xae\xdc\xf6\xd5?'
p719
tp720
Rp721
tp722
a(S'spread eagle, wisconsin'
p723
g2
(g6
S'\xa5l\xfb\x90Q\xf3\xd5?'
p724
tp725
Rp726
tp727
a(S'eagle river (bradfield canal)'
p728
g2
(g6
S'Y\xc5\xa4TW\xf1\xd5?'
p729
tp730
Rp731
tp732
a(S'flirty birdy'
p733
g2
(g6
S'\xc3u\xe9\x82\xec\xdd\xd5?'
p734
tp735
Rp736
tp737
a(S'desert center unified school district'
p738
g2
(g6
S'r\x0c\xbc$X\xdb\xd5?'
p739
tp740
Rp741
tp742
a(S'eagle ridge'
p743
g2
(g6
S'!\nC\x17\x18\xd7\xd5?'
p744
tp745
Rp746
tp747
a(S'eagle, pennsylvania'
p748
g2
(g6
S'\xd5\xb1\xa2\xfb@\xd2\xd5?'
p749
tp750
Rp751
tp752
a(S'eagle lectern'
p753
g2
(g6
S'\x1d\x0bX\x9e\x96\xc9\xd5?'
p754
tp755
Rp756
tp757
a(S'eagle river, anchorage'
p758
g2
(g6
S'\x02\xd3t\xbf\xf4\xc3\xd5?'
p759
tp760
Rp761
tp762
a(S'brooklyn eagle'
p763
g2
(g6
S'\xe2D\xfe\x9fr\xc0\xd5?'
p764
tp765
Rp766
tp767
a(S'eagle ford, dallas'
p768
g2
(g6
S'\xc3n\xeeL.\xbc\xd5?'
p769
tp770
Rp771
tp772
a(S'eagle rock, north carolina'
p773
g2
(g6
S'\xcb\xc7\xe6W@\xb7\xd5?'
p774
tp775
Rp776
tp777
a(S'brown snake eagle'
p778
g2
(g6
S'\xe2\x8c8\xcf|\xa0\xd5?'
p779
tp780
Rp781
tp782
a(S'madagascan fish eagle'
p783
g2
(g6
S'\xf5\xd1`/8\x98\xd5?'
p784
tp785
Rp786
tp787
a(S'eagle peak (alaska)'
p788
g2
(g6
S'\x0cmS\x19\xf6\x8c\xd5?'
p789
tp790
Rp791
tp792
a(S'bird vision'
p793
g2
(g6
S'\xc0\x1b\x9e\xfe\x93\x81\xd5?'
p794
tp795
Rp796
tp797
a(S'eagle high school'
p798
g2
(g6
S'\x14\x89\xf3|\x8bg\xd5?'
p799
tp800
Rp801
tp802
a(S'martin aitchison'
p803
g2
(g6
S'\xe4\xfd\xf17Ug\xd5?'
p804
tp805
Rp806
tp807
a(S'paul eagle'
p808
g2
(g6
S'8kh~\x02c\xd5?'
p809
tp810
Rp811
tp812
a(S'eagle lake, florida'
p813
g2
(g6
S'\xc4\xdb\xf8\xf2\xd1G\xd5?'
p814
tp815
Rp816
tp817
a(S'ichthyophaga'
p818
g2
(g6
S'n3%K\xbdD\xd5?'
p819
tp820
Rp821
tp822
a(S'eurasian eagle-owl'
p823
g2
(g6
S'\x8f`\x1a\x1fKB\xd5?'
p824
tp825
Rp826
tp827
a(S'steppe eagle'
p828
g2
(g6
S'\xb8;\xdeQ\xbc0\xd5?'
p829
tp830
Rp831
tp832
a(S'charlton eagle'
p833
g2
(g6
S"'M\x13\xc5M+\xd5?"
p834
tp835
Rp836
tp837
a(S'dietary biology of the eurasian eagle-owl'
p838
g2
(g6
S'\x16\xfb\xdbM\x1d+\xd5?'
p839
tp840
Rp841
tp842
a(S'bald eagle mountain (disambiguation)'
p843
g2
(g6
S"'\x82\xbbP\x1d!\xd5?"
p844
tp845
Rp846
tp847
a(S'screaming eagle'
p848
g2
(g6
S'\xa3eq\x07\xb3\x18\xd5?'
p849
tp850
Rp851
tp852
a(S'spilornis'
p853
g2
(g6
S't\x10l5\x0b\x07\xd5?'
p854
tp855
Rp856
tp857
a(S'the eagle (magazine)'
p858
g2
(g6
S'\x82\xd6\x9c\xb8\xd4\x02\xd5?'
p859
tp860
Rp861
tp862
a(S'eagle river (shuswap lake)'
p863
g2
(g6
S'\rw\xc7\xa2n\x00\xd5?'
p864
tp865
Rp866
tp867
a(S'windecker industries'
p868
g2
(g6
S'A\x80_\xc2Q\xef\xd4?'
p869
tp870
Rp871
tp872
a(S'grey-headed fish eagle'
p873
g2
(g6
S'\xe2\x03=\xaeW\xec\xd4?'
p874
tp875
Rp876
tp877
a(S'getgo'
p878
g2
(g6
S'\x07\x05\xc0\x92\xcd\xe8\xd4?'
p879
tp880
Rp881
tp882
a(S'eagle grove, iowa'
p883
g2
(g6
S'\x12z\xe3\xee5\xd7\xd4?'
p884
tp885
Rp886
tp887
a(S'black hawk-eagle'
p888
g2
(g6
S'\x7f!oFk\xcd\xd4?'
p889
tp890
Rp891
tp892
a(S'eagle river (colorado)'
p893
g2
(g6
S'7s\xa1\xfb0\xca\xd4?'
p894
tp895
Rp896
tp897
a(S'eagle insurance'
p898
g2
(g6
S'\x9a\xb8~\xed\x02\xad\xd4?'
p899
tp900
Rp901
tp902
a(S'dane eagle'
p903
g2
(g6
S'\x05;puC\x95\xd4?'
p904
tp905
Rp906
tp907
a(S'fire eagle'
p908
g2
(g6
S'\xcb.\xd2\xf6\xf5\x8c\xd4?'
p909
tp910
Rp911
tp912
a(S'mammalian eye'
p913
g2
(g6
S'\xf7GP\xb4\x06}\xd4?'
p914
tp915
Rp916
tp917
a(S'british aircraft eagle'
p918
g2
(g6
S'\xda\xe8\xd8\x01g{\xd4?'
p919
tp920
Rp921
tp922
a(S'magnum research'
p923
g2
(g6
S"[ \xb3'\x9ev\xd4?"
p924
tp925
Rp926
tp927
a(S'eagle forum'
p928
g2
(g6
S'?\xabulgl\xd4?'
p929
tp930
Rp931
tp932
a(S'eagle on the hill, south australia'
p933
g2
(g6
S'\xa6\xec\xd5.\x96h\xd4?'
p934
tp935
Rp936
tp937
a(S'black-chested buzzard-eagle'
p938
g2
(g6
S'\xc1.!\x87\x0bh\xd4?'
p939
tp940
Rp941
tp942
a(S'nisaetus'
p943
g2
(g6
S'!\x9f\xd6j\xece\xd4?'
p944
tp945
Rp946
tp947
a(S'eagle (typeface)'
p948
g2
(g6
S'\x12"\xf3q\xedd\xd4?'
p949
tp950
Rp951
tp952
a(S'spizaetus'
p953
g2
(g6
S'N\xd1\xd1_\x12U\xd4?'
p954
tp955
Rp956
tp957
a(S'eagle county, colorado'
p958
g2
(g6
S'>\x18V\xa7\x96Q\xd4?'
p959
tp960
Rp961
tp962
a(S'eagle river, wisconsin'
p963
g2
(g6
S'\xfeg\xef((O\xd4?'
p964
tp965
Rp966
tp967
a(S'hms eagle (r05)'
p968
g2
(g6
S'L\xf9+F\x8fM\xd4?'
p969
tp970
Rp971
tp972
a(S'wedge-tailed eagle'
p973
g2
(g6
S'\xa18"lVM\xd4?'
p974
tp975
Rp976
tp977
a(S'crested eagle'
p978
g2
(g6
S'\x93\xc7ey\xc4L\xd4?'
p979
tp980
Rp981
tp982
a(S'eagle scout'
p983
g2
(g6
S'Z\xfeh[\x06C\xd4?'
p984
tp985
Rp986
tp987
a(S'eagle tv'
p988
g2
(g6
S'\x9d\xe6C\x06#A\xd4?'
p989
tp990
Rp991
tp992
a(S'eagle vale, new south wales'
p993
g2
(g6
S'\x8a\xb9\xe9\xbf\x7f@\xd4?'
p994
tp995
Rp996
tp997
a(S'kill eagle'
p998
g2
(g6
S'#L\xb8\xe4\xc1>\xd4?'
p999
tp1000
Rp1001
tp1002
a(S'harpy eagle'
p1003
g2
(g6
S'\x89G\x8d\xec\x95>\xd4?'
p1004
tp1005
Rp1006
tp1007
a(S'bald eagle creek (little juniata river)'
p1008
g2
(g6
S'\x02]\x96\xa7\x1b;\xd4?'
p1009
tp1010
Rp1011
tp1012
a(S'allie eagle'
p1013
g2
(g6
S'n\xbd\x03\x9e\xbe,\xd4?'
p1014
tp1015
Rp1016
tp1017
a(S'eagle river high school'
p1018
g2
(g6
S'\xfb\xe2=Xz\x1c\xd4?'
p1019
tp1020
Rp1021
tp1022
a(S'f15'
p1023
g2
(g6
S'\xb5\x90\xae\xc2\x91\x11\xd4?'
p1024
tp1025
Rp1026
tp1027
a(S'indian head gold pieces'
p1028
g2
(g6
S' ^\x14\xca\xb4\x0c\xd4?'
p1029
tp1030
Rp1031
tp1032
a(S'list of eagle scouts'
p1033
g2
(g6
S'\xc9-\xb0\xf8\x90\xff\xd3?'
p1034
tp1035
Rp1036
tp1037
a(S'milholland legal eagle'
p1038
g2
(g6
S'\xbe+\xe2\x14\x01\xfa\xd3?'
p1039
tp1040
Rp1041
tp1042
a(S'spot-bellied eagle-owl'
p1043
g2
(g6
S'\xc2_\xdf\xf7\xc4\xf5\xd3?'
p1044
tp1045
Rp1046
tp1047
a(S'centurytel of eagle'
p1048
g2
(g6
S'\xd8\xc8\xcb\xd7\xa3\xf3\xd3?'
p1049
tp1050
Rp1051
tp1052
a(S'eagle bend, mississippi'
p1053
g2
(g6
S'\x9e\xbe}{\xfe\xe9\xd3?'
p1054
tp1055
Rp1056
tp1057
a(S'double-headed eagle'
p1058
g2
(g6
S'l:\x1cn\x9b\xe5\xd3?'
p1059
tp1060
Rp1061
tp1062
a(S'the berkshire eagle'
p1063
g2
(g6
S'E\xb6\xea|b\xdc\xd3?'
p1064
tp1065
Rp1066
tp1067
a(S'amc eagle'
p1068
g2
(g6
S'T.\xb8\x08\x90\xd8\xd3?'
p1069
tp1070
Rp1071
tp1072
a(S'big eagle'
p1073
g2
(g6
S'p\xf3xY<\xd6\xd3?'
p1074
tp1075
Rp1076
tp1077
a(S'bald eagle creek (west branch susquehanna river)'
p1078
g2
(g6
S'\x0c\xc8\xd5\x9bN\xd5\xd3?'
p1079
tp1080
Rp1081
tp1082
a(S'aetobatus'
p1083
g2
(g6
S'\x06\xfb\x83\xfe\x80\xcb\xd3?'
p1084
tp1085
Rp1086
tp1087
a(S'indian spotted eagle'
p1088
g2
(g6
S'p\x9e\x18\x17\x13\xca\xd3?'
p1089
tp1090
Rp1091
tp1092
a(S'envoy air'
p1093
g2
(g6
S'\x10\x03.Y\xee\xb7\xd3?'
p1094
tp1095
Rp1096
tp1097
a(S'eagle mountain, utah'
p1098
g2
(g6
S'(\xab\xfc\xf09\xb5\xd3?'
p1099
tp1100
Rp1101
tp1102
a(S'eagle heights, queensland'
p1103
g2
(g6
S'0\xcdA\x1f\xd7\xb0\xd3?'
p1104
tp1105
Rp1106
tp1107
a(S'outstanding eagle scout award'
p1108
g2
(g6
S'\xf2L=)\x93\xae\xd3?'
p1109
tp1110
Rp1111
tp1112
a(S'human eye'
p1113
g2
(g6
S'\xb5\x9b+5]\x99\xd3?'
p1114
tp1115
Rp1116
tp1117
a(S'distinguished eagle scout award'
p1118
g2
(g6
S',4u\x0c\xb6\x94\xd3?'
p1119
tp1120
Rp1121
tp1122
a(S'eagle eye networks'
p1123
g2
(g6
S'\x05\xe7\xa0\x90\xc2\x93\xd3?'
p1124
tp1125
Rp1126
tp1127
a(S'eagle creek (oregon)'
p1128
g2
(g6
S'\x9f\xee\xb6\xffD\x92\xd3?'
p1129
tp1130
Rp1131
tp1132
a(S'eagle mine'
p1133
g2
(g6
S'\xdc\xe2\x96\xce\xba\x8e\xd3?'
p1134
tp1135
Rp1136
tp1137
a(S'jack eagle'
p1138
g2
(g6
S'vS)\xa7\x15\x88\xd3?'
p1139
tp1140
Rp1141
tp1142
a(S'usrc eagle'
p1143
g2
(g6
S'o/@3h\x82\xd3?'
p1144
tp1145
Rp1146
tp1147
a(S'eagle river (alaska)'
p1148
g2
(g6
S'\xb3\xe9!\xc2Q\x82\xd3?'
p1149
tp1150
Rp1151
tp1152
a(S'imperial eagle beaker'
p1153
g2
(g6
S'\xcbIhR\xcev\xd3?'
p1154
tp1155
Rp1156
tp1157
a(S'eagle-bone whistle'
p1158
g2
(g6
S'A\xe2\x0fd\xd9p\xd3?'
p1159
tp1160
Rp1161
tp1162
a(S'robert eagle (footballer)'
p1163
g2
(g6
S'~\xb1G)\x1ap\xd3?'
p1164
tp1165
Rp1166
tp1167
a(S'eagle cars limited'
p1168
g2
(g6
S'\x08.\xeb\xd9@k\xd3?'
p1169
tp1170
Rp1171
tp1172
a(S'the eagle and the hawk'
p1173
g2
(g6
S'y[\xea\x7f\\b\xd3?'
p1174
tp1175
Rp1176
tp1177
a(S'eagle bicycle manufacturing company'
p1178
g2
(g6
S'0\xfdx"\xddY\xd3?'
p1179
tp1180
Rp1181
tp1182
a(S'eagle gate'
p1183
g2
(g6
S'P\xd0"\xe5\xfaX\xd3?'
p1184
tp1185
Rp1186
tp1187
a(S'eagle (steamboat)'
p1188
g2
(g6
S'\xa0[\xdcK7Q\xd3?'
p1189
tp1190
Rp1191
tp1192
a(S'eagle newspapers (new york)'
p1193
g2
(g6
S'9 \x99\x11#J\xd3?'
p1194
tp1195
Rp1196
tp1197
a(S'uscgc eagle (wix-327)'
p1198
g2
(g6
S'\xe5P*\xa1>H\xd3?'
p1199
tp1200
Rp1201
tp1202
a(S'eagle station grouplet'
p1203
g2
(g6
S'=\xa2\xf3e\x1dG\xd3?'
p1204
tp1205
Rp1206
tp1207
a(S'terrence ingram'
p1208
g2
(g6
S'\xb9\xb6\x13\xba\x1fA\xd3?'
p1209
tp1210
Rp1211
tp1212
a(S'audrey eagle'
p1213
g2
(g6
S'\x0b\xa6&\x8f\xfe@\xd3?'
p1214
tp1215
Rp1216
tp1217
a(S'eagle (mainframe application server)'
p1218
g2
(g6
S'\xd4\x17\xdc\xec\x83?\xd3?'
p1219
tp1220
Rp1221
tp1222
a(S'akun eagle-owl'
p1223
g2
(g6
S'X(\x1f7\x89)\xd3?'
p1224
tp1225
Rp1226
tp1227
a(S'eagle pass camino real port of entry'
p1228
g2
(g6
S'N\x1b\xaa\xb9e)\xd3?'
p1229
tp1230
Rp1231
tp1232
a(S'fundus (eye)'
p1233
g2
(g6
S'G\xf8M\x07\x92&\xd3?'
p1234
tp1235
Rp1236
tp1237
a(S'black-and-white hawk-eagle'
p1238
g2
(g6
S'\x9eM\x93\xb3\xf7%\xd3?'
p1239
tp1240
Rp1241
tp1242
a(S'turban head eagle'
p1243
g2
(g6
S'\xaa\xd5\xac\xefb$\xd3?'
p1244
tp1245
Rp1246
tp1247
a(S'eagle grove high school'
p1248
g2
(g6
S'\x8e5\xa49\x97!\xd3?'
p1249
tp1250
Rp1251
tp1252
a(S'wings of eagles'
p1253
g2
(g6
S'\x8a\x0c\x8c\xcbt!\xd3?'
p1254
tp1255
Rp1256
tp1257
a(S'jerry grant'
p1258
g2
(g6
S'\x88\x00\xa3!\x87\x1d\xd3?'
p1259
tp1260
Rp1261
tp1262
a(S'eagle township, black hawk county, iowa'
p1263
g2
(g6
S'\x98L\x97T3\x19\xd3?'
p1264
tp1265
Rp1266
tp1267
a(S'wills wing eagle'
p1268
g2
(g6
S'TM\xa1\x86\xe5\x15\xd3?'
p1269
tp1270
Rp1271
tp1272
a(S'philippine serpent eagle'
p1273
g2
(g6
S'\xef\x9b.\xcf\xf5\x13\xd3?'
p1274
tp1275
Rp1276
tp1277
a(S'eagle owl (disambiguation)'
p1278
g2
(g6
S'\xb9\xe13BQ\x0f\xd3?'
p1279
tp1280
Rp1281
tp1282
a(S'eagle view elementary'
p1283
g2
(g6
S'\xb9\x06\xe2\x96\xd1\x0e\xd3?'
p1284
tp1285
Rp1286
tp1287
a(S'eagle boys'
p1288
g2
(g6
S'>F\x8e\xc6\xdd\x08\xd3?'
p1289
tp1290
Rp1291
tp1292
a(S'the 13 cold-blooded eagles'
p1293
g2
(g6
S'T\xe3\x96u(\x06\xd3?'
p1294
tp1295
Rp1296
tp1297
a(S"wahlberg's eagle"
p1298
g2
(g6
S'\xb6\x13\xf5M\xa0\xfe\xd2?'
p1299
tp1300
Rp1301
tp1302
a(S'national eagle scout association'
p1303
g2
(g6
S'\x8d\xbe\xd3\xdc\x8c\xf2\xd2?'
p1304
tp1305
Rp1306
tp1307
a(S'eagle scout service project'
p1308
g2
(g6
S'\xc1\xc9=w\xdd\xef\xd2?'
p1309
tp1310
Rp1311
tp1312
a(S'uss eagle (1814 schooner)'
p1313
g2
(g6
S'\xc9\xd7p%F\xec\xd2?'
p1314
tp1315
Rp1316
tp1317
a(S'avic golden eagle'
p1318
g2
(g6
S'0\xd4\x1c\xb7Y\xde\xd2?'
p1319
tp1320
Rp1321
tp1322
a(S'woapalanne'
p1323
g2
(g6
S'\xd8%3\rz\xd2\xd2?'
p1324
tp1325
Rp1326
tp1327
a(S'spotted eagle ray'
p1328
g2
(g6
S'\x17\xd9\xe1\xd4\xf2\xcb\xd2?'
p1329
tp1330
Rp1331
tp1332
a(S"eagle's landing high school"
p1333
g2
(g6
S'\xa3\x0f\xc6\x89\x7f\xc9\xd2?'
p1334
tp1335
Rp1336
tp1337
a(S'eagle lake (waterford township, michigan)'
p1338
g2
(g6
S'\xc5\x1a\xf2I\xb2\xba\xd2?'
p1339
tp1340
Rp1341
tp1342
a(S'eagle butte (ziebach county, south dakota)'
p1343
g2
(g6
S'\xdd\x83\x8e\x08\xaa\xb5\xd2?'
p1344
tp1345
Rp1346
tp1347
a(S'short-toed snake eagle'
p1348
g2
(g6
S'\xb5\xf2[=\x88\xae\xd2?'
p1349
tp1350
Rp1351
tp1352
a(S'eagle of saladin'
p1353
g2
(g6
S'b\x96\xdfr\xb3\xad\xd2?'
p1354
tp1355
Rp1356
tp1357
a(S"beaudouin's snake eagle"
p1358
g2
(g6
S'mF\tA=\xad\xd2?'
p1359
tp1360
Rp1361
tp1362
a(S'the eagle of the ninth'
p1363
g2
(g6
S'\xc6\xc9\x04uS\xa1\xd2?'
p1364
tp1365
Rp1366
tp1367
a(S'eagle iii'
p1368
g2
(g6
S'\xa3G,\x995\x9f\xd2?'
p1369
tp1370
Rp1371
tp1372
a(S'bald eagle formation'
p1373
g2
(g6
S'\x97\xebJ\xf6\x1c\x9e\xd2?'
p1374
tp1375
Rp1376
tp1377
a(S'eagle river (favorite channel)'
p1378
g2
(g6
S'yS\xcd\xca\xe6\x98\xd2?'
p1379
tp1380
Rp1381
tp1382
a(S'eagle mountain lake'
p1383
g2
(g6
S'4z%h\xb2\x97\xd2?'
p1384
tp1385
Rp1386
tp1387
a(S'white eagle, oklahoma'
p1388
g2
(g6
S'\x89\xae\x8b\x95\x13\x97\xd2?'
p1389
tp1390
Rp1391
tp1392
a(S'live and kicking (eagle-eye cherry album)'
p1393
g2
(g6
S'ri_U#\x90\xd2?'
p1394
tp1395
Rp1396
tp1397
a(S'hms eagle'
p1398
g2
(g6
S'\x94d_\x13\x04\x90\xd2?'
p1399
tp1400
Rp1401
tp1402
a(S'bald eagle valley'
p1403
g2
(g6
S'\xaaaZP\xf8\x8f\xd2?'
p1404
tp1405
Rp1406
tp1407
a(S'half eagle'
p1408
g2
(g6
S"'\xdc=\xbc\xb2\x8f\xd2?"
p1409
tp1410
Rp1411
tp1412
a(S'eagle aviation france'
p1413
g2
(g6
S'\x0e\xdf\xa1-"\x8d\xd2?'
p1414
tp1415
Rp1416
tp1417
a(S'aerie'
p1418
g2
(g6
S'\xb5\xec8\x97n\x8c\xd2?'
p1419
tp1420
Rp1421
tp1422
a(S'usns bald eagle (t-af-50)'
p1423
g2
(g6
S'\xbb\xafl\xfeu\x8b\xd2?'
p1424
tp1425
Rp1426
tp1427
a(S'tawny eagle'
p1428
g2
(g6
S'\x9a\x00\x12w\xab\x85\xd2?'
p1429
tp1430
Rp1431
tp1432
a(S'eagle nest lake state park'
p1433
g2
(g6
S'\xb2\xd77Q\xad\x83\xd2?'
p1434
tp1435
Rp1436
tp1437
a(S'eagle island light'
p1438
g2
(g6
S'\xc3\x85\x8a\xd6x}\xd2?'
p1439
tp1440
Rp1441
tp1442
a(S'eagle-lion films'
p1443
g2
(g6
S'\xc8`\xee\xc8\xc0|\xd2?'
p1444
tp1445
Rp1446
tp1447
a(S'eagle river light'
p1448
g2
(g6
S'\xc7\x18o\x99\x0b|\xd2?'
p1449
tp1450
Rp1451
tp1452
a(S'general atomics mq-1c gray eagle'
p1453
g2
(g6
S'\xd6\xaa\xce\x19\xe5y\xd2?'
p1454
tp1455
Rp1456
tp1457
a(S'traverse city record-eagle'
p1458
g2
(g6
S'\xc2\xacr\xa9=h\xd2?'
p1459
tp1460
Rp1461
tp1462
a(S'iron eagle (soundtrack)'
p1463
g2
(g6
S'$\x1aN\x07\xd5f\xd2?'
p1464
tp1465
Rp1466
tp1467
a(S'eagle mountain (minnesota)'
p1468
g2
(g6
S'\xfe\xa4\xcex\xf1^\xd2?'
p1469
tp1470
Rp1471
tp1472
a(S'grosso aircraft easy eagle 1'
p1473
g2
(g6
S'@\x84Sc\xab]\xd2?'
p1474
tp1475
Rp1476
tp1477
a(S'bald eagle (horse)'
p1478
g2
(g6
S'\x11\x92!\x9bJZ\xd2?'
p1479
tp1480
Rp1481
tp1482
a(S'eagle scout (boy scouts of the philippines)'
p1483
g2
(g6
S'j\xaf\xac\x92\xa7V\xd2?'
p1484
tp1485
Rp1486
tp1487
a(S'eagle field'
p1488
g2
(g6
S'\x7fvc\xbe$O\xd2?'
p1489
tp1490
Rp1491
tp1492
a(S'eagle, idaho'
p1493
g2
(g6
S'9;\xee\xd3\xe3E\xd2?'
p1494
tp1495
Rp1496
tp1497
a(S'eagle, new york'
p1498
g2
(g6
S'h#|\x11\xdeB\xd2?'
p1499
tp1500
Rp1501
tp1502
a(S'vision in fishes'
p1503
g2
(g6
S'>2w,"B\xd2?'
p1504
tp1505
Rp1506
tp1507
a(S'eagle ford group'
p1508
g2
(g6
S'K\x8d\xee\x06H<\xd2?'
p1509
tp1510
Rp1511
tp1512
a.