(lp0
(S'entity'
p1
cnumpy.core.multiarray
scalar
p2
(cnumpy
dtype
p3
(S'f8'
p4
I0
I1
tp5
Rp6
(I3
S'<'
p7
NNNI-1
I-1
I0
tp8
bS'\xfe\xff\xff\xff\xff\xff\xef?'
p9
tp10
Rp11
tp12
a(S'entity (disambiguation)'
p13
g2
(g6
S'NT\tp\x8fd\xe7?'
p14
tp15
Rp16
tp17
a(S'the entity (disambiguation)'
p18
g2
(g6
S'\xb0\xda\xbd\xee>\xaa\xe5?'
p19
tp20
Rp21
tp22
a(S'entity linking'
p23
g2
(g6
S'\xecN\x96\xb9\xba\xf8\xe3?'
p24
tp25
Rp26
tp27
a(S'united states entity'
p28
g2
(g6
S'\xb63\x82\xa8\x00f\xe3?'
p29
tp30
Rp31
tp32
a(S'sgml entity'
p33
g2
(g6
S'Sa@qf\xe2\xe2?'
p34
tp35
Rp36
tp37
a(S'life entity'
p38
g2
(g6
S'eZ\xc1\x16]\xaf\xe1?'
p39
tp40
Rp41
tp42
a(S'entity framework'
p43
g2
(g6
S'\xcd\xf7\xab\x13\xf0Y\xe1?'
p44
tp45
Rp46
tp47
a(S'separate legal entity'
p48
g2
(g6
S'\xe5I\xed\x03J:\xe1?'
p49
tp50
Rp51
tp52
a(S'economic entity'
p53
g2
(g6
S'\xc0S\x1e~s\x0c\xdf?'
p54
tp55
Rp56
tp57
a(S'seat (legal entity)'
p58
g2
(g6
S'\xe8\xc0\x95\x8a>\x92\xde?'
p59
tp60
Rp61
tp62
a(S'no-action letter'
p63
g2
(g6
S'\x17\x84\xda\x92\x0b\x90\xde?'
p64
tp65
Rp66
tp67
a(S'bahamas executive entity'
p68
g2
(g6
S'\xf9\xa1\xb9D1\xd1\xdd?'
p69
tp70
Rp71
tp72
a(S'entity\xe2\x80\x93relationship model'
p73
g2
(g6
S'02\x84\xb2\x84\xad\xdd?'
p74
tp75
Rp76
tp77
a(S'named entity'
p78
g2
(g6
S'@5\xbf\xf57\x89\xdd?'
p79
tp80
Rp81
tp82
a(S'large and small entities in patent law'
p83
g2
(g6
S'\x90b#\x7f\x1e0\xdd?'
p84
tp85
Rp86
tp87
a(S'entity abstraction pattern'
p88
g2
(g6
S'l/\xf4\xfbm\xe0\xdc?'
p89
tp90
Rp91
tp92
a(S'entity bean'
p93
g2
(g6
S'\x05\x8c\xbc\xcc\x80\xa6\xdc?'
p94
tp95
Rp96
tp97
a(S'responsible entity'
p98
g2
(g6
S'-\x1c\xbbO\x10\x94\xdc?'
p99
tp100
Rp101
tp102
a(S'entity\xe2\x80\x93component\xe2\x80\x93system'
p103
g2
(g6
S'}\xa2\xfb\x8a"g\xdc?'
p104
tp105
Rp106
tp107
a(S'entity classification election'
p108
g2
(g6
S'\x91!o\x19\xf4(\xdc?'
p109
tp110
Rp111
tp112
a(S'named-entity recognition'
p113
g2
(g6
S'14\xc3\x8b\xa0\xe1\xdb?'
p114
tp115
Rp116
tp117
a(S'exclusive relationship (programming)'
p118
g2
(g6
S'\xb5\xd2\xd3:\xfa\xc3\xdb?'
p119
tp120
Rp121
tp122
a(S'weak entity'
p123
g2
(g6
S'\x95\xcf\xa0\x10\x8f\xf8\xda?'
p124
tp125
Rp126
tp127
a(S'4c entity'
p128
g2
(g6
S'8\xfb\x95\x91?L\xda?'
p129
tp130
Rp131
tp132
a(S'supra-entity'
p133
g2
(g6
S'\x8c\x98#\xb7YJ\xda?'
p134
tp135
Rp136
tp137
a(S'molecular entity'
p138
g2
(g6
S'\x8d5\x9e\xf9\x0e\x18\xda?'
p139
tp140
Rp141
tp142
a(S'entity realism'
p143
g2
(g6
S"\xaa\xb9\xd1'\x9c\xba\xd9?"
p144
tp145
Rp146
tp147
a(S'id (video game)'
p148
g2
(g6
S'\xe2\xa1\xc5\x91\x85\xb7\xd9?'
p149
tp150
Rp151
tp152
a(S'variable interest entity'
p153
g2
(g6
S'\xa8\x0euf\xbc~\xd8?'
p154
tp155
Rp156
tp157
a(S'vox sola'
p158
g2
(g6
S'\x87?\xaf&\xc82\xd8?'
p159
tp160
Rp161
tp162
a(S'carbonado (java)'
p163
g2
(g6
S'\xa2\x80\xb4\x89\x10r\xd7?'
p164
tp165
Rp166
tp167
a(S'territorial entity'
p168
g2
(g6
S'\xffF\xe6k\xa0%\xd7?'
p169
tp170
Rp171
tp172
a(S'non-essentialism'
p173
g2
(g6
S'\xba\x17\xdf\x98\xe1\x8f\xd6?'
p174
tp175
Rp176
tp177
a(S'scop formalism'
p178
g2
(g6
S'.a\x88\xc7\xd08\xd6?'
p179
tp180
Rp181
tp182
a(S'accounting entity'
p183
g2
(g6
S'\x8a\x1c\x1e\x009\xbc\xd5?'
p184
tp185
Rp186
tp187
a(S'enhanced entity\xe2\x80\x93relationship model'
p188
g2
(g6
S'K\xa0!\xa7\xadJ\xd5?'
p189
tp190
Rp191
tp192
a(S'provision (accounting)'
p193
g2
(g6
S'\xb1\x14\xb8H\xbfC\xd5?'
p194
tp195
Rp196
tp197
a(S'cusip-linked mip code'
p198
g2
(g6
S'\x93\x80\x9aT\xb8\xfe\xd4?'
p199
tp200
Rp201
tp202
a(S'registered agent'
p203
g2
(g6
S'\x01P\x8a\xf2\xd5\xa4\xd4?'
p204
tp205
Rp206
tp207
a(S'composite entity pattern'
p208
g2
(g6
S'l\x91\x8f\xaf\xdcn\xd4?'
p209
tp210
Rp211
tp212
a(S'idef1x'
p213
g2
(g6
S'1^.0\xde]\xd4?'
p214
tp215
Rp216
tp217
a(S'eer'
p218
g2
(g6
S'\x18\xf4\x19\xe9L>\xd4?'
p219
tp220
Rp221
tp222
a(S'ontology'
p223
g2
(g6
S'\xd8\x9dqIb0\xd4?'
p224
tp225
Rp226
tp227
a(S'white lantern corps'
p228
g2
(g6
S'|Z2\xeeJ\x04\xd4?'
p229
tp230
Rp231
tp232
a(S'netowl'
p233
g2
(g6
S'r\xdc3#\xe6\xf0\xd3?'
p234
tp235
Rp236
tp237
a(S'lifecycle modeling language'
p238
g2
(g6
S'\xf2\xd7\x1b|9\xe3\xd3?'
p239
tp240
Rp241
tp242
a(S'xml external entity attack'
p243
g2
(g6
S'h|\xee\xa8F\xa0\xd3?'
p244
tp245
Rp246
tp247
a(S'administrative appeal act'
p248
g2
(g6
S'\x90\xba\x1f\xb4Z\x87\xd3?'
p249
tp250
Rp251
tp252
a(S'kinetic rule language'
p253
g2
(g6
S'\xcb\xf2\xe0\xe9ST\xd3?'
p254
tp255
Rp256
tp257
a(S'radio-television of the federation of bosnia and herzegovina'
p258
g2
(g6
S'D\xe7*}\xe5F\xd3?'
p259
tp260
Rp261
tp262
a(S'affiliate (commerce)'
p263
g2
(g6
S'\x81I\xe9\xe9\xca\xec\xd2?'
p264
tp265
Rp266
tp267
a(S'jackson system development'
p268
g2
(g6
S'\x8fX.\xa98\xcb\xd2?'
p269
tp270
Rp271
tp272
a(S'affectio societatis'
p273
g2
(g6
S'\xd6\x0ck?!\xad\xd2?'
p274
tp275
Rp276
tp277
a(S'mobile signature roaming'
p278
g2
(g6
S'\x8e\x13p9\xd2\x8e\xd2?'
p279
tp280
Rp281
tp282
a(S'partnership taxation'
p283
g2
(g6
S'\x98\xfd\xb0\x97\xbau\xd2?'
p284
tp285
Rp286
tp287
a(S'gsm 03.48'
p288
g2
(g6
S'l\x81\x1e\xd4\xe6;\xd2?'
p289
tp290
Rp291
tp292
a(S'the tale of satampra zeiros'
p293
g2
(g6
S'\xb0\xb8N\x12^\x18\xd2?'
p294
tp295
Rp296
tp297
a(S'xbrls'
p298
g2
(g6
S']\xe6\x85\xeb\x10\x0c\xd2?'
p299
tp300
Rp301
tp302
a(S'fin 46'
p303
g2
(g6
S'\xf6\xe6H\xccA\x02\xd2?'
p304
tp305
Rp306
tp307
a(S'express (data modeling language)'
p308
g2
(g6
S'\xff\xbe\xa0\xcc\xcd\xe6\xd1?'
p309
tp310
Rp311
tp312
a(S'silicon avatar'
p313
g2
(g6
S'\x7f\xef\xec\\"\xc2\xd1?'
p314
tp315
Rp316
tp317
a(S'isa 310 knowledge of the business'
p318
g2
(g6
S'\xa0a\xaf\xc5\xa8\xc0\xd1?'
p319
tp320
Rp321
tp322
a(S'foreign agent (disambiguation)'
p323
g2
(g6
S'7V`\x8b\xef\xbd\xd1?'
p324
tp325
Rp326
tp327
a(S'the haunting of deck twelve'
p328
g2
(g6
S'\x90>\xaf\xe9\x02\xa6\xd1?'
p329
tp330
Rp331
tp332
a(S'center for adoption policy'
p333
g2
(g6
S'jw\xbc\x7f6\x9d\xd1?'
p334
tp335
Rp336
tp337
a(S'generic data model'
p338
g2
(g6
S'\xe1\xf0`\x1e#\x96\xd1?'
p339
tp340
Rp341
tp342
a(S'relational model/tasmania'
p343
g2
(g6
S'\xbf\xd0]w\x9d\x83\xd1?'
p344
tp345
Rp346
tp347
a(S'trust-fund tax'
p348
g2
(g6
S'\xef\x8d\xd4\xc1Cx\xd1?'
p349
tp350
Rp351
tp352
a(S'non-possession'
p353
g2
(g6
S'Q\x9e\xbad\x84w\xd1?'
p354
tp355
Rp356
tp357
a(S'systems biology graphical notation'
p358
g2
(g6
S'\xf5a\xfd\xb7\x19h\xd1?'
p359
tp360
Rp361
tp362
a(S'group entity'
p363
g2
(g6
S'g\x9f\xdd#\nh\xd1?'
p364
tp365
Rp366
tp367
a(S'list of geographic bodies by area'
p368
g2
(g6
S'3\x81(\x1c\xf5_\xd1?'
p369
tp370
Rp371
tp372
a(S'dual vee model'
p373
g2
(g6
S'\x7f\xf5\xe3]\xab\\\xd1?'
p374
tp375
Rp376
tp377
a(S'state corporation (russia)'
p378
g2
(g6
S'\x84\xc4\xf9Z\x9aK\xd1?'
p379
tp380
Rp381
tp382
a(S'identity 3.0'
p383
g2
(g6
S's\x99\xde\x0etA\xd1?'
p384
tp385
Rp386
tp387
a(S'political division'
p388
g2
(g6
S'#P8\xb8\xaf;\xd1?'
p389
tp390
Rp391
tp392
a(S'oborov\xc3\xbd podnik'
p393
g2
(g6
S'>ca\xa300\xd1?'
p394
tp395
Rp396
tp397
a(S'the entity (comics)'
p398
g2
(g6
S'x4\xf3\xf39\x1c\xd1?'
p399
tp400
Rp401
tp402
a(S'host (psychology)'
p403
g2
(g6
S'\xee\xa4\xf2 \x00\xfa\xd0?'
p404
tp405
Rp406
tp407
a(S'process philosophy'
p408
g2
(g6
S'C\xb4z\xb9\t\xc7\xd0?'
p409
tp410
Rp411
tp412
a(S'american conservatory of music (hammond, indiana & belize)'
p413
g2
(g6
S'"\xde\xfdn\xe1\xb9\xd0?'
p414
tp415
Rp416
tp417
a(S'entity paradigm'
p418
g2
(g6
S',\x17-||\xad\xd0?'
p419
tp420
Rp421
tp422
a(S'siviilipalvelus'
p423
g2
(g6
S'\xe6\xf0\xc1+\r\xa2\xd0?'
p424
tp425
Rp426
tp427
a(S'threat actor'
p428
g2
(g6
S'z\xed,\xb0\xe9\x9f\xd0?'
p429
tp430
Rp431
tp432
a(S'going concern'
p433
g2
(g6
S's\x8d\x1d\x1d)\x99\xd0?'
p434
tp435
Rp436
tp437
a(S'living tribunal'
p438
g2
(g6
S'\x98\xd9O\xe1c}\xd0?'
p439
tp440
Rp441
tp442
a(S'entity fx'
p443
g2
(g6
S'\xcb\x97 G(p\xd0?'
p444
tp445
Rp446
tp447
a(S'entity-level controls'
p448
g2
(g6
S'\xa9\xf9\x17\xa7oK\xd0?'
p449
tp450
Rp451
tp452
a(S's\xc3\xbczen v zehnacker gebaeudereingung gmbh'
p453
g2
(g6
S'\x0bL\x8bD;$\xd0?'
p454
tp455
Rp456
tp457
a(S'the entity'
p458
g2
(g6
S'\xffS\x9b\x0fb\xfa\xcf?'
p459
tp460
Rp461
tp462
a(S'three entity rule'
p463
g2
(g6
S"\xf7\x91\x8a\xa3'\xdb\xcf?"
p464
tp465
Rp466
tp467
a(S'character encodings in html'
p468
g2
(g6
S'\\\xae\t\xdd\xde\xc1\xcf?'
p469
tp470
Rp471
tp472
a(S'the entity (2015 film)'
p473
g2
(g6
S'\x04\x9d\xf3\x89\x8d\xc0\xcf?'
p474
tp475
Rp476
tp477
a(S'counterparty'
p478
g2
(g6
S'\xb8\x94\x9c4\xc0\xa4\xcf?'
p479
tp480
Rp481
tp482
a(S'non-physical entity'
p483
g2
(g6
S'\x81;+"\'\xa1\xcf?'
p484
tp485
Rp486
tp487
a(S'unincorporated entity'
p488
g2
(g6
S'\x1b\x85\x8aT\xd6e\xcf?'
p489
tp490
Rp491
tp492
a(S'beyond the farthest star (star trek: the animated series)'
p493
g2
(g6
S'|\xe0\x11y\x9b9\xcf?'
p494
tp495
Rp496
tp497
a(S'securities and commodities authority'
p498
g2
(g6
S'g\xd6\xe4dB*\xcf?'
p499
tp500
Rp501
tp502
a(S'exit scam'
p503
g2
(g6
S'L\xa1\xa9\nT\xeb\xce?'
p504
tp505
Rp506
tp507
a(S'oscar and the wolf'
p508
g2
(g6
S'\xb4\xc8aE~\xdb\xce?'
p509
tp510
Rp511
tp512
a(S'iso 10303-21'
p513
g2
(g6
S'\x1fO\xb1\x06\xa4\xb4\xce?'
p514
tp515
Rp516
tp517
a(S'dindo, konjic'
p518
g2
(g6
S'\xaa\x1e\x9a\xfc\x18\x91\xce?'
p519
tp520
Rp521
tp522
a(S'reference table'
p523
g2
(g6
S'\xfa\xaa\xe2-\x9d\x8a\xce?'
p524
tp525
Rp526
tp527
a(S'newco'
p528
g2
(g6
S'\xb8a\xcb\x06~\x82\xce?'
p529
tp530
Rp531
tp532
a(S'open-source brand'
p533
g2
(g6
S'o\xb3P\xe0Pu\xce?'
p534
tp535
Rp536
tp537
a(S'network element'
p538
g2
(g6
S'<1Jh\xf9A\xce?'
p539
tp540
Rp541
tp542
a(S'bangsamoro'
p543
g2
(g6
S'\xb47k\xd6\xe33\xce?'
p544
tp545
Rp546
tp547
a(S'good standing'
p548
g2
(g6
S'\xb8c\xd0}D2\xce?'
p549
tp550
Rp551
tp552
a(S'billion laughs'
p553
g2
(g6
S'\xd4=0\xd4J\xe3\xcd?'
p554
tp555
Rp556
tp557
a(S'cosmic entity'
p558
g2
(g6
S'\xf8~\xe2A\xc7\xbb\xcd?'
p559
tp560
Rp561
tp562
a(S'inter-entity boundary line'
p563
g2
(g6
S'\x88+\x9a\xcb\x15\xba\xcd?'
p564
tp565
Rp566
tp567
a(S'ifrs 1'
p568
g2
(g6
S'\xc3+~\xbf\x17\x97\xcd?'
p569
tp570
Rp571
tp572
a(S'european geography association'
p573
g2
(g6
S'\x90\xb3\xf6\x83\x93<\xcd?'
p574
tp575
Rp576
tp577
a(S'evidential existentiality'
p578
g2
(g6
S"\x00'#\xdb';\xcd?"
p579
tp580
Rp581
tp582
a(S'control environment'
p583
g2
(g6
S'\xd9\xbf\xb2\xa0\xc1,\xcd?'
p584
tp585
Rp586
tp587
a(S'build\xe2\x80\x93operate\xe2\x80\x93transfer'
p588
g2
(g6
S':CLJ\x89\x03\xcd?'
p589
tp590
Rp591
tp592
a(S'demerger'
p593
g2
(g6
S'\xa3\xfa\x17\xe1\x8e\xcd\xcc?'
p594
tp595
Rp596
tp597
a(S'generalised enterprise reference architecture and methodology'
p598
g2
(g6
S'l\x16\x98%_\xc6\xcc?'
p599
tp600
Rp601
tp602
a(S'eric sun'
p603
g2
(g6
S'\xcc\xa4\x13\x7f\xa6\xb8\xcc?'
p604
tp605
Rp606
tp607
a(S'touring theatre'
p608
g2
(g6
S'&[4:\xf1\xab\xcc?'
p609
tp610
Rp611
tp612
a(S'process and reality'
p613
g2
(g6
S'5\xbb[Mm\xab\xcc?'
p614
tp615
Rp616
tp617
a(S'doctrine of repair and reconstruction'
p618
g2
(g6
S'\x10*-L\x9e\xa4\xcc?'
p619
tp620
Rp621
tp622
a(S'list of entities and changes in the world factbook'
p623
g2
(g6
S'\xf7\xd0-\x9az\xa4\xcc?'
p624
tp625
Rp626
tp627
a(S'partitive'
p628
g2
(g6
S'$\xfa\x81|\xdf\x9b\xcc?'
p629
tp630
Rp631
tp632
a(S'legal personality'
p633
g2
(g6
S'\xf1\x7f\xcc\x9d\xdd\x93\xcc?'
p634
tp635
Rp636
tp637
a(S'open joint-stock company'
p638
g2
(g6
S'X\xe9\xe7}\xd3\x93\xcc?'
p639
tp640
Rp641
tp642
a(S'ntv arena'
p643
g2
(g6
S'\x9a\xbe \xb7\xed\x91\xcc?'
p644
tp645
Rp646
tp647
a(S'cthulhu mythos deities'
p648
g2
(g6
S'\x0cO5\xaf\xe2\x84\xcc?'
p649
tp650
Rp651
tp652
a(S'tv bel kanal'
p653
g2
(g6
S'\xd0E\xc5\x1e\xd6{\xcc?'
p654
tp655
Rp656
tp657
a(S'paranormal entity'
p658
g2
(g6
S'8HjK\x11v\xcc?'
p659
tp660
Rp661
tp662
a(S'aya\xc5\x9ft\xc3\xbcrkmenli'
p663
g2
(g6
S'\xc8/L\x19x^\xcc?'
p664
tp665
Rp666
tp667
a(S'zero one infinity rule'
p668
g2
(g6
S'\x02\xeb\xc4/\xa1X\xcc?'
p669
tp670
Rp671
tp672
a(S'uesp'
p673
g2
(g6
S'&`K\x04\xc9K\xcc?'
p674
tp675
Rp676
tp677
a(S'it follows'
p678
g2
(g6
S'?\x87\xf1\x8c\xc79\xcc?'
p679
tp680
Rp681
tp682
a(S'functional requirements for bibliographic records'
p683
g2
(g6
S'\xe9\x80\xa5d\xe3&\xcc?'
p684
tp685
Rp686
tp687
a(S'trading statement'
p688
g2
(g6
S'\x92\x13\xa8)*!\xcc?'
p689
tp690
Rp691
tp692
a(S'element management'
p693
g2
(g6
S'\xeb&\xa5\x87\xeb\x12\xcc?'
p694
tp695
Rp696
tp697
a(S'proac'
p698
g2
(g6
S'5\x03yv \xdf\xcb?'
p699
tp700
Rp701
tp702
a(S'conceptual schema'
p703
g2
(g6
S'\xbfzApa\xcf\xcb?'
p704
tp705
Rp706
tp707
a(S'special-purpose entity'
p708
g2
(g6
S'u\xdb\xb1\x96\xe8\xc0\xcb?'
p709
tp710
Rp711
tp712
a(S'evrymenes, ioannina'
p713
g2
(g6
S'\xd7f\x96\xc4\xb1\xa9\xcb?'
p714
tp715
Rp716
tp717
a(S'ontoclean'
p718
g2
(g6
S'\xdf#n\x8e2\x88\xcb?'
p719
tp720
Rp721
tp722
a(S'cultural union for the friendship of the people'
p723
g2
(g6
S'\xc1\xa7IC\xfeO\xcb?'
p724
tp725
Rp726
tp727
a(S'regional state'
p728
g2
(g6
S'\x81\xb8\xe4T\x94E\xcb?'
p729
tp730
Rp731
tp732
a(S'marz (country subdivision)'
p733
g2
(g6
S'$\xe1t\xa3\x91@\xcb?'
p734
tp735
Rp736
tp737
a(S'land transport new zealand'
p738
g2
(g6
S't/\xfd\x10\xce<\xcb?'
p739
tp740
Rp741
tp742
a(S'coercion (linguistics)'
p743
g2
(g6
S'\xc0\xa4\x9c\xe0\x863\xcb?'
p744
tp745
Rp746
tp747
a(S'digital identity'
p748
g2
(g6
S'ZJ\xcd\x1d\xb72\xcb?'
p749
tp750
Rp751
tp752
a(S'entity (short story)'
p753
g2
(g6
S'Xp\xe8L\xb2"\xcb?'
p754
tp755
Rp756
tp757
a(S'constitutional documents'
p758
g2
(g6
S'(&\xa4\x01\xbe\xfd\xca?'
p759
tp760
Rp761
tp762
a(S'flow-through entity'
p763
g2
(g6
S'\xd3\xb9%d\xd7\xda\xca?'
p764
tp765
Rp766
tp767
a(S'synthetic lease'
p768
g2
(g6
S'\xf3f\xa4M\xb4\xd2\xca?'
p769
tp770
Rp771
tp772
a(S'functional requirements for authority data'
p773
g2
(g6
S'\x8f3\xc0R\xcf\xd0\xca?'
p774
tp775
Rp776
tp777
a(S'babelfy'
p778
g2
(g6
S'\xe1\xa8\x9d\xb0\x99\xbb\xca?'
p779
tp780
Rp781
tp782
a(S'implicit theories of intelligence'
p783
g2
(g6
S'\xd2\xc7\x85\x03v\xb9\xca?'
p784
tp785
Rp786
tp787
a(S'sarl'
p788
g2
(g6
S'\x9b\xac?\x16\xcc\xaf\xca?'
p789
tp790
Rp791
tp792
a(S'ias 10'
p793
g2
(g6
S'/\x90&>\x13\xac\xca?'
p794
tp795
Rp796
tp797
a(S'liberty bell publications'
p798
g2
(g6
S'Z\xf9\xda\x8f,\x9b\xca?'
p799
tp800
Rp801
tp802
a(S'doris bither case'
p803
g2
(g6
S'lX6\x8f+\x82\xca?'
p804
tp805
Rp806
tp807
a(S'unicity (disambiguation)'
p808
g2
(g6
S'[7\xee\xb5\x9e`\xca?'
p809
tp810
Rp811
tp812
a(S'record linkage'
p813
g2
(g6
S'A\x06mlp^\xca?'
p814
tp815
Rp816
tp817
a(S'banco de valencia'
p818
g2
(g6
S'\xf1\xed\xff9=X\xca?'
p819
tp820
Rp821
tp822
a(S'town of narrogin'
p823
g2
(g6
S'\xfc5\xc2\xf3\x8cS\xca?'
p824
tp825
Rp826
tp827
a(S'challenge grant'
p828
g2
(g6
S'\x93\xcb\xd3\xefCN\xca?'
p829
tp830
Rp831
tp832
a(S'wcf data services'
p833
g2
(g6
S'\x85\xe6$}\x1aK\xca?'
p834
tp835
Rp836
tp837
a(S'greek autonomous district'
p838
g2
(g6
S'\xb4\xe2\x7f^\xcdF\xca?'
p839
tp840
Rp841
tp842
a(S'sybil attack'
p843
g2
(g6
S'\x18\xc7/(%\x11\xca?'
p844
tp845
Rp846
tp847
a(S'division (business)'
p848
g2
(g6
S'\x10\xa1cil\x10\xca?'
p849
tp850
Rp851
tp852
a(S'jaws ratio'
p853
g2
(g6
S'\xd7!\x8b\xa4\x82\x02\xca?'
p854
tp855
Rp856
tp857
a(S'bei'
p858
g2
(g6
S'\x87c6\x01*\xf6\xc9?'
p859
tp860
Rp861
tp862
a(S'financial asset'
p863
g2
(g6
S'\x8a\x00\x08 \xff\xe7\xc9?'
p864
tp865
Rp866
tp867
a(S'delegation (computing)'
p868
g2
(g6
S'\xad\x0f\xee\x1a\xbb\xd4\xc9?'
p869
tp870
Rp871
tp872
a(S'overseas administrative territorial entity'
p873
g2
(g6
S'V\xb6\xc9\xd3\x99\xd3\xc9?'
p874
tp875
Rp876
tp877
a(S'death (marvel comics)'
p878
g2
(g6
S'\xa5\xb8\xb5\xb4\x8e\xb5\xc9?'
p879
tp880
Rp881
tp882
a(S'enaire'
p883
g2
(g6
S'z\x049h\xd8\x9d\xc9?'
p884
tp885
Rp886
tp887
a(S'encapsulation (computer programming)'
p888
g2
(g6
S'\xb4y\xbf\xea\x1e\x9c\xc9?'
p889
tp890
Rp891
tp892
a(S'endotype'
p893
g2
(g6
S'M\xa6\n1\xd0\x92\xc9?'
p894
tp895
Rp896
tp897
a(S'nhe (disambiguation)'
p898
g2
(g6
S'2K\xcc-\xb2\x92\xc9?'
p899
tp900
Rp901
tp902
a(S'huastec state'
p903
g2
(g6
S'\xcc\xddx)\xe9\x89\xc9?'
p904
tp905
Rp906
tp907
a(S'record locking'
p908
g2
(g6
S'e\x03\xb1\xbdm\x85\xc9?'
p909
tp910
Rp911
tp912
a(S'acknowledgment index'
p913
g2
(g6
S'$R\xd4\xcf\xf0\x81\xc9?'
p914
tp915
Rp916
tp917
a(S'name resolution (semantics and text extraction)'
p918
g2
(g6
S'\xbca\x8c\xea\xeey\xc9?'
p919
tp920
Rp921
tp922
a(S'stormhouse'
p923
g2
(g6
S'\xcb\x0b\x08\xd5\x1am\xc9?'
p924
tp925
Rp926
tp927
a(S'numbered company'
p928
g2
(g6
S'{\x10s:\xf8i\xc9?'
p929
tp930
Rp931
tp932
a(S'sovereign state'
p933
g2
(g6
S"G,)'\xb4h\xc9?"
p934
tp935
Rp936
tp937
a(S'jean-paul cluzel'
p938
g2
(g6
S'9\xc2\x7f\x14\x0bO\xc9?'
p939
tp940
Rp941
tp942
a(S'political divisions of bosnia and herzegovina'
p943
g2
(g6
S'G\xa3\xcbJ\xbb@\xc9?'
p944
tp945
Rp946
tp947
a(S'bucak (administrative unit)'
p948
g2
(g6
S'\xae\xfa\xb6\xd6\xf5,\xc9?'
p949
tp950
Rp951
tp952
a(S'borik'
p953
g2
(g6
S'\xd5\xb9\x03\xf7\x90\x1f\xc9?'
p954
tp955
Rp956
tp957
a(S'bezujno'
p958
g2
(g6
S'xP\x08\xc5~\x00\xc9?'
p959
tp960
Rp961
tp962
a(S'a-frame (vr)'
p963
g2
(g6
S'\x8e1h\xaa\xb1\xfd\xc8?'
p964
tp965
Rp966
tp967
a(S'ownership'
p968
g2
(g6
S'\xac^ips\xfc\xc8?'
p969
tp970
Rp971
tp972
a(S'preconditioning (disambiguation)'
p973
g2
(g6
S'\x97\xf9\x00\xb5\xa8\xde\xc8?'
p974
tp975
Rp976
tp977
a(S'asdf'
p978
g2
(g6
S'~\x8a\xb0\x0c\x1b\xd6\xc8?'
p979
tp980
Rp981
tp982
a(S'ukraine freedom support act of 2014'
p983
g2
(g6
S'\x97\x94\xa0\x849\xb8\xc8?'
p984
tp985
Rp986
tp987
a(S'anti-realism'
p988
g2
(g6
S'`\xb2\xfe\x01\x91\xb7\xc8?'
p989
tp990
Rp991
tp992
a(S'series llc'
p993
g2
(g6
S'\xc7\xd47a\xb3\xad\xc8?'
p994
tp995
Rp996
tp997
a(S'brano milju\xc5\xa1'
p998
g2
(g6
S'\xcc\x9a\x0f/K\x9b\xc8?'
p999
tp1000
Rp1001
tp1002
a(S"professional social workers' association"
p1003
g2
(g6
S'\x88\xc2yG \x9a\xc8?'
p1004
tp1005
Rp1006
tp1007
a(S'subdivisions of nigeria'
p1008
g2
(g6
S')\x8c\xc4\xdf\xb2\x89\xc8?'
p1009
tp1010
Rp1011
tp1012
a(S'central index key'
p1013
g2
(g6
S'\xf0\x9db\xf4\xb8\x88\xc8?'
p1014
tp1015
Rp1016
tp1017
a(S'ifrs 10, 11 and 12'
p1018
g2
(g6
S'\x1e\xab*%\xcfr\xc8?'
p1019
tp1020
Rp1021
tp1022
a(S'casemaker'
p1023
g2
(g6
S'\x94\x15\x1afpn\xc8?'
p1024
tp1025
Rp1026
tp1027
a(S'shuma-gorath'
p1028
g2
(g6
S'\x8aC=1\xfdN\xc8?'
p1029
tp1030
Rp1031
tp1032
a(S'eternity (comics)'
p1033
g2
(g6
S'\x91\xd6&\xd7\xb0J\xc8?'
p1034
tp1035
Rp1036
tp1037
a(S'cathexis (star trek: voyager)'
p1038
g2
(g6
S'\x8d\x8a\x9eu\x8cJ\xc8?'
p1039
tp1040
Rp1041
tp1042
a(S'eater (novel)'
p1043
g2
(g6
S'\x89\xc4\xe5\xaesA\xc8?'
p1044
tp1045
Rp1046
tp1047
a(S'zionist entity'
p1048
g2
(g6
S'\x01I\x1c\r\x06\x04\xc8?'
p1049
tp1050
Rp1051
tp1052
a(S'randy glass'
p1053
g2
(g6
S'\x1e|\xf5\xe4\xe9\xc3\xc7?'
p1054
tp1055
Rp1056
tp1057
a(S'push access protocol'
p1058
g2
(g6
S'9\x1f\x05D\xbe\xc2\xc7?'
p1059
tp1060
Rp1061
tp1062
a(S'natural person'
p1063
g2
(g6
S'\xbaN\xd2\x17z\xb3\xc7?'
p1064
tp1065
Rp1066
tp1067
a(S'mar\xc8\x9bolea'
p1068
g2
(g6
S'\xf3k\x08\xadM\x94\xc7?'
p1069
tp1070
Rp1071
tp1072
a(S'group'
p1073
g2
(g6
S'\xa2\x84\x9a\xf1/\x82\xc7?'
p1074
tp1075
Rp1076
tp1077
a(S'personal identity (disambiguation)'
p1078
g2
(g6
S'\x8d9\x1e\xa7\xc7q\xc7?'
p1079
tp1080
Rp1081
tp1082
a(S'vietnam chamber of commerce and industry'
p1083
g2
(g6
S'\xdb\xa1\xefc>g\xc7?'
p1084
tp1085
Rp1086
tp1087
a(S'has-a'
p1088
g2
(g6
S'[\xa9c<\x80b\xc7?'
p1089
tp1090
Rp1091
tp1092
a(S'wadc (disambiguation)'
p1093
g2
(g6
S'\xaa\x9d\x9f\x08\xac`\xc7?'
p1094
tp1095
Rp1096
tp1097
a(S'administrative divisions of riga'
p1098
g2
(g6
S'\x80M3\xcb\x0c[\xc7?'
p1099
tp1100
Rp1101
tp1102
a(S'bosnia (early middle ages)'
p1103
g2
(g6
S'\xfd\xdfh\xa0\xe7B\xc7?'
p1104
tp1105
Rp1106
tp1107
a(S'province (disambiguation)'
p1108
g2
(g6
S'qk\x179\xcf?\xc7?'
p1109
tp1110
Rp1111
tp1112
a(S'cayman islands directors registration and licensing law, 2014'
p1113
g2
(g6
S'b\xf0\xb1\xabg>\xc7?'
p1114
tp1115
Rp1116
tp1117
a(S'business'
p1118
g2
(g6
S'\x01N,\xf9\xe2;\xc7?'
p1119
tp1120
Rp1121
tp1122
a(S'quasi-corporation'
p1123
g2
(g6
S'\x04\xc7\xda\x9c\xe9(\xc7?'
p1124
tp1125
Rp1126
tp1127
a(S'ifrs 15'
p1128
g2
(g6
S'\xea6\xf6\xba\xa6\x14\xc7?'
p1129
tp1130
Rp1131
tp1132
a(S'arranger (banking)'
p1133
g2
(g6
S'\x8c+ \xba@\x06\xc7?'
p1134
tp1135
Rp1136
tp1137
a(S'action semantics'
p1138
g2
(g6
S'\x90\xc3\xf8t\xcd\xff\xc6?'
p1139
tp1140
Rp1141
tp1142
a(S'egregore'
p1143
g2
(g6
S'\xe6\xbb\x85\x9dB\xe1\xc6?'
p1144
tp1145
Rp1146
tp1147
a(S'solvency'
p1148
g2
(g6
S'[\x17:\xf0\x93\xda\xc6?'
p1149
tp1150
Rp1151
tp1152
a(S'civil rights commission (puerto rico)'
p1153
g2
(g6
S'\xd8\xda\xe4O\xe3\xd7\xc6?'
p1154
tp1155
Rp1156
tp1157
a(S'spokesblogger'
p1158
g2
(g6
S"\xda\xe1\xd8'E\xd5\xc6?"
p1159
tp1160
Rp1161
tp1162
a(S'semantic triple'
p1163
g2
(g6
S'\xab%\x9e\xf6\x16\xb9\xc6?'
p1164
tp1165
Rp1166
tp1167
a(S'elektroprivreda hz hb'
p1168
g2
(g6
S'\x90\x9d\xb6\xa2\x19\xa4\xc6?'
p1169
tp1170
Rp1171
tp1172
a(S'object definition language'
p1173
g2
(g6
S':y\x07\xbe\xd9\x9a\xc6?'
p1174
tp1175
Rp1176
tp1177
a(S'office for the cooperation of the people with the president'
p1178
g2
(g6
S'1\t\x0eJ\xf5\x97\xc6?'
p1179
tp1180
Rp1181
tp1182
a(S'hardware platform interface'
p1183
g2
(g6
S'*v\x1fI\xb5\x8f\xc6?'
p1184
tp1185
Rp1186
tp1187
a(S'integrated test facility'
p1188
g2
(g6
S'y\x93\x9dli\x89\xc6?'
p1189
tp1190
Rp1191
tp1192
a(S'branch office'
p1193
g2
(g6
S'q\x8b\xf86\xde\x81\xc6?'
p1194
tp1195
Rp1196
tp1197
a(S'charitable for-profit entity'
p1198
g2
(g6
S'\xd6\x9b\xc9\xb4$}\xc6?'
p1199
tp1200
Rp1201
tp1202
a(S'cell captive'
p1203
g2
(g6
S'd\xd0~G\xa0|\xc6?'
p1204
tp1205
Rp1206
tp1207
a(S's\xc3\xbdsla'
p1208
g2
(g6
S'7\x83\x9c\xf1\x19j\xc6?'
p1209
tp1210
Rp1211
tp1212
a(S'economic operator'
p1213
g2
(g6
S'\xe0<\xca\xc8\xf0]\xc6?'
p1214
tp1215
Rp1216
tp1217
a(S'common name (disambiguation)'
p1218
g2
(g6
S'\xea4h\xe2a[\xc6?'
p1219
tp1220
Rp1221
tp1222
a(S'name resolution'
p1223
g2
(g6
S'K\x9d\x04\xeb\x14X\xc6?'
p1224
tp1225
Rp1226
tp1227
a(S'trust fund recovery penalty'
p1228
g2
(g6
S'K\xd68\x0f\xb5N\xc6?'
p1229
tp1230
Rp1231
tp1232
a(S'starc'
p1233
g2
(g6
S'[\xa2\x81\xca\xf5C\xc6?'
p1234
tp1235
Rp1236
tp1237
a(S'de facto corporation and corporation by estoppel'
p1238
g2
(g6
S'\x9c,:\xee\x0eB\xc6?'
p1239
tp1240
Rp1241
tp1242
a(S'remote operations service element protocol'
p1243
g2
(g6
S'\x95\xf5\xa1\xf1s9\xc6?'
p1244
tp1245
Rp1246
tp1247
a(S'nekron'
p1248
g2
(g6
S'\xc4{\xbe9\xa05\xc6?'
p1249
tp1250
Rp1251
tp1252
a(S'criticisms of corporations'
p1253
g2
(g6
S'@n\xa0f\x9d,\xc6?'
p1254
tp1255
Rp1256
tp1257
a(S'kommanditgesellschaft'
p1258
g2
(g6
S'\x92\xdc\xfd\xa9\xd3\r\xc6?'
p1259
tp1260
Rp1261
tp1262
a(S'indignation'
p1263
g2
(g6
S'\xe3\xdb\xe5E\x85\xfc\xc5?'
p1264
tp1265
Rp1266
tp1267
a(S'gender equality architecture reform'
p1268
g2
(g6
S'\x97\x87\x93:O\xf8\xc5?'
p1269
tp1270
Rp1271
tp1272
a(S'500s (decade)'
p1273
g2
(g6
S'O\xf2\x9e\x149\xf6\xc5?'
p1274
tp1275
Rp1276
tp1277
a(S'st\xc3\xa1tn\xc3\xad podnik'
p1278
g2
(g6
S'1;\xd8\xd6\x12\xec\xc5?'
p1279
tp1280
Rp1281
tp1282
a(S'constituent state'
p1283
g2
(g6
S'\x04\xdai\xe9S\xea\xc5?'
p1284
tp1285
Rp1286
tp1287
a(S'o\xc5\xa1tra luka'
p1288
g2
(g6
S'}\x99R[X\xe2\xc5?'
p1289
tp1290
Rp1291
tp1292
a(S'entity concept'
p1293
g2
(g6
S'\xb4\xf3\xd7\x90}\xd5\xc5?'
p1294
tp1295
Rp1296
tp1297
a(S'realism'
p1298
g2
(g6
S'\xe2\xd2r}\x04\xd2\xc5?'
p1299
tp1300
Rp1301
tp1302
a(S'document type definition'
p1303
g2
(g6
S'\x03\xfa\xfa\x14\x11\xc7\xc5?'
p1304
tp1305
Rp1306
tp1307
a(S'federalni radio'
p1308
g2
(g6
S'a\x08\x1eqs\xb8\xc5?'
p1309
tp1310
Rp1311
tp1312
a(S'ceptura coal mine'
p1313
g2
(g6
S"\xd6X'V\xad\xb3\xc5?"
p1314
tp1315
Rp1316
tp1317
a(S'propaganda (aftershock album)'
p1318
g2
(g6
S'#\xcc\xb7\xc1\x94\xb0\xc5?'
p1319
tp1320
Rp1321
tp1322
a(S'crec'
p1323
g2
(g6
S'b\x9c\xc1\x14\xd4\xaf\xc5?'
p1324
tp1325
Rp1326
tp1327
a(S'semantic property'
p1328
g2
(g6
S'jnK\\H\xaf\xc5?'
p1329
tp1330
Rp1331
tp1332
a(S'definitions of politicide'
p1333
g2
(g6
S'\x1e\x95,\x14&\xad\xc5?'
p1334
tp1335
Rp1336
tp1337
a(S'the night (disturbed song)'
p1338
g2
(g6
S'\xb6nr\xa1\xce\xa5\xc5?'
p1339
tp1340
Rp1341
tp1342
a(S'coalition against genocide'
p1343
g2
(g6
S'\xef\x90\xb9\x8e\x0b\xa0\xc5?'
p1344
tp1345
Rp1346
tp1347
a(S'chebi'
p1348
g2
(g6
S'\x0c%\xc2\x1a\xa3\x9e\xc5?'
p1349
tp1350
Rp1351
tp1352
a(S'guardian alien'
p1353
g2
(g6
S'\xed\xa9\x0c\xfa\xed\x99\xc5?'
p1354
tp1355
Rp1356
tp1357
a(S'day of the dove'
p1358
g2
(g6
S'g\xf6Q\x97\xb2\x99\xc5?'
p1359
tp1360
Rp1361
tp1362
a(S'poplat (berkovi\xc4\x87i, rs)'
p1363
g2
(g6
S'@\x06\xa3\xd4\\\x95\xc5?'
p1364
tp1365
Rp1366
tp1367
a(S'disadvantaged business enterprise'
p1368
g2
(g6
S'\xe47\xac1+\x92\xc5?'
p1369
tp1370
Rp1371
tp1372
a(S'isa 400 risk assessments and internal control'
p1373
g2
(g6
S'U\xd0_a\x82\x8d\xc5?'
p1374
tp1375
Rp1376
tp1377
a(S'offshoring as a service'
p1378
g2
(g6
S'\x9f\xb5P\xe4\x9b~\xc5?'
p1379
tp1380
Rp1381
tp1382
a(S'teyol\xc3\xada'
p1383
g2
(g6
S'pCz7%m\xc5?'
p1384
tp1385
Rp1386
tp1387
a(S'federalna.ba'
p1388
g2
(g6
S'\xa6#MB\xdbh\xc5?'
p1389
tp1390
Rp1391
tp1392
a(S'pasquale schiattarella'
p1393
g2
(g6
S'\xbc\xbb\x9dm\x0fd\xc5?'
p1394
tp1395
Rp1396
tp1397
a(S'administrative division'
p1398
g2
(g6
S'\x17\x8f\x9f\xa6@c\xc5?'
p1399
tp1400
Rp1401
tp1402
a(S'external auditor'
p1403
g2
(g6
S'\xeb\xf2%\xaa\xc5U\xc5?'
p1404
tp1405
Rp1406
tp1407
a(S'fate-sharing'
p1408
g2
(g6
S'\x9ch\xee\xa5SU\xc5?'
p1409
tp1410
Rp1411
tp1412
a(S'australian business number'
p1413
g2
(g6
S':\xc4\x1c\xe8\xfcT\xc5?'
p1414
tp1415
Rp1416
tp1417
a(S'council of ministers of bosnia and herzegovina'
p1418
g2
(g6
S'\x8e\xca\xff8\xb6F\xc5?'
p1419
tp1420
Rp1421
tp1422
a(S'knowledge extraction'
p1423
g2
(g6
S'\x8c\xffArBE\xc5?'
p1424
tp1425
Rp1426
tp1427
a(S'law of persons in south africa'
p1428
g2
(g6
S'\xe7P\xb5\x9bg?\xc5?'
p1429
tp1430
Rp1431
tp1432
a(S'the stolen body'
p1433
g2
(g6
S'\xe3\xb8\xcb\xae\xb1/\xc5?'
p1434
tp1435
Rp1436
tp1437
a(S'transactions per second'
p1438
g2
(g6
S'1W\xfa\xaf~/\xc5?'
p1439
tp1440
Rp1441
tp1442
a(S'philosophical realism'
p1443
g2
(g6
S'\xc26\xbf\xa3{%\xc5?'
p1444
tp1445
Rp1446
tp1447
a(S'charitable incorporated organisation'
p1448
g2
(g6
S'\x8d\xaa-\x8d\xad#\xc5?'
p1449
tp1450
Rp1451
tp1452
a(S'unowned property'
p1453
g2
(g6
S'\xffg\xa3\xde\x96!\xc5?'
p1454
tp1455
Rp1456
tp1457
a(S'entity registry'
p1458
g2
(g6
S'K)\x03_\xb8\x15\xc5?'
p1459
tp1460
Rp1461
tp1462
a(S'loter\xc3\xadas y apuestas del estado'
p1463
g2
(g6
S'\x00\xbe9\x07c\x06\xc5?'
p1464
tp1465
Rp1466
tp1467
a(S'hsb (sweden)'
p1468
g2
(g6
S'\xc1\xc6\x16\x98\xa3\xf6\xc4?'
p1469
tp1470
Rp1471
tp1472
a(S'jacksonville slam'
p1473
g2
(g6
S'k\x86\xb0\xd7b\xf2\xc4?'
p1474
tp1475
Rp1476
tp1477
a(S'jehovah 1'
p1478
g2
(g6
S'l\xec\xdc\xe7\x0b\xee\xc4?'
p1479
tp1480
Rp1481
tp1482
a(S'presentity'
p1483
g2
(g6
S'Y\x81m\x9c\xf1\xe9\xc4?'
p1484
tp1485
Rp1486
tp1487
a(S'ion (comics)'
p1488
g2
(g6
S'\xe2\xa4\x0e\xa8.\xe7\xc4?'
p1489
tp1490
Rp1491
tp1492
a(S'damir kaletovi\xc4\x87'
p1493
g2
(g6
S'\xc6\x8e\xff\xa8\x94\xdf\xc4?'
p1494
tp1495
Rp1496
tp1497
a(S'bibframe'
p1498
g2
(g6
S'76\x9cr\x81\xdb\xc4?'
p1499
tp1500
Rp1501
tp1502
a(S'cision'
p1503
g2
(g6
S'#\x84\xfcC4\xd3\xc4?'
p1504
tp1505
Rp1506
tp1507
a(S'relator (law)'
p1508
g2
(g6
S'\n\xd8\xdb\x99\xed\xbe\xc4?'
p1509
tp1510
Rp1511
tp1512
a.