(lp0
(S'ex machina (film)'
p1
cnumpy.core.multiarray
scalar
p2
(cnumpy
dtype
p3
(S'f8'
p4
I0
I1
tp5
Rp6
(I3
S'<'
p7
NNNI-1
I-1
I0
tp8
bS'\x07\x00\x00\x00\x00\x00\xf0?'
p9
tp10
Rp11
tp12
a(S'ava'
p13
g2
(g6
S'\xa7}\xc8%\xac \xd9?'
p14
tp15
Rp16
tp17
a(S'list of american viticultural areas'
p18
g2
(g6
S'\xbc\xff\xd6\xbd\x00\x90\xd8?'
p19
tp20
Rp21
tp22
a(S'north coast ava'
p23
g2
(g6
S'r\xb0\xc0\xceU\xb2\xd7?'
p24
tp25
Rp26
tp27
a(S'ava recordings'
p28
g2
(g6
S'\x99<\x1fY\xe9\x8a\xd7?'
p29
tp30
Rp31
tp32
a(S"samoa 'ava ceremony"
p33
g2
(g6
S'\x9c/:\x0c\x9eI\xd7?'
p34
tp35
Rp36
tp37
a(S'narapati'
p38
g2
(g6
S'\xe8\x15PQ\xd4\xfe\xd6?'
p39
tp40
Rp41
tp42
a(S'ava moore'
p43
g2
(g6
S'.\xc4\xaf\xd8\x93\x89\xd6?'
p44
tp45
Rp46
tp47
a(S'ava jerome'
p48
g2
(g6
S'\xb1\xaa\xd2=a\x88\xd6?'
p49
tp50
Rp51
tp52
a(S'alex garland'
p53
g2
(g6
S'\xb4\xf5\xb5+\xa0{\xd6?'
p54
tp55
Rp56
tp57
a(S'ava peralta'
p58
g2
(g6
S'\x1d{r\x98\xfe\xe4\xd5?'
p59
tp60
Rp61
tp62
a(S'ava vitali'
p63
g2
(g6
S'\x16?\x89\x8c\xdf\xd9\xd5?'
p64
tp65
Rp66
tp67
a(S'san francisco bay ava'
p68
g2
(g6
S'|Bn\xb7\xd7q\xd5?'
p69
tp70
Rp71
tp72
a(S'list of awards and nominations received by alicia vikander'
p73
g2
(g6
S'\xf2=\xf5\xfd\x0bT\xd5?'
p74
tp75
Rp76
tp77
a(S'garland (surname)'
p78
g2
(g6
S'J\xc3\x826P@\xd5?'
p79
tp80
Rp81
tp82
a(S'judy garland'
p83
g2
(g6
S'\xfb,4\x11b\x14\xd5?'
p84
tp85
Rp86
tp87
a(S'ava, iran'
p88
g2
(g6
S'\xa7\xc8\x96\xf6B\xea\xd4?'
p89
tp90
Rp91
tp92
a(S'andrew whitehurst'
p93
g2
(g6
S':Mh\xff\xbf\xca\xd4?'
p94
tp95
Rp96
tp97
a(S'association for volunteer administration'
p98
g2
(g6
S'\xb1\xd5\x89\xb0d\xa4\xd4?'
p99
tp100
Rp101
tp102
a(S'garland (disambiguation)'
p103
g2
(g6
S'=\x15\xefL1\x89\xd4?'
p104
tp105
Rp106
tp107
a(S'garland, texas'
p108
g2
(g6
S'\x99\x88d\xe0\xf87\xd4?'
p109
tp110
Rp111
tp112
a(S'american viticultural area'
p113
g2
(g6
S'\xa5~\xd1C3\xde\xd3?'
p114
tp115
Rp116
tp117
a(S'sawlon'
p118
g2
(g6
S'\xa5\xbf\xb3g\xea\xd8\xd3?'
p119
tp120
Rp121
tp122
a(S'ava, new york'
p123
g2
(g6
S'\xfe\r,\x05Z\xc9\xd3?'
p124
tp125
Rp126
tp127
a(S"ava's possessions"
p128
g2
(g6
S'\x02$p+4\xa7\xd3?'
p129
tp130
Rp131
tp132
a(S'minye kyawswa i of ava'
p133
g2
(g6
S'\x82\xac\xef\x85V\x8d\xd3?'
p134
tp135
Rp136
tp137
a(S'ava (poet)'
p138
g2
(g6
S'\x14\xd6\x199\xf3\x8a\xd3?'
p139
tp140
Rp141
tp142
a(S'list of judy garland performances'
p143
g2
(g6
S'\x13\xfc\xebv\x19\x87\xd3?'
p144
tp145
Rp146
tp147
a(S'merrick garland'
p148
g2
(g6
S'S\x13_\xa5\x9a\x7f\xd3?'
p149
tp150
Rp151
tp152
a(S'mark williams ardington'
p153
g2
(g6
S'9Z\xb4\xf8\xb1t\xd3?'
p154
tp155
Rp156
tp157
a(S'arkansas mountain ava'
p158
g2
(g6
S'\x04\x06\x90\x97\x99X\xd3?'
p159
tp160
Rp161
tp162
a(S'love, wedding, marriage'
p163
g2
(g6
S'\xb9\x01\x88\x9fKX\xd3?'
p164
tp165
Rp166
tp167
a(S'minye kyawswa'
p168
g2
(g6
S'\xa2\xc4\x10\xb7\xc98\xd3?'
p169
tp170
Rp171
tp172
a(S'thihathura'
p173
g2
(g6
S'f\x829\x1c\xe52\xd3?'
p174
tp175
Rp176
tp177
a(S'caleb (given name)'
p178
g2
(g6
S'\xf3\xeakn\xaa*\xd3?'
p179
tp180
Rp181
tp182
a(S'list of awards and honors received by judy garland'
p183
g2
(g6
S'Z\xd8\x1b\xb5\xc0\x1a\xd3?'
p184
tp185
Rp186
tp187
a(S'garland independent school district'
p188
g2
(g6
S'B\x10\xa8\x8c\x10\xed\xd2?'
p189
tp190
Rp191
tp192
a(S'hurricane ava'
p193
g2
(g6
S'<\x16p\x82\xc8\xe3\xd2?'
p194
tp195
Rp196
tp197
a(S'in the blood (2014 film)'
p198
g2
(g6
S'\x969=\xe2)\xc9\xd2?'
p199
tp200
Rp201
tp202
a(S'john garland'
p203
g2
(g6
S'd\x83\x91\x8f[\xb6\xd2?'
p204
tp205
Rp206
tp207
a(S'tumbleweeds (1999 film)'
p208
g2
(g6
S'u\xde\xf9=\x1e\xae\xd2?'
p209
tp210
Rp211
tp212
a(S'red hill douglas county, oregon ava'
p213
g2
(g6
S'\xd9]\xb2\xda.\xa3\xd2?'
p214
tp215
Rp216
tp217
a(S'kingdom of ava'
p218
g2
(g6
S'_Pb)\x08\xa3\xd2?'
p219
tp220
Rp221
tp222
a(S'hurricane ava (1973)'
p223
g2
(g6
S'\xb8x\xea}\xf2\x87\xd2?'
p224
tp225
Rp226
tp227
a(S'minkhaung i'
p228
g2
(g6
S'[\xf2\x99\xe4\x12\x83\xd2?'
p229
tp230
Rp231
tp232
a(S'the turing test (video game)'
p233
g2
(g6
S'};}\x91\xe2u\xd2?'
p234
tp235
Rp236
tp237
a(S'thohanbwa'
p238
g2
(g6
S')\xb8)Sno\xd2?'
p239
tp240
Rp241
tp242
a(S'narapati i of ava'
p243
g2
(g6
S'N\x9a+z1`\xd2?'
p244
tp245
Rp246
tp247
a(S'ava, ohio'
p248
g2
(g6
S'GZ\xe48\xf6Y\xd2?'
p249
tp250
Rp251
tp252
a(S'david garland'
p253
g2
(g6
S'\xe8\xbcf\xb5]F\xd2?'
p254
tp255
Rp256
tp257
a(S'minye kyawswa (disambiguation)'
p258
g2
(g6
S'\xf5\xff?\xac\xac\x12\xd2?'
p259
tp260
Rp261
tp262
a(S'maha thiha thura (disambiguation)'
p263
g2
(g6
S'\xcf"\xf6JK\x08\xd2?'
p264
tp265
Rp266
tp267
a(S'garland junior college'
p268
g2
(g6
S'dl\xcd\x1f\x9b\xf1\xd1?'
p269
tp270
Rp271
tp272
a(S'harry g. garland'
p273
g2
(g6
S'\xd2f\x8dJ\x7f\xf0\xd1?'
p274
tp275
Rp276
tp277
a(S'calistoga ava'
p278
g2
(g6
S'\xc5\x8c/P\xad\xde\xd1?'
p279
tp280
Rp281
tp282
a(S'awa mountain'
p283
g2
(g6
S'Q\x1a#a7\xc4\xd1?'
p284
tp285
Rp286
tp287
a(S'list of judy garland biographies'
p288
g2
(g6
S'g5w9\xe3\xa1\xd1?'
p289
tp290
Rp291
tp292
a(S'ava (given name)'
p293
g2
(g6
S'h\xb7b\xae\xa2\x92\xd1?'
p294
tp295
Rp296
tp297
a(S'ex machina'
p298
g2
(g6
S'\x1f\xfb\xe5a\xd9\x8d\xd1?'
p299
tp300
Rp301
tp302
a(S'nathan (given name)'
p303
g2
(g6
S'U\xbf\xefhj\x80\xd1?'
p304
tp305
Rp306
tp307
a(S'shwenankyawshin'
p308
g2
(g6
S'\x1fd7\xf8\xc7r\xd1?'
p309
tp310
Rp311
tp312
a(S'joseph garland (mayor)'
p313
g2
(g6
S'D=\xe5]Xh\xd1?'
p314
tp315
Rp316
tp317
a(S'tyrone garland'
p318
g2
(g6
S' \xbe\xe5\x9d\xbfa\xd1?'
p319
tp320
Rp321
tp322
a(S'jahant ava'
p323
g2
(g6
S'\xcc$^\xd9?X\xd1?'
p324
tp325
Rp326
tp327
a(S'the judy garland show'
p328
g2
(g6
S'WvJ\x18XR\xd1?'
p329
tp330
Rp331
tp332
a(S'garland, missouri'
p333
g2
(g6
S'\xe89\xa8\xd6FD\xd1?'
p334
tp335
Rp336
tp337
a(S'hamlin garland house'
p338
g2
(g6
S'A\x88\xac\n\xf6@\xd1?'
p339
tp340
Rp341
tp342
a(S'nathan (surname)'
p343
g2
(g6
S'\r7\x01X\x97>\xd1?'
p344
tp345
Rp346
tp347
a(S'hazel garland'
p348
g2
(g6
S'\xf3\xa1\xf9\xab\x87>\xd1?'
p349
tp350
Rp351
tp352
a(S'patrick garland'
p353
g2
(g6
S'\x885\xe2V\xd83\xd1?'
p354
tp355
Rp356
tp357
a(S"ava's demon"
p358
g2
(g6
S'e\xb1\x98n\xad2\xd1?'
p359
tp360
Rp361
tp362
a(S'minkhaung ii'
p363
g2
(g6
S's\xa1\xe1\x9c[-\xd1?'
p364
tp365
Rp366
tp367
a(S'downtown garland (dart station)'
p368
g2
(g6
S'\xa02\x82\xcf8$\xd1?'
p369
tp370
Rp371
tp372
a(S'james garland'
p373
g2
(g6
S'\xc9\x8eY\x071\x15\xd1?'
p374
tp375
Rp376
tp377
a(S'jon garland'
p378
g2
(g6
S'\xb0@/\xd5\x81\x12\xd1?'
p379
tp380
Rp381
tp382
a(S'paul norris (visual effects)'
p383
g2
(g6
S'\xe7\xc0\xd9\x080\t\xd1?'
p384
tp385
Rp386
tp387
a(S'jack garland'
p388
g2
(g6
S'[\x17\xafg\x1f\x07\xd1?'
p389
tp390
Rp391
tp392
a(S'north garland high school'
p393
g2
(g6
S'\x9cB\xb9nC\xf5\xd0?'
p394
tp395
Rp396
tp397
a(S"forty years' war"
p398
g2
(g6
S'\xdb\x1d\xa4\xc3\x86\xec\xd0?'
p399
tp400
Rp401
tp402
a(S'mohnyin thado'
p403
g2
(g6
S'\xa8\xe8\x10;5\xcf\xd0?'
p404
tp405
Rp406
tp407
a(S'herbert garland'
p408
g2
(g6
S'{&\xadz\xdd\xc7\xd0?'
p409
tp410
Rp411
tp412
a(S'cosumnes river ava'
p413
g2
(g6
S'j\xdb\xf6$z\xc4\xd0?'
p414
tp415
Rp416
tp417
a(S'shin mi-nauk'
p418
g2
(g6
S'@\x01^sP\xc3\xd0?'
p419
tp420
Rp421
tp422
a(S'southern oregon ava'
p423
g2
(g6
S'_,5\xbc4\xbc\xd0?'
p424
tp425
Rp426
tp427
a(S'nathan petrelli'
p428
g2
(g6
S'\xb3{J%i\xb9\xd0?'
p429
tp430
Rp431
tp432
a(S'augustus hill garland'
p433
g2
(g6
S'\xb2=@\xa46\xb7\xd0?'
p434
tp435
Rp436
tp437
a(S'les garland'
p438
g2
(g6
S'\x0c\x83\xfe7m\xb3\xd0?'
p439
tp440
Rp441
tp442
a(S'landon garland'
p443
g2
(g6
S'*\x1e\x96}H\xaa\xd0?'
p444
tp445
Rp446
tp447
a(S'australian veterinary association'
p448
g2
(g6
S'\x08\xcbv\x80g\xa1\xd0?'
p449
tp450
Rp451
tp452
a(S'swamplandia!'
p453
g2
(g6
S'\xefl~\xf4\xee\x90\xd0?'
p454
tp455
Rp456
tp457
a(S'prome kingdom'
p458
g2
(g6
S'\x1ah\xcb\xcf\x8c\x89\xd0?'
p459
tp460
Rp461
tp462
a(S'rattlesnake hills ava'
p463
g2
(g6
S'\xd0C\x80\x9e\x9b\x81\xd0?'
p464
tp465
Rp466
tp467
a(S'hkonmaing i of onbaung\xe2\x80\x93hsipaw'
p468
g2
(g6
S'\x86)u\x1d5\x81\xd0?'
p469
tp470
Rp471
tp472
a(S'sokkate of prome'
p473
g2
(g6
S'o\x8d\x9d?\xfdx\xd0?'
p474
tp475
Rp476
tp477
a(S'san antonio valley ava'
p478
g2
(g6
S'\x85\xe9\x89R\xf2m\xd0?'
p479
tp480
Rp481
tp482
a(S'willamette valley ava'
p483
g2
(g6
S'\x7f{\xfd\x13aj\xd0?'
p484
tp485
Rp486
tp487
a(S'oscar isaac'
p488
g2
(g6
S'\xfa\xd9\xc4\xa0\xc3g\xd0?'
p489
tp490
Rp491
tp492
a(S'hank garland'
p493
g2
(g6
S'\x14Y\x1c\xde\xd0_\xd0?'
p494
tp495
Rp496
tp497
a(S'summer stock'
p498
g2
(g6
S'D\xf7\xefH\xdbY\xd0?'
p499
tp500
Rp501
tp502
a(S'lake michigan shore ava'
p503
g2
(g6
S"'mt\x93\x1eN\xd0?"
p504
tp505
Rp506
tp507
a(S'david john garland'
p508
g2
(g6
S'{J\x8f\xe5\x96G\xd0?'
p509
tp510
Rp511
tp512
a(S'the vicious kind'
p513
g2
(g6
S'\xb4O\xf3.\x137\xd0?'
p514
tp515
Rp516
tp517
a(S'garland, kansas'
p518
g2
(g6
S')\x16\xfd\x02O6\xd0?'
p519
tp520
Rp521
tp522
a(S'list of accolades received by the danish girl (film)'
p523
g2
(g6
S'\xea:\xf3T^1\xd0?'
p524
tp525
Rp526
tp527
a(S'sara bennett'
p528
g2
(g6
S'ke\xee*H.\xd0?'
p529
tp530
Rp531
tp532
a(S'ava, missouri'
p533
g2
(g6
S'GX\xd9I\xb3*\xd0?'
p534
tp535
Rp536
tp537
a(S'horse heaven hills ava'
p538
g2
(g6
S'\xf4\x83Zd\xfc#\xd0?'
p539
tp540
Rp541
tp542
a(S'edward garland (cricketer)'
p543
g2
(g6
S'\x9c\x04:\x0e\xa2\x1e\xd0?'
p544
tp545
Rp546
tp547
a(S'nancy garland'
p548
g2
(g6
S'\x84o\x0b\x1d\x1a\x06\xd0?'
p549
tp550
Rp551
tp552
a(S'thado minsaw of prome'
p553
g2
(g6
S'N\xf6\x94W\xb4\xfa\xcf?'
p554
tp555
Rp556
tp557
a(S'judy garland as gay icon'
p558
g2
(g6
S'\xee\xde\x0e\xa1m\xf5\xcf?'
p559
tp560
Rp561
tp562
a(S'domhnall gleeson'
p563
g2
(g6
S'\xcciG\xcc\x0f\xf2\xcf?'
p564
tp565
Rp566
tp567
a(S'cedric garland'
p568
g2
(g6
S'5\nq\xe6\xbe\xef\xcf?'
p569
tp570
Rp571
tp572
a(S'caleb'
p573
g2
(g6
S'\x10\x16\x00\xc8\x91\xef\xcf?'
p574
tp575
Rp576
tp577
a(S'lake county wine'
p578
g2
(g6
S'(\xa2\xaa\x9dm\xed\xcf?'
p579
tp580
Rp581
tp582
a(S'castleton garland day'
p583
g2
(g6
S'\xbb\xe4\xe0R\t\xea\xcf?'
p584
tp585
Rp586
tp587
a(S'machina'
p588
g2
(g6
S'\xd3\x08K\xecm\xe3\xcf?'
p589
tp590
Rp591
tp592
a(S'ken garland'
p593
g2
(g6
S'\xc0\xb9\x99\xe2G\xd4\xcf?'
p594
tp595
Rp596
tp597
a(S'samuel garland, jr.'
p598
g2
(g6
S'\x93\x96\x87\xd3\x0f\xc8\xcf?'
p599
tp600
Rp601
tp602
a(S'caleb (disambiguation)'
p603
g2
(g6
S'\xe7\xd6\x15\xaa\x82\xc0\xcf?'
p604
tp605
Rp606
tp607
a(S'hugh a. garland'
p608
g2
(g6
S'\x9c\xe5\xc9"\x00\x83\xcf?'
p609
tp610
Rp611
tp612
a(S'back stage garland awards'
p613
g2
(g6
S'x=\x91\xa5;]\xcf?'
p614
tp615
Rp616
tp617
a(S'mobye narapati'
p618
g2
(g6
S'\xe5g\xbf\x8d\x85I\xcf?'
p619
tp620
Rp621
tp622
a(S'swan creek ava'
p623
g2
(g6
S'R^U\x0c,,\xcf?'
p624
tp625
Rp626
tp627
a(S'things as they are; or, the adventures of caleb williams'
p628
g2
(g6
S'4\xcd\xbeM\xa3(\xcf?'
p629
tp630
Rp631
tp632
a(S'ava lazar'
p633
g2
(g6
S'\x1b\xc9\x14\xa5\xe3\x1d\xcf?'
p634
tp635
Rp636
tp637
a(S'billy garland'
p638
g2
(g6
S'@\x16E\x1eA\x07\xcf?'
p639
tp640
Rp641
tp642
a(S'alicia (given name)'
p643
g2
(g6
S'3I\x16\xe1G\x03\xcf?'
p644
tp645
Rp646
tp647
a(S'list of accolades received by fences (film)'
p648
g2
(g6
S'\x8a\xffj\xb4\xc4\xfb\xce?'
p649
tp650
Rp651
tp652
a(S'sloughhouse ava'
p653
g2
(g6
S'\x88\xc8\x07?\xc0\xf6\xce?'
p654
tp655
Rp656
tp657
a(S'john bingley garland'
p658
g2
(g6
S'\xc5\xaf\x0c\xe5\xfb\xf2\xce?'
p659
tp660
Rp661
tp662
a(S'lake chelan ava'
p663
g2
(g6
S'G\xc8W1!\xe1\xce?'
p664
tp665
Rp666
tp667
a(S'donald garland'
p668
g2
(g6
S'\xde\x10v?\xc4\xde\xce?'
p669
tp670
Rp671
tp672
a(S'se\xc3\xa1n garland'
p673
g2
(g6
S'M\xe9Y\xb4\x03\xdb\xce?'
p674
tp675
Rp676
tp677
a(S'main-travelled roads'
p678
g2
(g6
S'\x18?\xb1\x1d/\xb6\xce?'
p679
tp680
Rp681
tp682
a(S'madge garland'
p683
g2
(g6
S'\xa5:\xae*\xf3\xb4\xce?'
p684
tp685
Rp686
tp687
a(S'end of the rainbow'
p688
g2
(g6
S'C\x18\xa4\xff&\xa8\xce?'
p689
tp690
Rp691
tp692
a(S'nathan young'
p693
g2
(g6
S'x\x1bJ8.\xa6\xce?'
p694
tp695
Rp696
tp697
a(S'bennett valley ava'
p698
g2
(g6
S')\xa4\xeb\xc0\xa9\x95\xce?'
p699
tp700
Rp701
tp702
a(S'list of awards and nominations received by viola davis'
p703
g2
(g6
S'\x04QI\x94?\x91\xce?'
p704
tp705
Rp706
tp707
a(S'ava lord'
p708
g2
(g6
S'~fr}\xf7\x8a\xce?'
p709
tp710
Rp711
tp712
a(S'list of awards and nominations received by anne hathaway'
p713
g2
(g6
S'j\x06\xd9^\x9c\x83\xce?'
p714
tp715
Rp716
tp717
a(S'thinkhaya of pagan'
p718
g2
(g6
S'\xc4\x10Pt\x83x\xce?'
p719
tp720
Rp721
tp722
a(S'columbia valley ava'
p723
g2
(g6
S'\x178o\xf4\xa4v\xce?'
p724
tp725
Rp726
tp727
a(S'thihathu (disambiguation)'
p728
g2
(g6
S'\xab\xdcqp\x95r\xce?'
p729
tp730
Rp731
tp732
a(S'binnya ran i'
p733
g2
(g6
S'\xdf\xff\x98\xa8\xc2`\xce?'
p734
tp735
Rp736
tp737
a(S'william garland (politician)'
p738
g2
(g6
S'\xbd\xef\x95i\xd9_\xce?'
p739
tp740
Rp741
tp742
a(S'agri-food and veterinary authority of singapore'
p743
g2
(g6
S'\x87c\xf2\xb2\x86<\xce?'
p744
tp745
Rp746
tp747
a(S'list of awards and nominations received by amy adams'
p748
g2
(g6
S'w\x06\x02)\xa38\xce?'
p749
tp750
Rp751
tp752
a(S'saint ava'
p753
g2
(g6
S'\xf9P\x91<\xa6#\xce?'
p754
tp755
Rp756
tp757
a(S'list of awards for supporting actor'
p758
g2
(g6
S'\xda\xfexG\x0b\x1f\xce?'
p759
tp760
Rp761
tp762
a(S'alicia vikander'
p763
g2
(g6
S'\xb7c\x99\xcc\x97\x1d\xce?'
p764
tp765
Rp766
tp767
a(S'crumbling idols'
p768
g2
(g6
S'3\xc3N$u\x1d\xce?'
p769
tp770
Rp771
tp772
a(S'caleb (son of hezron)'
p773
g2
(g6
S'`oOUh\x0c\xce?'
p774
tp775
Rp776
tp777
a(S'nathan'
p778
g2
(g6
S':\x92\x80\xbdy\xfe\xcd?'
p779
tp780
Rp781
tp782
a(S'john garland (general)'
p783
g2
(g6
S'\xbd\xe5!B\xa7\xe8\xcd?'
p784
tp785
Rp786
tp787
a(S'york mountain ava'
p788
g2
(g6
S'\x9eI\x19\xf1p\xe4\xcd?'
p789
tp790
Rp791
tp792
a(S'river junction ava'
p793
g2
(g6
S'\xed_\x06\xa9.\xda\xcd?'
p794
tp795
Rp796
tp797
a(S'antelope valley of the california high desert ava'
p798
g2
(g6
S'(\xc2\xa4W6\xd5\xcd?'
p799
tp800
Rp801
tp802
a(S'british independent film awards 2015'
p803
g2
(g6
S'\xd2\r\xd8\x01\xf1\xd1\xcd?'
p804
tp805
Rp806
tp807
a(S'stranded (2013 film)'
p808
g2
(g6
S'\xb7\xdf\x95\x91\xc2\xd0\xcd?'
p809
tp810
Rp811
tp812
a(S'frances mcdormand'
p813
g2
(g6
S'vM\x16\xc4\xba\xbc\xcd?'
p814
tp815
Rp816
tp817
a(S'nathan scott'
p818
g2
(g6
S'\xadf\n\xa2\xe0\xb7\xcd?'
p819
tp820
Rp821
tp822
a(S'fiddletown ava'
p823
g2
(g6
S'\x00U\xae\x874\xb0\xcd?'
p824
tp825
Rp826
tp827
a(S'travis garland'
p828
g2
(g6
S'\xba\xcc\x7f\xebv\xac\xcd?'
p829
tp830
Rp831
tp832
a(S'bell mountain ava'
p833
g2
(g6
S'\xd5e\xb9:\x0b\xa9\xcd?'
p834
tp835
Rp836
tp837
a(S'ava deluca-verley'
p838
g2
(g6
S'\x8e\x93\xc1?h\x99\xcd?'
p839
tp840
Rp841
tp842
a(S'caleb reynolds'
p843
g2
(g6
S'\x11?\t\x88\x99\x96\xcd?'
p844
tp845
Rp846
tp847
a(S'get happy: the life of judy garland'
p848
g2
(g6
S'\x97\xaf\xb5^\x96\x85\xcd?'
p849
tp850
Rp851
tp852
a(S'list of accolades received by manchester by the sea'
p853
g2
(g6
S'\xb04\xa1\xc0\xae\x7f\xcd?'
p854
tp855
Rp856
tp857
a(S'the counterlife'
p858
g2
(g6
S'\xf4\xdc+\xc8Nx\xcd?'
p859
tp860
Rp861
tp862
a(S'howell mountain ava'
p863
g2
(g6
S'A^]\x19\x16p\xcd?'
p864
tp865
Rp866
tp867
a(S"list of awards and nominations received by the king's speech"
p868
g2
(g6
S'S\xa1-\xa2\xc2Y\xcd?'
p869
tp870
Rp871
tp872
a(S'the red garland trio'
p873
g2
(g6
S'\xae\xe7#\xa73K\xcd?'
p874
tp875
Rp876
tp877
a(S'middle rio grande valley ava'
p878
g2
(g6
S'\x16\xe8Qqi*\xcd?'
p879
tp880
Rp881
tp882
a(S'list of accolades received by 12 years a slave (film)'
p883
g2
(g6
S'\xe4G\xe9]\xad\x1e\xcd?'
p884
tp885
Rp886
tp887
a(S'william may garland'
p888
g2
(g6
S'\xdb\xce\x89g\xa0\x1d\xcd?'
p889
tp890
Rp891
tp892
a(S'nathan wylde'
p893
g2
(g6
S'\x1e\xd6\xb5\x86w\x1d\xcd?'
p894
tp895
Rp896
tp897
a(S'list of accolades received by blue jasmine'
p898
g2
(g6
S'\xfa\xb6\\\xd2\\\x19\xcd?'
p899
tp900
Rp901
tp902
a(S'ailsa garland'
p903
g2
(g6
S'\xb8\x00\xa3\x99/\x00\xcd?'
p904
tp905
Rp906
tp907
a(S'mount harlan ava'
p908
g2
(g6
S'Z\xbc\xc1\x94Z\xfa\xcc?'
p909
tp910
Rp911
tp912
a(S'thinkhaya iii of toungoo'
p913
g2
(g6
S'\xff\x99d\xc3\xf1\xee\xcc?'
p914
tp915
Rp916
tp917
a(S'fireproof (film)'
p918
g2
(g6
S'\xb2Q%\x81\xc8\xed\xcc?'
p919
tp920
Rp921
tp922
a(S'chehalem mountains ava'
p923
g2
(g6
S'\x0f\xc8j\xc8x\xe7\xcc?'
p924
tp925
Rp926
tp927
a(S'patricia clarkson'
p928
g2
(g6
S'\x8e\x16\x03\xb0\xa7\xe0\xcc?'
p929
tp930
Rp931
tp932
a(S'rocky knob ava'
p933
g2
(g6
S'[MW\xb3\x04\xde\xcc?'
p934
tp935
Rp936
tp937
a(S'shin myat hla of ava'
p938
g2
(g6
S'z=\xba\x84\xed\xd8\xcc?'
p939
tp940
Rp941
tp942
a(S'kent e. keller'
p943
g2
(g6
S'~\x04\xa2 k\xd4\xcc?'
p944
tp945
Rp946
tp947
a(S'list of accolades received by room'
p948
g2
(g6
S'\xad"\xa4\x03\x06\xcd\xcc?'
p949
tp950
Rp951
tp952
a(S'alex cross, run'
p953
g2
(g6
S'\xa3\xa5\xac\x8e\x81\xc4\xcc?'
p954
tp955
Rp956
tp957
a(S'alta mesa ava'
p958
g2
(g6
S'\xde#1\x19\xb8\xc3\xcc?'
p959
tp960
Rp961
tp962
a(S'west elks ava'
p963
g2
(g6
S'\x17\xb6\x9d\xe3m\xc2\xcc?'
p964
tp965
Rp966
tp967
a(S'diamond mountain district ava'
p968
g2
(g6
S'\xc9\xfb\xfb\x8ea\xc2\xcc?'
p969
tp970
Rp971
tp972
a(S'garland house'
p973
g2
(g6
S'L\xf2\x03*\x18\xc1\xcc?'
p974
tp975
Rp976
tp977
a(S'thrill me'
p978
g2
(g6
S'\x17\x1c{\xc4\x9f\xba\xcc?'
p979
tp980
Rp981
tp982
a(S'haw river valley ava'
p983
g2
(g6
S'\xd4\xd9\x9d\xe8\x98\xb6\xcc?'
p984
tp985
Rp986
tp987
a(S'pen\xc3\xa9lope cruz filmography'
p988
g2
(g6
S'R\x02\x91h\xa3\xb1\xcc?'
p989
tp990
Rp991
tp992
a(S'sinchronicity'
p993
g2
(g6
S'/\xb5\x1b\x91\x88\xaa\xcc?'
p994
tp995
Rp996
tp997
a(S'sithu kyawhtin'
p998
g2
(g6
S'\x08\xeb8nx\xa9\xcc?'
p999
tp1000
Rp1001
tp1002
a(S'harry garland'
p1003
g2
(g6
S'\x1b\x1d\xc7\x91\x17\x9a\xcc?'
p1004
tp1005
Rp1006
tp1007
a(S'grand valley ava'
p1008
g2
(g6
S'\xd9\xb2]m\xcd\x98\xcc?'
p1009
tp1010
Rp1011
tp1012
a(S'edgar j. nathan'
p1013
g2
(g6
S"'\xe9T{\x13\x98\xcc?"
p1014
tp1015
Rp1016
tp1017
a(S'ava lowle willing'
p1018
g2
(g6
S'>Rl\xf7\xf1\x96\xcc?'
p1019
tp1020
Rp1021
tp1022
a(S'list of accolades received by nocturnal animals'
p1023
g2
(g6
S'J\x9f\xe8\xb2\xe0\x8c\xcc?'
p1024
tp1025
Rp1026
tp1027
a(S'red garland live!'
p1028
g2
(g6
S'\x8a\xb7\x16\xc0#\x8b\xcc?'
p1029
tp1030
Rp1031
tp1032
a(S'garland lakes'
p1033
g2
(g6
S'\x98\xee\xeae\xd2\x8a\xcc?'
p1034
tp1035
Rp1036
tp1037
a(S'the clock (1945 film)'
p1038
g2
(g6
S'\xc7i#<\x1a\x87\xcc?'
p1039
tp1040
Rp1041
tp1042
a(S'caleb british international school'
p1043
g2
(g6
S'#\xd3\x15V\xb2}\xcc?'
p1044
tp1045
Rp1046
tp1047
a(S'puget sound ava'
p1048
g2
(g6
S'Q\xf7\xfcv\xf1x\xcc?'
p1049
tp1050
Rp1051
tp1052
a(S'austin film critics association awards 2015'
p1053
g2
(g6
S'X\xb1\xf2\xa2Zs\xcc?'
p1054
tp1055
Rp1056
tp1057
a(S'the rocks district of milton-freewater ava'
p1058
g2
(g6
S'\x84\x8f\xd5*bd\xcc?'
p1059
tp1060
Rp1061
tp1062
a(S'fennville ava'
p1063
g2
(g6
S'O\xc9=\x80\xd7N\xcc?'
p1064
tp1065
Rp1066
tp1067
a(S'saw beza'
p1068
g2
(g6
S'nU\x06\xbe\xa0M\xcc?'
p1069
tp1070
Rp1071
tp1072
a(S'isaac nathan'
p1073
g2
(g6
S'\xd7`\xbfd<M\xcc?'
p1074
tp1075
Rp1076
tp1077
a(S'saw pale of yamethin'
p1078
g2
(g6
S'7\xfe\xfc\xe9XJ\xcc?'
p1079
tp1080
Rp1081
tp1082
a(S'deus ex machina (disambiguation)'
p1083
g2
(g6
S'\xc8\xd0\xeeMBC\xcc?'
p1084
tp1085
Rp1086
tp1087
a(S'summerland (tv series)'
p1088
g2
(g6
S'\xd9\xf0(\xafl;\xcc?'
p1089
tp1090
Rp1091
tp1092
a(S'list of accolades received by the artist (film)'
p1093
g2
(g6
S'\xe7y\x87\xc9\xae1\xcc?'
p1094
tp1095
Rp1096
tp1097
a(S'melissa leo'
p1098
g2
(g6
S'\xd2Vl<\xf8/\xcc?'
p1099
tp1100
Rp1101
tp1102
a(S'academy of vocal arts'
p1103
g2
(g6
S'\x81x\xb3&\xc9,\xcc?'
p1104
tp1105
Rp1106
tp1107
a(S'list of awards and nominations received by octavia spencer'
p1108
g2
(g6
S'G\xbd|\x17\x0f%\xcc?'
p1109
tp1110
Rp1111
tp1112
a(S'caleb moore'
p1113
g2
(g6
S'\x0f\xdd\xd3\x0c\x9f!\xcc?'
p1114
tp1115
Rp1116
tp1117
a(S'in the good old summertime'
p1118
g2
(g6
S'\xf7%~\xa4\x1c!\xcc?'
p1119
tp1120
Rp1121
tp1122
a(S'mingyi swa of prome'
p1123
g2
(g6
S'Il\x06\xe5\xd7\x1d\xcc?'
p1124
tp1125
Rp1126
tp1127
a(S"lil' darlin'"
p1128
g2
(g6
S'S\xfe\xff\xc8\x96\x17\xcc?'
p1129
tp1130
Rp1131
tp1132
a(S'near dark'
p1133
g2
(g6
S'\xbb\xc1\xa87K\x17\xcc?'
p1134
tp1135
Rp1136
tp1137
a(S'up all night (tv series)'
p1138
g2
(g6
S'M`W\xe1\xcd\x15\xcc?'
p1139
tp1140
Rp1141
tp1142
a(S'i could go on singing'
p1143
g2
(g6
S'\x94J\xfeGa\x0e\xcc?'
p1144
tp1145
Rp1146
tp1147
a(S'sithu kyawhtin of toungoo'
p1148
g2
(g6
S'\xb0\x158\x9d+\x0b\xcc?'
p1149
tp1150
Rp1151
tp1152
a(S'michelle williams (actress)'
p1153
g2
(g6
S'= \x16\x18\x8d\t\xcc?'
p1154
tp1155
Rp1156
tp1157
a(S'russian river valley ava'
p1158
g2
(g6
S"\x84'\xe4I\xf4\xff\xcb?"
p1159
tp1160
Rp1161
tp1162
a(S'john j. garland'
p1163
g2
(g6
S'\xee\x07_\xa5.\xfc\xcb?'
p1164
tp1165
Rp1166
tp1167
a(S'au\xc3\xb0ur ava \xc3\x93lafsd\xc3\xb3ttir'
p1168
g2
(g6
S'\x1a\xca\x84\x90\x83\xf9\xcb?'
p1169
tp1170
Rp1171
tp1172
a(S'caleb wyatt'
p1173
g2
(g6
S'\xd6%p)\xe3\xe8\xcb?'
p1174
tp1175
Rp1176
tp1177
a(S'the covenant (film)'
p1178
g2
(g6
S'\xa4\xed|X\xc3\xe6\xcb?'
p1179
tp1180
Rp1181
tp1182
a(S'hkonmaing'
p1183
g2
(g6
S'\xc8\x0f\xe9\xd2-\xe4\xcb?'
p1184
tp1185
Rp1186
tp1187
a(S'alicia gallagher'
p1188
g2
(g6
S'&<+\xc8\xab\xd2\xcb?'
p1189
tp1190
Rp1191
tp1192
a(S'joe nathan'
p1193
g2
(g6
S'$\x80#\xdb\x94\xba\xcb?'
p1194
tp1195
Rp1196
tp1197
a(S'razadarit'
p1198
g2
(g6
S'"\xf7\xa7\x0b\xfd\xb9\xcb?'
p1199
tp1200
Rp1201
tp1202
a(S'fort garland, colorado'
p1203
g2
(g6
S'U\x86J\xa3\xf5\xb5\xcb?'
p1204
tp1205
Rp1206
tp1207
a(S'maud nathan'
p1208
g2
(g6
S'\x02[H3\xc5\xb5\xcb?'
p1209
tp1210
Rp1211
tp1212
a(S'knights valley ava'
p1213
g2
(g6
S',\x1c\xc52\x81\xb4\xcb?'
p1214
tp1215
Rp1216
tp1217
a(S'diablo grande ava'
p1218
g2
(g6
S'_\xca_1\xa9\xae\xcb?'
p1219
tp1220
Rp1221
tp1222
a(S'list of awards and nominations received by tilda swinton'
p1223
g2
(g6
S'^\x8f\x11\xa5C\xa9\xcb?'
p1224
tp1225
Rp1226
tp1227
a(S'list of awards and nominations received by scarlett johansson'
p1228
g2
(g6
S'eU6&^\xa6\xcb?'
p1229
tp1230
Rp1231
tp1232
a(S'san bernabe ava'
p1233
g2
(g6
S'\xbe\xb0D\x98\xee\xa4\xcb?'
p1234
tp1235
Rp1236
tp1237
a(S'hms garland (1807)'
p1238
g2
(g6
S'\xd0\xd1\x12\xbcM\x9d\xcb?'
p1239
tp1240
Rp1241
tp1242
a(S'matthew nathan'
p1243
g2
(g6
S'\xb8\xe5\xc8\x04\xc0\x9b\xcb?'
p1244
tp1245
Rp1246
tp1247
a(S'judy davis'
p1248
g2
(g6
S'pL|f\xdd\x95\xcb?'
p1249
tp1250
Rp1251
tp1252
a(S'nathan west (general hospital)'
p1253
g2
(g6
S'\x8e\x8b3\xb8R\x94\xcb?'
p1254
tp1255
Rp1256
tp1257
a(S'thihathura ii of ava'
p1258
g2
(g6
S'\x1eo\xb6\xe5\xa6\x92\xcb?'
p1259
tp1260
Rp1261
tp1262
a(S'amy ryan'
p1263
g2
(g6
S'A\x04\xce\xfei\x89\xcb?'
p1264
tp1265
Rp1266
tp1267
a(S'joan allen'
p1268
g2
(g6
S',\x12\xd4_.u\xcb?'
p1269
tp1270
Rp1271
tp1272
a(S'baron nathan'
p1273
g2
(g6
S'\x8aN\x88\x1c{k\xcb?'
p1274
tp1275
Rp1276
tp1277
a(S'ribbon ridge ava'
p1278
g2
(g6
S'\x9c\x9b!\xe1rh\xcb?'
p1279
tp1280
Rp1281
tp1282
a(S'eating out'
p1283
g2
(g6
S'\x05\x95\xd3\x0bia\xcb?'
p1284
tp1285
Rp1286
tp1287
a(S'atula thiri maha yaza dewi of ava'
p1288
g2
(g6
S'\xae\x9c\xe8\tG`\xcb?'
p1289
tp1290
Rp1291
tp1292
a(S'a dame to kill for'
p1293
g2
(g6
S'\xa3\x8a<\x93*_\xcb?'
p1294
tp1295
Rp1296
tp1297
a(S'nicholas garland'
p1298
g2
(g6
S'\xe4\xf2/\xd6\x02_\xcb?'
p1299
tp1300
Rp1301
tp1302
a(S'st. helena ava'
p1303
g2
(g6
S'Gab\x16\xc7]\xcb?'
p1304
tp1305
Rp1306
tp1307
a(S'roger garland'
p1308
g2
(g6
S'\x8f\xa8\x8b&\xf7[\xcb?'
p1309
tp1310
Rp1311
tp1312
a(S'list of accolades received by no country for old men'
p1313
g2
(g6
S'\xf2\\\xa7F\xe5N\xcb?'
p1314
tp1315
Rp1316
tp1317
a(S'rabbi nathan'
p1318
g2
(g6
S'^\xc8D\xb0lM\xcb?'
p1319
tp1320
Rp1321
tp1322
a(S'alicia'
p1323
g2
(g6
S'\xd1\xec\xc1\xc4\xd2A\xcb?'
p1324
tp1325
Rp1326
tp1327
a(S'blood (video game)'
p1328
g2
(g6
S'o0\x8cn\xb9=\xcb?'
p1329
tp1330
Rp1331
tp1332
a(S'material girls'
p1333
g2
(g6
S'v~$\xb3\x1d<\xcb?'
p1334
tp1335
Rp1336
tp1337
a(S'coombsville'
p1338
g2
(g6
S'\x91(\x8b=K/\xcb?'
p1339
tp1340
Rp1341
tp1342
a(S'ava gardner museum'
p1343
g2
(g6
S'\x0c;\xf5G )\xcb?'
p1344
tp1345
Rp1346
tp1347
a(S'judy at carnegie hall'
p1348
g2
(g6
S'\x10\rm\xbab\x1d\xcb?'
p1349
tp1350
Rp1351
tp1352
a(S'hms garland (1798)'
p1353
g2
(g6
S'`\xbf\x170\xd2\x1b\xcb?'
p1354
tp1355
Rp1356
tp1357
a(S'san diego film critics society awards 2015'
p1358
g2
(g6
S'\xe5\n\x83\xf1l\x10\xcb?'
p1359
tp1360
Rp1361
tp1362
a(S'the garland touch'
p1363
g2
(g6
S'\xc3\xca\xb9\xb9;\t\xcb?'
p1364
tp1365
Rp1366
tp1367
a(S'list of accolades received by hell or high water'
p1368
g2
(g6
S'\xd0\xae\x0f7\xbd\x00\xcb?'
p1369
tp1370
Rp1371
tp1372
a(S'san pasqual valley ava'
p1373
g2
(g6
S'\nr\x1e\x05_\xfe\xca?'
p1374
tp1375
Rp1376
tp1377
a(S'abduction (2011 film)'
p1378
g2
(g6
S'\x88\x14\xe3\xc3\n\xf6\xca?'
p1379
tp1380
Rp1381
tp1382
a(S'creston district ava'
p1383
g2
(g6
S'v\xf4\xf0\xfd3\xef\xca?'
p1384
tp1385
Rp1386
tp1387
a(S'ava yu'
p1388
g2
(g6
S'\xd6>\xc1\x92\x87\xe5\xca?'
p1389
tp1390
Rp1391
tp1392
a(S'list of accolades received by bridge of spies (film)'
p1393
g2
(g6
S'(\xe0\xbf(\xc3\xe0\xca?'
p1394
tp1395
Rp1396
tp1397
a(S'mokelumne river ava'
p1398
g2
(g6
S'["\x9d\x1d\x7f\xdf\xca?'
p1399
tp1400
Rp1401
tp1402
a(S'garland fund'
p1403
g2
(g6
S'pD&\xf0S\xda\xca?'
p1404
tp1405
Rp1406
tp1407
a(S'rockpile ava'
p1408
g2
(g6
S'\xe7oR\xe9\\\xc0\xca?'
p1409
tp1410
Rp1411
tp1412
a(S'hamlin garland'
p1413
g2
(g6
S'/@1 \x87\xbb\xca?'
p1414
tp1415
Rp1416
tp1417
a(S'harry nathan, 1st baron nathan'
p1418
g2
(g6
S'\xe1\xbcTE(\xb6\xca?'
p1419
tp1420
Rp1421
tp1422
a(S'judy garland live!'
p1423
g2
(g6
S'\xff\x86\x03Nj\xb3\xca?'
p1424
tp1425
Rp1426
tp1427
a(S'list of accolades received by interstellar'
p1428
g2
(g6
S'\x18\r\xdf\x9bM\xb1\xca?'
p1429
tp1430
Rp1431
tp1432
a(S'david nathan'
p1433
g2
(g6
S'\x83=\xa0+\x12\xa1\xca?'
p1434
tp1435
Rp1436
tp1437
a(S'caleb dorsey'
p1438
g2
(g6
S'\xd9\xd2wv\xba\xa0\xca?'
p1439
tp1440
Rp1441
tp1442
a(S'george jean nathan'
p1443
g2
(g6
S')\xc3\xa1\x00\xa9\xa0\xca?'
p1444
tp1445
Rp1446
tp1447
a(S'list of accolades received by gone girl (film)'
p1448
g2
(g6
S'\xf2\x87\x94\xbd\x0b\x97\xca?'
p1449
tp1450
Rp1451
tp1452
a(S'caleb university'
p1453
g2
(g6
S'\x80\xb2ku\x88\x96\xca?'
p1454
tp1455
Rp1456
tp1457
a(S'san lucas ava'
p1458
g2
(g6
S'\xfe\xee\xf3Fd\x94\xca?'
p1459
tp1460
Rp1461
tp1462
a(S'list of awards and nominations received by emma stone'
p1463
g2
(g6
S"\xdc'\xbfT\xfe\x84\xca?"
p1464
tp1465
Rp1466
tp1467
a(S'northern sonoma ava'
p1468
g2
(g6
S'\xd7\r\xb9[?z\xca?'
p1469
tp1470
Rp1471
tp1472
a(S'list of accolades received by arrival'
p1473
g2
(g6
S'\xb4j\xb4l.j\xca?'
p1474
tp1475
Rp1476
tp1477
a(S'vivian nathan'
p1478
g2
(g6
S',L\x80\xcf[c\xca?'
p1479
tp1480
Rp1481
tp1482
a(S'yountville ava'
p1483
g2
(g6
S'_;\xc2h~U\xca?'
p1484
tp1485
Rp1486
tp1487
a(S'caleb (buffy the vampire slayer)'
p1488
g2
(g6
S'\xc5\xa2\n~:G\xca?'
p1489
tp1490
Rp1491
tp1492
a(S'red garland at the prelude'
p1493
g2
(g6
S'\x99\xcc\x11\xc3\x85C\xca?'
p1494
tp1495
Rp1496
tp1497
a(S'list of awards and nominations received by ren\xc3\xa9e zellweger'
p1498
g2
(g6
S'j\x06y\xa1\x057\xca?'
p1499
tp1500
Rp1501
tp1502
a(S'dallas\xe2\x80\x93fort worth film critics association'
p1503
g2
(g6
S'p\xc6}\xff\xe75\xca?'
p1504
tp1505
Rp1506
tp1507
a(S'caleb ginyard'
p1508
g2
(g6
S'1\xc0\xd9\xd0\xdb5\xca?'
p1509
tp1510
Rp1511
tp1512
a.