(lp0
(S'excited state'
p1
cnumpy.core.multiarray
scalar
p2
(cnumpy
dtype
p3
(S'f8'
p4
I0
I1
tp5
Rp6
(I3
S'<'
p7
NNNI-1
I-1
I0
tp8
bS'\x02\x00\x00\x00\x00\x00\xf0?'
p9
tp10
Rp11
tp12
a(S'excited (m people song)'
p13
g2
(g6
S'\x9c:\xc3_v\x16\xe0?'
p14
tp15
Rp16
tp17
a(S'energy level'
p18
g2
(g6
S'\x9dV\xdeS_\\\xdf?'
p19
tp20
Rp21
tp22
a(S'spontaneous emission'
p23
g2
(g6
S'\x13\x03\x8c9\xb4&\xde?'
p24
tp25
Rp26
tp27
a(S'photoelectrochemical process'
p28
g2
(g6
S'^\xa0^\xdfb\xf9\xdd?'
p29
tp30
Rp31
tp32
a(S'population inversion'
p33
g2
(g6
S'T\xac\x05\x10\xc6\xf4\xdd?'
p34
tp35
Rp36
tp37
a(S"kasha's rule"
p38
g2
(g6
S'\xca\x80\xb6\xa0\xf7\x87\xdd?'
p39
tp40
Rp41
tp42
a(S'femtotechnology'
p43
g2
(g6
S'<\x83\xce$n\x85\xdd?'
p44
tp45
Rp46
tp47
a(S'excimer'
p48
g2
(g6
S'\xebY\r#\x82\x9e\xdc?'
p49
tp50
Rp51
tp52
a(S'ground state'
p53
g2
(g6
S'[1\x1e\xb2;\xdf\xdb?'
p54
tp55
Rp56
tp57
a(S'rydberg atom'
p58
g2
(g6
S'\xd4\x1a\x07A\xbd\xdb\xda?'
p59
tp60
Rp61
tp62
a(S'stimulated emission'
p63
g2
(g6
S'LB\x94\xde\x1f\x99\xd8?'
p64
tp65
Rp66
tp67
a(S'multireference configuration interaction'
p68
g2
(g6
S'\x1c=\x07\xcb\xa1\x89\xd8?'
p69
tp70
Rp71
tp72
a(S'photoluminescence excitation'
p73
g2
(g6
S'CZ\xb4\x08f\x82\xd8?'
p74
tp75
Rp76
tp77
a(S'journal of luminescence'
p78
g2
(g6
S'[sq\xd0?v\xd8?'
p79
tp80
Rp81
tp82
a(S'nuclear isomer'
p83
g2
(g6
S'31rb@;\xd8?'
p84
tp85
Rp86
tp87
a(S'atom (disambiguation)'
p88
g2
(g6
S'\xb2^x\xa3\x15\x10\xd8?'
p89
tp90
Rp91
tp92
a(S'internal conversion (chemistry)'
p93
g2
(g6
S'\xc8\xad\x12\xb3\x1f\n\xd8?'
p94
tp95
Rp96
tp97
a(S'repulsive state'
p98
g2
(g6
S'\xc3/\xd9h\xd1\xbd\xd7?'
p99
tp100
Rp101
tp102
a(S'electron excitation'
p103
g2
(g6
S'\x07\xbf|C\xf5\xb9\xd7?'
p104
tp105
Rp106
tp107
a(S'internal conversion'
p108
g2
(g6
S'\x1b\xe3l\x08N\x81\xd7?'
p109
tp110
Rp111
tp112
a(S'upconverting nanoparticles'
p113
g2
(g6
S'\x1fz\xa035W\xd7?'
p114
tp115
Rp116
tp117
a(S'vibrational energy relaxation'
p118
g2
(g6
S'\xdc\x02x\x18B+\xd7?'
p119
tp120
Rp121
tp122
a(S'photoinduced charge separation'
p123
g2
(g6
S'\x85\x13-Mk\t\xd7?'
p124
tp125
Rp126
tp127
a(S'dark state'
p128
g2
(g6
S'd\n/\x99|\xf4\xd6?'
p129
tp130
Rp131
tp132
a(S'doppler cooling'
p133
g2
(g6
S'`x\xae\xf25\xf0\xd6?'
p134
tp135
Rp136
tp137
a(S'rydberg correction'
p138
g2
(g6
S'\xacNp\xaa\x19\xe7\xd6?'
p139
tp140
Rp141
tp142
a(S'intersystem crossing'
p143
g2
(g6
S'H\xd6\x83\xb8\x98\xde\xd6?'
p144
tp145
Rp146
tp147
a(S'atom'
p148
g2
(g6
S'\xbd\xdb\xb6\xe4\x9e\x8b\xd6?'
p149
tp150
Rp151
tp152
a(S'atomic physics'
p153
g2
(g6
S'L\x15=Q\x12d\xd6?'
p154
tp155
Rp156
tp157
a(S'stimulated raman adiabatic passage'
p158
g2
(g6
S'\tc\xf3\xc6\xf7[\xd6?'
p159
tp160
Rp161
tp162
a(S'p680'
p163
g2
(g6
S'`hW\xc4CX\xd6?'
p164
tp165
Rp166
tp167
a(S'captain atom'
p168
g2
(g6
S'\xa3\xb8\xbd\x95\xf6C\xd6?'
p169
tp170
Rp171
tp172
a(S'scintillation (physics)'
p173
g2
(g6
S'y\x0c\xd0\xa7\xed\x15\xd6?'
p174
tp175
Rp176
tp177
a(S'excited delirium'
p178
g2
(g6
S'*\x9bxOx\xf5\xd5?'
p179
tp180
Rp181
tp182
a(S'chemiluminescence'
p183
g2
(g6
S'\xd4 \xc0JG\xef\xd5?'
p184
tp185
Rp186
tp187
a(S'einstein coefficients'
p188
g2
(g6
S'\xd2\x84l\x86\x07\xea\xd5?'
p189
tp190
Rp191
tp192
a(S'isogenous series'
p193
g2
(g6
S'\x18(\xf7V\xc0\xc8\xd5?'
p194
tp195
Rp196
tp197
a(S'hydrogen atom'
p198
g2
(g6
S'\xac\xfet\x1ek\xbb\xd5?'
p199
tp200
Rp201
tp202
a(S'exotic atom'
p203
g2
(g6
S'\x89\t7\xa9\xd4\xb0\xd5?'
p204
tp205
Rp206
tp207
a(S'rydberg molecule'
p208
g2
(g6
S'\x863|\xb7\xaa\x85\xd5?'
p209
tp210
Rp211
tp212
a(S'pseudo jahn\xe2\x80\x93teller effect'
p213
g2
(g6
S'8/\xfe^\xc2t\xd5?'
p214
tp215
Rp216
tp217
a(S'collisional excitation'
p218
g2
(g6
S'*\xd4\xaf4Yr\xd5?'
p219
tp220
Rp221
tp222
a(S'autoionization'
p223
g2
(g6
S'\xfb\x1f\xa5=&]\xd5?'
p224
tp225
Rp226
tp227
a(S'introduction to quantum mechanics'
p228
g2
(g6
S'\xf4\xb5\xff\x95\x96W\xd5?'
p229
tp230
Rp231
tp232
a(S'heavy rydberg system'
p233
g2
(g6
S"l'\x80\xf4\x107\xd5?"
p234
tp235
Rp236
tp237
a(S'rydberg state'
p238
g2
(g6
S'\x84\x96\xe41\x14.\xd5?'
p239
tp240
Rp241
tp242
a(S'emission spectrum'
p243
g2
(g6
S'j>X:\xae\x0e\xd5?'
p244
tp245
Rp246
tp247
a(S'hot atom'
p248
g2
(g6
S'\x1c\x915\xf1k\x01\xd5?'
p249
tp250
Rp251
tp252
a(S'australian teachers of media'
p253
g2
(g6
S'\x08\xe0"b\xc6\xf6\xd4?'
p254
tp255
Rp256
tp257
a(S'photochemical logic gate'
p258
g2
(g6
S'wC\x95\xb4\xd6\xde\xd4?'
p259
tp260
Rp261
tp262
a(S'photoredox catalysis'
p263
g2
(g6
S'+\xb76\x1bK\xca\xd4?'
p264
tp265
Rp266
tp267
a(S'photoluminescence'
p268
g2
(g6
S']\x0f\xbb\xab\xa0\xc7\xd4?'
p269
tp270
Rp271
tp272
a(S'nitrogen-vacancy center'
p273
g2
(g6
S'\xe8\xaf\x0c/f\xa6\xd4?'
p274
tp275
Rp276
tp277
a(S'rydberg matter'
p278
g2
(g6
S'\xba|g\x10m\x9b\xd4?'
p279
tp280
Rp281
tp282
a(S'hydrogen spectral series'
p283
g2
(g6
S'5g\xc1\xbdO\x89\xd4?'
p284
tp285
Rp286
tp287
a(S'picotechnology'
p288
g2
(g6
S'\xd6Q\xe0(u1\xd4?'
p289
tp290
Rp291
tp292
a(S'core-excited shape resonance'
p293
g2
(g6
S'l{S\xc0t\x0e\xd4?'
p294
tp295
Rp296
tp297
a(S'atomic orbital'
p298
g2
(g6
S':"\x9bIi\x02\xd4?'
p299
tp300
Rp301
tp302
a(S'stokes shift'
p303
g2
(g6
S'\xb9\xf4=Q\x9b\xfa\xd3?'
p304
tp305
Rp306
tp307
a(S'helium dimer'
p308
g2
(g6
S"\xedw\x84'\x08\xe5\xd3?"
p309
tp310
Rp311
tp312
a(S'atomic, molecular, and optical physics'
p313
g2
(g6
S'\x10f\xc9A\xe5\xdf\xd3?'
p314
tp315
Rp316
tp317
a(S'magneto-optical trap'
p318
g2
(g6
S'$m\xa4\xa3@\xdf\xd3?'
p319
tp320
Rp321
tp322
a(S'quantum defect'
p323
g2
(g6
S'.\xd0\xabr\xdf\xdd\xd3?'
p324
tp325
Rp326
tp327
a(S'x-men: children of the atom'
p328
g2
(g6
S'\x0b\xb1\x89\xae\x9a\xba\xd3?'
p329
tp330
Rp331
tp332
a(S'stark effect'
p333
g2
(g6
S'8Tt\x0f\x82\xae\xd3?'
p334
tp335
Rp336
tp337
a(S'surface-extended x-ray absorption fine structure'
p338
g2
(g6
S'\x91x)2\x13\xad\xd3?'
p339
tp340
Rp341
tp342
a(S'atom laser'
p343
g2
(g6
S"\xc6\xd8'&\x8f\xa2\xd3?"
p344
tp345
Rp346
tp347
a(S'principal quantum number'
p348
g2
(g6
S'c\xd4\xd9\xdf\xef\x8b\xd3?'
p349
tp350
Rp351
tp352
a(S'bohr model'
p353
g2
(g6
S'\xd4\xf8\x05\x1eSt\xd3?'
p354
tp355
Rp356
tp357
a(S'rydberg\xe2\x80\x93ritz combination principle'
p358
g2
(g6
S'D\xa3\xd8\xdb\xdbr\xd3?'
p359
tp360
Rp361
tp362
a(S'induced gamma emission'
p363
g2
(g6
S'v\xe8\xe0\xfb\xa7q\xd3?'
p364
tp365
Rp366
tp367
a(S'cavity quantum electrodynamics'
p368
g2
(g6
S'\xcf\xd8MU\xech\xd3?'
p369
tp370
Rp371
tp372
a(S'p700'
p373
g2
(g6
S'%\x0c&\xd8yQ\xd3?'
p374
tp375
Rp376
tp377
a(S'excimer lamp'
p378
g2
(g6
S'\xb9\x88\x14\xc6\x191\xd3?'
p379
tp380
Rp381
tp382
a(S'quasiparticle'
p383
g2
(g6
S'v0\xc0\xa1\xbd-\xd3?'
p384
tp385
Rp386
tp387
a(S'electron configuration'
p388
g2
(g6
S'y\x0f?\xe47\n\xd3?'
p389
tp390
Rp391
tp392
a(S'doctor megala'
p393
g2
(g6
S'\xe1=\xbfU\x02\xf5\xd2?'
p394
tp395
Rp396
tp397
a(S'lyman series'
p398
g2
(g6
S'S\x88:dB\xf3\xd2?'
p399
tp400
Rp401
tp402
a(S'rydberg formula'
p403
g2
(g6
S'\xf5@}\xdd\xc1\xf1\xd2?'
p404
tp405
Rp406
tp407
a(S'bond softening'
p408
g2
(g6
S'\xb8|\xda\xff\x8d\xea\xd2?'
p409
tp410
Rp411
tp412
a(S'a is for atom'
p413
g2
(g6
S'\xdd\x18*\xa9\xe9\xdd\xd2?'
p414
tp415
Rp416
tp417
a(S'atom (programming language)'
p418
g2
(g6
S'\x12o\x1c\x1b\xc4\xd6\xd2?'
p419
tp420
Rp421
tp422
a(S'photoinduced electron transfer'
p423
g2
(g6
S'k\xa6B\xcd\x89\xc4\xd2?'
p424
tp425
Rp426
tp427
a(S'two-electron atom'
p428
g2
(g6
S' ,{yx\xa7\xd2?'
p429
tp430
Rp431
tp432
a(S'appearance energy'
p433
g2
(g6
S'\xa2\xec9/\xbd\x9f\xd2?'
p434
tp435
Rp436
tp437
a(S'ariel atom'
p438
g2
(g6
S'EV\x18z\xa7\x9b\xd2?'
p439
tp440
Rp441
tp442
a(S'recombination (cosmology)'
p443
g2
(g6
S'\xef:\x92\xe7\x9c\x97\xd2?'
p444
tp445
Rp446
tp447
a(S'heat transfer physics'
p448
g2
(g6
S'\xd0w\x8e\xbeP\x91\xd2?'
p449
tp450
Rp451
tp452
a(S'atom (comics)'
p453
g2
(g6
S'\xa3\xd1\x03 \xbf\x90\xd2?'
p454
tp455
Rp456
tp457
a(S'nuclear resonance fluorescence'
p458
g2
(g6
S'\xd2&QT\x9d\x90\xd2?'
p459
tp460
Rp461
tp462
a(S'jaynes\xe2\x80\x93cummings model'
p463
g2
(g6
S'\xd6\xe5\x9c\xcd\xb8v\xd2?'
p464
tp465
Rp466
tp467
a(S'atom bomb (song)'
p468
g2
(g6
S'\xe2\xd6\xb5\x9c\xd1o\xd2?'
p469
tp470
Rp471
tp472
a(S'absorption edge'
p473
g2
(g6
S'\x06\x97(\xc0\xe7j\xd2?'
p474
tp475
Rp476
tp477
a(S'forms of energy'
p478
g2
(g6
S'\xcd\xe6\xd2oK^\xd2?'
p479
tp480
Rp481
tp482
a(S'energy'
p483
g2
(g6
S'\xf8\x86:\x00wI\xd2?'
p484
tp485
Rp486
tp487
a(S'cooperative luminescence and cooperative absorption'
p488
g2
(g6
S'n9\x9ecgD\xd2?'
p489
tp490
Rp491
tp492
a(S'heterocumulene'
p493
g2
(g6
S'\xf1\xe4\xd9\xb7\x0f7\xd2?'
p494
tp495
Rp496
tp497
a(S'indirect dna damage'
p498
g2
(g6
S'\x02e\xa3\xbc\x1f4\xd2?'
p499
tp500
Rp501
tp502
a(S'term symbol'
p503
g2
(g6
S':u\x0cB|.\xd2?'
p504
tp505
Rp506
tp507
a(S'mister atom'
p508
g2
(g6
S'>\xaf\xd8\xa5\xfb,\xd2?'
p509
tp510
Rp511
tp512
a(S'rydberg ionization spectroscopy'
p513
g2
(g6
S'V\xad\x0b\r\xf1,\xd2?'
p514
tp515
Rp516
tp517
a(S'rabi problem'
p518
g2
(g6
S'l/\xd8\x9aO\x15\xd2?'
p519
tp520
Rp521
tp522
a(S'atom (video game)'
p523
g2
(g6
S'B\x83\xca\xff\xd4\xff\xd1?'
p524
tp525
Rp526
tp527
a(S'ionization energy'
p528
g2
(g6
S'mZ\x131z\xfe\xd1?'
p529
tp530
Rp531
tp532
a(S'outline of energy'
p533
g2
(g6
S'\xcf\xf9\x0b\xb1(\xee\xd1?'
p534
tp535
Rp536
tp537
a(S'energy transfer upconversion'
p538
g2
(g6
S'"\x13\xfa\x1e\xca\xe8\xd1?'
p539
tp540
Rp541
tp542
a(S'atomic theory'
p543
g2
(g6
S'\x80\x11m\xa9\x14\xe7\xd1?'
p544
tp545
Rp546
tp547
a(S'exciton'
p548
g2
(g6
S'=L\xe4\xec\xb3\xe5\xd1?'
p549
tp550
Rp551
tp552
a(S'quantum well infrared photodetector'
p553
g2
(g6
S'\x15J\xda\x9c\x1b\xd3\xd1?'
p554
tp555
Rp556
tp557
a(S'so excited'
p558
g2
(g6
S'\xbf(\x0cl\x8d\xd1\xd1?'
p559
tp560
Rp561
tp562
a(S'rydberg constant'
p563
g2
(g6
S'\x8ex\x85o7\xc7\xd1?'
p564
tp565
Rp566
tp567
a(S'two-photon photoelectron spectroscopy'
p568
g2
(g6
S'\xe1\xf1vo3\xc7\xd1?'
p569
tp570
Rp571
tp572
a(S'miss atom'
p573
g2
(g6
S'hZ-{Y\xb9\xd1?'
p574
tp575
Rp576
tp577
a(S'vacuum rabi oscillation'
p578
g2
(g6
S'\xac\x1c\xf9\x08\xf8\xa2\xd1?'
p579
tp580
Rp581
tp582
a(S'variational method (quantum mechanics)'
p583
g2
(g6
S'%/\xc5jZ\x9b\xd1?'
p584
tp585
Rp586
tp587
a(S'embedded atom model'
p588
g2
(g6
S'\xfb\x1b\xd8\xccx\x97\xd1?'
p589
tp590
Rp591
tp592
a(S'lyman\xe2\x80\x93werner photons'
p593
g2
(g6
S'\xdb\x87\xd7.\xe2\x91\xd1?'
p594
tp595
Rp596
tp597
a(S'lyman continuum photons'
p598
g2
(g6
S'@\xc8[\xa9k\x8f\xd1?'
p599
tp600
Rp601
tp602
a(S'single-atom transistor'
p603
g2
(g6
S'n\xeb:8\x89\x8d\xd1?'
p604
tp605
Rp606
tp607
a(S'h-alpha'
p608
g2
(g6
S'\x9f\xe9i\xe7\xe8\x86\xd1?'
p609
tp610
Rp611
tp612
a(S'binding energy'
p613
g2
(g6
S'y6\r\x08\xe3t\xd1?'
p614
tp615
Rp616
tp617
a(S"let's get excited"
p618
g2
(g6
S'\xfd>\x97 \xd7n\xd1?'
p619
tp620
Rp621
tp622
a(S"slater's rules"
p623
g2
(g6
S'\x92\xa6\x0c\x86\xbdj\xd1?'
p624
tp625
Rp626
tp627
a(S'excitation temperature'
p628
g2
(g6
S"\x01;e'\xcch\xd1?"
p629
tp630
Rp631
tp632
a(S'resonant inelastic x-ray scattering'
p633
g2
(g6
S'\xe5k\xf1\x15\xeb`\xd1?'
p634
tp635
Rp636
tp637
a(S'index of energy articles'
p638
g2
(g6
S'\xa6\xd1\xce\xbd\xc7[\xd1?'
p639
tp640
Rp641
tp642
a(S'biexciton'
p643
g2
(g6
S"'h]\xaa\xf2B\xd1?"
p644
tp645
Rp646
tp647
a(S"hund's rules"
p648
g2
(g6
S'\xc3\x93\xaa\xccB3\xd1?'
p649
tp650
Rp651
tp652
a(S'atomic spectroscopy'
p653
g2
(g6
S'\x11\xf9\x19V\x10$\xd1?'
p654
tp655
Rp656
tp657
a(S'quantum biology'
p658
g2
(g6
S'wm\xf1\x17\xce \xd1?'
p659
tp660
Rp661
tp662
a(S'characteristic x-ray'
p663
g2
(g6
S'\xc1\xbfM\x9a~\x02\xd1?'
p664
tp665
Rp666
tp667
a(S'atom economy'
p668
g2
(g6
S'8K\xe1J\x03\xeb\xd0?'
p669
tp670
Rp671
tp672
a(S'paser'
p673
g2
(g6
S'\xc7\xe4\x8aQ\xe0\xe3\xd0?'
p674
tp675
Rp676
tp677
a(S'timeline of quantum mechanics'
p678
g2
(g6
S'\xcf\xb4\xb0\x84\xc8\xe3\xd0?'
p679
tp680
Rp681
tp682
a(S'metastability'
p683
g2
(g6
S'\xa9f\xe38\x8a\xe0\xd0?'
p684
tp685
Rp686
tp687
a(S'configuration interaction'
p688
g2
(g6
S'&\xe5\x84\x1eL\xda\xd0?'
p689
tp690
Rp691
tp692
a(S'optical decay'
p693
g2
(g6
S'\x82\x87\xc5J&\xd8\xd0?'
p694
tp695
Rp696
tp697
a(S'zeeman slower'
p698
g2
(g6
S'\xe6\xe3jvc\xcf\xd0?'
p699
tp700
Rp701
tp702
a(S'semiquinone'
p703
g2
(g6
S'\xf7\xb8\xe1\x07\r\xca\xd0?'
p704
tp705
Rp706
tp707
a(S'orders of magnitude (energy)'
p708
g2
(g6
S'\x80\xbb\x1d\xa0F\xc8\xd0?'
p709
tp710
Rp711
tp712
a(S'energy transformation'
p713
g2
(g6
S'\x96\xc6\xf0\x8e\x8a\xb1\xd0?'
p714
tp715
Rp716
tp717
a(S'1s slater-type function'
p718
g2
(g6
S'\x99\xde\xf5\xf7\xc0\xa6\xd0?'
p719
tp720
Rp721
tp722
a(S'pound\xe2\x80\x93rebka experiment'
p723
g2
(g6
S'\x9c\x82j\x842\x9a\xd0?'
p724
tp725
Rp726
tp727
a(S'atom award'
p728
g2
(g6
S'\xf5z\xf8\xee\x08\x99\xd0?'
p729
tp730
Rp731
tp732
a(S'franck\xe2\x80\x93hertz experiment'
p733
g2
(g6
S'\x08\x8a\xda\x16w\x95\xd0?'
p734
tp735
Rp736
tp737
a(S'adatom'
p738
g2
(g6
S'c4Y\xd0\x01\x83\xd0?'
p739
tp740
Rp741
tp742
a(S'sisyphus cooling'
p743
g2
(g6
S'\x9b\xd1\r_s\x81\xd0?'
p744
tp745
Rp746
tp747
a(S'ramsey interferometry'
p748
g2
(g6
S'\xfd,XY\xf4\x80\xd0?'
p749
tp750
Rp751
tp752
a(S'f\xc3\xb6rster coupling'
p753
g2
(g6
S'\xa0kT89~\xd0?'
p754
tp755
Rp756
tp757
a(S'raman cooling'
p758
g2
(g6
S'\xac\x08\xeb\x93k}\xd0?'
p759
tp760
Rp761
tp762
a(S'johannes rydberg'
p763
g2
(g6
S'!\xe4y|\x98{\xd0?'
p764
tp765
Rp766
tp767
a(S'helium atom'
p768
g2
(g6
S'\xf5Z\x9b\x1a`p\xd0?'
p769
tp770
Rp771
tp772
a(S'octet rule'
p773
g2
(g6
S'\x8du\x8fW8Z\xd0?'
p774
tp775
Rp776
tp777
a(S'excited (little birdy song)'
p778
g2
(g6
S'\x04\x04\xb2(/S\xd0?'
p779
tp780
Rp781
tp782
a(S'potential energy surface'
p783
g2
(g6
S'\x81\x08 \x89\x00Q\xd0?'
p784
tp785
Rp786
tp787
a(S'positronium'
p788
g2
(g6
S'\xf8\x88\xb6\xdd\xdaO\xd0?'
p789
tp790
Rp791
tp792
a(S'lieb\xe2\x80\x93liniger model'
p793
g2
(g6
S'\x9e\x8f2-\x9c>\xd0?'
p794
tp795
Rp796
tp797
a(S'energy (disambiguation)'
p798
g2
(g6
S'\x03,=\x15\x8f<\xd0?'
p799
tp800
Rp801
tp802
a(S'free carrier absorption'
p803
g2
(g6
S'2\x18\x91\xfa79\xd0?'
p804
tp805
Rp806
tp807
a(S'quantum reflection'
p808
g2
(g6
S'\tXtl2,\xd0?'
p809
tp810
Rp811
tp812
a(S'hollow atoms'
p813
g2
(g6
S'\x10\x94\xdfs\xba*\xd0?'
p814
tp815
Rp816
tp817
a(S'hydrogen-like atom'
p818
g2
(g6
S'\xd1?\xf1\x83\xa7\x1f\xd0?'
p819
tp820
Rp821
tp822
a(S'energy system'
p823
g2
(g6
S'G\xe1\xcf\x85\xf6\x1b\xd0?'
p824
tp825
Rp826
tp827
a(S'bound state'
p828
g2
(g6
S'\x0e\x8d\xe6\xb5\x8b\x19\xd0?'
p829
tp830
Rp831
tp832
a(S'bks theory'
p833
g2
(g6
S'\xbc\xa9\xeb\xe9a\x19\xd0?'
p834
tp835
Rp836
tp837
a(S'rutherford model'
p838
g2
(g6
S'\xb0\tfz\x16\x10\xd0?'
p839
tp840
Rp841
tp842
a(S'brus equation'
p843
g2
(g6
S'\xa98\xd2\xb8T\x0f\xd0?'
p844
tp845
Rp846
tp847
a(S'franck\xe2\x80\x93condon principle'
p848
g2
(g6
S'QT\x87\x8cE\r\xd0?'
p849
tp850
Rp851
tp852
a(S'mighty atom'
p853
g2
(g6
S'\xcf\x02\xe7a\xd3\x0b\xd0?'
p854
tp855
Rp856
tp857
a(S'x-ray absorption near edge structure'
p858
g2
(g6
S'\xf5MN|\xf5\n\xd0?'
p859
tp860
Rp861
tp862
a(S'quantum chemistry'
p863
g2
(g6
S'\x93\xff[\xfc\xd5\xff\xcf?'
p864
tp865
Rp866
tp867
a(S'photodynamic therapy'
p868
g2
(g6
S'\xad\x80\t\x10\x1d\xf6\xcf?'
p869
tp870
Rp871
tp872
a(S'zero-point energy'
p873
g2
(g6
S'\x1d\xbfvl/\xd2\xcf?'
p874
tp875
Rp876
tp877
a(S'two-photon excitation microscopy'
p878
g2
(g6
S'R\x10\xbe\xfd \xc9\xcf?'
p879
tp880
Rp881
tp882
a(S'atom (standard)'
p883
g2
(g6
S'\x1a\x95+\xca \xc9\xcf?'
p884
tp885
Rp886
tp887
a(S'old quantum theory'
p888
g2
(g6
S'\xc4\xe2=\xe5\xc3\xc7\xcf?'
p889
tp890
Rp891
tp892
a(S'photocarcinogen'
p893
g2
(g6
S'\xe3f\xc9Fg\xc7\xcf?'
p894
tp895
Rp896
tp897
a(S'coupled cluster'
p898
g2
(g6
S')\x1culL\xc6\xcf?'
p899
tp900
Rp901
tp902
a(S'trion (physics)'
p903
g2
(g6
S'\ni8\xda\x1a\xc2\xcf?'
p904
tp905
Rp906
tp907
a(S'atomic electron transition'
p908
g2
(g6
S'F\xeb#P\xa1\xbf\xcf?'
p909
tp910
Rp911
tp912
a(S'mighty atom (1988 video game)'
p913
g2
(g6
S'\xff\xdc`d\xb4\xa4\xcf?'
p914
tp915
Rp916
tp917
a(S"moseley's law"
p918
g2
(g6
S'\xec\x80l\xfa\xc4\x93\xcf?'
p919
tp920
Rp921
tp922
a(S'conservation of energy'
p923
g2
(g6
S'\x1d\xf3\xa8Q\xd0\x88\xcf?'
p924
tp925
Rp926
tp927
a(S'photon energy'
p928
g2
(g6
S'\x9a\xebR\xeag\x85\xcf?'
p929
tp930
Rp931
tp932
a(S'wannier equation'
p933
g2
(g6
S'3gY2/\x82\xcf?'
p934
tp935
Rp936
tp937
a(S'energy returned on energy invested'
p938
g2
(g6
S'0;6\x81\xdf|\xcf?'
p939
tp940
Rp941
tp942
a(S'photon'
p943
g2
(g6
S'\xa3}\xf7S\x82p\xcf?'
p944
tp945
Rp946
tp947
a(S'pka (irradiation)'
p948
g2
(g6
S'\xe5H\xda\x12Xn\xcf?'
p949
tp950
Rp951
tp952
a(S'apache abdera'
p953
g2
(g6
S'L\x00\x03\xe1\xf9l\xcf?'
p954
tp955
Rp956
tp957
a(S'energy accounting'
p958
g2
(g6
S'&F|\xac\x99a\xcf?'
p959
tp960
Rp961
tp962
a(S'ultraviolet photoelectron spectroscopy'
p963
g2
(g6
S'\xf6\x1b\xad!!Y\xcf?'
p964
tp965
Rp966
tp967
a(S'equipartition theorem'
p968
g2
(g6
S'\xd4P\xbc\x8f"Q\xcf?'
p969
tp970
Rp971
tp972
a(S'multiple exciton generation'
p973
g2
(g6
S'\x9aV&\xb8.C\xcf?'
p974
tp975
Rp976
tp977
a(S'major force'
p978
g2
(g6
S'\xda\xb4\xa1\x91\xb27\xcf?'
p979
tp980
Rp981
tp982
a(S'quantum harmonic oscillator'
p983
g2
(g6
S'k\xf6\xb1\x07\xb8\x03\xcf?'
p984
tp985
Rp986
tp987
a(S'fluoromethylidyne'
p988
g2
(g6
S'6\xaf:e\x8d\xfc\xce?'
p989
tp990
Rp991
tp992
a(S'diborane(4)'
p993
g2
(g6
S'1D\xc7\xf2\t\xe8\xce?'
p994
tp995
Rp996
tp997
a(S'hartree'
p998
g2
(g6
S'\xa8\xa1V\xa2\xe7\xc5\xce?'
p999
tp1000
Rp1001
tp1002
a(S'core electron'
p1003
g2
(g6
S'\x95;O\xd0\xe8\xa0\xce?'
p1004
tp1005
Rp1006
tp1007
a(S'thomas\xe2\x80\x93fermi model'
p1008
g2
(g6
S'f\x941J5\x9f\xce?'
p1009
tp1010
Rp1011
tp1012
a(S'terrace ledge kink model'
p1013
g2
(g6
S'\xea\xd7s\xdf\xb4\x9d\xce?'
p1014
tp1015
Rp1016
tp1017
a(S'isoelectronicity'
p1018
g2
(g6
S'\x96\xb0t\x939\x90\xce?'
p1019
tp1020
Rp1021
tp1022
a(S'history of quantum mechanics'
p1023
g2
(g6
S'\x9d\xe6\xeb\xc5\xf4\x8f\xce?'
p1024
tp1025
Rp1026
tp1027
a(S'resonance-enhanced multiphoton ionization'
p1028
g2
(g6
S'uk\xb1p\xf1\x8d\xce?'
p1029
tp1030
Rp1031
tp1032
a(S'atom ant'
p1033
g2
(g6
S'\\m\x95\xcc\xc7\x8c\xce?'
p1034
tp1035
Rp1036
tp1037
a(S'quantum microscopy'
p1038
g2
(g6
S'\x01\xed\x8c\x16\xf5\x8b\xce?'
p1039
tp1040
Rp1041
tp1042
a(S'energy policy'
p1043
g2
(g6
S'\xce\x81\xe3\xd8\xafr\xce?'
p1044
tp1045
Rp1046
tp1047
a(S'basic atom'
p1048
g2
(g6
S'\x8d\x9a\x0b\xb4\xacr\xce?'
p1049
tp1050
Rp1051
tp1052
a(S'minimum total potential energy principle'
p1053
g2
(g6
S'\xaf\xd3\xc8\x06\xb0n\xce?'
p1054
tp1055
Rp1056
tp1057
a(S'k-edge'
p1058
g2
(g6
S'\xc2\xc7]O\xb2k\xce?'
p1059
tp1060
Rp1061
tp1062
a(S'energy industry'
p1063
g2
(g6
S'\xcaH\xcb\x8a\x8ck\xce?'
p1064
tp1065
Rp1066
tp1067
a(S'triatomic hydrogen'
p1068
g2
(g6
S'\xb2 E\xd2\xcci\xce?'
p1069
tp1070
Rp1071
tp1072
a(S'periodic trends'
p1073
g2
(g6
S'uHvCv`\xce?'
p1074
tp1075
Rp1076
tp1077
a(S'ionization'
p1078
g2
(g6
S'\x9bQ\x1e\xd5\xf0Z\xce?'
p1079
tp1080
Rp1081
tp1082
a(S'lihe'
p1083
g2
(g6
S'\xb0\x8aH\xb8\xc4P\xce?'
p1084
tp1085
Rp1086
tp1087
a(S'primary energy'
p1088
g2
(g6
S'W#0N\x96P\xce?'
p1089
tp1090
Rp1091
tp1092
a(S'glossary of chemistry terms'
p1093
g2
(g6
S'w\x05\x91Q\xf61\xce?'
p1094
tp1095
Rp1096
tp1097
a(S"i'm so excited"
p1098
g2
(g6
S'\x06\xb6\xcb\xd9\x181\xce?'
p1099
tp1100
Rp1101
tp1102
a(S'saturated absorption spectroscopy'
p1103
g2
(g6
S'\xb4\xa2\xe5\x03\xf9/\xce?'
p1104
tp1105
Rp1106
tp1107
a(S'hollow-cathode lamp'
p1108
g2
(g6
S'Q\xa6\xaa3\xda#\xce?'
p1109
tp1110
Rp1111
tp1112
a(S'energy supply'
p1113
g2
(g6
S'V\xf3\x1a\xc4\x8d\x1e\xce?'
p1114
tp1115
Rp1116
tp1117
a(S'laser-based angle-resolved photoemission spectroscopy'
p1118
g2
(g6
S'\xe5\xe93\xea0\x16\xce?'
p1119
tp1120
Rp1121
tp1122
a(S'energy conservation'
p1123
g2
(g6
S'\x85w\x07+\xb1\r\xce?'
p1124
tp1125
Rp1126
tp1127
a(S'energy carrier'
p1128
g2
(g6
S'\xedY\xf1\xe4R\x0c\xce?'
p1129
tp1130
Rp1131
tp1132
a(S'quantum energy teleportation'
p1133
g2
(g6
S'\xa0\x19\x895\xe6\t\xce?'
p1134
tp1135
Rp1136
tp1137
a(S'energy balance'
p1138
g2
(g6
S'^\xa0\x99\xb2a\x01\xce?'
p1139
tp1140
Rp1141
tp1142
a(S'atom squad'
p1143
g2
(g6
S'<\x84\xb6F\xfd\x00\xce?'
p1144
tp1145
Rp1146
tp1147
a(S'voronoi deformation density'
p1148
g2
(g6
S'\xd4z\x1eG\x82\xf6\xcd?'
p1149
tp1150
Rp1151
tp1152
a(S'electron capture'
p1153
g2
(g6
S'X\x865\xdaq\xf0\xcd?'
p1154
tp1155
Rp1156
tp1157
a(S'photodissociation'
p1158
g2
(g6
S'z&\x866J\xea\xcd?'
p1159
tp1160
Rp1161
tp1162
a(S'atomic energy'
p1163
g2
(g6
S'\x89K2\xebK\xb6\xcd?'
p1164
tp1165
Rp1166
tp1167
a(S'phonon'
p1168
g2
(g6
S'\x93\x90\xa2\x95E\xaf\xcd?'
p1169
tp1170
Rp1171
tp1172
a(S'photochemistry'
p1173
g2
(g6
S'\xe0k\xaf<\xfd\xa9\xcd?'
p1174
tp1175
Rp1176
tp1177
a(S'energy law'
p1178
g2
(g6
S')\xb1A\x99~\x9b\xcd?'
p1179
tp1180
Rp1181
tp1182
a(S'mechanical energy'
p1183
g2
(g6
S"\x93\xfe'Py\x9a\xcd?"
p1184
tp1185
Rp1186
tp1187
a(S'david e. pritchard'
p1188
g2
(g6
S'\xf4\xb8xx}\x99\xcd?'
p1189
tp1190
Rp1191
tp1192
a(S'energy independence'
p1193
g2
(g6
S'\xd3\xf0\xcc\xfe\x1d\x93\xcd?'
p1194
tp1195
Rp1196
tp1197
a(S'net energy gain'
p1198
g2
(g6
S'|\x04\x8f)\x98\x87\xcd?'
p1199
tp1200
Rp1201
tp1202
a(S'internal energy'
p1203
g2
(g6
S'\xad\x8e\xc9\xfc\x9e\x85\xcd?'
p1204
tp1205
Rp1206
tp1207
a(S'sound amplification by stimulated emission of radiation'
p1208
g2
(g6
S'\xc5\xe9A\x07\xb9z\xcd?'
p1209
tp1210
Rp1211
tp1212
a(S'energy statistics'
p1213
g2
(g6
S'\x94\x9b\xd8\xb3\xc3m\xcd?'
p1214
tp1215
Rp1216
tp1217
a(S'iron(ii) hydride'
p1218
g2
(g6
S'\xa3\xc9\x17\x07\xd7j\xcd?'
p1219
tp1220
Rp1221
tp1222
a(S'endohedral fullerene'
p1223
g2
(g6
S'|\xd2\x0e\x12\xd1f\xcd?'
p1224
tp1225
Rp1226
tp1227
a(S'conversion electron m\xc3\xb6ssbauer spectroscopy'
p1228
g2
(g6
S'\x94\xd3\xe0\xa1\xa3b\xcd?'
p1229
tp1230
Rp1231
tp1232
a(S'electronvolt'
p1233
g2
(g6
S'\x06\x8eD\x8fN`\xcd?'
p1234
tp1235
Rp1236
tp1237
a(S'fermi resonance'
p1238
g2
(g6
S'?Z\x99>\xefX\xcd?'
p1239
tp1240
Rp1241
tp1242
a(S'atom (text editor)'
p1243
g2
(g6
S'\x19\xf3\xabM]U\xcd?'
p1244
tp1245
Rp1246
tp1247
a(S'efficient energy use'
p1248
g2
(g6
S'\xd2ti}\xbbS\xcd?'
p1249
tp1250
Rp1251
tp1252
a(S'hot band'
p1253
g2
(g6
S'{\xcc\xb4[iP\xcd?'
p1254
tp1255
Rp1256
tp1257
a(S'fenna-matthews-olson complex'
p1258
g2
(g6
S'r\xb1\xfd\x8d\x89@\xcd?'
p1259
tp1260
Rp1261
tp1262
a(S'list of quasiparticles'
p1263
g2
(g6
S'1f\x91\xea\x139\xcd?'
p1264
tp1265
Rp1266
tp1267
a(S'bremsstrahlung'
p1268
g2
(g6
S'\xf2\xcc\x1f|\x8e6\xcd?'
p1269
tp1270
Rp1271
tp1272
a(S'energy engineering'
p1273
g2
(g6
S'\xd1\xfc\xa3\x8bp,\xcd?'
p1274
tp1275
Rp1276
tp1277
a(S'radiation material science'
p1278
g2
(g6
S'\x195\xe5\xf5\xf3\x19\xcd?'
p1279
tp1280
Rp1281
tp1282
a(S'bioisostere'
p1283
g2
(g6
S'+)\x1f\x85\xb6\x14\xcd?'
p1284
tp1285
Rp1286
tp1287
a(S'intel atom'
p1288
g2
(g6
S'\x96&y\xac\x96\x12\xcd?'
p1289
tp1290
Rp1291
tp1292
a(S'hidden states of matter'
p1293
g2
(g6
S'Jw\xd4\x97\xd2\x10\xcd?'
p1294
tp1295
Rp1296
tp1297
a(S'x-ray absorption fine structure'
p1298
g2
(g6
S'\xcb\xe8\xcfH\xa1\r\xcd?'
p1299
tp1300
Rp1301
tp1302
a(S'macroscopic scale'
p1303
g2
(g6
S'\x83\xbc(\xbb\x93\x06\xcd?'
p1304
tp1305
Rp1306
tp1307
a(S'potential well'
p1308
g2
(g6
S'S>0=\x14\x06\xcd?'
p1309
tp1310
Rp1311
tp1312
a(S'energy management'
p1313
g2
(g6
S'\xe8\n\x1d\xe6\xa0\xfc\xcc?'
p1314
tp1315
Rp1316
tp1317
a(S'excitation'
p1318
g2
(g6
S'\xa4k\x8c\x98\xac\xfa\xcc?'
p1319
tp1320
Rp1321
tp1322
a(S'energy quality'
p1323
g2
(g6
S'\xc85\xa2\x7f\x8e\xe9\xcc?'
p1324
tp1325
Rp1326
tp1327
a(S'atom.com'
p1328
g2
(g6
S"\xd9'\xc6\xd8\xe4\xe6\xcc?"
p1329
tp1330
Rp1331
tp1332
a(S'trojan wave packet'
p1333
g2
(g6
S'z\x81e\x9c\xc3\xe5\xcc?'
p1334
tp1335
Rp1336
tp1337
a(S'geonium atom'
p1338
g2
(g6
S'\r!+ \x90\xe1\xcc?'
p1339
tp1340
Rp1341
tp1342
a(S'world energy council'
p1343
g2
(g6
S'U3\x1d\xd5\xf0\xd2\xcc?'
p1344
tp1345
Rp1346
tp1347
a(S'black box (game)'
p1348
g2
(g6
S'\xf4o\xa6\x8by\xce\xcc?'
p1349
tp1350
Rp1351
tp1352
a(S'just energy'
p1353
g2
(g6
S'\xd5{\xf0\xe1D\xcc\xcc?'
p1354
tp1355
Rp1356
tp1357
a(S'molecular mechanics'
p1358
g2
(g6
S'\xaa@7\xf0\xfd\xc7\xcc?'
p1359
tp1360
Rp1361
tp1362
a(S'metal l-edge'
p1363
g2
(g6
S'\x87:\\\xd9\x1d\xc5\xcc?'
p1364
tp1365
Rp1366
tp1367
a(S'transduction (biophysics)'
p1368
g2
(g6
S'i&\xcb\xa7\xa5\xc1\xcc?'
p1369
tp1370
Rp1371
tp1372
a(S'list of quantum-mechanical systems with analytical solutions'
p1373
g2
(g6
S'D\x05\x95\x89\xf5\xbc\xcc?'
p1374
tp1375
Rp1376
tp1377
a(S"hund's rule of maximum multiplicity"
p1378
g2
(g6
S'\x98\x84\xd2K\xda\xb5\xcc?'
p1379
tp1380
Rp1381
tp1382
a(S'theoretical and experimental justification for the schr\xc3\xb6dinger equation'
p1383
g2
(g6
S'\xb0F\xa6\x17\x89\xab\xcc?'
p1384
tp1385
Rp1386
tp1387
a(S'nuclear reaction analysis'
p1388
g2
(g6
S"\x03\xbd2'\xdd\xa7\xcc?"
p1389
tp1390
Rp1391
tp1392
a(S'forbidden mechanism'
p1393
g2
(g6
S'N\xf5C\xe3T\xa1\xcc?'
p1394
tp1395
Rp1396
tp1397
a(S'cahn\xe2\x80\x93ingold\xe2\x80\x93prelog priority rules'
p1398
g2
(g6
S'\x11?\xdeM\xf4\xa0\xcc?'
p1399
tp1400
Rp1401
tp1402
a(S'semiconductor luminescence equations'
p1403
g2
(g6
S'\xc2\xaa\x9d\xb4N\x9e\xcc?'
p1404
tp1405
Rp1406
tp1407
a(S'lithium atom'
p1408
g2
(g6
S'6\x91\xda\xb7\x90\x90\xcc?'
p1409
tp1410
Rp1411
tp1412
a(S'self-energy'
p1413
g2
(g6
S'\xd2\xb8\x86!\x0c\x8e\xcc?'
p1414
tp1415
Rp1416
tp1417
a(S'high field consultants'
p1418
g2
(g6
S'>\x11\xaa\xf3\n\x80\xcc?'
p1419
tp1420
Rp1421
tp1422
a(S'interatomic coulombic decay'
p1423
g2
(g6
S'\x7f\x1a\xab\x1a$}\xcc?'
p1424
tp1425
Rp1426
tp1427
a(S'photonic molecule'
p1428
g2
(g6
S'\x0f\xa8b>\x1f|\xcc?'
p1429
tp1430
Rp1431
tp1432
a(S'nuclear energy'
p1433
g2
(g6
S'>x\xe8\x1a\x82{\xcc?'
p1434
tp1435
Rp1436
tp1437
a(S'x-ray absorption spectroscopy'
p1438
g2
(g6
S'\x81\xd7\xf5\xca\xd8z\xcc?'
p1439
tp1440
Rp1441
tp1442
a(S'new york state energy research and development authority'
p1443
g2
(g6
S'\x04\x93S\xd8\xb7z\xcc?'
p1444
tp1445
Rp1446
tp1447
a(S'energy policy of the european union'
p1448
g2
(g6
S'\x01\n\x9f"2z\xcc?'
p1449
tp1450
Rp1451
tp1452
a(S'new energy'
p1453
g2
(g6
S'=\xa2f\\\xb4t\xcc?'
p1454
tp1455
Rp1456
tp1457
a(S'extended x-ray absorption fine structure'
p1458
g2
(g6
S'^\xf3\x06\xc8\xbbq\xcc?'
p1459
tp1460
Rp1461
tp1462
a(S'free energy'
p1463
g2
(g6
S'\xa7\xfew\r{p\xcc?'
p1464
tp1465
Rp1466
tp1467
a(S'imidogen'
p1468
g2
(g6
S'\xa8\xff\xe4\xe3\x0en\xcc?'
p1469
tp1470
Rp1471
tp1472
a(S'kramers\xe2\x80\x93heisenberg formula'
p1473
g2
(g6
S'\xc1\xb5\xf2\x90\xf0m\xcc?'
p1474
tp1475
Rp1476
tp1477
a(S'international journal of pixe'
p1478
g2
(g6
S'\x95\xfa\x85\x12\xccm\xcc?'
p1479
tp1480
Rp1481
tp1482
a(S'ultrafast laser spectroscopy'
p1483
g2
(g6
S';\xaf\x10B\x00]\xcc?'
p1484
tp1485
Rp1486
tp1487
a(S'gerhard rempe'
p1488
g2
(g6
S'\x0fZ\x90\xc4>\\\xcc?'
p1489
tp1490
Rp1491
tp1492
a(S'elliott formula'
p1493
g2
(g6
S'\xe6\xdf\x9a\x97\xe4T\xcc?'
p1494
tp1495
Rp1496
tp1497
a(S'resonance fluorescence'
p1498
g2
(g6
S'^\xc8c\xf3\xc4I\xcc?'
p1499
tp1500
Rp1501
tp1502
a(S'vibronic spectroscopy'
p1503
g2
(g6
S'\x03\xc5dh\xdbH\xcc?'
p1504
tp1505
Rp1506
tp1507
a(S'atomic heraldry'
p1508
g2
(g6
S'\r\x8e\x1c\t\x0fG\xcc?'
p1509
tp1510
Rp1511
tp1512
a.