(lp0
(S'floating point'
p1
cnumpy.core.multiarray
scalar
p2
(cnumpy
dtype
p3
(S'f8'
p4
I0
I1
tp5
Rp6
(I3
S'<'
p7
NNNI-1
I-1
I0
tp8
bS'\x04\x00\x00\x00\x00\x00\xf0?'
p9
tp10
Rp11
tp12
a(S'double-precision floating-point format'
p13
g2
(g6
S'\xe1\xb9\x958$%\xe9?'
p14
tp15
Rp16
tp17
a(S'ieee floating point'
p18
g2
(g6
S'\xd7\xd22\xdc\xfaa\xe8?'
p19
tp20
Rp21
tp22
a(S'ieee 754-1985'
p23
g2
(g6
S'\x97+\\\xfc&\xc2\xe7?'
p24
tp25
Rp26
tp27
a(S'extended precision'
p28
g2
(g6
S'"\xde)\xf1\x16\xc0\xe7?'
p29
tp30
Rp31
tp32
a(S'single-precision floating-point format'
p33
g2
(g6
S'kL\xa8\xf1\x10V\xe7?'
p34
tp35
Rp36
tp37
a(S'octuple-precision floating-point format'
p38
g2
(g6
S'\xc0>\x84\xc7\xed\x05\xe7?'
p39
tp40
Rp41
tp42
a(S'ibm floating point architecture'
p43
g2
(g6
S'\xa2\x1d\x17E\xd4\xe1\xe6?'
p44
tp45
Rp46
tp47
a(S'decimal floating point'
p48
g2
(g6
S'\x17z\xa7w\xa1\x89\xe5?'
p49
tp50
Rp51
tp52
a(S'half-precision floating-point format'
p53
g2
(g6
S'B:\x8f#\x95\xdf\xe4?'
p54
tp55
Rp56
tp57
a(S'quadruple-precision floating-point format'
p58
g2
(g6
S'M;v\xa0"|\xe4?'
p59
tp60
Rp61
tp62
a(S'precision (computer science)'
p63
g2
(g6
S'<.A+a\x8f\xe3?'
p64
tp65
Rp66
tp67
a(S'unit in the last place'
p68
g2
(g6
S'9\xbd\xf4\xd0\x10\xba\xe2?'
p69
tp70
Rp71
tp72
a(S'arithmetic underflow'
p73
g2
(g6
S'\x87\xfb-ky\xae\xe2?'
p74
tp75
Rp76
tp77
a(S'significand'
p78
g2
(g6
S'Az$\x96\x1a\x87\xe2?'
p79
tp80
Rp81
tp82
a(S'computer number format'
p83
g2
(g6
S'\n\x03T\xe91x\xe2?'
p84
tp85
Rp86
tp87
a(S'ieee 754 revision'
p88
g2
(g6
S'\xef\xf53\xb4\x87\xae\xe1?'
p89
tp90
Rp91
tp92
a(S'minifloat'
p93
g2
(g6
S'\xfa\xf9!g\xdf\x8a\xe1?'
p94
tp95
Rp96
tp97
a(S'long double'
p98
g2
(g6
S'\xed\xb0=\xdd/\x80\xe1?'
p99
tp100
Rp101
tp102
a(S'machine epsilon'
p103
g2
(g6
S'u!\xb0\x9b\xee\x1f\xe1?'
p104
tp105
Rp106
tp107
a(S'strictfp'
p108
g2
(g6
S'L\xa0\x0cp\x86\x1f\xe1?'
p109
tp110
Rp111
tp112
a(S'microsoft binary format'
p113
g2
(g6
S'{\xe4\x7fd+\x1e\xe1?'
p114
tp115
Rp116
tp117
a(S'arbitrary-precision arithmetic'
p118
g2
(g6
S'O6n\xf8K\n\xe1?'
p119
tp120
Rp121
tp122
a(S'decimal128 floating-point format'
p123
g2
(g6
S'\xde\xc2q\xd1\x9a\xe1\xe0?'
p124
tp125
Rp126
tp127
a(S'denormal number'
p128
g2
(g6
S'\xd6\xde\xd8\xc8\xb9\xa5\xe0?'
p129
tp130
Rp131
tp132
a(S'decimal32 floating-point format'
p133
g2
(g6
S'X\xf7\xe7\x85|\x91\xe0?'
p134
tp135
Rp136
tp137
a(S'fixed float'
p138
g2
(g6
S'\x86\xb2!\xc6H\x8e\xe0?'
p139
tp140
Rp141
tp142
a(S'decimal64 floating-point format'
p143
g2
(g6
S'e;h3\x9f2\xe0?'
p144
tp145
Rp146
tp147
a(S'fixed-point arithmetic'
p148
g2
(g6
S'\x08\xf4\xb9\x90\x88\xed\xdf?'
p149
tp150
Rp151
tp152
a(S'gnu mpfr'
p153
g2
(g6
S'\xcf\x92:\x08\x88\xcb\xdf?'
p154
tp155
Rp156
tp157
a(S'floating-point unit'
p158
g2
(g6
S'#\x03*M\x0f\xc8\xdf?'
p159
tp160
Rp161
tp162
a(S'decimal data type'
p163
g2
(g6
S'j;\x1a\xb7\xc7\x17\xdf?'
p164
tp165
Rp166
tp167
a(S'loss of significance'
p168
g2
(g6
S'\x8fO\xe7\xbak\xbc\xde?'
p169
tp170
Rp171
tp172
a(S'exponent bias'
p173
g2
(g6
S'\xb7\x97\xcdi+\x92\xde?'
p174
tp175
Rp176
tp177
a(S'c99'
p178
g2
(g6
S'\x13n\xad\xa0\xc3\xc9\xdd?'
p179
tp180
Rp181
tp182
a(S'binary integer decimal'
p183
g2
(g6
S'\x19\xe8\xa5@\x16\x94\xdd?'
p184
tp185
Rp186
tp187
a(S'binary scaling'
p188
g2
(g6
S'\xed\xed\xadJ\xf7\x19\xdd?'
p189
tp190
Rp191
tp192
a(S'block floating-point'
p193
g2
(g6
S'C\x80\x95\x13\x1e\xdd\xdc?'
p194
tp195
Rp196
tp197
a(S'ieee 854-1987'
p198
g2
(g6
S'E\xd4}V\xb5\xc6\xdc?'
p199
tp200
Rp201
tp202
a(S'signed zero'
p203
g2
(g6
S'\xe8s\xb1\x89\xd9\x0e\xdc?'
p204
tp205
Rp206
tp207
a(S'rgbe image format'
p208
g2
(g6
S'\xf6+\xd1M\xae\xcf\xdb?'
p209
tp210
Rp211
tp212
a(S'floating'
p213
g2
(g6
S'\xec\xc3Hw\xf8\xc8\xdb?'
p214
tp215
Rp216
tp217
a(S'rounding'
p218
g2
(g6
S'D\xe6m\xe2?\xb0\xdb?'
p219
tp220
Rp221
tp222
a(S'normal number (computing)'
p223
g2
(g6
S'\x1d\x13\xf8\xb8\x8dc\xdb?'
p224
tp225
Rp226
tp227
a(S'normalized number'
p228
g2
(g6
S'\xd3m\xa2\xb8\xbc\x02\xdb?'
p229
tp230
Rp231
tp232
a(S'real data type'
p233
g2
(g6
S'\x00\x8c\xc0\xaf&\xe8\xd9?'
p234
tp235
Rp236
tp237
a(S'f16c'
p238
g2
(g6
S'\x8e\xac\xff\xbc\x91\xda\xd9?'
p239
tp240
Rp241
tp242
a(S'william kahan'
p243
g2
(g6
S'\x05\x8fCE\xac\xbf\xd9?'
p244
tp245
Rp246
tp247
a(S'james a. d. w. anderson'
p248
g2
(g6
S'\xe7*\x88g\x16W\xd9?'
p249
tp250
Rp251
tp252
a(S'densely packed decimal'
p253
g2
(g6
S'\xdcbp\x1d\xd3\xdc\xd8?'
p254
tp255
Rp256
tp257
a(S"gal's accurate tables"
p258
g2
(g6
S'3\xd1\xc2\x16\xfc\xbd\xd8?'
p259
tp260
Rp261
tp262
a(S'division by two'
p263
g2
(g6
S'\x80x\xfc\x92\x17\xb6\xd8?'
p264
tp265
Rp266
tp267
a(S'logarithmic number system'
p268
g2
(g6
S'\xf0\x82t\x9f\x9a\xb2\xd8?'
p269
tp270
Rp271
tp272
a(S'128-bit'
p273
g2
(g6
S'dD\x97\xe8\xe5\x9a\xd8?'
p274
tp275
Rp276
tp277
a(S'x86 instruction listings'
p278
g2
(g6
S'\\\xca\x13\x14Xn\xd8?'
p279
tp280
Rp281
tp282
a(S'power of two'
p283
g2
(g6
S'\xae8\xccfpR\xd8?'
p284
tp285
Rp286
tp287
a(S'list of floating islands in fiction'
p288
g2
(g6
S'V\x00v\xac\xc8F\xd8?'
p289
tp290
Rp291
tp292
a(S'binary number'
p293
g2
(g6
S'E\x92&3\x8d\xfd\xd7?'
p294
tp295
Rp296
tp297
a(S'kahan summation algorithm'
p298
g2
(g6
S'B\x11\xba\xbdw\x9f\xd7?'
p299
tp300
Rp301
tp302
a(S'large number (disambiguation)'
p303
g2
(g6
S'\xa63\x99\x10\x00\x9a\xd7?'
p304
tp305
Rp306
tp307
a(S'scale factor (computer science)'
p308
g2
(g6
S'\xdb\x17n\x9e\xe0\x8e\xd7?'
p309
tp310
Rp311
tp312
a(S'dec64'
p313
g2
(g6
S'U\xd9\xca\r\x97|\xd7?'
p314
tp315
Rp316
tp317
a(S'offset binary'
p318
g2
(g6
S'\xa6\xeb\xfd\xeb\xa1o\xd7?'
p319
tp320
Rp321
tp322
a(S'nan'
p323
g2
(g6
S'K%\xbf\xb6\xa3n\xd7?'
p324
tp325
Rp326
tp327
a(S'iso/iec 10967'
p328
g2
(g6
S'\xf7\xa6\xa57LH\xd7?'
p329
tp330
Rp331
tp332
a(S'q (number format)'
p333
g2
(g6
S'\x03\xeb\x16X\x839\xd7?'
p334
tp335
Rp336
tp337
a(S'decimal computer'
p338
g2
(g6
S'\x94!i\x90\x05.\xd7?'
p339
tp340
Rp341
tp342
a(S'scientific notation'
p343
g2
(g6
S'\x8d\x90\x11\xe7\x97%\xd7?'
p344
tp345
Rp346
tp347
a(S'fast inverse square root'
p348
g2
(g6
S'\xd7U\xbc5\xe8#\xd7?'
p349
tp350
Rp351
tp352
a(S'primitive data type'
p353
g2
(g6
S'5\xd5\x91U\xb8\x08\xd7?'
p354
tp355
Rp356
tp357
a(S'audio bit depth'
p358
g2
(g6
S'\xde\xb1\xb5_F\xc0\xd6?'
p359
tp360
Rp361
tp362
a(S'significant figures'
p363
g2
(g6
S'\xac\xa9\x9d\xae\xc3\xa6\xd6?'
p364
tp365
Rp366
tp367
a(S'floating island (disambiguation)'
p368
g2
(g6
S'J\xa5@$\x16\x9c\xd6?'
p369
tp370
Rp371
tp372
a(S'negative base'
p373
g2
(g6
S'\x84O\x9b"*\x98\xd6?'
p374
tp375
Rp376
tp377
a(S'c data types'
p378
g2
(g6
S'w\xca\x16\xcc\xfe~\xd6?'
p379
tp380
Rp381
tp382
a(S'floating airport'
p383
g2
(g6
S'!{\xd2\xf2\x12v\xd6?'
p384
tp385
Rp386
tp387
a(S'floating city (science fiction)'
p388
g2
(g6
S'\x8c\xbf\x9f\xcc^\x1a\xd6?'
p389
tp390
Rp391
tp392
a(S'guard digit'
p393
g2
(g6
S'.\xda\x9f\t\xe9\xff\xd5?'
p394
tp395
Rp396
tp397
a(S'very large floating structure'
p398
g2
(g6
S'\xae\xc3\xbb\x1e\xdb\xfe\xd5?'
p399
tp400
Rp401
tp402
a(S'list of arbitrary-precision arithmetic software'
p403
g2
(g6
S'?4\x8b\xb1\xae\xd8\xd5?'
p404
tp405
Rp406
tp407
a(S'precision'
p408
g2
(g6
S'\x16U\xc1\xe4\xce\xbc\xd5?'
p409
tp410
Rp411
tp412
a(S'arithmetic'
p413
g2
(g6
S'P|\xbar\xcc\xbc\xd5?'
p414
tp415
Rp416
tp417
a(S'signed number representations'
p418
g2
(g6
S'o\xa5\xca\x066\xab\xd5?'
p419
tp420
Rp421
tp422
a(S'bit'
p423
g2
(g6
S'\xe9\x18c\xaf\xd8\x85\xd5?'
p424
tp425
Rp426
tp427
a(S'floating city'
p428
g2
(g6
S'.*\x82\x10\xa2\x82\xd5?'
p429
tp430
Rp431
tp432
a(S"two's complement"
p433
g2
(g6
S'\x01\xba\xcfb\x02s\xd5?'
p434
tp435
Rp436
tp437
a(S'floating market'
p438
g2
(g6
S'`\xbam\xe0\x1fH\xd5?'
p439
tp440
Rp441
tp442
a(S'standard apple numerics environment'
p443
g2
(g6
S'\x8b\x04\x0cf\xab1\xd5?'
p444
tp445
Rp446
tp447
a(S'false precision'
p448
g2
(g6
S'pe*x\xe4/\xd5?'
p449
tp450
Rp451
tp452
a(S'0.999...'
p453
g2
(g6
S'\xfe4\xa2 =\x1e\xd5?'
p454
tp455
Rp456
tp457
a(S'round-off error'
p458
g2
(g6
S'\x1e\xb0\xf1}\xc8\x1c\xd5?'
p459
tp460
Rp461
tp462
a(S'division by zero'
p463
g2
(g6
S'\xb0\xf8\x80\xdcg\t\xd5?'
p464
tp465
Rp466
tp467
a(S'arithmetic shift'
p468
g2
(g6
S'Li\xfd\xc7\xaa\xf3\xd4?'
p469
tp470
Rp471
tp472
a(S'binary-coded decimal'
p473
g2
(g6
S'+\xdaw\x84l\xed\xd4?'
p474
tp475
Rp476
tp477
a(S'positional notation'
p478
g2
(g6
S'\xec\x9fS%&\xe0\xd4?'
p479
tp480
Rp481
tp482
a(S'artificial precision'
p483
g2
(g6
S'\xc0[%\xce\xf5b\xd4?'
p484
tp485
Rp486
tp487
a(S'numeric precision in microsoft excel'
p488
g2
(g6
S'\xf5\x02G\xb3\xe2N\xd4?'
p489
tp490
Rp491
tp492
a(S'methods of computing square roots'
p493
g2
(g6
S"p\xee\x99\xa1\x18'\xd4?"
p494
tp495
Rp496
tp497
a(S'bitwise operation'
p498
g2
(g6
S'\xb4\xc7\n\xbdD\x0e\xd4?'
p499
tp500
Rp501
tp502
a(S'mike cowlishaw'
p503
g2
(g6
S"\xeb'\xcb\xa6\xb8\xf5\xd3?"
p504
tp505
Rp506
tp507
a(S'floating charge'
p508
g2
(g6
S'\xd2u\xf64B\xf5\xd3?'
p509
tp510
Rp511
tp512
a(S'most significant bit'
p513
g2
(g6
S'\xbb\x00\xad\x0b\x87\xde\xd3?'
p514
tp515
Rp516
tp517
a(S'radix point'
p518
g2
(g6
S'!\x86e\x84\xa2\xd2\xd3?'
p519
tp520
Rp521
tp522
a(S'open data description language'
p523
g2
(g6
S'pVT\x93\xe2\xa1\xd3?'
p524
tp525
Rp526
tp527
a(S'x87'
p528
g2
(g6
S'\x98^\xf9\x1e\xc0\xa0\xd3?'
p529
tp530
Rp531
tp532
a(S'division algorithm'
p533
g2
(g6
S'\x98.\xca\xc6\x8b\x9f\xd3?'
p534
tp535
Rp536
tp537
a(S'integer (computer science)'
p538
g2
(g6
S'uO]\xc2\xc0\x92\xd3?'
p539
tp540
Rp541
tp542
a(S'chen\xe2\x80\x93ho encoding'
p543
g2
(g6
S'G\x17{\xffEs\xd3?'
p544
tp545
Rp546
tp547
a(S'binary code'
p548
g2
(g6
S'\x89\xeaM\xd1\x83l\xd3?'
p549
tp550
Rp551
tp552
a(S'mpir (mathematics software)'
p553
g2
(g6
S'\xd6\xe3%\xb1\x1dj\xd3?'
p554
tp555
Rp556
tp557
a(S'sign bit'
p558
g2
(g6
S'\x94\xc7\xd6\x95\x11b\xd3?'
p559
tp560
Rp561
tp562
a(S'decimal representation'
p563
g2
(g6
S'7\xbc\xe2s\xa0[\xd3?'
p564
tp565
Rp566
tp567
a(S'saturation arithmetic'
p568
g2
(g6
S'\xa3\xa9T\xf5\x97\xe7\xd2?'
p569
tp570
Rp571
tp572
a(S'decimal'
p573
g2
(g6
S'\x1b\xe7M/\xd3\xd5\xd2?'
p574
tp575
Rp576
tp577
a(S'qualifying floating charge'
p578
g2
(g6
S'\xe7\xd0\x1b\xda\xbf\xc7\xd2?'
p579
tp580
Rp581
tp582
a(S'voidable floating charge'
p583
g2
(g6
S'\xfc\x89\xadjE\xb7\xd2?'
p584
tp585
Rp586
tp587
a(S'ibm system/360 model 44'
p588
g2
(g6
S'\x90\xf9\xb6\x17\xf6\x94\xd2?'
p589
tp590
Rp591
tp592
a(S'duodecimal'
p593
g2
(g6
S'\xa2\xdd\xbb\x8e\xee\x8e\xd2?'
p594
tp595
Rp596
tp597
a(S'half-carry flag'
p598
g2
(g6
S'\xdaB~\xfc\xbfz\xd2?'
p599
tp600
Rp601
tp602
a(S'least significant bit'
p603
g2
(g6
S'\x01\xce\xf3P\xd1Z\xd2?'
p604
tp605
Rp606
tp607
a(S'floating floor'
p608
g2
(g6
S'VH\xc4=\xc6Z\xd2?'
p609
tp610
Rp611
tp612
a(S'ibm system/360 architecture'
p613
g2
(g6
S'MGnC\xabV\xd2?'
p614
tp615
Rp616
tp617
a(S'numerical differentiation'
p618
g2
(g6
S'T\x88?\xdf\x0fV\xd2?'
p619
tp620
Rp621
tp622
a(S'coprocessor'
p623
g2
(g6
S'\xfeK\\\x18\xb2U\xd2?'
p624
tp625
Rp626
tp627
a(S'z4 (computer)'
p628
g2
(g6
S'\x87\xe3j\xf7\x18L\xd2?'
p629
tp630
Rp631
tp632
a(S'printf format string'
p633
g2
(g6
S'\x87\x10B\xc8\xe0H\xd2?'
p634
tp635
Rp636
tp637
a(S'approximations of \xcf\x80'
p638
g2
(g6
S'\xfbXC\xcd\x07G\xd2?'
p639
tp640
Rp641
tp642
a(S'iterative refinement'
p643
g2
(g6
S'R\xc9M\x918C\xd2?'
p644
tp645
Rp646
tp647
a(S'significance arithmetic'
p648
g2
(g6
S'\xe0$v{6?\xd2?'
p649
tp650
Rp651
tp652
a(S'arithmetic coding'
p653
g2
(g6
S'\x93\xd2\x95c\x00%\xd2?'
p654
tp655
Rp656
tp657
a(S'number'
p658
g2
(g6
S';\xf4\x11\xa3\xf9\x17\xd2?'
p659
tp660
Rp661
tp662
a(S'ibm 8000'
p663
g2
(g6
S'\xbb\x9d,;l\x0e\xd2?'
p664
tp665
Rp666
tp667
a(S'american society for precision engineering'
p668
g2
(g6
S'\xe5\x03~\x1d\xbb\t\xd2?'
p669
tp670
Rp671
tp672
a(S'floating island'
p673
g2
(g6
S'\xe3\xcb\xbe\xd9\xe6\xd4\xd1?'
p674
tp675
Rp676
tp677
a(S'floating (play)'
p678
g2
(g6
S'\xb5\xb6H\xdc\xb2\xd2\xd1?'
p679
tp680
Rp681
tp682
a(S'excess-3'
p683
g2
(g6
S'\xed\x93~\x8a\r\xd2\xd1?'
p684
tp685
Rp686
tp687
a(S"ones' complement"
p688
g2
(g6
S'd\xc9\x08@\\\xc8\xd1?'
p689
tp690
Rp691
tp692
a(S'numerical error'
p693
g2
(g6
S'\x0b\xa6?5\xc3\xbe\xd1?'
p694
tp695
Rp696
tp697
a(S'z2 (computer)'
p698
g2
(g6
S'\xc1\xd7a\x8b\x0c\xbd\xd1?'
p699
tp700
Rp701
tp702
a(S'numeral system'
p703
g2
(g6
S'\x8a\xac\xcbC\\\xbb\xd1?'
p704
tp705
Rp706
tp707
a(S'z1 (computer)'
p708
g2
(g6
S'\xfc\xb0P\x06\x97\xa9\xd1?'
p709
tp710
Rp711
tp712
a(S'alglib'
p713
g2
(g6
S'\xc4\xd0\xcc\xfa\x10\xa4\xd1?'
p714
tp715
Rp716
tp717
a(S'outline of arithmetic'
p718
g2
(g6
S'a\xad[q\x87\x9d\xd1?'
p719
tp720
Rp721
tp722
a(S'orders of magnitude (numbers)'
p723
g2
(g6
S'\xcbR\x8d\x8dp\x8f\xd1?'
p724
tp725
Rp726
tp727
a(S'floating dock (jetty)'
p728
g2
(g6
S'\xd3^\x84\xb9B\x8b\xd1?'
p729
tp730
Rp731
tp732
a(S'exponentiation'
p733
g2
(g6
S'\xb9\xa7\xa7D\xd8\x88\xd1?'
p734
tp735
Rp736
tp737
a(S'bit-length'
p738
g2
(g6
S'A\x95\x0fk\xb0\x7f\xd1?'
p739
tp740
Rp741
tp742
a(S'floating islands (bing\xc3\xb6l)'
p743
g2
(g6
S'\xda\x0e!(\x01}\xd1?'
p744
tp745
Rp746
tp747
a(S"booth's multiplication algorithm"
p748
g2
(g6
S'\x92\x8c\xf9Q&y\xd1?'
p749
tp750
Rp751
tp752
a(S'large numbers'
p753
g2
(g6
S'f\x11|\xad%v\xd1?'
p754
tp755
Rp756
tp757
a(S'addition'
p758
g2
(g6
S'oS5\xa5$R\xd1?'
p759
tp760
Rp761
tp762
a(S'honeywell 800'
p763
g2
(g6
S'W\xe0\x8a\xe2(*\xd1?'
p764
tp765
Rp766
tp767
a(S'pi'
p768
g2
(g6
S'\x1f\tR\xde\x13%\xd1?'
p769
tp770
Rp771
tp772
a(S'repeating decimal'
p773
g2
(g6
S'"H\xc6\xa7\x19\x1f\xd1?'
p774
tp775
Rp776
tp777
a(S'modular exponentiation'
p778
g2
(g6
S'\xbe\x0fR-6\x1b\xd1?'
p779
tp780
Rp781
tp782
a(S'class library for numbers'
p783
g2
(g6
S'\x91\x99\xb1i\xe6\x02\xd1?'
p784
tp785
Rp786
tp787
a(S'precision bias'
p788
g2
(g6
S'\xfb\xbaI\xb3\x97\xff\xd0?'
p789
tp790
Rp791
tp792
a(S'accuracy and precision'
p793
g2
(g6
S' \x06$mp\xfb\xd0?'
p794
tp795
Rp796
tp797
a(S'hypot'
p798
g2
(g6
S'\x01\xb6E\xce\x19\xf8\xd0?'
p799
tp800
Rp801
tp802
a(S'ibm 4020 military computer'
p803
g2
(g6
S'[\x85pj\xe6\xef\xd0?'
p804
tp805
Rp806
tp807
a(S'super harvard architecture single-chip computer'
p808
g2
(g6
S'\x14\xda\x05\xbd\x81\xed\xd0?'
p809
tp810
Rp811
tp812
a(S'sign extension'
p813
g2
(g6
S'\xa0\xcf\x17\x83\x17\xd5\xd0?'
p814
tp815
Rp816
tp817
a(S'floating bridge'
p818
g2
(g6
S'\xc3;\x82{\xda\xd4\xd0?'
p819
tp820
Rp821
tp822
a(S'binary data'
p823
g2
(g6
S'\xd221\x95N\xd2\xd0?'
p824
tp825
Rp826
tp827
a(S'decimal mark'
p828
g2
(g6
S'O\xa2:\xe2K\xcb\xd0?'
p829
tp830
Rp831
tp832
a(S'electronic serial number'
p833
g2
(g6
S'B \xa6\xfd\xd5\xc9\xd0?'
p834
tp835
Rp836
tp837
a(S'hexadecimal'
p838
g2
(g6
S'\xe00\x87!.\xc6\xd0?'
p839
tp840
Rp841
tp842
a(S'dot-decimal notation'
p843
g2
(g6
S'\xde\xe1m\xa7\xea\xc1\xd0?'
p844
tp845
Rp846
tp847
a(S'english electric kdf9'
p848
g2
(g6
S'8%\x90`)\xbf\xd0?'
p849
tp850
Rp851
tp852
a(S'cordic'
p853
g2
(g6
S'\x04\xb3G\xed\xdf\xbb\xd0?'
p854
tp855
Rp856
tp857
a(S'the monkeys in the zoo have more fun than me'
p858
g2
(g6
S'S\x98\x1d\xbe\r\xba\xd0?'
p859
tp860
Rp861
tp862
a(S'avx-512'
p863
g2
(g6
S'\xf0\xe9+\xc6\x08\xb8\xd0?'
p864
tp865
Rp866
tp867
a(S'intel bcd opcode'
p868
g2
(g6
S'\r:\x08\xb8\x0b\xad\xd0?'
p869
tp870
Rp871
tp872
a(S'paul zimmermann'
p873
g2
(g6
S'!^\x04J\xf8\xac\xd0?'
p874
tp875
Rp876
tp877
a(S'complex-base system'
p878
g2
(g6
S'\xe3\x99D\xaf\xc1\xac\xd0?'
p879
tp880
Rp881
tp882
a(S'type conversion'
p883
g2
(g6
S'5o\xcbDZ\xac\xd0?'
p884
tp885
Rp886
tp887
a(S'radix'
p888
g2
(g6
S'[a\xff\xf1\x83\xab\xd0?'
p889
tp890
Rp891
tp892
a(S'dec alpha'
p893
g2
(g6
S'\xbaY#a\x10\xa0\xd0?'
p894
tp895
Rp896
tp897
a(S'public holidays in ecuador'
p898
g2
(g6
S'\x19\xdb\xde\xb2S\x9f\xd0?'
p899
tp900
Rp901
tp902
a(S'list of headlands of the philippines'
p903
g2
(g6
S'\x82G(\xde\xb2\x91\xd0?'
p904
tp905
Rp906
tp907
a(S'elementary mathematics'
p908
g2
(g6
S'\xf8\x93\xac\xf7\x11}\xd0?'
p909
tp910
Rp911
tp912
a(S'point code'
p913
g2
(g6
S'\x82\xbb\x16\xf0\xdc{\xd0?'
p914
tp915
Rp916
tp917
a(S'3dnow!'
p918
g2
(g6
S' \x16:\x14\xd0z\xd0?'
p919
tp920
Rp921
tp922
a(S'floating hospital'
p923
g2
(g6
S'\xa9\x18\xb1\xc4\x1eu\xd0?'
p924
tp925
Rp926
tp927
a(S'golden ratio base'
p928
g2
(g6
S'\xca\xd8\x10\x17\xd1g\xd0?'
p929
tp930
Rp931
tp932
a(S'cell software development'
p933
g2
(g6
S'\xd6L |\x8ad\xd0?'
p934
tp935
Rp936
tp937
a(S'hamming weight'
p938
g2
(g6
S'\x9c\xac\x0e>6b\xd0?'
p939
tp940
Rp941
tp942
a(S'data type'
p943
g2
(g6
S't\x87x\xc6fT\xd0?'
p944
tp945
Rp946
tp947
a(S'power processing element'
p948
g2
(g6
S'c\x0e\xee\xf4\x1fJ\xd0?'
p949
tp950
Rp951
tp952
a(S'remainder'
p953
g2
(g6
S'4\x07\xac\x067G\xd0?'
p954
tp955
Rp956
tp957
a(S'floating building'
p958
g2
(g6
S'\xf0\x9a\xed\x04K@\xd0?'
p959
tp960
Rp961
tp962
a(S'non-standard positional numeral systems'
p963
g2
(g6
S'\xc8*\xedlO;\xd0?'
p964
tp965
Rp966
tp967
a(S'36-bit'
p968
g2
(g6
S'\xab\xc1\xe7\xa5\x18:\xd0?'
p969
tp970
Rp971
tp972
a(S'sds 9 series'
p973
g2
(g6
S'=P\xbe\x03\x8e7\xd0?'
p974
tp975
Rp976
tp977
a(S'serial number arithmetic'
p978
g2
(g6
S'u\xb3}\x8b\x1c+\xd0?'
p979
tp980
Rp981
tp982
a(S'byte'
p983
g2
(g6
S'T\x98\ro\xcb*\xd0?'
p984
tp985
Rp986
tp987
a(S'4-bit'
p988
g2
(g6
S'\xf7\xea\xde\xc1\xd5%\xd0?'
p989
tp990
Rp991
tp992
a(S'evaluation measures (information retrieval)'
p993
g2
(g6
S'\xe8Q\x91\xb4\x02\x18\xd0?'
p994
tp995
Rp996
tp997
a(S'burroughs medium systems'
p998
g2
(g6
S'\x1bk\xb7;\x02\x17\xd0?'
p999
tp1000
Rp1001
tp1002
a(S'integer square root'
p1003
g2
(g6
S'\x0b\x86\xcel\xa1\xe6\xcf?'
p1004
tp1005
Rp1006
tp1007
a(S'rational data type'
p1008
g2
(g6
S'\xb5\x8c\xb8\x85\x85\xc8\xcf?'
p1009
tp1010
Rp1011
tp1012
a(S'quote notation'
p1013
g2
(g6
S'\xf4k\xa5#\xd5\xbe\xcf?'
p1014
tp1015
Rp1016
tp1017
a(S'ieee standards association'
p1018
g2
(g6
S'Sv\xe6\x16\xf7\xb5\xcf?'
p1019
tp1020
Rp1021
tp1022
a(S'binary multiplier'
p1023
g2
(g6
S'\xc5\xb0\t\xd7\x8f\xaf\xcf?'
p1024
tp1025
Rp1026
tp1027
a(S'bi-quinary coded decimal'
p1028
g2
(g6
S'\x04\x8c\xc91\x8e\x8f\xcf?'
p1029
tp1030
Rp1031
tp1032
a(S'maniac iii'
p1033
g2
(g6
S'\xf0YW\x85\xd6\x8d\xcf?'
p1034
tp1035
Rp1036
tp1037
a(S'xnumbers'
p1038
g2
(g6
S'\xe7\x80Uq\xda\x8c\xcf?'
p1039
tp1040
Rp1041
tp1042
a(S'floating action'
p1043
g2
(g6
S'\xde\x10a\xb2bx\xcf?'
p1044
tp1045
Rp1046
tp1047
a(S'list of mathematical properties of points'
p1048
g2
(g6
S'\x81\x19hp#q\xcf?'
p1049
tp1050
Rp1051
tp1052
a(S'spigot algorithm'
p1053
g2
(g6
S'\xc3\x02M\x8e\xab[\xcf?'
p1054
tp1055
Rp1056
tp1057
a(S'floating battery'
p1058
g2
(g6
S'\xdf\xa5\xd7\xaa"W\xcf?'
p1059
tp1060
Rp1061
tp1062
a(S'au file format'
p1063
g2
(g6
S'\xf4\xeeb~\xf6D\xcf?'
p1064
tp1065
Rp1066
tp1067
a(S'tobos-fp'
p1068
g2
(g6
S'I<\xefb\xb5:\xcf?'
p1069
tp1070
Rp1071
tp1072
a(S'floating mat'
p1073
g2
(g6
S'\xd6\xed\xc2\x96>\x14\xcf?'
p1074
tp1075
Rp1076
tp1077
a(S'timeline of numerals and arithmetic'
p1078
g2
(g6
S'\xd7\x11\xa5\x03\xf9\n\xcf?'
p1079
tp1080
Rp1081
tp1082
a(S'binary logarithm'
p1083
g2
(g6
S"'yG1\x98\x07\xcf?"
p1084
tp1085
Rp1086
tp1087
a(S'ieee 1541-2002'
p1088
g2
(g6
S'\x03\xf4\x189<\xef\xce?'
p1089
tp1090
Rp1091
tp1092
a(S'external data representation'
p1093
g2
(g6
S'.\xf3\xd7\xe0L\xe1\xce?'
p1094
tp1095
Rp1096
tp1097
a(S'time formatting and storage bugs'
p1098
g2
(g6
S'\x94\xaac|\xb9\xdf\xce?'
p1099
tp1100
Rp1101
tp1102
a(S'maverickcrunch'
p1103
g2
(g6
S'8\x8e\xfd\xd2y\xd1\xce?'
p1104
tp1105
Rp1106
tp1107
a(S'negafibonacci coding'
p1108
g2
(g6
S'\x96\x97x I\xcf\xce?'
p1109
tp1110
Rp1111
tp1112
a(S'carry (arithmetic)'
p1113
g2
(g6
S'\x0fU\x0cL\x8f\xa6\xce?'
p1114
tp1115
Rp1116
tp1117
a(S'automorphic number'
p1118
g2
(g6
S'\x1e\xf5|\xa4\xc3\xa4\xce?'
p1119
tp1120
Rp1121
tp1122
a(S'z-order curve'
p1123
g2
(g6
S'\x91\x19\xe7!2\x9d\xce?'
p1124
tp1125
Rp1126
tp1127
a(S'two-out-of-five code'
p1128
g2
(g6
S'\xd4\xee\xd5\xb3+\x8d\xce?'
p1129
tp1130
Rp1131
tp1132
a(S'list of types of numbers'
p1133
g2
(g6
S'O\xf35\x7f\x9a~\xce?'
p1134
tp1135
Rp1136
tp1137
a(S'one half'
p1138
g2
(g6
S'\xbb\xee\xe3\xb2\x9f}\xce?'
p1139
tp1140
Rp1141
tp1142
a(S'floating bridge, dubai'
p1143
g2
(g6
S'\xd3m\x96\xd96z\xce?'
p1144
tp1145
Rp1146
tp1147
a(S'institute of electrical and electronics engineers'
p1148
g2
(g6
S'\x03\xd4\xbf\x7f\xd2X\xce?'
p1149
tp1150
Rp1151
tp1152
a(S'z3 (computer)'
p1153
g2
(g6
S'=C\xb7\xc6\xdfU\xce?'
p1154
tp1155
Rp1156
tp1157
a(S'north point (disambiguation)'
p1158
g2
(g6
S'!\xe7\x0e-\xdeC\xce?'
p1159
tp1160
Rp1161
tp1162
a(S'round number'
p1163
g2
(g6
S'\x1a\xdb\x94\xda!;\xce?'
p1164
tp1165
Rp1166
tp1167
a(S'list of binary codes'
p1168
g2
(g6
S"\x19\xaa\xb8\xe6C'\xce?"
p1169
tp1170
Rp1171
tp1172
a(S'univac 1103'
p1173
g2
(g6
S'\xed\x87\xfc\x98%!\xce?'
p1174
tp1175
Rp1176
tp1177
a(S'list of wimax networks'
p1178
g2
(g6
S'\x1ek{w,\x1d\xce?'
p1179
tp1180
Rp1181
tp1182
a(S'floating island (fiction)'
p1183
g2
(g6
S'\xe6\x1a\x15\xdbG\x0e\xce?'
p1184
tp1185
Rp1186
tp1187
a(S'signedness'
p1188
g2
(g6
S'\xf5\x80\x97,o\x06\xce?'
p1189
tp1190
Rp1191
tp1192
a(S'ieee 802.2'
p1193
g2
(g6
S'u\xf6\n\x8e\xbb\xf7\xcd?'
p1194
tp1195
Rp1196
tp1197
a(S'bit plane'
p1198
g2
(g6
S'\xf6P\xaf\xa1k\xe2\xcd?'
p1199
tp1200
Rp1201
tp1202
a(S'russian floating nuclear power station'
p1203
g2
(g6
S'U#\xa5{\xcc\xe1\xcd?'
p1204
tp1205
Rp1206
tp1207
a(S'amphawa floating market'
p1208
g2
(g6
S'\x9a\xd1|\xdf\xf1\xd6\xcd?'
p1209
tp1210
Rp1211
tp1212
a(S'precision (statistics)'
p1213
g2
(g6
S'\x83\xd2\xa6\xfcJ\xd5\xcd?'
p1214
tp1215
Rp1216
tp1217
a(S'find first set'
p1218
g2
(g6
S'\x87\xfa\xc5\x14:\xce\xcd?'
p1219
tp1220
Rp1221
tp1222
a(S'precision and recall'
p1223
g2
(g6
S'\x96\x8erf\xef\xcc\xcd?'
p1224
tp1225
Rp1226
tp1227
a(S'pneumatic stabilized platform'
p1228
g2
(g6
S'\xa3@\xca?\x16\xc4\xcd?'
p1229
tp1230
Rp1231
tp1232
a(S'west point (disambiguation)'
p1233
g2
(g6
S'I\xc0\xb7\xdf\xda\xc1\xcd?'
p1234
tp1235
Rp1236
tp1237
a(S'list of headlands of the united kingdom'
p1238
g2
(g6
S'\xde\xb3d\x9a\x8e\xc1\xcd?'
p1239
tp1240
Rp1241
tp1242
a(S'real ram'
p1243
g2
(g6
S'&\xf8\xdc\xaa~\xa5\xcd?'
p1244
tp1245
Rp1246
tp1247
a(S'floating points'
p1248
g2
(g6
S'\xee\t\xbc\xd2<\x8b\xcd?'
p1249
tp1250
Rp1251
tp1252
a(S'dynamic markov compression'
p1253
g2
(g6
S'\xac\x98\xb0\\t\x89\xcd?'
p1254
tp1255
Rp1256
tp1257
a(S'32-bit'
p1258
g2
(g6
S'#N}\xaf2h\xcd?'
p1259
tp1260
Rp1261
tp1262
a(S'bit array'
p1263
g2
(g6
S'\xfe\x03\xe2\x89\x00d\xcd?'
p1264
tp1265
Rp1266
tp1267
a(S'critical exponent of a word'
p1268
g2
(g6
S'\x83\xdd\x0f\xd4Kb\xcd?'
p1269
tp1270
Rp1271
tp1272
a(S'ieee technical activities board'
p1273
g2
(g6
S'^\x85\xae>\x9ea\xcd?'
p1274
tp1275
Rp1276
tp1277
a(S'sexagesimal'
p1278
g2
(g6
S'\xe4\x19w\xde\x8bQ\xcd?'
p1279
tp1280
Rp1281
tp1282
a(S'floating fuel station'
p1283
g2
(g6
S'\xf7^\xde\x80hO\xcd?'
p1284
tp1285
Rp1286
tp1287
a(S'truncation'
p1288
g2
(g6
S'\xe9\xee\xc5X\xe7K\xcd?'
p1289
tp1290
Rp1291
tp1292
a(S'significance'
p1293
g2
(g6
S'\x80M(\xdd5B\xcd?'
p1294
tp1295
Rp1296
tp1297
a(S'signed-digit representation'
p1298
g2
(g6
S'1}\xba\xba\x00=\xcd?'
p1299
tp1300
Rp1301
tp1302
a(S'algorism'
p1303
g2
(g6
S'\x017~\xeeG<\xcd?'
p1304
tp1305
Rp1306
tp1307
a(S'remington rand 409'
p1308
g2
(g6
S'>v\x9a\xf7\x8b4\xcd?'
p1309
tp1310
Rp1311
tp1312
a(S'c mathematical functions'
p1313
g2
(g6
S'U\x02\x14?\x1e1\xcd?'
p1314
tp1315
Rp1316
tp1317
a(S'atan2'
p1318
g2
(g6
S')\x91\xcc\xfa\x01(\xcd?'
p1319
tp1320
Rp1321
tp1322
a(S'digital differential analyzer (graphics algorithm)'
p1323
g2
(g6
S'\xd7y\x0c\x03D\x1b\xcd?'
p1324
tp1325
Rp1326
tp1327
a(S'international precision medicine center'
p1328
g2
(g6
S'0Kj\xac^\x14\xcd?'
p1329
tp1330
Rp1331
tp1332
a(S"ap\xc3\xa9ry's constant"
p1333
g2
(g6
S'\xe2\x0b\xa5\x9aV\x11\xcd?'
p1334
tp1335
Rp1336
tp1337
a(S'non-integer representation'
p1338
g2
(g6
S'\xf9\xcb\xfb?t\r\xcd?'
p1339
tp1340
Rp1341
tp1342
a(S'ieee 802'
p1343
g2
(g6
S'\xdd\x10m\xf1?\xf9\xcc?'
p1344
tp1345
Rp1346
tp1347
a(S'adjusted peak performance'
p1348
g2
(g6
S'd\x13]\x93l\xc5\xcc?'
p1349
tp1350
Rp1351
tp1352
a(S'integer overflow'
p1353
g2
(g6
S'*\x9a(\xdd\xc3\xbd\xcc?'
p1354
tp1355
Rp1356
tp1357
a(S'256-bit'
p1358
g2
(g6
S'\x8b\x19\xa9T\x0b\xaf\xcc?'
p1359
tp1360
Rp1361
tp1362
a(S'quaternary numeral system'
p1363
g2
(g6
S'\xaf$\x84e\xa2\xae\xcc?'
p1364
tp1365
Rp1366
tp1367
a(S'list of pontoon bridges'
p1368
g2
(g6
S'\x98K@2T\xa2\xcc?'
p1369
tp1370
Rp1371
tp1372
a(S'numeric std'
p1373
g2
(g6
S'`pLLE\xa1\xcc?'
p1374
tp1375
Rp1376
tp1377
a(S'ieee 1344'
p1378
g2
(g6
S'\xeb\r\xa9\x80A\x98\xcc?'
p1379
tp1380
Rp1381
tp1382
a(S'multiplication algorithm'
p1383
g2
(g6
S'N9\xc1Q>\x8e\xcc?'
p1384
tp1385
Rp1386
tp1387
a(S'units of information'
p1388
g2
(g6
S'\x07\x91\xe7\xbc\xa8\x89\xcc?'
p1389
tp1390
Rp1391
tp1392
a(S'vhdl'
p1393
g2
(g6
S'CIR\x982\x89\xcc?'
p1394
tp1395
Rp1396
tp1397
a(S'floating exchange rate'
p1398
g2
(g6
S'\xecuZ\xfeC~\xcc?'
p1399
tp1400
Rp1401
tp1402
a(S'shifting nth root algorithm'
p1403
g2
(g6
S'$\x19\x03Azt\xcc?'
p1404
tp1405
Rp1406
tp1407
a(S'mbasic'
p1408
g2
(g6
S'\x1cR\xa9\x04wt\xcc?'
p1409
tp1410
Rp1411
tp1412
a(S'nbench'
p1413
g2
(g6
S'\xd0i\xf0\xa5#t\xcc?'
p1414
tp1415
Rp1416
tp1417
a(S'ieee 802.15'
p1418
g2
(g6
S';+\xecRhr\xcc?'
p1419
tp1420
Rp1421
tp1422
a(S'ibm power instruction set architecture'
p1423
g2
(g6
S't\x8f\x00\xb5\xcdm\xcc?'
p1424
tp1425
Rp1426
tp1427
a(S'floating reedbeds'
p1428
g2
(g6
S'\xa1\x8c3\xd6\x8af\xcc?'
p1429
tp1430
Rp1431
tp1432
a(S'point'
p1433
g2
(g6
S'\x05\xc8kQ\xc9e\xcc?'
p1434
tp1435
Rp1436
tp1437
a(S'decimal (disambiguation)'
p1438
g2
(g6
S'O\xf6%_\x12a\xcc?'
p1439
tp1440
Rp1441
tp1442
a(S'mental calculation'
p1443
g2
(g6
S'\xfc\x88\x85\x10\xed_\xcc?'
p1444
tp1445
Rp1446
tp1447
a(S'type punning'
p1448
g2
(g6
S'\xed\xf8\xe5L=T\xcc?'
p1449
tp1450
Rp1451
tp1452
a(S'ieee p802.1p'
p1453
g2
(g6
S'\x90\x9f8\xd3\xb9P\xcc?'
p1454
tp1455
Rp1456
tp1457
a(S'mobile equipment identifier'
p1458
g2
(g6
S'\xb9\xb6)\xab\x0bM\xcc?'
p1459
tp1460
Rp1461
tp1462
a(S'65536 (number)'
p1463
g2
(g6
S'\xd7\x9a\xe0\xa3]J\xcc?'
p1464
tp1465
Rp1466
tp1467
a(S'precision group'
p1468
g2
(g6
S'\xbc\xe5\xdb\x8b\xcd4\xcc?'
p1469
tp1470
Rp1471
tp1472
a(S'year 2038 problem'
p1473
g2
(g6
S'\xab\x7f]-h4\xcc?'
p1474
tp1475
Rp1476
tp1477
a(S'bit field'
p1478
g2
(g6
S'L?\xc7O&3\xcc?'
p1479
tp1480
Rp1481
tp1482
a(S'geohash'
p1483
g2
(g6
S'\xf0o\xb1\x1dD0\xcc?'
p1484
tp1485
Rp1486
tp1487
a(S'floating wind turbine'
p1488
g2
(g6
S'\x83\xeb\xd97R,\xcc?'
p1489
tp1490
Rp1491
tp1492
a(S'0'
p1493
g2
(g6
S'\xaaJ\x9ex\xea)\xcc?'
p1494
tp1495
Rp1496
tp1497
a(S'floating hospital for children'
p1498
g2
(g6
S'dOHE\x04!\xcc?'
p1499
tp1500
Rp1501
tp1502
a(S'brlesc'
p1503
g2
(g6
S'@\x80\xad\x82\x1e \xcc?'
p1504
tp1505
Rp1506
tp1507
a(S'drte computer'
p1508
g2
(g6
S'}`\xc79\xa8\x17\xcc?'
p1509
tp1510
Rp1511
tp1512
a.