(lp0
(S'flow network'
p1
cnumpy.core.multiarray
scalar
p2
(cnumpy
dtype
p3
(S'f8'
p4
I0
I1
tp5
Rp6
(I3
S'<'
p7
NNNI-1
I-1
I0
tp8
bS'\xff\xff\xff\xff\xff\xff\xef?'
p9
tp10
Rp11
tp12
a(S'ford\xe2\x80\x93fulkerson algorithm'
p13
g2
(g6
S'\x86\x17]P\x80\xf5\xe8?'
p14
tp15
Rp16
tp17
a(S'flow'
p18
g2
(g6
S'I\xda\xb0\xa1\x06\xd3\xe8?'
p19
tp20
Rp21
tp22
a(S'maximum flow problem'
p23
g2
(g6
S'G\n\x04C\xb6\xff\xe7?'
p24
tp25
Rp26
tp27
a(S'flow (psychology)'
p28
g2
(g6
S'L\xa8\xa7\x04kS\xe7?'
p29
tp30
Rp31
tp32
a(S'edmonds\xe2\x80\x93karp algorithm'
p33
g2
(g6
S'\xde\xeb,\xcc]Y\xe6?'
p34
tp35
Rp36
tp37
a(S'multi-commodity flow problem'
p38
g2
(g6
S'\x9dg\xdb\xc8\xb5\xe3\xe5?'
p39
tp40
Rp41
tp42
a(S'list of fluid flows named after people'
p43
g2
(g6
S'\xddH\xeeL\xa4\xb4\xe5?'
p44
tp45
Rp46
tp47
a(S'open-channel flow'
p48
g2
(g6
S'7\x06\xb2\x16\xa9\x89\xe5?'
p49
tp50
Rp51
tp52
a(S'approximate max-flow min-cut theorem'
p53
g2
(g6
S'\x0c\xcf\x15\xd6\x12\x1e\xe5?'
p54
tp55
Rp56
tp57
a(S'minimum-cost flow problem'
p58
g2
(g6
S'\xdf\xc1\xa2O<\xcb\xe3?'
p59
tp60
Rp61
tp62
a(S'air flow bench'
p63
g2
(g6
S'\x87=\x98\xcco\x9b\xe3?'
p64
tp65
Rp66
tp67
a(S'max-flow min-cut theorem'
p68
g2
(g6
S'amE\xd0\x99\x89\xe3?'
p69
tp70
Rp71
tp72
a(S'pipe flow'
p73
g2
(g6
S'\xa0R\xb4\xf9*\x81\xe3?'
p74
tp75
Rp76
tp77
a(S'flow measurement'
p78
g2
(g6
S'N\xa9\x12\xca\x80^\xe3?'
p79
tp80
Rp81
tp82
a(S'potential flow'
p83
g2
(g6
S'TT\xad\x9f\xb3 \xe3?'
p84
tp85
Rp86
tp87
a(S'isothermal flow'
p88
g2
(g6
S'\xe0\x02\xd6\xf7V\x19\xe3?'
p89
tp90
Rp91
tp92
a(S'traffic flow (computer networking)'
p93
g2
(g6
S'\x80 \x97\xbc\xd8\xf6\xe2?'
p94
tp95
Rp96
tp97
a(S'taylor\xe2\x80\x93couette flow'
p98
g2
(g6
S'\xab\xb5\xa2T\x1d\xee\xe2?'
p99
tp100
Rp101
tp102
a(S'mouse flow'
p103
g2
(g6
S'\xbf-gR\xf3\xed\xe2?'
p104
tp105
Rp106
tp107
a(S'circulation problem'
p108
g2
(g6
S'F\xa4\x95\x0c4\xde\xe2?'
p109
tp110
Rp111
tp112
a(S'flow meter'
p113
g2
(g6
S'\xe30\xbc\xb3W\xdb\xe2?'
p114
tp115
Rp116
tp117
a(S'flow map'
p118
g2
(g6
S'\x9a}P\xdd\x83&\xe2?'
p119
tp120
Rp121
tp122
a(S'corrected flow'
p123
g2
(g6
S'V\xe0\r\x0c\xcd$\xe2?'
p124
tp125
Rp126
tp127
a(S'mass flow controller'
p128
g2
(g6
S'\xcf}\xec\x8eb\xf8\xe1?'
p129
tp130
Rp131
tp132
a(S'flow conditioning'
p133
g2
(g6
S'\x12g\x14\xeb\xc1\xc2\xe1?'
p134
tp135
Rp136
tp137
a(S"dinic's algorithm"
p138
g2
(g6
S'\x86$W\xcf\xdb\xa6\xe1?'
p139
tp140
Rp141
tp142
a(S'flow diagram'
p143
g2
(g6
S'J\xb1\x8b\xcb\xf1|\xe1?'
p144
tp145
Rp146
tp147
a(S'flow computer'
p148
g2
(g6
S'\x0c\x0c\xcf\xdb\\H\xe1?'
p149
tp150
Rp151
tp152
a(S'fanno flow'
p153
g2
(g6
S'\xe6\x1fL\xdcwD\xe1?'
p154
tp155
Rp156
tp157
a(S'rankine half body'
p158
g2
(g6
S'\xa9C\x1c\x8e\x84)\xe1?'
p159
tp160
Rp161
tp162
a(S'flow limiter'
p163
g2
(g6
S'l\x15\xe8\x9b\xff\x0b\xe1?'
p164
tp165
Rp166
tp167
a(S'material flow'
p168
g2
(g6
S'\xd1\x89p\x98*\xea\xe0?'
p169
tp170
Rp171
tp172
a(S'flow coefficient'
p173
g2
(g6
S'\xfe\x96\xf4\xc4\x10\xdb\xe0?'
p174
tp175
Rp176
tp177
a(S'flow graph'
p178
g2
(g6
S'\x1a\xb1]?\x01\xce\xe0?'
p179
tp180
Rp181
tp182
a(S'let it flow'
p183
g2
(g6
S'\xd6J\xae\xbe%\xc9\xe0?'
p184
tp185
Rp186
tp187
a(S'geometric flow'
p188
g2
(g6
S'\x1c\xe2\xa0\xe0~\xc5\xe0?'
p189
tp190
Rp191
tp192
a(S'multiphase flow'
p193
g2
(g6
S'rYD .\x88\xe0?'
p194
tp195
Rp196
tp197
a(S'nowhere-zero flow'
p198
g2
(g6
S'\x8dD\x0c\x83hx\xe0?'
p199
tp200
Rp201
tp202
a(S'cover flow'
p203
g2
(g6
S'P\x00\xebYU]\xe0?'
p204
tp205
Rp206
tp207
a(S'flow (brand)'
p208
g2
(g6
S')\x08\xb9#\x14/\xe0?'
p209
tp210
Rp211
tp212
a(S'compressible flow'
p213
g2
(g6
S'\xac\xc45\xe82&\xe0?'
p214
tp215
Rp216
tp217
a(S'isentropic nozzle flow'
p218
g2
(g6
S"\x11')\x91\xfc\x03\xe0?"
p219
tp220
Rp221
tp222
a(S'baseflow'
p223
g2
(g6
S'\x80\xeb\xb1@r\xf5\xdf?'
p224
tp225
Rp226
tp227
a(S'two-dimensional flow'
p228
g2
(g6
S'\x9d\xf1\x15\xcf\x84\xec\xdf?'
p229
tp230
Rp231
tp232
a(S'flow (mathematics)'
p233
g2
(g6
S'A\xa1`Y\x16\xe7\xdf?'
p234
tp235
Rp236
tp237
a(S'control flow diagram'
p238
g2
(g6
S'K\x82\xba@\x02\xcf\xdf?'
p239
tp240
Rp241
tp242
a(S'flownet'
p243
g2
(g6
S'\xdd\xa3 \xae{\xbe\xdf?'
p244
tp245
Rp246
tp247
a(S'helicoidal flow'
p248
g2
(g6
S'\r\xe5E\xb1\xbc\x9a\xdf?'
p249
tp250
Rp251
tp252
a(S'united flow'
p253
g2
(g6
S'\x92zH4;\x81\xdf?'
p254
tp255
Rp256
tp257
a(S'fundamental diagram of traffic flow'
p258
g2
(g6
S'\xf2\xb8\xee\xfcwo\xdf?'
p259
tp260
Rp261
tp262
a(S'prandtl\xe2\x80\x93meyer expansion fan'
p263
g2
(g6
S'KJ\x872\xd2W\xdf?'
p264
tp265
Rp266
tp267
a(S'data-flow analysis'
p268
g2
(g6
S'\x02\xeb\xd6V\xa05\xdf?'
p269
tp270
Rp271
tp272
a(S'flow chemistry'
p273
g2
(g6
S'\x94vB\xaeq2\xdf?'
p274
tp275
Rp276
tp277
a(S'optical flow'
p278
g2
(g6
S'>\xff\x96\x03\x15\x0b\xdf?'
p279
tp280
Rp281
tp282
a(S'hyperconcentrated flow'
p283
g2
(g6
S'>\xe8\xc6f\x80\xf1\xde?'
p284
tp285
Rp286
tp287
a(S'laminar flow'
p288
g2
(g6
S'\rY$6\xe3\xe8\xde?'
p289
tp290
Rp291
tp292
a(S'flow visualization'
p293
g2
(g6
S'\xe9\xed\xea*\x94\xdd\xde?'
p294
tp295
Rp296
tp297
a(S'b flow'
p298
g2
(g6
S'F\xf5\xf0\x91\xeb\xc7\xde?'
p299
tp300
Rp301
tp302
a(S'thermal mass flow meter'
p303
g2
(g6
S'8?\xc7&u\xbc\xde?'
p304
tp305
Rp306
tp307
a(S'flow (television)'
p308
g2
(g6
S'_L,\x08\xee\xa6\xde?'
p309
tp310
Rp311
tp312
a(S'distributed data flow'
p313
g2
(g6
S'{\x8b\xe0\xea\x89\xa3\xde?'
p314
tp315
Rp316
tp317
a(S'alicat scientific'
p318
g2
(g6
S'^\x05\xb8\xa2\xd0U\xde?'
p319
tp320
Rp321
tp322
a(S'webmethods flow'
p323
g2
(g6
S'e\xf8\xa8\xfd\xcf3\xde?'
p324
tp325
Rp326
tp327
a(S'two-phase flow'
p328
g2
(g6
S'tKA\xec\x88&\xde?'
p329
tp330
Rp331
tp332
a(S'flow science, inc.'
p333
g2
(g6
S'[qy\xe0\xc7\x19\xde?'
p334
tp335
Rp336
tp337
a(S'stream function'
p338
g2
(g6
S'?\xfdi\xda.\x13\xde?'
p339
tp340
Rp341
tp342
a(S'supercritical flow'
p343
g2
(g6
S'pS\xb9\xc0\x01\xd8\xdd?'
p344
tp345
Rp346
tp347
a(S'yamabe flow'
p348
g2
(g6
S'\xee\\\xa1\x8d\x82\xd0\xdd?'
p349
tp350
Rp351
tp352
a(S'inviscid flow'
p353
g2
(g6
S'\xe6=e\xd7\xce\xcd\xdd?'
p354
tp355
Rp356
tp357
a(S'ultrasonic flow meter'
p358
g2
(g6
S'\xa6\xb0\x83\xc1\x16\xb5\xdd?'
p359
tp360
Rp361
tp362
a(S'choked flow'
p363
g2
(g6
S'\xa6\x19\xb1\xddc\x8c\xdd?'
p364
tp365
Rp366
tp367
a(S'air flow meter'
p368
g2
(g6
S'\xb7\xe0\x19\xafzv\xdd?'
p369
tp370
Rp371
tp372
a(S'sage metering'
p373
g2
(g6
S'\x1c\xb3h\xf8\x8d\xe8\xdc?'
p374
tp375
Rp376
tp377
a(S'hydraulic structure'
p378
g2
(g6
S'0\x10\xdc\x94\x97\xc9\xdc?'
p379
tp380
Rp381
tp382
a(S'secondary flow'
p383
g2
(g6
S'\x91\x91\x04E\x8d\xac\xdc?'
p384
tp385
Rp386
tp387
a(S'hardy cross method'
p388
g2
(g6
S'\xf9\x02gb\x0f\x8d\xdc?'
p389
tp390
Rp391
tp392
a(S'reverse flow'
p393
g2
(g6
S'8h^b\x83k\xdc?'
p394
tp395
Rp396
tp397
a(S'process flow diagram'
p398
g2
(g6
S'1\x95g\xa9Ne\xdc?'
p399
tp400
Rp401
tp402
a(S'flow velocity'
p403
g2
(g6
S'\xbf\xd1J;4`\xdc?'
p404
tp405
Rp406
tp407
a(S'flow splitter'
p408
g2
(g6
S'\xea\x97R\xbcdO\xdc?'
p409
tp410
Rp411
tp412
a(S'table of modes of mechanical ventilation'
p413
g2
(g6
S'W3\x16p,O\xdc?'
p414
tp415
Rp416
tp417
a(S'internal flow'
p418
g2
(g6
S'6\xc0V\xed\xfb?\xdc?'
p419
tp420
Rp421
tp422
a(S'list of lava flows in arizona'
p423
g2
(g6
S'\xe0\xde\xc0\x88\x1e3\xdc?'
p424
tp425
Rp426
tp427
a(S'flow assurance'
p428
g2
(g6
S'\xa7\xcf\x13+\xd8!\xdc?'
p429
tp430
Rp431
tp432
a(S'horn\xe2\x80\x93schunck method'
p433
g2
(g6
S'\x05\xf5dl6\xff\xdb?'
p434
tp435
Rp436
tp437
a(S'signal-flow graph'
p438
g2
(g6
S'\xed\x98\xa5\x1c\x92\xf9\xdb?'
p439
tp440
Rp441
tp442
a(S'flow festival'
p443
g2
(g6
S'\x1fe\x19\rO\xf1\xdb?'
p444
tp445
Rp446
tp447
a(S'flow (belgium)'
p448
g2
(g6
S'\r9\x92I&\xd7\xdb?'
p449
tp450
Rp451
tp452
a(S'w. r. dean'
p453
g2
(g6
S'\xff;C\x17\xbb\xd5\xdb?'
p454
tp455
Rp456
tp457
a(S'antidune'
p458
g2
(g6
S'\xa7\xf6\\G\xa4\xd3\xdb?'
p459
tp460
Rp461
tp462
a(S'three-phase traffic theory'
p463
g2
(g6
S'QX\xf0d\xea\xcb\xdb?'
p464
tp465
Rp466
tp467
a(S'peak expiratory flow'
p468
g2
(g6
S'\xb7b\r\x9cc\xaa\xdb?'
p469
tp470
Rp471
tp472
a(S'flow line'
p473
g2
(g6
S'\x11\xcf\xfcLe\x96\xdb?'
p474
tp475
Rp476
tp477
a(S'flow graph (mathematics)'
p478
g2
(g6
S"'hV>D~\xdb?"
p479
tp480
Rp481
tp482
a(S'stopped-flow'
p483
g2
(g6
S'\xe8\xe3\t\xf3\x9cx\xdb?'
p484
tp485
Rp486
tp487
a(S'flow on'
p488
g2
(g6
S'\xb7\xc5\xb8\x96\x86g\xdb?'
p489
tp490
Rp491
tp492
a(S'volumetric flow rate'
p493
g2
(g6
S'\rf\xdf\xf5\xb2H\xdb?'
p494
tp495
Rp496
tp497
a(S'money flow index'
p498
g2
(g6
S"'\x0c6\x8c\xf1+\xdb?"
p499
tp500
Rp501
tp502
a(S'payment for order flow'
p503
g2
(g6
S'\xfa9\x14\x03\xd2\x08\xdb?'
p504
tp505
Rp506
tp507
a(S'different types of boundary conditions in fluid dynamics'
p508
g2
(g6
S'\xff\xafdkP\x08\xdb?'
p509
tp510
Rp511
tp512
a(S'stock and flow'
p513
g2
(g6
S'4o\x80F/\x08\xdb?'
p514
tp515
Rp516
tp517
a(S'the flow of x'
p518
g2
(g6
S'\xa8\xab\xdd-7\xf6\xda?'
p519
tp520
Rp521
tp522
a(S'factorization of the mean'
p523
g2
(g6
S'\xf6vw\nN\xeb\xda?'
p524
tp525
Rp526
tp527
a(S'fluid dynamics'
p528
g2
(g6
S'\xee\x81\xf7\xdc2\xe3\xda?'
p529
tp530
Rp531
tp532
a(S'gas flow computer'
p533
g2
(g6
S'\xc0\xd2\xca\x08\xf4\xe1\xda?'
p534
tp535
Rp536
tp537
a(S'aerodynamics'
p538
g2
(g6
S'\x8c\xc2\xc5\x91\x06\xde\xda?'
p539
tp540
Rp541
tp542
a(S'milne-thomson circle theorem'
p543
g2
(g6
S'V)\xf8nT\xcd\xda?'
p544
tp545
Rp546
tp547
a(S'cleurie (river)'
p548
g2
(g6
S'F\xae\x03\x02\xc5\xca\xda?'
p549
tp550
Rp551
tp552
a(S'three-dimensional losses and correlation in turbomachinery'
p553
g2
(g6
S'\x822\x0f@\xa4\xc6\xda?'
p554
tp555
Rp556
tp557
a(S'electro-osmosis'
p558
g2
(g6
S'\xf7\xe8Y\x8c\xaf\xc4\xda?'
p559
tp560
Rp561
tp562
a(S'positive displacement meter'
p563
g2
(g6
S'\xf7Y=\xcc\xc2\xbf\xda?'
p564
tp565
Rp566
tp567
a(S'flooding (nuclear reactor core)'
p568
g2
(g6
S'\xeaC\xc2UD\xbd\xda?'
p569
tp570
Rp571
tp572
a(S'incompressible flow'
p573
g2
(g6
S'\xbd\x97]\xa3\x0e\xb6\xda?'
p574
tp575
Rp576
tp577
a(S"d'alembert's paradox"
p578
g2
(g6
S'\xb5c\x87W\x91\xae\xda?'
p579
tp580
Rp581
tp582
a(S'corrected fuel flow'
p583
g2
(g6
S'(\xd7\x11\xa7\x1a\xaa\xda?'
p584
tp585
Rp586
tp587
a(S'higley flow state park'
p588
g2
(g6
S'\x1a\xa0\xddne\x95\xda?'
p589
tp590
Rp591
tp592
a(S'nu flow'
p593
g2
(g6
S'\xaa\x9d\x1d\x1b\xbfx\xda?'
p594
tp595
Rp596
tp597
a(S'flowchart'
p598
g2
(g6
S'\xbb\x8d\xc7;|i\xda?'
p599
tp600
Rp601
tp602
a(S'mihaly csikszentmihalyi'
p603
g2
(g6
S':\xff\x08f\xa9`\xda?'
p604
tp605
Rp606
tp607
a(S'vapotherm'
p608
g2
(g6
S'\xe1zrkY\\\xda?'
p609
tp610
Rp611
tp612
a(S'push\xe2\x80\x93relabel maximum flow algorithm'
p613
g2
(g6
S'c"\xc3\x95NY\xda?'
p614
tp615
Rp616
tp617
a(S'restrictive flow orifice'
p618
g2
(g6
S"\xfe\x93\x08Q\x86'\xda?"
p619
tp620
Rp621
tp622
a(S'open channel spillway'
p623
g2
(g6
S'\xf4\x0b-T\xcb&\xda?'
p624
tp625
Rp626
tp627
a(S'free molecular flow'
p628
g2
(g6
S"\x08j')\xc5#\xda?"
p629
tp630
Rp631
tp632
a(S'flow table test'
p633
g2
(g6
S'<D\xfd\xba,\x19\xda?'
p634
tp635
Rp636
tp637
a(S'cash flow'
p638
g2
(g6
S'\xc0{=\x8f\xf5\x16\xda?'
p639
tp640
Rp641
tp642
a(S'thermal entrance length'
p643
g2
(g6
S'\xe2$\x0c%\xb3\xef\xd9?'
p644
tp645
Rp646
tp647
a(S'control flow analysis'
p648
g2
(g6
S'f\x96\xabA@\xe8\xd9?'
p649
tp650
Rp651
tp652
a(S'mass flow meter'
p653
g2
(g6
S"'\xe3f\x91T\xda\xd9?"
p654
tp655
Rp656
tp657
a(S'potential flow around a circular cylinder'
p658
g2
(g6
S'L.J\xa1L\xda\xd9?'
p659
tp660
Rp661
tp662
a(S'rayleigh flow'
p663
g2
(g6
S'\x85+\xce\xa6\x94\xd0\xd9?'
p664
tp665
Rp666
tp667
a(S'groundwater flow'
p668
g2
(g6
S'\xba+(\xb5\xed\xc8\xd9?'
p669
tp670
Rp671
tp672
a(S'flow distribution in manifolds'
p673
g2
(g6
S'c\x8bwA\x9a\xc6\xd9?'
p674
tp675
Rp676
tp677
a(S'hydrogeosphere'
p678
g2
(g6
S'U\xa6\x886/\xc0\xd9?'
p679
tp680
Rp681
tp682
a(S'primary flow element'
p683
g2
(g6
S'\xec\xdc6f\xa9\xaa\xd9?'
p684
tp685
Rp686
tp687
a(S'data flow diagram'
p688
g2
(g6
S'\xc7\xf6\x0f\x1dP\x9e\xd9?'
p689
tp690
Rp691
tp692
a(S'plug flow'
p693
g2
(g6
S')\xd2Qv5\x8f\xd9?'
p694
tp695
Rp696
tp697
a(S'meridional flow'
p698
g2
(g6
S' 5\xc5\xc8\x93\x8d\xd9?'
p699
tp700
Rp701
tp702
a(S'flow separation'
p703
g2
(g6
S'\xc4]a\x99\x1d\x82\xd9?'
p704
tp705
Rp706
tp707
a(S'spring web flow'
p708
g2
(g6
S'\x10\x9ba\x10\xb8\x80\xd9?'
p709
tp710
Rp711
tp712
a(S'flow (band)'
p713
g2
(g6
S'\xd1\x04Bv\xcaz\xd9?'
p714
tp715
Rp716
tp717
a(S'external flow'
p718
g2
(g6
S'gr\xc1\x1cq5\xd9?'
p719
tp720
Rp721
tp722
a(S'nimu maqu river'
p723
g2
(g6
S'\x96S\x1f\xc1o2\xd9?'
p724
tp725
Rp726
tp727
a(S'water flow test'
p728
g2
(g6
S' \xd2C\xdep)\xd9?'
p729
tp730
Rp731
tp732
a(S'automatic balancing valves'
p733
g2
(g6
S'\xa9\xa9\\\x04\xab\x1f\xd9?'
p734
tp735
Rp736
tp737
a(S'multiphase flow meter'
p738
g2
(g6
S'i!m\xbcw\x11\xd9?'
p739
tp740
Rp741
tp742
a(S'traffic flow'
p743
g2
(g6
S"z'>$\x14\x08\xd9?"
p744
tp745
Rp746
tp747
a(S'streamlines, streaklines, and pathlines'
p748
g2
(g6
S'm\xf6/\x1f\x13\xff\xd8?'
p749
tp750
Rp751
tp752
a(S'cash flow (disambiguation)'
p753
g2
(g6
S'\x98\xbd\x07\x01\xb8\xd8\xd8?'
p754
tp755
Rp756
tp757
a(S'reynolds number'
p758
g2
(g6
S'\x8a\x04\xc3\x16\x93\xad\xd8?'
p759
tp760
Rp761
tp762
a(S'flow control (data)'
p763
g2
(g6
S'l8\xb8\xe7\x10\x8e\xd8?'
p764
tp765
Rp766
tp767
a(S'pipe network analysis'
p768
g2
(g6
S'\xaf\x03\xb0\xd0\x81w\xd8?'
p769
tp770
Rp771
tp772
a(S'flow energy'
p773
g2
(g6
S'\xac\x91\xd8BVg\xd8?'
p774
tp775
Rp776
tp777
a(S'seeding (fluid dynamics)'
p778
g2
(g6
S'\x11\x94\xd4\xdc\xe9L\xd8?'
p779
tp780
Rp781
tp782
a(S'mean flow'
p783
g2
(g6
S'\xdd9\x0f\xb0\xc4?\xd8?'
p784
tp785
Rp786
tp787
a(S'energy flow'
p788
g2
(g6
S'%\xd3?7\xe0>\xd8?'
p789
tp790
Rp791
tp792
a(S'donghai island-class flow-on/flow-off ship'
p793
g2
(g6
S'\xc6\xc9\xb5Y6>\xd8?'
p794
tp795
Rp796
tp797
a(S'homentropic flow'
p798
g2
(g6
S'Qyz\x0c\xb3<\xd8?'
p799
tp800
Rp801
tp802
a(S'euler number (physics)'
p803
g2
(g6
S'\x08\x97\x0b\xc7c%\xd8?'
p804
tp805
Rp806
tp807
a(S'frank george woollard'
p808
g2
(g6
S'\xda,\xbc\xa9R!\xd8?'
p809
tp810
Rp811
tp812
a(S'constructal law'
p813
g2
(g6
S'6\\v\x12o\x19\xd8?'
p814
tp815
Rp816
tp817
a(S'tinau'
p818
g2
(g6
S'\x12\xca\xef/\xe4\x11\xd8?'
p819
tp820
Rp821
tp822
a(S'flow (software)'
p823
g2
(g6
S"'\x94@\xf0\x8f\x01\xd8?"
p824
tp825
Rp826
tp827
a(S'prandtl\xe2\x80\x93glauert transformation'
p828
g2
(g6
S'\xa3\xc7j\xf9f\x01\xd8?'
p829
tp830
Rp831
tp832
a(S'perennial stream'
p833
g2
(g6
S'R7\xa2\xc1\x94\xff\xd7?'
p834
tp835
Rp836
tp837
a(S'autoanalyzer'
p838
g2
(g6
S'\x97\xc7\xddrB\xf0\xd7?'
p839
tp840
Rp841
tp842
a(S'variable area meter'
p843
g2
(g6
S'\xb5|.S\xf0\xd6\xd7?'
p844
tp845
Rp846
tp847
a(S'information flow (disambiguation)'
p848
g2
(g6
S'\xab\xb0\xc0\xfa\xa0\xce\xd7?'
p849
tp850
Rp851
tp852
a(S'hydrodynamic focusing'
p853
g2
(g6
S'\x9f\xb42w\x85\xba\xd7?'
p854
tp855
Rp856
tp857
a(S'piscataquis river'
p858
g2
(g6
S'~\x8d\x8c\xe7r\xb5\xd7?'
p859
tp860
Rp861
tp862
a(S'nymboida power station'
p863
g2
(g6
S'\x07,9\xc64\xb3\xd7?'
p864
tp865
Rp866
tp867
a(S'functional flow block diagram'
p868
g2
(g6
S'\x13`\x90\xa94\xa4\xd7?'
p869
tp870
Rp871
tp872
a(S'jean l\xc3\xa9onard marie poiseuille'
p873
g2
(g6
S'\xb7\x8f\xca\xc4f\x9f\xd7?'
p874
tp875
Rp876
tp877
a(S'mass flow rate'
p878
g2
(g6
S'\xca\xcd\x9b\xae:\x93\xd7?'
p879
tp880
Rp881
tp882
a(S'flow process chart'
p883
g2
(g6
S'\x16\x12\x0b=\x0f\x8b\xd7?'
p884
tp885
Rp886
tp887
a(S'gradient network'
p888
g2
(g6
S'a:\x01\xdcf}\xd7?'
p889
tp890
Rp891
tp892
a(S'cyclonic flow meter'
p893
g2
(g6
S'\xaa7o\r\x11y\xd7?'
p894
tp895
Rp896
tp897
a(S'f-stops'
p898
g2
(g6
S'\x03\x99\x9b\xb0\xc4w\xd7?'
p899
tp900
Rp901
tp902
a(S'mass flow'
p903
g2
(g6
S'\xd7}!\xa8\x1b`\xd7?'
p904
tp905
Rp906
tp907
a(S'compressible duct flow'
p908
g2
(g6
S'/\xb8x9\x81N\xd7?'
p909
tp910
Rp911
tp912
a(S'environmental flow'
p913
g2
(g6
S'\xf7\xca\xb6_\x99J\xd7?'
p914
tp915
Rp916
tp917
a(S'rheoencephalography'
p918
g2
(g6
S'\x9f\\\x1b\xbc\xb5I\xd7?'
p919
tp920
Rp921
tp922
a(S'fast flow extinguishers'
p923
g2
(g6
S'\x80Nut\xf14\xd7?'
p924
tp925
Rp926
tp927
a(S'orifice'
p928
g2
(g6
S'@/"7^0\xd7?'
p929
tp930
Rp931
tp932
a(S'morris muskat'
p933
g2
(g6
S'\xaao\xc0\xd5\xe5/\xd7?'
p934
tp935
Rp936
tp937
a(S'flow diverter'
p938
g2
(g6
S'i\xd2\x93\xd2E/\xd7?'
p939
tp940
Rp941
tp942
a(S'free cash flow'
p943
g2
(g6
S'\xc6\xa5\xf0\xf2W\x18\xd7?'
p944
tp945
Rp946
tp947
a(S'bedform'
p948
g2
(g6
S'\x8ch5v|\x13\xd7?'
p949
tp950
Rp951
tp952
a(S'calabi flow'
p953
g2
(g6
S'G\xd1Lu\xd4\x10\xd7?'
p954
tp955
Rp956
tp957
a(S'ebb and flow first nation'
p958
g2
(g6
S'|[V\x82=\x0e\xd7?'
p959
tp960
Rp961
tp962
a(S'magnetic flow meter'
p963
g2
(g6
S'\x8f\x00*\xe10\x06\xd7?'
p964
tp965
Rp966
tp967
a(S'laminar flow reactor'
p968
g2
(g6
S'$V"@\x8d\x02\xd7?'
p969
tp970
Rp971
tp972
a(S'axial fan design'
p973
g2
(g6
S'\xdcbR5i\xed\xd6?'
p974
tp975
Rp976
tp977
a(S'asymmetric flow field flow fractionation'
p978
g2
(g6
S'h\xb3\x97gS\xdb\xd6?'
p979
tp980
Rp981
tp982
a(S'circular flow of income'
p983
g2
(g6
S'\xebe\xcd\xed\xac\xd9\xd6?'
p984
tp985
Rp986
tp987
a(S'flow banding'
p988
g2
(g6
S'm&\xd5y\xea\xd2\xd6?'
p989
tp990
Rp991
tp992
a(S'slip ratio (gas\xe2\x80\x93liquid flow)'
p993
g2
(g6
S'\x19\xacC\xfc\x04\xc3\xd6?'
p994
tp995
Rp996
tp997
a(S'flow cytometry'
p998
g2
(g6
S'U4X-Z\xb9\xd6?'
p999
tp1000
Rp1001
tp1002
a(S'axial-flow pump'
p1003
g2
(g6
S'T1G{\x11\xa8\xd6?'
p1004
tp1005
Rp1006
tp1007
a(S'calibrated orifice'
p1008
g2
(g6
S'!\xad+Z\x9b\xa5\xd6?'
p1009
tp1010
Rp1011
tp1012
a(S'couette flow'
p1013
g2
(g6
S'>(\xb1=\x98\xa5\xd6?'
p1014
tp1015
Rp1016
tp1017
a(S'arthur kantrowitz'
p1018
g2
(g6
S'\xa6\xf0\xa7\xbe\x81\x95\xd6?'
p1019
tp1020
Rp1021
tp1022
a(S'hagen\xe2\x80\x93poiseuille equation'
p1023
g2
(g6
S'\x17\x99\xc1\x1b\\p\xd6?'
p1024
tp1025
Rp1026
tp1027
a(S'standard step method'
p1028
g2
(g6
S'\x0e-C\xf7\xd2j\xd6?'
p1029
tp1030
Rp1031
tp1032
a(S"darcy's law"
p1033
g2
(g6
S'N\xa0*\xa1Oh\xd6?'
p1034
tp1035
Rp1036
tp1037
a(S'wet gas'
p1038
g2
(g6
S'\x1f~\xdf\xac![\xd6?'
p1039
tp1040
Rp1041
tp1042
a(S'geonets'
p1043
g2
(g6
S'\xadGA\xfc\x9aJ\xd6?'
p1044
tp1045
Rp1046
tp1047
a(S'flow cups'
p1048
g2
(g6
S'\xf44\xfc\xd0\x0e>\xd6?'
p1049
tp1050
Rp1051
tp1052
a(S'information flow diagram'
p1053
g2
(g6
S'\xe7\x84\xc7Y\x04<\xd6?'
p1054
tp1055
Rp1056
tp1057
a(S'dear mama (b flow song)'
p1058
g2
(g6
S'\xaaI\x1b\xea$;\xd6?'
p1059
tp1060
Rp1061
tp1062
a(S'intra-flow interference'
p1063
g2
(g6
S'\x93)Y\xc7\x9a3\xd6?'
p1064
tp1065
Rp1066
tp1067
a(S'palmer-bowlus flume'
p1068
g2
(g6
S'\x85\xe8\x03\xb5Q2\xd6?'
p1069
tp1070
Rp1071
tp1072
a(S'parallel-plate flow chamber'
p1073
g2
(g6
S'\x1f\xcc}\x08\xbd1\xd6?'
p1074
tp1075
Rp1076
tp1077
a(S'price/cash flow ratio'
p1078
g2
(g6
S'4u\x8f\nG/\xd6?'
p1079
tp1080
Rp1081
tp1082
a(S'freaky flow'
p1083
g2
(g6
S'bGna\xb6"\xd6?'
p1084
tp1085
Rp1086
tp1087
a(S'bond graph'
p1088
g2
(g6
S'.\x17\x03%\xdb \xd6?'
p1089
tp1090
Rp1091
tp1092
a(S'software flow control'
p1093
g2
(g6
S'B\xfd\xfb7i\x17\xd6?'
p1094
tp1095
Rp1096
tp1097
a(S'flow through cascades'
p1098
g2
(g6
S'z\xf5}\x19\xe4\x12\xd6?'
p1099
tp1100
Rp1101
tp1102
a(S'skin friction drag'
p1103
g2
(g6
S'\xe6JN\x94%\x05\xd6?'
p1104
tp1105
Rp1106
tp1107
a(S'lift (force)'
p1108
g2
(g6
S'\xed\xdb\x19\x9b\xa0\x03\xd6?'
p1109
tp1110
Rp1111
tp1112
a(S'texture advection'
p1113
g2
(g6
S'\xa8E\xc2\xf6\x90\xfe\xd5?'
p1114
tp1115
Rp1116
tp1117
a(S'turbulence'
p1118
g2
(g6
S'\x8fhZ\xbf\x1a\xfe\xd5?'
p1119
tp1120
Rp1121
tp1122
a(S'mean curvature flow'
p1123
g2
(g6
S'\xd9zj-e\xf1\xd5?'
p1124
tp1125
Rp1126
tp1127
a(S'transport network'
p1128
g2
(g6
S'b8\xd6~A\xf1\xd5?'
p1129
tp1130
Rp1131
tp1132
a(S'heated humidified high-flow therapy'
p1133
g2
(g6
S'\xf1\x0e\x9e\xea\xb1\xec\xd5?'
p1134
tp1135
Rp1136
tp1137
a(S'urine flow rate'
p1138
g2
(g6
S'\xbe\x92\xe1\x01)\xe8\xd5?'
p1139
tp1140
Rp1141
tp1142
a(S'noncommutative signal-flow graph'
p1143
g2
(g6
S'#\xaa\x06\xb3H\xe3\xd5?'
p1144
tp1145
Rp1146
tp1147
a(S'netflow'
p1148
g2
(g6
S'\x82;\xfc6\xc1\xe2\xd5?'
p1149
tp1150
Rp1151
tp1152
a(S'geometric networks'
p1153
g2
(g6
S'\xe4\xb4\xa961\xe1\xd5?'
p1154
tp1155
Rp1156
tp1157
a(S'balanced flow'
p1158
g2
(g6
S'\xb2\xd0\xb2\x9e\xea\xe0\xd5?'
p1159
tp1160
Rp1161
tp1162
a(S'neun\xc3\xa9'
p1163
g2
(g6
S"\xef\x01'\xaf\x15\xdc\xd5?"
p1164
tp1165
Rp1166
tp1167
a(S'afon clywedog'
p1168
g2
(g6
S'%,\xf7\x10\xf5\xd7\xd5?'
p1169
tp1170
Rp1171
tp1172
a(S'shock (fluid dynamics)'
p1173
g2
(g6
S'\x7f?\x82\xd0[\xd5\xd5?'
p1174
tp1175
Rp1176
tp1177
a(S'groundwater flow equation'
p1178
g2
(g6
S'%\xa2\xde\xf4\xd4\xd3\xd5?'
p1179
tp1180
Rp1181
tp1182
a(S'well test (oil and gas)'
p1183
g2
(g6
S'"\x92@\x07\xab\xd2\xd5?'
p1184
tp1185
Rp1186
tp1187
a(S'gas networks simulation'
p1188
g2
(g6
S'\xac\xa1G\xcd[\xcc\xd5?'
p1189
tp1190
Rp1191
tp1192
a(S'bottleneck (network)'
p1193
g2
(g6
S'\x08\x8d:\xc8s\xcb\xd5?'
p1194
tp1195
Rp1196
tp1197
a(S'entrance length'
p1198
g2
(g6
S'\xa9*\x0bI\x0f\xc9\xd5?'
p1199
tp1200
Rp1201
tp1202
a(S'momentum-depth relationship in a rectangular channel'
p1203
g2
(g6
S'j@\x91nw\xaf\xd5?'
p1204
tp1205
Rp1206
tp1207
a(S'respirometry'
p1208
g2
(g6
S'\x99on\xc0,\xab\xd5?'
p1209
tp1210
Rp1211
tp1212
a(S'vorticity'
p1213
g2
(g6
S'\xef!\xc6\xd12\xa1\xd5?'
p1214
tp1215
Rp1216
tp1217
a(S'stefan flow'
p1218
g2
(g6
S'S\xfc)h\x03\x92\xd5?'
p1219
tp1220
Rp1221
tp1222
a(S'axstream'
p1223
g2
(g6
S'\x10\x85\xc0\x82\x91\x87\xd5?'
p1224
tp1225
Rp1226
tp1227
a(S'turbomachinery'
p1228
g2
(g6
S'\xc8\x02\x7f\x1c\xf5\\\xd5?'
p1229
tp1230
Rp1231
tp1232
a(S'stokes flow'
p1233
g2
(g6
S'\xcc\x07\xf6\xac\xd5K\xd5?'
p1234
tp1235
Rp1236
tp1237
a(S'flow in a curb/gutter system'
p1238
g2
(g6
S'\x9a\xb5\x0e8KK\xd5?'
p1239
tp1240
Rp1241
tp1242
a(S'medical gas therapy'
p1243
g2
(g6
S'k\xa6\x1bN8D\xd5?'
p1244
tp1245
Rp1246
tp1247
a(S'raymond effect'
p1248
g2
(g6
S'\xcc7,\xc5\x90$\xd5?'
p1249
tp1250
Rp1251
tp1252
a(S'spirometry'
p1253
g2
(g6
S'bc\x94U\xd0\t\xd5?'
p1254
tp1255
Rp1256
tp1257
a(S'scapa flow (horse)'
p1258
g2
(g6
S'\x80\xbd8N\xe8\xf7\xd4?'
p1259
tp1260
Rp1261
tp1262
a(S'the flow of things'
p1263
g2
(g6
S'\xfek\xa1\xa6\x86\xe9\xd4?'
p1264
tp1265
Rp1266
tp1267
a(S'wash load'
p1268
g2
(g6
S'}4\xea\xcb\xb3\xe0\xd4?'
p1269
tp1270
Rp1271
tp1272
a(S'operating cash flow'
p1273
g2
(g6
S'a\x89\x9a1\xce\xdf\xd4?'
p1274
tp1275
Rp1276
tp1277
a(S'oil and gas industry metering and control system'
p1278
g2
(g6
S'K\x84\x1a$\x1e\xda\xd4?'
p1279
tp1280
Rp1281
tp1282
a(S'cash flow (cnbc asia)'
p1283
g2
(g6
S"e'\xd4\xb9\xcc\xd0\xd4?"
p1284
tp1285
Rp1286
tp1287
a(S'two-step flow of communication'
p1288
g2
(g6
S'(\xe2\xaa\x13\xe6\xc4\xd4?'
p1289
tp1290
Rp1291
tp1292
a(S'fluid components international'
p1293
g2
(g6
S'\x1a\xc9\x8c\x8eA\xc3\xd4?'
p1294
tp1295
Rp1296
tp1297
a(S'bay of bengal cooperative air traffic flow management system'
p1298
g2
(g6
S'w\xf6\xa7q\x83\xbf\xd4?'
p1299
tp1300
Rp1301
tp1302
a(S'feflow'
p1303
g2
(g6
S'\x8e\xb4\x01\xe7\x13\xbc\xd4?'
p1304
tp1305
Rp1306
tp1307
a(S'ophidian 2350'
p1308
g2
(g6
S'\r\xad\x13\x04\x83\xb6\xd4?'
p1309
tp1310
Rp1311
tp1312
a(S'differences between venturi meters and orifice meters'
p1313
g2
(g6
S'\\\xa2k\x8f\xa7\xb4\xd4?'
p1314
tp1315
Rp1316
tp1317
a(S'debt cash flow'
p1318
g2
(g6
S'\xf5-.^v\xac\xd4?'
p1319
tp1320
Rp1321
tp1322
a(S"rayleigh's equation (fluid dynamics)"
p1323
g2
(g6
S'I\xff\xf3o/\xa9\xd4?'
p1324
tp1325
Rp1326
tp1327
a(S'mike 21c'
p1328
g2
(g6
S'\x9e\xd83P\xe9\xa8\xd4?'
p1329
tp1330
Rp1331
tp1332
a(S'geostrophic current'
p1333
g2
(g6
S'\xc5\x96\xd7\x00\xc7\xa6\xd4?'
p1334
tp1335
Rp1336
tp1337
a(S'flow process'
p1338
g2
(g6
S'@\x11\xf9\x05\xad\x9a\xd4?'
p1339
tp1340
Rp1341
tp1342
a(S'mass-averaged velocity'
p1343
g2
(g6
S'g\xc7_\xab\xbb\x91\xd4?'
p1344
tp1345
Rp1346
tp1347
a(S'analysis of flows'
p1348
g2
(g6
S't<\xc7AH\x8c\xd4?'
p1349
tp1350
Rp1351
tp1352
a(S'vector flow'
p1353
g2
(g6
S'\x95y\xf1QC\x8a\xd4?'
p1354
tp1355
Rp1356
tp1357
a(S'eartop technologies'
p1358
g2
(g6
S'\x91\r\xf5\x80\x07\x86\xd4?'
p1359
tp1360
Rp1361
tp1362
a(S'manning formula'
p1363
g2
(g6
S'\x1c\xd0>\xc8!\x80\xd4?'
p1364
tp1365
Rp1366
tp1367
a(S'colorado engineering experiment station, inc.'
p1368
g2
(g6
S'\x04-\x01f\x17}\xd4?'
p1369
tp1370
Rp1371
tp1372
a(S'pahoa, hawaii'
p1373
g2
(g6
S'7\xf9&*\x0c{\xd4?'
p1374
tp1375
Rp1376
tp1377
a(S'graph cuts in computer vision'
p1378
g2
(g6
S'R\xe7\x8c\x10@t\xd4?'
p1379
tp1380
Rp1381
tp1382
a(S'lost jim lava flow'
p1383
g2
(g6
S'\xeb\x18\xd6\xe8\x1es\xd4?'
p1384
tp1385
Rp1386
tp1387
a(S'structured data analysis (systems analysis)'
p1388
g2
(g6
S'\x97\x1a+\xcc\x01k\xd4?'
p1389
tp1390
Rp1391
tp1392
a(S'hagen\xe2\x80\x93poiseuille flow from the navier\xe2\x80\x93stokes equations'
p1393
g2
(g6
S'\xb0\xab\xb0\xde2j\xd4?'
p1394
tp1395
Rp1396
tp1397
a(S'power system simulation'
p1398
g2
(g6
S'$\xdb94K\\\xd4?'
p1399
tp1400
Rp1401
tp1402
a(S'yelena lyubimova'
p1403
g2
(g6
S'\xf3\x8c\x8f\xa7\x9aR\xd4?'
p1404
tp1405
Rp1406
tp1407
a(S'shell balance'
p1408
g2
(g6
S'\xb3e\x96.\xfdO\xd4?'
p1409
tp1410
Rp1411
tp1412
a(S'borda\xe2\x80\x93carnot equation'
p1413
g2
(g6
S'\xf2jeu{N\xd4?'
p1414
tp1415
Rp1416
tp1417
a(S'laminar-turbulent transition'
p1418
g2
(g6
S'\x89\x10\x80\x01\x0eM\xd4?'
p1419
tp1420
Rp1421
tp1422
a(S'orr\xe2\x80\x93sommerfeld equation'
p1423
g2
(g6
S'\xae\xbe\x0f\x15\xd9L\xd4?'
p1424
tp1425
Rp1426
tp1427
a(S'darcy\xe2\x80\x93weisbach equation'
p1428
g2
(g6
S'\xc0\x91*H\x07D\xd4?'
p1429
tp1430
Rp1431
tp1432
a(S'mopipi'
p1433
g2
(g6
S"'P\x82\xc3\xa18\xd4?"
p1434
tp1435
Rp1436
tp1437
a(S'flow battery'
p1438
g2
(g6
S'\xdc\xdb-\xca\xc43\xd4?'
p1439
tp1440
Rp1441
tp1442
a(S'leapfrog filter'
p1443
g2
(g6
S'\xef\xc0\xc1\xcc\xb2)\xd4?'
p1444
tp1445
Rp1446
tp1447
a(S'flow (video game)'
p1448
g2
(g6
S'oq\xf0\xebg%\xd4?'
p1449
tp1450
Rp1451
tp1452
a(S'kendall river'
p1453
g2
(g6
S'\x94j\xa4\xa2q"\xd4?'
p1454
tp1455
Rp1456
tp1457
a(S'pulsatile flow'
p1458
g2
(g6
S'\xa6\xa5\xd1\xb4 \x1a\xd4?'
p1459
tp1460
Rp1461
tp1462
a(S'modflow'
p1463
g2
(g6
S'q\xd4aV(\x19\xd4?'
p1464
tp1465
Rp1466
tp1467
a(S'scaling laws of transition'
p1468
g2
(g6
S'\xb0!\x838\xb8\xff\xd3?'
p1469
tp1470
Rp1471
tp1472
a(S'dimensionless specific energy diagrams for open channel flow'
p1473
g2
(g6
S'\xe2\xdd"\xc6\xeb\xfc\xd3?'
p1474
tp1475
Rp1476
tp1477
a(S'cash flow sign convention'
p1478
g2
(g6
S'\xd1W\x1cNR\xe2\xd3?'
p1479
tp1480
Rp1481
tp1482
a(S'airwatt'
p1483
g2
(g6
S'\x06\xd3\n\xeb\xf3\xe1\xd3?'
p1484
tp1485
Rp1486
tp1487
a(S'stokes number'
p1488
g2
(g6
S'^\xce(\x0e]\xd9\xd3?'
p1489
tp1490
Rp1491
tp1492
a(S'stoplogs'
p1493
g2
(g6
S'\xf6\xcc\xfd\xd9(\xd8\xd3?'
p1494
tp1495
Rp1496
tp1497
a(S'image-based flow visualization'
p1498
g2
(g6
S'\xca\x8b_h\x9d\xd7\xd3?'
p1499
tp1500
Rp1501
tp1502
a(S'sail switch'
p1503
g2
(g6
S'\x0eu\x8f\x88\x1c\xd0\xd3?'
p1504
tp1505
Rp1506
tp1507
a(S'orifice plate'
p1508
g2
(g6
S'\x80\x1b\x12\x8d>\xcd\xd3?'
p1509
tp1510
Rp1511
tp1512
a.