(lp0
(S'formal grammar'
p1
cnumpy.core.multiarray
scalar
p2
(cnumpy
dtype
p3
(S'f8'
p4
I0
I1
tp5
Rp6
(I3
S'<'
p7
NNNI-1
I-1
I0
tp8
bS'\x04\x00\x00\x00\x00\x00\xf0?'
p9
tp10
Rp11
tp12
a(S'context-free grammar'
p13
g2
(g6
S'nJ\xc1(3\x93\xea?'
p14
tp15
Rp16
tp17
a(S'chomsky hierarchy'
p18
g2
(g6
S'\x01\xabp\xe6"\xad\xe7?'
p19
tp20
Rp21
tp22
a(S'controlled grammar'
p23
g2
(g6
S'\xaa\x916\x9b\x05K\xe7?'
p24
tp25
Rp26
tp27
a(S'terminal and nonterminal symbols'
p28
g2
(g6
S'\n\x80`\xe6|5\xe5?'
p29
tp30
Rp31
tp32
a(S'regular grammar'
p33
g2
(g6
S'\xce]{\xb3\xa9\xf4\xe4?'
p34
tp35
Rp36
tp37
a(S'categorial grammar'
p38
g2
(g6
S'\xc6/\xdf8Q\xe8\xe4?'
p39
tp40
Rp41
tp42
a(S'two-level grammar'
p43
g2
(g6
S'\xc2\x00\xdaB\xa4Z\xe4?'
p44
tp45
Rp46
tp47
a(S'production (computer science)'
p48
g2
(g6
S's\x1f\xcd\xb3lD\xe4?'
p49
tp50
Rp51
tp52
a(S'noncontracting grammar'
p53
g2
(g6
S'o0\xdc\x9f\x9c=\xe4?'
p54
tp55
Rp56
tp57
a(S'conjunctive grammar'
p58
g2
(g6
S'\xa1\xa49\xf3"\xfb\xe3?'
p59
tp60
Rp61
tp62
a(S'context-sensitive grammar'
p63
g2
(g6
S'\x14]\xab\xa27\xe7\xe3?'
p64
tp65
Rp66
tp67
a(S'head grammar'
p68
g2
(g6
S'p\xad8\xf9\x82\xcf\xe3?'
p69
tp70
Rp71
tp72
a(S'mildly context-sensitive grammar formalism'
p73
g2
(g6
S'\xc0JSa\xd5\xca\xe3?'
p74
tp75
Rp76
tp77
a(S'string grammar'
p78
g2
(g6
S'\xb6\xe5\xa7\x16\xe4L\xe3?'
p79
tp80
Rp81
tp82
a(S'ambiguous grammar'
p83
g2
(g6
S'\xa2\xca\xbb*"\x19\xe3?'
p84
tp85
Rp86
tp87
a(S'boolean grammar'
p88
g2
(g6
S'K\x8f!?a\x0f\xe3?'
p89
tp90
Rp91
tp92
a(S'history of english grammars'
p93
g2
(g6
S'\xfe^\xfd\x05\xe7\n\xe3?'
p94
tp95
Rp96
tp97
a(S'grammar'
p98
g2
(g6
S'\xf1vf.\x9e\xee\xe2?'
p99
tp100
Rp101
tp102
a(S'regulated rewriting'
p103
g2
(g6
S'\xce\x0f\xdd\x08/\xee\xe2?'
p104
tp105
Rp106
tp107
a(S'tree-adjoining grammar'
p108
g2
(g6
S'\x94BQ\x13\x83\xe2\xe2?'
p109
tp110
Rp111
tp112
a(S'generative grammar'
p113
g2
(g6
S'\x90.\xf6\x94\xb8\xd4\xe2?'
p114
tp115
Rp116
tp117
a(S'grammar systems theory'
p118
g2
(g6
S':\xc5\x19\x85\xe3\xb1\xe2?'
p119
tp120
Rp121
tp122
a(S'prefix grammar'
p123
g2
(g6
S'vB\xc1\xf3AJ\xe2?'
p124
tp125
Rp126
tp127
a(S'greibach normal form'
p128
g2
(g6
S'\xa6U\x1b\xb0`B\xe2?'
p129
tp130
Rp131
tp132
a(S'nooj'
p133
g2
(g6
S'\x16\xc62\x12\xa4\x8c\xe1?'
p134
tp135
Rp136
tp137
a(S'adaptive grammar'
p138
g2
(g6
S'.\x17\xb8[\xbc|\xe1?'
p139
tp140
Rp141
tp142
a(S'terminal yield'
p143
g2
(g6
S'F\xdb\xbbc\x08.\xe1?'
p144
tp145
Rp146
tp147
a(S'useless rules'
p148
g2
(g6
S'\xfak\xe9>k\x12\xe1?'
p149
tp150
Rp151
tp152
a(S'extended affix grammar'
p153
g2
(g6
S'LGh\xda0\xf9\xe0?'
p154
tp155
Rp156
tp157
a(S'generalized phrase structure grammar'
p158
g2
(g6
S'\r\xfb\x14\xe5%\xe7\xe0?'
p159
tp160
Rp161
tp162
a(S'indexed grammar'
p163
g2
(g6
S'\x01\x11\xbd\xf3\x9e\xdd\xe0?'
p164
tp165
Rp166
tp167
a(S'generalized context-free grammar'
p168
g2
(g6
S'&7\x11}\xa9\xc7\xe0?'
p169
tp170
Rp171
tp172
a(S'grammar induction'
p173
g2
(g6
S'\xce\x9b:\xc9*\xa6\xe0?'
p174
tp175
Rp176
tp177
a(S'growing context-sensitive grammar'
p178
g2
(g6
S'\xde5\xeck\xde\x98\xe0?'
p179
tp180
Rp181
tp182
a(S'integrational theory of grammars'
p183
g2
(g6
S'\xc9\xdc\xa8\x0c\\\x80\xe0?'
p184
tp185
Rp186
tp187
a(S'van wijngaarden grammar'
p188
g2
(g6
S"\x1a'\x9b\xae\x9dx\xe0?"
p189
tp190
Rp191
tp192
a(S'recursive grammar'
p193
g2
(g6
S'\x05\x1f\xa3\xa0\xdel\xe0?'
p194
tp195
Rp196
tp197
a(S'chomsky normal form'
p198
g2
(g6
S'\x99\xac\xd8\x1a\x07c\xe0?'
p199
tp200
Rp201
tp202
a(S'unrestricted grammar'
p203
g2
(g6
S'\xc4\xf4\x8f\xae\xf2\xdd\xdf?'
p204
tp205
Rp206
tp207
a(S'grammar explorer'
p208
g2
(g6
S'r\x0b}5\xa2\xc4\xdf?'
p209
tp210
Rp211
tp212
a(S'constraint-based grammar'
p213
g2
(g6
S'9\x84\x11\x9d\x03\xac\xdf?'
p214
tp215
Rp216
tp217
a(S'formal language'
p218
g2
(g6
S'\xdfg\xd9\xb3\x8ay\xdf?'
p219
tp220
Rp221
tp222
a(S'context-free language'
p223
g2
(g6
S'\x1f\x97\xf7\xa4>&\xdf?'
p224
tp225
Rp226
tp227
a(S'phrase structure grammar'
p228
g2
(g6
S'\xe12\xc4\x8b\xb9\x1b\xdf?'
p229
tp230
Rp231
tp232
a(S'grammar (disambiguation)'
p233
g2
(g6
S'\x82v\xad\x0bn\x15\xdf?'
p234
tp235
Rp236
tp237
a(S'head-driven phrase structure grammar'
p238
g2
(g6
S'\xa2d\x14w\x0e3\xde?'
p239
tp240
Rp241
tp242
a(S'cyk algorithm'
p243
g2
(g6
S'\x07\xf4\xe1\x16\x15\x1e\xde?'
p244
tp245
Rp246
tp247
a(S'shape grammar'
p248
g2
(g6
S'\xa0\x7f7A\xac\x1c\xde?'
p249
tp250
Rp251
tp252
a(S'syntax (programming languages)'
p253
g2
(g6
S'\xb2V\x14\x8b\xa3\x03\xde?'
p254
tp255
Rp256
tp257
a(S'top-down parsing language'
p258
g2
(g6
S'\x83\xf8\xf9^5\xef\xdd?'
p259
tp260
Rp261
tp262
a(S'll grammar'
p263
g2
(g6
S'J\x90\xcd\x04-\xb7\xdd?'
p264
tp265
Rp266
tp267
a(S'a comprehensive grammar of the english language'
p268
g2
(g6
S'\x18x\x84\x1b\xf9\x89\xdd?'
p269
tp270
Rp271
tp272
a(S'l-system'
p273
g2
(g6
S'\x06\xb9\xe5\x95bc\xdd?'
p274
tp275
Rp276
tp277
a(S'matrix grammar'
p278
g2
(g6
S'<[/\x0fRF\xdd?'
p279
tp280
Rp281
tp282
a(S'linear grammar'
p283
g2
(g6
S'\xa0\xf4\x8d]\x96\x01\xdd?'
p284
tp285
Rp286
tp287
a(S"greibach's theorem"
p288
g2
(g6
S'\xa4\xd5\xd0\xbb\xb3\xdb\xdc?'
p289
tp290
Rp291
tp292
a(S'equivalence (formal languages)'
p293
g2
(g6
S'M \xa2\xd1V\xce\xdc?'
p294
tp295
Rp296
tp297
a(S'universal grammar'
p298
g2
(g6
S'\xe7\x89\xcf\xc3p\x9b\xdc?'
p299
tp300
Rp301
tp302
a(S'straight-line grammar'
p303
g2
(g6
S'\x97\x0el9-P\xdc?'
p304
tp305
Rp306
tp307
a(S'smallest grammar problem'
p308
g2
(g6
S'\x92\xc8\xa9\xb6\xf7\xa3\xdb?'
p309
tp310
Rp311
tp312
a(S'kuroda normal form'
p313
g2
(g6
S"\x1f\xa41'Q\x9a\xdb?"
p314
tp315
Rp316
tp317
a(S'scannerless parsing'
p318
g2
(g6
S'\xf4\xd6\xbb\xbet\x92\xdb?'
p319
tp320
Rp321
tp322
a(S'deterministic context-free grammar'
p323
g2
(g6
S'3\xb1y\x1dx\x88\xdb?'
p324
tp325
Rp326
tp327
a(S'medslt'
p328
g2
(g6
S'n\xe9\xb8s\x10k\xdb?'
p329
tp330
Rp331
tp332
a(S'list of english and welsh endowed schools (19th century)'
p333
g2
(g6
S'\xa5\xb0\r\xf5m<\xdb?'
p334
tp335
Rp336
tp337
a(S'hypergraph grammar'
p338
g2
(g6
S'\xd1\xecYF\x93\x1c\xdb?'
p339
tp340
Rp341
tp342
a(S'attribute grammar'
p343
g2
(g6
S'\xcf\xe8\x98b\x89\xb7\xda?'
p344
tp345
Rp346
tp347
a(S'definite clause grammar'
p348
g2
(g6
S'\xff\xb3\t\xe3\x8f\xb6\xda?'
p349
tp350
Rp351
tp352
a(S'transformational grammar'
p353
g2
(g6
S'v6\xef=?\x95\xda?'
p354
tp355
Rp356
tp357
a(S'list of formal language and literal string topics'
p358
g2
(g6
S'X\xce\xa6NQ\x82\xda?'
p359
tp360
Rp361
tp362
a(S'syntax'
p363
g2
(g6
S'6\x8e\x1a\xa2\x85P\xda?'
p364
tp365
Rp366
tp367
a(S'regular tree grammar'
p368
g2
(g6
S'\xb0\x08\xa0\xef\xca\x1f\xda?'
p369
tp370
Rp371
tp372
a(S'traditional grammar'
p373
g2
(g6
S'\x87^\xd5\x89\xf9\xf6\xd9?'
p374
tp375
Rp376
tp377
a(S'gold (parser)'
p378
g2
(g6
S'\x81\xcc#\x94\x9b\xee\xd9?'
p379
tp380
Rp381
tp382
a(S'interactional linguistics'
p383
g2
(g6
S'\xf6\x9c\xeby\x8c\xed\xd9?'
p384
tp385
Rp386
tp387
a(S'construction grammar'
p388
g2
(g6
S'\xef\xa5\xa8\xacv\xe2\xd9?'
p389
tp390
Rp391
tp392
a(S'ometa'
p393
g2
(g6
S'c\xb2\x97L\x10\xd5\xd9?'
p394
tp395
Rp396
tp397
a(S'embedded pushdown automaton'
p398
g2
(g6
S')O\x04d\xc2\xa1\xd9?'
p399
tp400
Rp401
tp402
a(S'interlingua: a grammar of the international language'
p403
g2
(g6
S'\xfe\x0b_E\x13R\xd9?'
p404
tp405
Rp406
tp407
a(S'stochastic context-free grammar'
p408
g2
(g6
S'\xa1\xda\xceH.L\xd9?'
p409
tp410
Rp411
tp412
a(S'jsgf'
p413
g2
(g6
S'\x9b\xe7\xb1W\x88\x08\xd9?'
p414
tp415
Rp416
tp417
a(S'sequitur algorithm'
p418
g2
(g6
S'y\x0e\xa9\xd6\xfc\x01\xd9?'
p419
tp420
Rp421
tp422
a(S's-attributed grammar'
p423
g2
(g6
S'B\x1d\xa8cS\xfc\xd8?'
p424
tp425
Rp426
tp427
a(S'eclr-attributed grammar'
p428
g2
(g6
S'\x93\x10\x9d*\xe1\x9e\xd8?'
p429
tp430
Rp431
tp432
a(S'lkb'
p433
g2
(g6
S'\xf9\xbe7\xe0\x95\x9d\xd8?'
p434
tp435
Rp436
tp437
a(S'pedagogical grammar'
p438
g2
(g6
S'\xcbz[\xc0\xd5\x85\xd8?'
p439
tp440
Rp441
tp442
a(S'indexed language'
p443
g2
(g6
S'\xa1\xdd6\x13Fd\xd8?'
p444
tp445
Rp446
tp447
a(S'list of the oldest schools in the united kingdom'
p448
g2
(g6
S'cy.\xc2X[\xd8?'
p449
tp450
Rp451
tp452
a(S'parsing expression grammar'
p453
g2
(g6
S'\xc4\x84\xa8\xc3@K\xd8?'
p454
tp455
Rp456
tp457
a(S'top-down parsing'
p458
g2
(g6
S'\x97}\x89\xd7\x82\x02\xd8?'
p459
tp460
Rp461
tp462
a(S'poverty of the stimulus'
p463
g2
(g6
S'\xdd\xa1\xd5\xe7@\xfe\xd7?'
p464
tp465
Rp466
tp467
a(S'symbol (formal)'
p468
g2
(g6
S'\xd1\xc2\xd4\xe6\x17\xf9\xd7?'
p469
tp470
Rp471
tp472
a(S'formal system'
p473
g2
(g6
S'\xc9\x12\xa6\xc8}\xea\xd7?'
p474
tp475
Rp476
tp477
a(S'bgs'
p478
g2
(g6
S'\xb0\xad\xe17\xec\xe5\xd7?'
p479
tp480
Rp481
tp482
a(S'lr-attributed grammar'
p483
g2
(g6
S'\x99\xb0\x96\xf5m\xde\xd7?'
p484
tp485
Rp486
tp487
a(S'grammar schools debate'
p488
g2
(g6
S'a0\x84\xfdt\xb7\xd7?'
p489
tp490
Rp491
tp492
a(S'global index grammar'
p493
g2
(g6
S'\x07B\x9c\xeaH\x9a\xd7?'
p494
tp495
Rp496
tp497
a(S'pregroup grammar'
p498
g2
(g6
S'\xab\xfc\x9c<q\x91\xd7?'
p499
tp500
Rp501
tp502
a(S'affix grammar over a finite lattice'
p503
g2
(g6
S'\xdcV\xd1,\xc0?\xd7?'
p504
tp505
Rp506
tp507
a(S'chomsky\xe2\x80\x93sch\xc3\xbctzenberger enumeration theorem'
p508
g2
(g6
S'\xba\xea\xabX\xea=\xd7?'
p509
tp510
Rp511
tp512
a(S'british schools chess championship'
p513
g2
(g6
S'\xe9S\xfc\xf8`;\xd7?'
p514
tp515
Rp516
tp517
a(S'parsing'
p518
g2
(g6
S'Lx(\xd5\xaa7\xd7?'
p519
tp520
Rp521
tp522
a(S'cognitive approaches to grammar'
p523
g2
(g6
S'\x8fE\xc4F\xa2\x0f\xd7?'
p524
tp525
Rp526
tp527
a(S'transformational syntax'
p528
g2
(g6
S'Q@E\x17A\xfc\xd6?'
p529
tp530
Rp531
tp532
a(S'affix grammar'
p533
g2
(g6
S'\x18\xcc\xa1S\xd9\xf2\xd6?'
p534
tp535
Rp536
tp537
a(S'a grammar of the bengal language'
p538
g2
(g6
S'\xc6\xa0\xe1M\x17\xed\xd6?'
p539
tp540
Rp541
tp542
a(S'syntax-directed translation'
p543
g2
(g6
S'\x8d\xb0\xc2\xf9a\xdb\xd6?'
p544
tp545
Rp546
tp547
a(S'grammar school'
p548
g2
(g6
S'\x8cO\x7fu\xeb\xc9\xd6?'
p549
tp550
Rp551
tp552
a(S'expressive power (computer science)'
p553
g2
(g6
S'\x06\xe6\x0f\xbd\xec\xc3\xd6?'
p554
tp555
Rp556
tp557
a(S'range concatenation grammars'
p558
g2
(g6
S'\x816\xdb f\xa7\xd6?'
p559
tp560
Rp561
tp562
a(S'block structure'
p563
g2
(g6
S'\x0e\x1coJ\t`\xd6?'
p564
tp565
Rp566
tp567
a(S'relexification'
p568
g2
(g6
S')h\xefj\xf7N\xd6?'
p569
tp570
Rp571
tp572
a(S'junction grammar'
p573
g2
(g6
S'\x8d\xf8\x16\xad\x84&\xd6?'
p574
tp575
Rp576
tp577
a(S'great public schools association of queensland inc.'
p578
g2
(g6
S'\x99\xa7wpN$\xd6?'
p579
tp580
Rp581
tp582
a(S'id/lp grammar'
p583
g2
(g6
S'\xecf\xd7)\xc7\x19\xd6?'
p584
tp585
Rp586
tp587
a(S'syntax'
p588
g2
(g6
S'z\x87\x1cN\x17\x0f\xd6?'
p589
tp590
Rp591
tp592
a(S'antlr'
p593
g2
(g6
S'T\x87\xde\\\xde\t\xd6?'
p594
tp595
Rp596
tp597
a(S'grammar\xe2\x80\x93translation method'
p598
g2
(g6
S'\x84\x0f\\\x81\xfd\xf4\xd5?'
p599
tp600
Rp601
tp602
a(S'functional grammar'
p603
g2
(g6
S'\xc3\x1eg\xfb\x90\xe7\xd5?'
p604
tp605
Rp606
tp607
a(S'regular language'
p608
g2
(g6
S'-;\xbaY\xa1\xe1\xd5?'
p609
tp610
Rp611
tp612
a(S'context-sensitive language'
p613
g2
(g6
S'\xc7\xca\xe4\x91.\xda\xd5?'
p614
tp615
Rp616
tp617
a(S'list of grammar schools in england'
p618
g2
(g6
S'\xde=\x19\x062\xd4\xd5?'
p619
tp620
Rp621
tp622
a(S'grammar-based code'
p623
g2
(g6
S'\xc7.v\x9b\x8b\xcc\xd5?'
p624
tp625
Rp626
tp627
a(S'link grammar'
p628
g2
(g6
S'#\x15o\xd3^\xcb\xd5?'
p629
tp630
Rp631
tp632
a(S"parikh's theorem"
p633
g2
(g6
S'yis\xc8\x08\xcb\xd5?'
p634
tp635
Rp636
tp637
a(S'grammar checker'
p638
g2
(g6
S'\x86\x87R\x99z\xbe\xd5?'
p639
tp640
Rp641
tp642
a(S'royal grammar school'
p643
g2
(g6
S'\x92\xe72\x0b\x8e\xaa\xd5?'
p644
tp645
Rp646
tp647
a(S'language'
p648
g2
(g6
S'm\xde\xd7_\x08\xaa\xd5?'
p649
tp650
Rp651
tp652
a(S'croatian-language grammar books'
p653
g2
(g6
S'`\x1a\xd6\xbd\xcd\x95\xd5?'
p654
tp655
Rp656
tp657
a(S'word grammar'
p658
g2
(g6
S'\xd2\x1f-\xf6\x99\x95\xd5?'
p659
tp660
Rp661
tp662
a(S'syntactic predicate'
p663
g2
(g6
S'\xf8S\xe6\xa59\x8f\xd5?'
p664
tp665
Rp666
tp667
a(S'a grammar of vai'
p668
g2
(g6
S'f\xcbB\x80\x9d\x8c\xd5?'
p669
tp670
Rp671
tp672
a(S'non-configurational language'
p673
g2
(g6
S'\x91\x94\xb8\xfb\x8af\xd5?'
p674
tp675
Rp676
tp677
a(S'speech recognition grammar specification'
p678
g2
(g6
S'\xed8\x111 K\xd5?'
p679
tp680
Rp681
tp682
a(S'inside\xe2\x80\x93outside algorithm'
p683
g2
(g6
S'\x9f\x98xyMH\xd5?'
p684
tp685
Rp686
tp687
a(S'arc pair grammar'
p688
g2
(g6
S'\xc4OP6\x1dB\xd5?'
p689
tp690
Rp691
tp692
a(S'goold brown'
p693
g2
(g6
S'\xeeH^v\x9c?\xd5?'
p694
tp695
Rp696
tp697
a(S'synchronous context-free grammar'
p698
g2
(g6
S'gh:\xac\xce\x1d\xd5?'
p699
tp700
Rp701
tp702
a(S'grammar schools act 1860'
p703
g2
(g6
S'\x90\xe7\xf5ub\x17\xd5?'
p704
tp705
Rp706
tp707
a(S'shift-reduce parser'
p708
g2
(g6
S'\xc42<\xebi\x07\xd5?'
p709
tp710
Rp711
tp712
a(S'augmented transition network'
p713
g2
(g6
S'\x97\x8f\xda\xda\x13\xf8\xd4?'
p714
tp715
Rp716
tp717
a(S'aspects of the theory of syntax'
p718
g2
(g6
S'9e\xef\x96M\xf7\xd4?'
p719
tp720
Rp721
tp722
a(S'avasi grammar school'
p723
g2
(g6
S'\x10U\xdf\x19\xe4\xeb\xd4?'
p724
tp725
Rp726
tp727
a(S'zellig harris'
p728
g2
(g6
S'\xae0%\xa1\x00\xda\xd4?'
p729
tp730
Rp731
tp732
a(S'post canonical system'
p733
g2
(g6
S'\xf2+\x9a\xcd\xf2\xd3\xd4?'
p734
tp735
Rp736
tp737
a(S'phrase structure rules'
p738
g2
(g6
S'\x8c\xe1\xdf\xd1\x15\xcb\xd4?'
p739
tp740
Rp741
tp742
a(S'object language'
p743
g2
(g6
S'\x0e\xa5\x99A\xd2\xc1\xd4?'
p744
tp745
Rp746
tp747
a(S'role and reference grammar'
p748
g2
(g6
S'\\^n\x99\xd2\xb6\xd4?'
p749
tp750
Rp751
tp752
a(S'melbourne grammar school'
p753
g2
(g6
S'\xf6#\xb62>\xb6\xd4?'
p754
tp755
Rp756
tp757
a(S'the cambridge grammar of the english language'
p758
g2
(g6
S'\xf2R\xaeW \x9a\xd4?'
p759
tp760
Rp761
tp762
a(S'left recursion'
p763
g2
(g6
S'yj\x0e\xaf\xde\x93\xd4?'
p764
tp765
Rp766
tp767
a(S'weighted context-free grammar'
p768
g2
(g6
S'S\x87D\xf2\xf5\x81\xd4?'
p769
tp770
Rp771
tp772
a(S'comparison between lojban and loglan'
p773
g2
(g6
S'!\xe9\x91\x97.~\xd4?'
p774
tp775
Rp776
tp777
a(S'll parser'
p778
g2
(g6
S'\xb7\x8d\x0b\xd5\xbbi\xd4?'
p779
tp780
Rp781
tp782
a(S'slr grammar'
p783
g2
(g6
S'\xa9\xcf\xda\xeak`\xd4?'
p784
tp785
Rp786
tp787
a(S'syntax (logic)'
p788
g2
(g6
S'<\xd83\xfd\xdbI\xd4?'
p789
tp790
Rp791
tp792
a(S'grammarsgate'
p793
g2
(g6
S'G0\x84\xed\xd0I\xd4?'
p794
tp795
Rp796
tp797
a(S'viktoria yartseva'
p798
g2
(g6
S"\xfc\xa6'\xe1r\x1f\xd4?"
p799
tp800
Rp801
tp802
a(S'linguistics'
p803
g2
(g6
S'\xf7\x82\x19fY\x1e\xd4?'
p804
tp805
Rp806
tp807
a(S'recursive transition network'
p808
g2
(g6
S'\xfa\xab\x9b\xa6\xa0\x13\xd4?'
p809
tp810
Rp811
tp812
a(S'constructed language'
p813
g2
(g6
S'\xef\xd3 \xe3\xc1\x12\xd4?'
p814
tp815
Rp816
tp817
a(S'betty azar'
p818
g2
(g6
S'e\x1e\xf6\x1cL\t\xd4?'
p819
tp820
Rp821
tp822
a(S'lojban'
p823
g2
(g6
S'\xb1\xaf\xbc\xec\xdf\x07\xd4?'
p824
tp825
Rp826
tp827
a(S'combinatory categorial grammar'
p828
g2
(g6
S',\xb5\xb4n;\x00\xd4?'
p829
tp830
Rp831
tp832
a(S'ipswich grammar school'
p833
g2
(g6
S'N\xf7\x8b\xfe\xed\xfe\xd3?'
p834
tp835
Rp836
tp837
a(S'integrational linguistics'
p838
g2
(g6
S':\x98\x10\x90\x0f\xfd\xd3?'
p839
tp840
Rp841
tp842
a(S'functional theories of grammar'
p843
g2
(g6
S'+Y\xc2\xa9\xe5\xfa\xd3?'
p844
tp845
Rp846
tp847
a(S'deterministic context-free language'
p848
g2
(g6
S'\xb6\xde\xd0\xbe-\xf6\xd3?'
p849
tp850
Rp851
tp852
a(S'james witt sewell'
p853
g2
(g6
S'\xb4\xb4\xcc\x19\xd3\xd4\xd3?'
p854
tp855
Rp856
tp857
a(S'grammatical construction'
p858
g2
(g6
S'wz\xa3\xd6\xe7\xcb\xd3?'
p859
tp860
Rp861
tp862
a(S'carl pollard'
p863
g2
(g6
S'\x80\xb7\r\x1eM\xca\xd3?'
p864
tp865
Rp866
tp867
a(S'the art of grammar'
p868
g2
(g6
S'*=\xcd\xc3\x86\xc7\xd3?'
p869
tp870
Rp871
tp872
a(S'thetical grammar'
p873
g2
(g6
S'\x0e\x82\xf828\xc5\xd3?'
p874
tp875
Rp876
tp877
a(S'l-attributed grammar'
p878
g2
(g6
S'2\xf85e\xa4\x91\xd3?'
p879
tp880
Rp881
tp882
a(S'lgs'
p883
g2
(g6
S'\x95q\xbd\xc7\x03\x8f\xd3?'
p884
tp885
Rp886
tp887
a(S'syntactic structures'
p888
g2
(g6
S'\xaf\x88m\x81\xfb\x89\xd3?'
p889
tp890
Rp891
tp892
a(S'backus\xe2\x80\x93naur form'
p893
g2
(g6
S'Tb.\xf0Go\xd3?'
p894
tp895
Rp896
tp897
a(S'constraint grammar'
p898
g2
(g6
S'\xa9\xcfm\xa0\xf4m\xd3?'
p899
tp900
Rp901
tp902
a(S'verb phrase'
p903
g2
(g6
S'C\xad\x87f\xc1g\xd3?'
p904
tp905
Rp906
tp907
a(S'conditions on transformations'
p908
g2
(g6
S'p\x0cYv\x17Y\xd3?'
p909
tp910
Rp911
tp912
a(S'semi-thue system'
p913
g2
(g6
S'F\x16\x85\x08\xf7P\xd3?'
p914
tp915
Rp916
tp917
a(S'well-formedness'
p918
g2
(g6
S'`i\x08\xce\xae=\xd3?'
p919
tp920
Rp921
tp922
a(S'lr parser'
p923
g2
(g6
S'\xab\xa42\xd0\x02<\xd3?'
p924
tp925
Rp926
tp927
a(S'string operations'
p928
g2
(g6
S'v[\x00I\x91\x1e\xd3?'
p929
tp930
Rp931
tp932
a(S'cgs (schools)'
p933
g2
(g6
S'\xf9\xbe\xa9\xd2`\x13\xd3?'
p934
tp935
Rp936
tp937
a(S'subcategorization'
p938
g2
(g6
S'k\xc6\xaf\x0bL\xff\xd2?'
p939
tp940
Rp941
tp942
a(S'string (computer science)'
p943
g2
(g6
S'\xab\xed(\x19q\xf1\xd2?'
p944
tp945
Rp946
tp947
a(S'venpa'
p948
g2
(g6
S'\xc0\xef\xbf\x05\x19\xe5\xd2?'
p949
tp950
Rp951
tp952
a(S'lexical functional grammar'
p953
g2
(g6
S'\x02\xb7P\xe0d\xdf\xd2?'
p954
tp955
Rp956
tp957
a(S'packcc'
p958
g2
(g6
S'\x1fU\xc2\xe8W\xcd\xd2?'
p959
tp960
Rp961
tp962
a(S'semantic interpretation for speech recognition'
p963
g2
(g6
S'\xbe\xc0\x13\x11[\xcb\xd2?'
p964
tp965
Rp966
tp967
a(S'ripon grammar school ballot'
p968
g2
(g6
S's\x83\xc5\te\xc9\xd2?'
p969
tp970
Rp971
tp972
a(S'relational grammar'
p973
g2
(g6
S'V9I\xf6Z\xc9\xd2?'
p974
tp975
Rp976
tp977
a(S'production rule'
p978
g2
(g6
S'\xd1\xf2\x86\xd6\x99\xbf\xd2?'
p979
tp980
Rp981
tp982
a(S'old boys'
p983
g2
(g6
S'}\x0b\xc4\xf9\x01\xb9\xd2?'
p984
tp985
Rp986
tp987
a(S'artificial grammar learning'
p988
g2
(g6
S'\x06Dh\xb9\xaf\xad\xd2?'
p989
tp990
Rp991
tp992
a(S'jetpag'
p993
g2
(g6
S'\xb6\xc8\xf31\xf5\xaa\xd2?'
p994
tp995
Rp996
tp997
a(S'history of compiler construction'
p998
g2
(g6
S'u\xd9vo\xcc\x9c\xd2?'
p999
tp1000
Rp1001
tp1002
a(S'language equation'
p1003
g2
(g6
S'\x91f\xbb\xa0\xe9\x92\xd2?'
p1004
tp1005
Rp1006
tp1007
a(S'picture language'
p1008
g2
(g6
S'\x10\x0en\x19\x95\x8e\xd2?'
p1009
tp1010
Rp1011
tp1012
a(S'national grammar schools association'
p1013
g2
(g6
S'\x8b\x99\x1c\x83\x97\x8b\xd2?'
p1014
tp1015
Rp1016
tp1017
a(S'ann fisher (grammarian)'
p1018
g2
(g6
S'\xcbgq\x12\x08\x84\xd2?'
p1019
tp1020
Rp1021
tp1022
a(S'principles and parameters'
p1023
g2
(g6
S'a\xd9\x04\xc6\x89\x7f\xd2?'
p1024
tp1025
Rp1026
tp1027
a(S'history of linguistic prescription in english'
p1028
g2
(g6
S'2\xa9m\xf7\xd2p\xd2?'
p1029
tp1030
Rp1031
tp1032
a(S'fluid construction grammar'
p1033
g2
(g6
S'!B\x9aF\x12p\xd2?'
p1034
tp1035
Rp1036
tp1037
a(S'\xc5\xa0ime star\xc4\x8devi\xc4\x87'
p1038
g2
(g6
S'4JV\x14\x82n\xd2?'
p1039
tp1040
Rp1041
tp1042
a(S'extended backus\xe2\x80\x93naur form'
p1043
g2
(g6
S'0j\x98g\xf8i\xd2?'
p1044
tp1045
Rp1046
tp1047
a(S'discourse grammar'
p1048
g2
(g6
S'1\xec\xdaGsa\xd2?'
p1049
tp1050
Rp1051
tp1052
a(S'literal movement grammar'
p1053
g2
(g6
S')i\x02\x0e\x12[\xd2?'
p1054
tp1055
Rp1056
tp1057
a(S'wren & martin'
p1058
g2
(g6
S'e\xe7\x9d\x9b\xe7X\xd2?'
p1059
tp1060
Rp1061
tp1062
a(S'systemic functional grammar'
p1063
g2
(g6
S'`sQ\x9f\x8fS\xd2?'
p1064
tp1065
Rp1066
tp1067
a(S'shabdamanidarpana'
p1068
g2
(g6
S'\x11\xd8\xc55\xa9I\xd2?'
p1069
tp1070
Rp1071
tp1072
a(S'george oliver curme'
p1073
g2
(g6
S'\x00\xf1\x02Ho=\xd2?'
p1074
tp1075
Rp1076
tp1077
a(S'maurice gross'
p1078
g2
(g6
S'1\xbfH\xcaM5\xd2?'
p1079
tp1080
Rp1081
tp1082
a(S'lectures on government and binding'
p1083
g2
(g6
S'\xca\x8b\xa9\xe1e \xd2?'
p1084
tp1085
Rp1086
tp1087
a(S'sheila greibach'
p1088
g2
(g6
S'm;\xee\xa8T\x1e\xd2?'
p1089
tp1090
Rp1091
tp1092
a(S'outline of natural language processing'
p1093
g2
(g6
S'\xb6\x97\xbcb\xd7\x16\xd2?'
p1094
tp1095
Rp1096
tp1097
a(S'string generation'
p1098
g2
(g6
S'\xd8f\x01=-\x03\xd2?'
p1099
tp1100
Rp1101
tp1102
a(S'aindra school of grammar'
p1103
g2
(g6
S'Kb\xbd\xdac\xf2\xd1?'
p1104
tp1105
Rp1106
tp1107
a(S"hammer's german grammar and usage"
p1108
g2
(g6
S'+\xa6\x1f\xbf\xc5\xea\xd1?'
p1109
tp1110
Rp1111
tp1112
a(S'associated grammar schools of victoria'
p1113
g2
(g6
S'\x8e\xdb\x81Z\xc5\xe9\xd1?'
p1114
tp1115
Rp1116
tp1117
a(S'jacob baden'
p1118
g2
(g6
S'\xc3\xe6\xf9\x16+\xe5\xd1?'
p1119
tp1120
Rp1121
tp1122
a(S'cognitive grammar'
p1123
g2
(g6
S'$\x1fE\xe1\xcb\xdb\xd1?'
p1124
tp1125
Rp1126
tp1127
a(S'dover grammar school for girls'
p1128
g2
(g6
S'\x92\xb5Ik\xd1\xc8\xd1?'
p1129
tp1130
Rp1131
tp1132
a(S'language acquisition'
p1133
g2
(g6
S'<\xa7\x7f\x95\x94\xbc\xd1?'
p1134
tp1135
Rp1136
tp1137
a(S'tgs'
p1138
g2
(g6
S'\xe5)XV\x1f\xba\xd1?'
p1139
tp1140
Rp1141
tp1142
a(S'george stiny'
p1143
g2
(g6
S'\x1e\x1d\xc5\xd0\xae\xb2\xd1?'
p1144
tp1145
Rp1146
tp1147
a(S'gram\xc3\xa1tica de la lengua castellana'
p1148
g2
(g6
S'\xcd\xa4\x1a\xc3\xf1\xab\xd1?'
p1149
tp1150
Rp1151
tp1152
a(S"queen elizabeth's grammar school"
p1153
g2
(g6
S'\xc9\x0c\x7fm\xf4\xa8\xd1?'
p1154
tp1155
Rp1156
tp1157
a(S'metalanguage'
p1158
g2
(g6
S'\xcf\xcf\x973\xdc\xa7\xd1?'
p1159
tp1160
Rp1161
tp1162
a(S'great public schools association of queensland \xe2\x80\x93 rugby union'
p1163
g2
(g6
S'\x8a\xaeV\xae\xa0\xa4\xd1?'
p1164
tp1165
Rp1166
tp1167
a(S'glr parser'
p1168
g2
(g6
S'\x08r\xbeJ/\xa3\xd1?'
p1169
tp1170
Rp1171
tp1172
a(S'brzozowski derivative'
p1173
g2
(g6
S'2\xd7\xb6\xb32\x95\xd1?'
p1174
tp1175
Rp1176
tp1177
a(S'ray c. dougherty'
p1178
g2
(g6
S'5\x8c\xfcg\xcd\x88\xd1?'
p1179
tp1180
Rp1181
tp1182
a(S'summa grammatica'
p1183
g2
(g6
S'\xacWi\x99\xfa\x82\xd1?'
p1184
tp1185
Rp1186
tp1187
a(S'chomsky\xe2\x80\x93sch\xc3\xbctzenberger theorem'
p1188
g2
(g6
S'\x18A6\xcb\x80\x7f\xd1?'
p1189
tp1190
Rp1191
tp1192
a(S'unilang'
p1193
g2
(g6
S'\xdd6>\x8a\x94y\xd1?'
p1194
tp1195
Rp1196
tp1197
a(S'history of linguistics'
p1198
g2
(g6
S'\x02^\x10*\x81q\xd1?'
p1199
tp1200
Rp1201
tp1202
a(S'pattern language (formal languages)'
p1203
g2
(g6
S'\t\xa0\xc7\xc2/m\xd1?'
p1204
tp1205
Rp1206
tp1207
a(S'endocentric and exocentric'
p1208
g2
(g6
S'5w@\xae\x8dW\xd1?'
p1209
tp1210
Rp1211
tp1212
a(S'programming language'
p1213
g2
(g6
S'sk\xce\x89UQ\xd1?'
p1214
tp1215
Rp1216
tp1217
a(S'arte da lingoa de iapam'
p1218
g2
(g6
S'mY\x1b\xc0\xc3A\xd1?'
p1219
tp1220
Rp1221
tp1222
a(S'ryhope grammar school'
p1223
g2
(g6
S'\xca\xd8#\x1c\x9d>\xd1?'
p1224
tp1225
Rp1226
tp1227
a(S'alphabet (formal languages)'
p1228
g2
(g6
S'\x97\x8bd\xabO9\xd1?'
p1229
tp1230
Rp1231
tp1232
a(S'linguistics in education'
p1233
g2
(g6
S'yo\xec\x9a\x059\xd1?'
p1234
tp1235
Rp1236
tp1237
a(S'formation rule'
p1238
g2
(g6
S'?\x8d\x90\x0e\xa47\xd1?'
p1239
tp1240
Rp1241
tp1242
a(S'delph-in'
p1243
g2
(g6
S'\xfe\x8b2\xe5)/\xd1?'
p1244
tp1245
Rp1246
tp1247
a(S'innateness hypothesis'
p1248
g2
(g6
S'\xb2\x95\xd8\x10\xa1\x19\xd1?'
p1249
tp1250
Rp1251
tp1252
a(S'empty string'
p1253
g2
(g6
S'\x9b\xe3\x07Mm\x06\xd1?'
p1254
tp1255
Rp1256
tp1257
a(S'campa languages'
p1258
g2
(g6
S'\xf8\xae,L\xe2\xfd\xd0?'
p1259
tp1260
Rp1261
tp1262
a(S'string'
p1263
g2
(g6
S'\xe0)\xb7\xf3\x1d\xf9\xd0?'
p1264
tp1265
Rp1266
tp1267
a(S'kadr\xc3\xae of pergamon'
p1268
g2
(g6
S'\x9cV\xbc\xd4R\xed\xd0?'
p1269
tp1270
Rp1271
tp1272
a(S'montague grammar'
p1273
g2
(g6
S'2\x1f\xa0\xfa^\xeb\xd0?'
p1274
tp1275
Rp1276
tp1277
a(S'glossophilia'
p1278
g2
(g6
S'\xfd\xb8\xcaj\xff\xe3\xd0?'
p1279
tp1280
Rp1281
tp1282
a(S"headmasters' conference of the independent schools of australia"
p1283
g2
(g6
S'\xf4\x16\x87}\x16\xdf\xd0?'
p1284
tp1285
Rp1286
tp1287
a(S'mashi wentong'
p1288
g2
(g6
S'\xe1\x1dp}\xe3\xde\xd0?'
p1289
tp1290
Rp1291
tp1292
a(S'philosothon'
p1293
g2
(g6
S'\x11\x0f\xe7\x9dk\xde\xd0?'
p1294
tp1295
Rp1296
tp1297
a(S'recursive language'
p1298
g2
(g6
S'\xff\xa3\xc8\xe9\x02\xd2\xd0?'
p1299
tp1300
Rp1301
tp1302
a(S'campbell union grammar school'
p1303
g2
(g6
S'\xdb8\xf0\x99\xcb\xd0\xd0?'
p1304
tp1305
Rp1306
tp1307
a(S'thue (programming language)'
p1308
g2
(g6
S'\xf9lf)\xeb\xca\xd0?'
p1309
tp1310
Rp1311
tp1312
a(S'attributed graph grammar'
p1313
g2
(g6
S'\xf2*)#\xa9\xc6\xd0?'
p1314
tp1315
Rp1316
tp1317
a(S'gerald gazdar'
p1318
g2
(g6
S'\xda\xae\x11\x94\xf6\xbe\xd0?'
p1319
tp1320
Rp1321
tp1322
a(S'mixed language'
p1323
g2
(g6
S'\xef\xdf\xee\xb84\xba\xd0?'
p1324
tp1325
Rp1326
tp1327
a(S'antonio de nebrija'
p1328
g2
(g6
S'ln\x03d\xb2\xb9\xd0?'
p1329
tp1330
Rp1331
tp1332
a(S'parser grammar engine'
p1333
g2
(g6
S'F.\xc2H\xb5\xb2\xd0?'
p1334
tp1335
Rp1336
tp1337
a(S'operator-precedence grammar'
p1338
g2
(g6
S'\x94\xff\xee8\xb7\x80\xd0?'
p1339
tp1340
Rp1341
tp1342
a(S'levels of adequacy'
p1343
g2
(g6
S'\xf7\xc6U\xef,y\xd0?'
p1344
tp1345
Rp1346
tp1347
a(S'sgs'
p1348
g2
(g6
S'S\xbdt\xdaqw\xd0?'
p1349
tp1350
Rp1351
tp1352
a(S'list of linguists'
p1353
g2
(g6
S'\xd8\xf8\x0f\xb8#u\xd0?'
p1354
tp1355
Rp1356
tp1357
a(S'kleene star'
p1358
g2
(g6
S'\xb5l\x0fj\xbap\xd0?'
p1359
tp1360
Rp1361
tp1362
a(S'parser combinator'
p1363
g2
(g6
S'\xad7\xa9\x08%o\xd0?'
p1364
tp1365
Rp1366
tp1367
a(S'immediate constituent analysis'
p1368
g2
(g6
S'\x07\x95\xe5\xd4On\xd0?'
p1369
tp1370
Rp1371
tp1372
a(S'chart parser'
p1373
g2
(g6
S"['\xa4/{g\xd0?"
p1374
tp1375
Rp1376
tp1377
a(S'functional discourse grammar'
p1378
g2
(g6
S'|b\x0b\x01\x08d\xd0?'
p1379
tp1380
Rp1381
tp1382
a(S'michael halliday'
p1383
g2
(g6
S'\xe8\xc4Z\xec4`\xd0?'
p1384
tp1385
Rp1386
tp1387
a(S'national language'
p1388
g2
(g6
S'\xe7\xc9\xa5\xad\xa7_\xd0?'
p1389
tp1390
Rp1391
tp1392
a(S'list of constructed languages'
p1393
g2
(g6
S'\x9dR\xc1\xee\x91_\xd0?'
p1394
tp1395
Rp1396
tp1397
a(S'language education'
p1398
g2
(g6
S'q\xd9|\x92X_\xd0?'
p1399
tp1400
Rp1401
tp1402
a(S'regular expression'
p1403
g2
(g6
S'f\xbd\xf5\x92\xb6]\xd0?'
p1404
tp1405
Rp1406
tp1407
a(S'sydney grammar school'
p1408
g2
(g6
S'\x9a\xdc\xd1\x1d\x92\\\xd0?'
p1409
tp1410
Rp1411
tp1412
a(S'ronald langacker'
p1413
g2
(g6
S'\x06\x8d*\xa0\xf5[\xd0?'
p1414
tp1415
Rp1416
tp1417
a(S'linear unit grammar'
p1418
g2
(g6
S'\x0c\xec@\xe8\x94Y\xd0?'
p1419
tp1420
Rp1421
tp1422
a(S'hgs'
p1423
g2
(g6
S'\xd4K\t(\x8cR\xd0?'
p1424
tp1425
Rp1426
tp1427
a(S'columbia grammar & preparatory school'
p1428
g2
(g6
S'O7t)\xf4P\xd0?'
p1429
tp1430
Rp1431
tp1432
a(S'irony (framework)'
p1433
g2
(g6
S'\x10\x1f{\x90vP\xd0?'
p1434
tp1435
Rp1436
tp1437
a(S'induction of regular languages'
p1438
g2
(g6
S'*S\x1a\xc8\x85G\xd0?'
p1439
tp1440
Rp1441
tp1442
a(S'grammar school of di\xc3\xb3sgy\xc5\x91r'
p1443
g2
(g6
S'_\xe9\x14\tN>\xd0?'
p1444
tp1445
Rp1446
tp1447
a(S'computer language'
p1448
g2
(g6
S'\xdc\xc6\xc2b\xa48\xd0?'
p1449
tp1450
Rp1451
tp1452
a(S'generative second-language acquisition'
p1453
g2
(g6
S'\xae\xa1\xa5\x8eP6\xd0?'
p1454
tp1455
Rp1456
tp1457
a(S'natural language'
p1458
g2
(g6
S'\xe0Y\x16Z?,\xd0?'
p1459
tp1460
Rp1461
tp1462
a(S'government (linguistics)'
p1463
g2
(g6
S'\x14\xc2T\x9b\xfc*\xd0?'
p1464
tp1465
Rp1466
tp1467
a(S'lalr parser generator'
p1468
g2
(g6
S'\xffn\xeb\xa7\xf2\x07\xd0?'
p1469
tp1470
Rp1471
tp1472
a(S'ray jackendoff'
p1473
g2
(g6
S' C\xc4A\xbd\x07\xd0?'
p1474
tp1475
Rp1476
tp1477
a(S'lucien tesni\xc3\xa8re'
p1478
g2
(g6
S'P\xe7%\x1c\xbc\x04\xd0?'
p1479
tp1480
Rp1481
tp1482
a(S'recursive descent parser'
p1483
g2
(g6
S'c\xeb-\x02?\xec\xcf?'
p1484
tp1485
Rp1486
tp1487
a(S'vernacular'
p1488
g2
(g6
S'\x87\x98"\xe2\xc8\xe0\xcf?'
p1489
tp1490
Rp1491
tp1492
a(S'string literal'
p1493
g2
(g6
S'\xda\xcf\xfd\\\xea\xd9\xcf?'
p1494
tp1495
Rp1496
tp1497
a(S'grammar tec rc'
p1498
g2
(g6
S'\xc4{\x9c\xd3L\xcd\xcf?'
p1499
tp1500
Rp1501
tp1502
a(S'parboiled (java)'
p1503
g2
(g6
S'\xcaw<\xc7\xdd\xc7\xcf?'
p1504
tp1505
Rp1506
tp1507
a(S'paul postal'
p1508
g2
(g6
S'\xd8\x01\xcb\xc9\xf4\xbe\xcf?'
p1509
tp1510
Rp1511
tp1512
a.