(lp0
(S'generative model'
p1
cnumpy.core.multiarray
scalar
p2
(cnumpy
dtype
p3
(S'f8'
p4
I0
I1
tp5
Rp6
(I3
S'<'
p7
NNNI-1
I-1
I0
tp8
bS'\x01\x00\x00\x00\x00\x00\xf0?'
p9
tp10
Rp11
tp12
a(S'generative'
p13
g2
(g6
S'9s_U\xa8l\xe4?'
p14
tp15
Rp16
tp17
a(S'generative systems'
p18
g2
(g6
S'X<]+\xf6\x82\xe2?'
p19
tp20
Rp21
tp22
a(S'generative art'
p23
g2
(g6
S'\x91\xe3\xf3\xac\xf7n\xe2?'
p24
tp25
Rp26
tp27
a(S'discriminative model'
p28
g2
(g6
S"\xd8\x8a\xe9\xc1\x90'\xe2?"
p29
tp30
Rp31
tp32
a(S'generative music'
p33
g2
(g6
S'(^\x81f\x01\xe3\xe1?'
p34
tp35
Rp36
tp37
a(S'generative design'
p38
g2
(g6
S'^\x12\xc6^\xf8s\xe0?'
p39
tp40
Rp41
tp42
a(S'celestino soddu'
p43
g2
(g6
S'\xffG\x01\x0f\x15\xe5\xdf?'
p44
tp45
Rp46
tp47
a(S'generative modelling language'
p48
g2
(g6
S'\x86<|!bP\xda?'
p49
tp50
Rp51
tp52
a(S'mathematical model'
p53
g2
(g6
S'\x13\t2}q\x03\xda?'
p54
tp55
Rp56
tp57
a(S'generative economy'
p58
g2
(g6
S'\xb2zA\xe9\xae\xe1\xd9?'
p59
tp60
Rp61
tp62
a(S'data model'
p63
g2
(g6
S'\xdd4d\x02\xb4\xdf\xd8?'
p64
tp65
Rp66
tp67
a(S'probabilistic latent semantic analysis'
p68
g2
(g6
S'\x7fAh\x95\xf4\x9c\xd8?'
p69
tp70
Rp71
tp72
a(S'generative grammar'
p73
g2
(g6
S'\x07\xda-g\xb1{\xd8?'
p74
tp75
Rp76
tp77
a(S'generative second-language acquisition'
p78
g2
(g6
S'\xcd\x1d\xe79\xbez\xd8?'
p79
tp80
Rp81
tp82
a(S'generative adversarial networks'
p83
g2
(g6
S'}\x9fth\xba?\xd8?'
p84
tp85
Rp86
tp87
a(S'helmholtz machine'
p88
g2
(g6
S'\xf1\xc0\x01\xfe\x93\x8a\xd7?'
p89
tp90
Rp91
tp92
a(S'hidden markov model'
p93
g2
(g6
S'\xccm7M~\x7f\xd7?'
p94
tp95
Rp96
tp97
a(S'statistical model'
p98
g2
(g6
S'\xb0/v\xa6Cl\xd7?'
p99
tp100
Rp101
tp102
a(S'eric gans'
p103
g2
(g6
S'\xa2\x80;C\xe1\xf6\xd6?'
p104
tp105
Rp106
tp107
a(S'generative topographic map'
p108
g2
(g6
S'\xb0y|\x0b?\xf6\xd6?'
p109
tp110
Rp111
tp112
a(S'generative anthropology'
p113
g2
(g6
S'(>\xa3\xe2\x18\xb7\xd6?'
p114
tp115
Rp116
tp117
a(S'sonia landy sheridan'
p118
g2
(g6
S'p\x0b\x91\x1d:\xb6\xd6?'
p119
tp120
Rp121
tp122
a(S'linear probability model'
p123
g2
(g6
S'\x08\x94/\xc0\xf6\x9b\xd6?'
p124
tp125
Rp126
tp127
a(S'generative semantics'
p128
g2
(g6
S'\xd6\xdb\xd5\xc0\x0cy\xd6?'
p129
tp130
Rp131
tp132
a(S'list of rickenbacker products'
p133
g2
(g6
S'\x17\x14\xc6\xcd\xae<\xd6?'
p134
tp135
Rp136
tp137
a(S'conditional probability distribution'
p138
g2
(g6
S'\x97;X\xa1\x898\xd6?'
p139
tp140
Rp141
tp142
a(S'linguistics wars'
p143
g2
(g6
S'\xc2\x0bS\xf8\xcb(\xd6?'
p144
tp145
Rp146
tp147
a(S'generativity'
p148
g2
(g6
S'\x02\x9f\xfd\xfd\xc6%\xd6?'
p149
tp150
Rp151
tp152
a(S'merlin wittrock'
p153
g2
(g6
S'\x01\x14uu\xa6!\xd6?'
p154
tp155
Rp156
tp157
a(S'language model'
p158
g2
(g6
S"}\xbbe'\xee\xbb\xd5?"
p159
tp160
Rp161
tp162
a(S'verification and validation of computer simulation models'
p163
g2
(g6
S'\xab\x19\xf6@/^\xd5?'
p164
tp165
Rp166
tp167
a(S'model'
p168
g2
(g6
S'\xdb\xa9\xccP2C\xd5?'
p169
tp170
Rp171
tp172
a(S'log-linear analysis'
p173
g2
(g6
S'\xf6\xf1\x82\xfd{\x16\xd5?'
p174
tp175
Rp176
tp177
a(S'data modeling'
p178
g2
(g6
S'oi\xd5\x16\xc0\xee\xd4?'
p179
tp180
Rp181
tp182
a(S'maximum-entropy markov model'
p183
g2
(g6
S'\xd0\xcf\xfa\x03$\xb2\xd4?'
p184
tp185
Rp186
tp187
a(S'model selection'
p188
g2
(g6
S'\xf9\xcb\xc6\x7f\xc4\x9a\xd4?'
p189
tp190
Rp191
tp192
a(S'binomial regression'
p193
g2
(g6
S'(\x1b\x19m\x04\x86\xd4?'
p194
tp195
Rp196
tp197
a(S'model building'
p198
g2
(g6
S']@Z\x9d\xf7\x81\xd4?'
p199
tp200
Rp201
tp202
a(S'economic model'
p203
g2
(g6
S'\x1eH\xc9F\xda{\xd4?'
p204
tp205
Rp206
tp207
a(S'stochastic investment model'
p208
g2
(g6
S'<\x9d\xbb\xc5\x1b\\\xd4?'
p209
tp210
Rp211
tp212
a(S'overfitting'
p213
g2
(g6
S'\xee\xd8\xb2\xa2lQ\xd4?'
p214
tp215
Rp216
tp217
a(S'random sample consensus'
p218
g2
(g6
S'\xd6\x7f\xae\xcb\xcc=\xd4?'
p219
tp220
Rp221
tp222
a(S'stepwise regression'
p223
g2
(g6
S'\xc5w\xbb\x08\x842\xd4?'
p224
tp225
Rp226
tp227
a(S'conditional random field'
p228
g2
(g6
S'\xc7\x7f\xd6].\x1e\xd4?'
p229
tp230
Rp231
tp232
a(S'physical model'
p233
g2
(g6
S'+#\xa1KX\x1a\xd4?'
p234
tp235
Rp236
tp237
a(S'potterswheel'
p238
g2
(g6
S'\xbd\xe6\xa6\x83\xd5\x0f\xd4?'
p239
tp240
Rp241
tp242
a(S'gradient well-formedness'
p243
g2
(g6
S'b\xbd\x00\x06!\x08\xd4?'
p244
tp245
Rp246
tp247
a(S'mixture model'
p248
g2
(g6
S'\nRZ\x0f\x93\xf1\xd3?'
p249
tp250
Rp251
tp252
a(S'convolutional deep belief networks'
p253
g2
(g6
S'\xfeH\xed\xc9d\xe0\xd3?'
p254
tp255
Rp256
tp257
a(S'constellation model'
p258
g2
(g6
S'\x84\xf5\xd1o?\xe0\xd3?'
p259
tp260
Rp261
tp262
a(S'graphical model'
p263
g2
(g6
S'8\x8a\xc0\xc3\xda\xa4\xd3?'
p264
tp265
Rp266
tp267
a(S'ibm alignment models'
p268
g2
(g6
S'fa\xc4v\xb7\xa0\xd3?'
p269
tp270
Rp271
tp272
a(S'generative linguistics in the old world'
p273
g2
(g6
S'\xdf&^\x9e\xden\xd3?'
p274
tp275
Rp276
tp277
a(S'probabilistic classification'
p278
g2
(g6
S'\xef\x87\xfev<l\xd3?'
p279
tp280
Rp281
tp282
a(S"katz's back-off model"
p283
g2
(g6
S'\xcd\xc3,\x14\x19Z\xd3?'
p284
tp285
Rp286
tp287
a(S'naive bayes classifier'
p288
g2
(g6
S'\x8d\xa7N{\xe9;\xd3?'
p289
tp290
Rp291
tp292
a(S'predictive model markup language'
p293
g2
(g6
S'\x838\xd9\xf8m7\xd3?'
p294
tp295
Rp296
tp297
a(S'autoregressive conditional heteroskedasticity'
p298
g2
(g6
S'\xcd\x07GK\x193\xd3?'
p299
tp300
Rp301
tp302
a(S'opentms'
p303
g2
(g6
S"\xdc\x8dN\xbf\xe9'\xd3?"
p304
tp305
Rp306
tp307
a(S'dirichlet-multinomial distribution'
p308
g2
(g6
S'\r"oO\xbf\x16\xd3?'
p309
tp310
Rp311
tp312
a(S'conditioning (probability)'
p313
g2
(g6
S'GW\xe7:#\xe8\xd2?'
p314
tp315
Rp316
tp317
a(S'logical data model'
p318
g2
(g6
S"\xb9l'C-\xd7\xd2?"
p319
tp320
Rp321
tp322
a(S'probit model'
p323
g2
(g6
S'\x18\xc2)l\x0e\xce\xd2?'
p324
tp325
Rp326
tp327
a(S'bayesian network'
p328
g2
(g6
S'\x1e\xfe\n\xf83\xbf\xd2?'
p329
tp330
Rp331
tp332
a(S'estimation of distribution algorithm'
p333
g2
(g6
S'o\xf1=\xef\xad\xab\xd2?'
p334
tp335
Rp336
tp337
a(S'variable-order markov model'
p338
g2
(g6
S']\xe0a{:\x99\xd2?'
p339
tp340
Rp341
tp342
a(S'marginal model'
p343
g2
(g6
S'\xad\xce\xaf\xca\tj\xd2?'
p344
tp345
Rp346
tp347
a(S'generative lexicon'
p348
g2
(g6
S'\x88\x8fB6\x8ac\xd2?'
p349
tp350
Rp351
tp352
a(S'kjartansson constant q model'
p353
g2
(g6
S'\xf5\x977\xce\x1e_\xd2?'
p354
tp355
Rp356
tp357
a(S'fisher kernel'
p358
g2
(g6
S'\xc7\xa4r\x9c\xccZ\xd2?'
p359
tp360
Rp361
tp362
a(S'model engineering'
p363
g2
(g6
S'9\x8b\t)\xc5Y\xd2?'
p364
tp365
Rp366
tp367
a(S'marginal likelihood'
p368
g2
(g6
S'm\x88g\x042=\xd2?'
p369
tp370
Rp371
tp372
a(S'large-scale macroeconometric model'
p373
g2
(g6
S'\x974\xc1\xf1\xa3+\xd2?'
p374
tp375
Rp376
tp377
a(S'inner model'
p378
g2
(g6
S'\x9a\xc8\xf3g\x16&\xd2?'
p379
tp380
Rp381
tp382
a(S'gibbs sampling'
p383
g2
(g6
S'\xfe\xf0\x92\xf1\xa7\x17\xd2?'
p384
tp385
Rp386
tp387
a(S'ecosystem model'
p388
g2
(g6
S'\x9e\x90B\xf5V\x08\xd2?'
p389
tp390
Rp391
tp392
a(S'joint probability distribution'
p393
g2
(g6
S'\xc21\xc5\xd0;\x01\xd2?'
p394
tp395
Rp396
tp397
a(S'model building (particle physics)'
p398
g2
(g6
S'b\x98\xe0\xc3\xcb\xfc\xd1?'
p399
tp400
Rp401
tp402
a(S'model year'
p403
g2
(g6
S'\xba\xb4k\\c\xe3\xd1?'
p404
tp405
Rp406
tp407
a(S'multinomial logistic regression'
p408
g2
(g6
S'\xb4\x10G\x82\x95\xd3\xd1?'
p409
tp410
Rp411
tp412
a(S'multinomial probit'
p413
g2
(g6
S'\xd5 \xf50\xcc\xc4\xd1?'
p414
tp415
Rp416
tp417
a(S'identifiability'
p418
g2
(g6
S'\\\x92\xd7c\xf3\xba\xd1?'
p419
tp420
Rp421
tp422
a(S'grey box model'
p423
g2
(g6
S'xMw\xc2\xfb\xb1\xd1?'
p424
tp425
Rp426
tp427
a(S'urban traffic modeling and analysis'
p428
g2
(g6
S'\xe3E\xee\xf0=\xb1\xd1?'
p429
tp430
Rp431
tp432
a(S'climateprediction.net'
p433
g2
(g6
S'\xae\x04\x13\xb7\t\xad\xd1?'
p434
tp435
Rp436
tp437
a(S'minimum message length'
p438
g2
(g6
S"\xdd\xf7'\xac\xa3\xa4\xd1?"
p439
tp440
Rp441
tp442
a(S'structural equation modeling'
p443
g2
(g6
S'>mU!\xb0\x9f\xd1?'
p444
tp445
Rp446
tp447
a(S'conditional probability'
p448
g2
(g6
S'\xea\xdc\x88`\xef\x9e\xd1?'
p449
tp450
Rp451
tp452
a(S'louis ormont'
p453
g2
(g6
S'V\x97\xd1\tW\x98\xd1?'
p454
tp455
Rp456
tp457
a(S'vector generalized linear model'
p458
g2
(g6
S'y[\xd3,\x0f\x8f\xd1?'
p459
tp460
Rp461
tp462
a(S'unified model'
p463
g2
(g6
S'\xf6>\xc4\xbe\xd8\x8e\xd1?'
p464
tp465
Rp466
tp467
a(S'model transformation'
p468
g2
(g6
S'\x9b\xce\xc9\xeb]u\xd1?'
p469
tp470
Rp471
tp472
a(S'model risk'
p473
g2
(g6
S'\xb5\xd6\xe9\x95nj\xd1?'
p474
tp475
Rp476
tp477
a(S'ship model'
p478
g2
(g6
S'\x8dM\xd1\xe9Hi\xd1?'
p479
tp480
Rp481
tp482
a(S'regular conditional probability'
p483
g2
(g6
S'|\xbbd\xbf\xbeb\xd1?'
p484
tp485
Rp486
tp487
a(S'marginal distribution'
p488
g2
(g6
S'\x06\xde\x8e\xf4Xa\xd1?'
p489
tp490
Rp491
tp492
a(S'vaxserver'
p493
g2
(g6
S'\x9by\xf0m\xc0^\xd1?'
p494
tp495
Rp496
tp497
a(S'bugmobile company'
p498
g2
(g6
S'=\xf4M\x00\xd5U\xd1?'
p499
tp500
Rp501
tp502
a(S'bag-of-words model in computer vision'
p503
g2
(g6
S'\xa8\xb0\xba{\xa3R\xd1?'
p504
tp505
Rp506
tp507
a(S'causal graph'
p508
g2
(g6
S'3\xa6\x12\xf6\xd8L\xd1?'
p509
tp510
Rp511
tp512
a(S'variational bayesian methods'
p513
g2
(g6
S'\x8dw\x1cN^C\xd1?'
p514
tp515
Rp516
tp517
a(S'mathematical statistics'
p518
g2
(g6
S'\xf1\xbb]\x9e\xeaA\xd1?'
p519
tp520
Rp521
tp522
a(S'predictive analytics'
p523
g2
(g6
S'\xa3\xe2.\xa8\x02>\xd1?'
p524
tp525
Rp526
tp527
a(S'conceptual model'
p528
g2
(g6
S'\xe6\x81\xf64\x088\xd1?'
p529
tp530
Rp531
tp532
a(S'business model pattern'
p533
g2
(g6
S'=\xe2M\xc3t5\xd1?'
p534
tp535
Rp536
tp537
a(S'adaptive coding'
p538
g2
(g6
S'k\xb6\xc8y\xc7*\xd1?'
p539
tp540
Rp541
tp542
a(S'regression validation'
p543
g2
(g6
S'c\x8b\xeb\x11\x0e#\xd1?'
p544
tp545
Rp546
tp547
a(S'generalized linear model'
p548
g2
(g6
S' \xed\xb93@"\xd1?'
p549
tp550
Rp551
tp552
a(S'spike-and-slab variable selection'
p553
g2
(g6
S'~\x9c\xd3\x1b-!\xd1?'
p554
tp555
Rp556
tp557
a(S'time series'
p558
g2
(g6
S'\xe6m\xa6\xfaF\x1d\xd1?'
p559
tp560
Rp561
tp562
a(S'pattern recognition'
p563
g2
(g6
S'\x9d\xac\x8f\xf6\x87\x19\xd1?'
p564
tp565
Rp566
tp567
a(S'hierarchical dirichlet process'
p568
g2
(g6
S'k\xce4D\x9a\x18\xd1?'
p569
tp570
Rp571
tp572
a(S'hydrological transport model'
p573
g2
(g6
S'\xd5\xa8\x80\xb1\x9d\x17\xd1?'
p574
tp575
Rp576
tp577
a(S'human performance modeling'
p578
g2
(g6
S'\xa8#L\xfa\xca\x16\xd1?'
p579
tp580
Rp581
tp582
a(S'neural modeling fields'
p583
g2
(g6
S'.\x8eH\xeb>\x12\xd1?'
p584
tp585
Rp586
tp587
a(S'approximate bayesian computation'
p588
g2
(g6
S'vM\x132\xcf\x0b\xd1?'
p589
tp590
Rp591
tp592
a(S'stochastic block model'
p593
g2
(g6
S'+K\x0c\x0c\xb0\x05\xd1?'
p594
tp595
Rp596
tp597
a(S'model year (computer modeling)'
p598
g2
(g6
S'\xbc\x1blMP\xfd\xd0?'
p599
tp600
Rp601
tp602
a(S'generative science'
p603
g2
(g6
S'\xe5\xe8\xefz\t\xf7\xd0?'
p604
tp605
Rp606
tp607
a(S'subadditivity effect'
p608
g2
(g6
S'\x01w-\x05\xe9\xee\xd0?'
p609
tp610
Rp611
tp612
a(S'outline of probability'
p613
g2
(g6
S'\xe2\x95Z_\x0e\xe5\xd0?'
p614
tp615
Rp616
tp617
a(S'professional petroleum data management association'
p618
g2
(g6
S'X\xdf\xb5\xe1\xec\xe2\xd0?'
p619
tp620
Rp621
tp622
a(S'information model'
p623
g2
(g6
S'G\xb0\xaaYb\xda\xd0?'
p624
tp625
Rp626
tp627
a(S'ensemble learning'
p628
g2
(g6
S'P\x91\xb5\xd6\xc0\xd3\xd0?'
p629
tp630
Rp631
tp632
a(S'atmospheric model'
p633
g2
(g6
S'.\xddT\x00\xf1\xd1\xd0?'
p634
tp635
Rp636
tp637
a(S'azimi q models'
p638
g2
(g6
S'\xf2\xb2\xf2\x02Q\xcf\xd0?'
p639
tp640
Rp641
tp642
a(S'list of statistics articles'
p643
g2
(g6
S'\xd8\x06\xfa\r\xc4\xce\xd0?'
p644
tp645
Rp646
tp647
a(S'tobit model'
p648
g2
(g6
S'=\xbc\x99"\xf7\xc4\xd0?'
p649
tp650
Rp651
tp652
a(S'online model'
p653
g2
(g6
S'\xdbV\xdanm\xb4\xd0?'
p654
tp655
Rp656
tp657
a(S'3d city models'
p658
g2
(g6
S'\xaf**\x02Q\xad\xd0?'
p659
tp660
Rp661
tp662
a(S'computable general equilibrium'
p663
g2
(g6
S'\xb0\x89\xa0\xc1\x05\xad\xd0?'
p664
tp665
Rp666
tp667
a(S'history of numerical weather prediction'
p668
g2
(g6
S'\x91D$2\x7f\x9f\xd0?'
p669
tp670
Rp671
tp672
a(S'model high school (disambiguation)'
p673
g2
(g6
S'\x92M9\x1dO\x9f\xd0?'
p674
tp675
Rp676
tp677
a(S'graphical models for protein structure'
p678
g2
(g6
S'9(\xf4\xd1\xb7\x9b\xd0?'
p679
tp680
Rp681
tp682
a(S'model b'
p683
g2
(g6
S'<X>\xbd;\x97\xd0?'
p684
tp685
Rp686
tp687
a(S'wake-sleep algorithm'
p688
g2
(g6
S'\xd93\xa7\xd5y\x90\xd0?'
p689
tp690
Rp691
tp692
a(S'focused information criterion'
p693
g2
(g6
S'\xc3\xe6?\x83\xff\x86\xd0?'
p694
tp695
Rp696
tp697
a(S'overdispersion'
p698
g2
(g6
S'11{\x9b\x9b\x82\xd0?'
p699
tp700
Rp701
tp702
a(S'multi-model database'
p703
g2
(g6
S"\x99?\xca\x8a'l\xd0?"
p704
tp705
Rp706
tp707
a(S'platt scaling'
p708
g2
(g6
S'\x10Z\xce\\\x0b]\xd0?'
p709
tp710
Rp711
tp712
a(S'supervised learning'
p713
g2
(g6
S'\xaa]\xda\xd7SY\xd0?'
p714
tp715
Rp716
tp717
a(S'cadillac model d'
p718
g2
(g6
S'\xaa\x0c7\xbc\x97T\xd0?'
p719
tp720
Rp721
tp722
a(S'probability density function'
p723
g2
(g6
S'\xa2%l\xa5\xdaR\xd0?'
p724
tp725
Rp726
tp727
a(S'canonical schema pattern'
p728
g2
(g6
S'|\xacC\x1b\xbeR\xd0?'
p729
tp730
Rp731
tp732
a(S'business model'
p733
g2
(g6
S'\x8e0\xf1\x8e\xb9O\xd0?'
p734
tp735
Rp736
tp737
a(S'perplexity'
p738
g2
(g6
S'zrY\x8a\\E\xd0?'
p739
tp740
Rp741
tp742
a(S'logistic regression'
p743
g2
(g6
S'n\x87{l\xdc<\xd0?'
p744
tp745
Rp746
tp747
a(S'multivariate probit model'
p748
g2
(g6
S'\x89\xbd\xb9\xc7\xbf2\xd0?'
p749
tp750
Rp751
tp752
a(S'community climate system model'
p753
g2
(g6
S'\x91?&\x93\xf8.\xd0?'
p754
tp755
Rp756
tp757
a(S'trs-80 model ii'
p758
g2
(g6
S'\x86\xcc\x87\xda\xd3.\xd0?'
p759
tp760
Rp761
tp762
a(S'r-factor (crystallography)'
p763
g2
(g6
S'\x87\xdewqk,\xd0?'
p764
tp765
Rp766
tp767
a(S'generalized additive model'
p768
g2
(g6
S'\xdc\x9aJ\x81E,\xd0?'
p769
tp770
Rp771
tp772
a(S'multimodal learning'
p773
g2
(g6
S'\xcbX\x12|\x9e)\xd0?'
p774
tp775
Rp776
tp777
a(S'errors-in-variables models'
p778
g2
(g6
S'\xbcXC\xba\xd6(\xd0?'
p779
tp780
Rp781
tp782
a(S'gonimoblast'
p783
g2
(g6
S'\x1a\xa7\x1eq\xe7$\xd0?'
p784
tp785
Rp786
tp787
a(S'model audit'
p788
g2
(g6
S'\x16[\xb7\xb4\x8b$\xd0?'
p789
tp790
Rp791
tp792
a(S'model school'
p793
g2
(g6
S'\xe1I%\xc9-$\xd0?'
p794
tp795
Rp796
tp797
a(S'tgg'
p798
g2
(g6
S'\x83vO\xa5\xb0"\xd0?'
p799
tp800
Rp801
tp802
a(S'limited dependent variable'
p803
g2
(g6
S'YZh\xd5\xd4\x1e\xd0?'
p804
tp805
Rp806
tp807
a(S'data analysis'
p808
g2
(g6
S'\xcb\xf7\xa2\xc50\x1e\xd0?'
p809
tp810
Rp811
tp812
a(S'moving-average model'
p813
g2
(g6
S'9\xec\x07\x0f\r\x11\xd0?'
p814
tp815
Rp816
tp817
a(S'keidy moreno'
p818
g2
(g6
S'\xb4e=\x9c\xa0\x10\xd0?'
p819
tp820
Rp821
tp822
a(S'modelright'
p823
g2
(g6
S'b\x1d\xb56\xc2\x0e\xd0?'
p824
tp825
Rp826
tp827
a(S'model a'
p828
g2
(g6
S'\x8dC>\xd89\x0e\xd0?'
p829
tp830
Rp831
tp832
a(S'paul postal'
p833
g2
(g6
S'\x98\xfe\x1b\xc5\x84\r\xd0?'
p834
tp835
Rp836
tp837
a(S'predictive modelling'
p838
g2
(g6
S'\xd1\x9d\xd4\xd9\xdc\x07\xd0?'
p839
tp840
Rp841
tp842
a(S'ford model c'
p843
g2
(g6
S'\xcd\xa3P\xcfX\x05\xd0?'
p844
tp845
Rp846
tp847
a(S'list of integrable models'
p848
g2
(g6
S'e\x13\xaa\x97D\x05\xd0?'
p849
tp850
Rp851
tp852
a(S'accelerated failure time model'
p853
g2
(g6
S'W9\x01v\x86\xfb\xcf?'
p854
tp855
Rp856
tp857
a(S'bayes factor'
p858
g2
(g6
S'\x81\xc0\xc2\x85\x9e\xea\xcf?'
p859
tp860
Rp861
tp862
a(S'multilevel model'
p863
g2
(g6
S'w&\x90j\x9f\xe6\xcf?'
p864
tp865
Rp866
tp867
a(S'mobility model'
p868
g2
(g6
S'k\xf3jD\xc5\xce\xcf?'
p869
tp870
Rp871
tp872
a(S'remington model 511 scoremaster'
p873
g2
(g6
S'[j\x82\x94\xef\xc3\xcf?'
p874
tp875
Rp876
tp877
a(S'microscale and macroscale models'
p878
g2
(g6
S'v/x\x7f\x0f\xc2\xcf?'
p879
tp880
Rp881
tp882
a(S'multivariate adaptive regression splines'
p883
g2
(g6
S'\xb6\x1fE>X\xb4\xcf?'
p884
tp885
Rp886
tp887
a(S'latent variable'
p888
g2
(g6
S'b<h\xc5\xc5\xab\xcf?'
p889
tp890
Rp891
tp892
a(S'unnormalized form'
p893
g2
(g6
S'\x9e\x12\x82\x96\xef\xa8\xcf?'
p894
tp895
Rp896
tp897
a(S'cluster-weighted modeling'
p898
g2
(g6
S'\xd3{\xc0X\xcd\x9e\xcf?'
p899
tp900
Rp901
tp902
a(S'standard data model'
p903
g2
(g6
S'\xac\x1f\xf4\xa9p\x9d\xcf?'
p904
tp905
Rp906
tp907
a(S'prime model'
p908
g2
(g6
S"5\xc3/\xef'\x94\xcf?"
p909
tp910
Rp911
tp912
a(S'law of total probability'
p913
g2
(g6
S';\xba\xa30!\x8d\xcf?'
p914
tp915
Rp916
tp917
a(S'z n model'
p918
g2
(g6
S'\x06\x028\xcf\xdb\x8a\xcf?'
p919
tp920
Rp921
tp922
a(S'system model'
p923
g2
(g6
S'Z\xe5\x92\xfc\xef\x89\xcf?'
p924
tp925
Rp926
tp927
a(S'bayesian hierarchical modeling'
p928
g2
(g6
S'\x18\x05P\xf66\x80\xcf?'
p929
tp930
Rp931
tp932
a(S'empirical bayes method'
p933
g2
(g6
S'^J\xaf\x02\xfe\x7f\xcf?'
p934
tp935
Rp936
tp937
a(S'cadillac runabout and tonneau'
p938
g2
(g6
S'\x17\xf2\xcd\x86\xfcw\xcf?'
p939
tp940
Rp941
tp942
a(S'ford model n'
p943
g2
(g6
S'\xb9A\xaf\xd6@v\xcf?'
p944
tp945
Rp946
tp947
a(S'facility information model'
p948
g2
(g6
S'\xc0#7\xf8\xa2p\xcf?'
p949
tp950
Rp951
tp952
a(S'history of network traffic models'
p953
g2
(g6
S'y\x8ag\x80Sn\xcf?'
p954
tp955
Rp956
tp957
a(S'expectation\xe2\x80\x93maximization algorithm'
p958
g2
(g6
S'L\xf3\xb0?}d\xcf?'
p959
tp960
Rp961
tp962
a(S'general circulation model'
p963
g2
(g6
S'\x9a\xadH/\xbcV\xcf?'
p964
tp965
Rp966
tp967
a(S'generalized additive model for location, scale and shape'
p968
g2
(g6
S'\x8b>\xb2\xe3\xe7S\xcf?'
p969
tp970
Rp971
tp972
a(S'monocoupe model 22'
p973
g2
(g6
S'm\x1d\xdf\xea\nD\xcf?'
p974
tp975
Rp976
tp977
a(S'list of black fashion models'
p978
g2
(g6
S'\xda\x98\x9c\xba\xbb>\xcf?'
p979
tp980
Rp981
tp982
a(S'database model'
p983
g2
(g6
S'\x9fR\x9d\xdb:$\xcf?'
p984
tp985
Rp986
tp987
a(S'bayesian programming'
p988
g2
(g6
S'\x10pXg:\x17\xcf?'
p989
tp990
Rp991
tp992
a(S'vulnerability discovery model'
p993
g2
(g6
S'\xbd\xeb\x98\xca\x14\x13\xcf?'
p994
tp995
Rp996
tp997
a(S'joseph berkson'
p998
g2
(g6
S'D\xfap\xba\xbd\x11\xcf?'
p999
tp1000
Rp1001
tp1002
a(S'nonlinear system identification'
p1003
g2
(g6
S'M\xe8\x8a>\x91\x11\xcf?'
p1004
tp1005
Rp1006
tp1007
a(S'nlogit'
p1008
g2
(g6
S'\xa7(F\x07\x1a\x11\xcf?'
p1009
tp1010
Rp1011
tp1012
a(S'ray jackendoff'
p1013
g2
(g6
S'\x8d\x97/\xafJ\x10\xcf?'
p1014
tp1015
Rp1016
tp1017
a(S'list of probability topics'
p1018
g2
(g6
S'L-\x8d\xdf\xd1\x05\xcf?'
p1019
tp1020
Rp1021
tp1022
a(S'quasi-likelihood'
p1023
g2
(g6
S'}\x1d$\x88\xaf\x04\xcf?'
p1024
tp1025
Rp1026
tp1027
a(S'dynamic microsimulation pension model'
p1028
g2
(g6
S'\xda\x90\x15\xfa\n\x03\xcf?'
p1029
tp1030
Rp1031
tp1032
a(S'house model'
p1033
g2
(g6
S' \xa7\xb7\x9c\x19\xff\xce?'
p1034
tp1035
Rp1036
tp1037
a(S'water model'
p1038
g2
(g6
S'\xab|\x98\xb6\xc0\xfa\xce?'
p1039
tp1040
Rp1041
tp1042
a(S'bradley\xe2\x80\x93terry model'
p1043
g2
(g6
S'W\xca\x87\n\x91\xfa\xce?'
p1044
tp1045
Rp1046
tp1047
a(S'missing data'
p1048
g2
(g6
S'\x8d\x17\xde\x8a\x8d\xf8\xce?'
p1049
tp1050
Rp1051
tp1052
a(S'econometric model'
p1053
g2
(g6
S'Zo\x17\x0fO\xf7\xce?'
p1054
tp1055
Rp1056
tp1057
a(S'gee bee sportster'
p1058
g2
(g6
S'\xe0\xafV\x8e4\xe9\xce?'
p1059
tp1060
Rp1061
tp1062
a(S'one-shot learning'
p1063
g2
(g6
S'\x9b\x93\x93\xb5\x04\xe5\xce?'
p1064
tp1065
Rp1066
tp1067
a(S'user interface modeling'
p1068
g2
(g6
S'\xce\\\xee\xa3\x12\xe0\xce?'
p1069
tp1070
Rp1071
tp1072
a(S'variable-order bayesian network'
p1073
g2
(g6
S'\x95\xf403,\xc9\xce?'
p1074
tp1075
Rp1076
tp1077
a(S'gempack'
p1078
g2
(g6
S'\x05\x19}\xb8\xb4\xc8\xce?'
p1079
tp1080
Rp1081
tp1082
a(S'dummy variable (statistics)'
p1083
g2
(g6
S'\xaa<=\xe5\xfe\xc7\xce?'
p1084
tp1085
Rp1086
tp1087
a(S'short-rate model'
p1088
g2
(g6
S'&\xe1\xec\xf5g\xc7\xce?'
p1089
tp1090
Rp1091
tp1092
a(S'semi-supervised learning'
p1093
g2
(g6
S'\x97\x18r\x0f\xfc\xc6\xce?'
p1094
tp1095
Rp1096
tp1097
a(S'dirichlet process'
p1098
g2
(g6
S'\x81\x17T\xd6\xa6\xc3\xce?'
p1099
tp1100
Rp1101
tp1102
a(S'structural equations with latent variables'
p1103
g2
(g6
S'\xa2\xcf\x99\xbc\xa6\xb8\xce?'
p1104
tp1105
Rp1106
tp1107
a(S'generic data model'
p1108
g2
(g6
S'\xed\xe2\xe5\xbd.\xad\xce?'
p1109
tp1110
Rp1111
tp1112
a(S'deep learning'
p1113
g2
(g6
S'\x1d\x85\x0c\x0e)\xa2\xce?'
p1114
tp1115
Rp1116
tp1117
a(S'potts model'
p1118
g2
(g6
S'U\xf6FH\x80\x96\xce?'
p1119
tp1120
Rp1121
tp1122
a(S'semantic phonology'
p1123
g2
(g6
S'\xf1\x1b\xe57\x0e\x95\xce?'
p1124
tp1125
Rp1126
tp1127
a(S'dynamic topic model'
p1128
g2
(g6
S'\x01\x15m\xb7\xe7\x92\xce?'
p1129
tp1130
Rp1131
tp1132
a(S'john eacott'
p1133
g2
(g6
S'X\xb6\xa6\xb4Z\x92\xce?'
p1134
tp1135
Rp1136
tp1137
a(S'traffic generation model'
p1138
g2
(g6
S'\xe1\x911M\xa3\x8b\xce?'
p1139
tp1140
Rp1141
tp1142
a(S'conditional independence'
p1143
g2
(g6
S'\xbb\xec\x0c\xf9\xd3\x83\xce?'
p1144
tp1145
Rp1146
tp1147
a(S'ford model a (1927\xe2\x80\x9331)'
p1148
g2
(g6
S'\xc2\xa4c\xeb+\x83\xce?'
p1149
tp1150
Rp1151
tp1152
a(S'lambretta model b'
p1153
g2
(g6
S'\xee\x0bP>\xf3|\xce?'
p1154
tp1155
Rp1156
tp1157
a(S'regression analysis'
p1158
g2
(g6
S'\xf0\xa3\xeb\xb5\x8a{\xce?'
p1159
tp1160
Rp1161
tp1162
a(S'exponential random graph models'
p1163
g2
(g6
S'N8#\x12+t\xce?'
p1164
tp1165
Rp1166
tp1167
a(S'model (person)'
p1168
g2
(g6
S'\xb3\xbbR%\xcdl\xce?'
p1169
tp1170
Rp1171
tp1172
a(S'markov random field'
p1173
g2
(g6
S'\x05\xa0\xa5\xfc\xb3k\xce?'
p1174
tp1175
Rp1176
tp1177
a(S'architectural model'
p1178
g2
(g6
S'\xbap\x14U\xb9e\xce?'
p1179
tp1180
Rp1181
tp1182
a(S'free parameter'
p1183
g2
(g6
S'\x02\x85{a\xfdc\xce?'
p1184
tp1185
Rp1186
tp1187
a(S'operator (linguistics)'
p1188
g2
(g6
S'\xa8\x80\xa4\xbc\x92S\xce?'
p1189
tp1190
Rp1191
tp1192
a(S'list of machine learning concepts'
p1193
g2
(g6
S'gu\xce\xb4\xa4I\xce?'
p1194
tp1195
Rp1196
tp1197
a(S'identifiability analysis'
p1198
g2
(g6
S'j\xf1\xb3\x8e\x19I\xce?'
p1199
tp1200
Rp1201
tp1202
a(S'world3'
p1203
g2
(g6
S'\x8aihC"H\xce?'
p1204
tp1205
Rp1206
tp1207
a(S'generalized maxwell model'
p1208
g2
(g6
S'\x05\xf0T\xac)E\xce?'
p1209
tp1210
Rp1211
tp1212
a(S'direct election republican model (australia)'
p1213
g2
(g6
S'\xe4\xcc\xb9\x9c\x9bA\xce?'
p1214
tp1215
Rp1216
tp1217
a(S'method of conditional probabilities'
p1218
g2
(g6
S'\xacw\x15\n\xc7@\xce?'
p1219
tp1220
Rp1221
tp1222
a(S'meta model (disambiguation)'
p1223
g2
(g6
S'\xd3\x80\xdf/&?\xce?'
p1224
tp1225
Rp1226
tp1227
a(S'conditional expectation'
p1228
g2
(g6
S'k#\xaa~\xe63\xce?'
p1229
tp1230
Rp1231
tp1232
a(S'mixture (probability)'
p1233
g2
(g6
S'p\x03\xdc^-*\xce?'
p1234
tp1235
Rp1236
tp1237
a(S'standard model (cryptography)'
p1238
g2
(g6
S'pV\x14\xc7\xe1(\xce?'
p1239
tp1240
Rp1241
tp1242
a(S'primordial isocurvature baryon model'
p1243
g2
(g6
S'\x93\xb5\xfe9\x17\x1b\xce?'
p1244
tp1245
Rp1246
tp1247
a(S'the price is right models'
p1248
g2
(g6
S'5(\x1e\xdbN\x0f\xce?'
p1249
tp1250
Rp1251
tp1252
a(S'conditional'
p1253
g2
(g6
S'\xb1q\xfcK\xfd\x0e\xce?'
p1254
tp1255
Rp1256
tp1257
a(S'unsupervised learning'
p1258
g2
(g6
S'\x085Q\xf2\xeb\x0e\xce?'
p1259
tp1260
Rp1261
tp1262
a(S'hidden semi-markov model'
p1263
g2
(g6
S'\xa8J0\xce\xdf\r\xce?'
p1264
tp1265
Rp1266
tp1267
a(S'statistical data type'
p1268
g2
(g6
S'd\xe7\x08\xe3\xa1\x06\xce?'
p1269
tp1270
Rp1271
tp1272
a(S'minichamps'
p1273
g2
(g6
S'\x8a\xd5\x90N\x0f\xf6\xcd?'
p1274
tp1275
Rp1276
tp1277
a(S'model-dependent realism'
p1278
g2
(g6
S'T\x81\xa1\t\xed\xf5\xcd?'
p1279
tp1280
Rp1281
tp1282
a(S'ibm 2365 processor storage'
p1283
g2
(g6
S'_\\\xce\xf79\xf2\xcd?'
p1284
tp1285
Rp1286
tp1287
a(S'standard model (disambiguation)'
p1288
g2
(g6
S'\x87!\xf8\x1a\xf1\xe9\xcd?'
p1289
tp1290
Rp1291
tp1292
a(S'autoregressive\xe2\x80\x93moving-average model'
p1293
g2
(g6
S'\xc5o\x8fF_\xe4\xcd?'
p1294
tp1295
Rp1296
tp1297
a(S'autoencoder'
p1298
g2
(g6
S'd\xb4\xbd\xce\xa0\xcc\xcd?'
p1299
tp1300
Rp1301
tp1302
a(S'discrete choice'
p1303
g2
(g6
S'x\xc0\xf9J[\xc9\xcd?'
p1304
tp1305
Rp1306
tp1307
a(S'data set'
p1308
g2
(g6
S'\xa1\x1b2O\x98\xc6\xcd?'
p1309
tp1310
Rp1311
tp1312
a(S'minimal model (set theory)'
p1313
g2
(g6
S'\xf0s\xd6\x089\xc3\xcd?'
p1314
tp1315
Rp1316
tp1317
a(S'model driven interoperability'
p1318
g2
(g6
S'\xca\x14\x06<\x96\xc2\xcd?'
p1319
tp1320
Rp1321
tp1322
a(S'box\xe2\x80\x93jenkins method'
p1323
g2
(g6
S'\x85z\xdc\xcd\x0c\xc2\xcd?'
p1324
tp1325
Rp1326
tp1327
a(S'model complete theory'
p1328
g2
(g6
S'\xc8\xc2\xb0 z\xc1\xcd?'
p1329
tp1330
Rp1331
tp1332
a(S'linear regression'
p1333
g2
(g6
S'4\xcb5\x08\xba\xba\xcd?'
p1334
tp1335
Rp1336
tp1337
a(S'church (programming language)'
p1338
g2
(g6
S'\x16\xebx\xfc9\xb7\xcd?'
p1339
tp1340
Rp1341
tp1342
a(S'kati nescher'
p1343
g2
(g6
S'\xde\x88\xa2\x93\xdf\xb4\xcd?'
p1344
tp1345
Rp1346
tp1347
a(S'semantic data model'
p1348
g2
(g6
S'E\x06\xe9\xabW\xa9\xcd?'
p1349
tp1350
Rp1351
tp1352
a(S'remington model 878'
p1353
g2
(g6
S'[C\x1b<]\xa3\xcd?'
p1354
tp1355
Rp1356
tp1357
a(S'angellika morton'
p1358
g2
(g6
S'\tZ\x05L\xa1\xa2\xcd?'
p1359
tp1360
Rp1361
tp1362
a(S'confirmatory factor analysis'
p1363
g2
(g6
S'z\xcc\xcf\x88\x07\xa0\xcd?'
p1364
tp1365
Rp1366
tp1367
a(S'list of curtiss hawk aircraft'
p1368
g2
(g6
S'd\xe4\xc6\x94n\x95\xcd?'
p1369
tp1370
Rp1371
tp1372
a(S'bayesian linear regression'
p1373
g2
(g6
S'<K\x12\x7fq\x90\xcd?'
p1374
tp1375
Rp1376
tp1377
a(S'design matrix'
p1378
g2
(g6
S'\xea\xc2\xad\xcdZ\x8a\xcd?'
p1379
tp1380
Rp1381
tp1382
a(S'core architecture data model'
p1383
g2
(g6
S'{H\x8eg\xdf\x88\xcd?'
p1384
tp1385
Rp1386
tp1387
a(S'markovian discrimination'
p1388
g2
(g6
S'\x07r\xdfL\x1f\x85\xcd?'
p1389
tp1390
Rp1391
tp1392
a(S'smith & wesson model 17'
p1393
g2
(g6
S'\xbc\x0b\xeehL\x81\xcd?'
p1394
tp1395
Rp1396
tp1397
a(S'pseudolikelihood'
p1398
g2
(g6
S'\xf3\x97\xef\xb1\x17j\xcd?'
p1399
tp1400
Rp1401
tp1402
a(S'model\xe2\x80\x93view\xe2\x80\x93viewmodel'
p1403
g2
(g6
S'\xf7H;\t]h\xcd?'
p1404
tp1405
Rp1406
tp1407
a(S'ibm system/360 model 22'
p1408
g2
(g6
S'G\x95\xa1I\x9bg\xcd?'
p1409
tp1410
Rp1411
tp1412
a(S'radio propagation model'
p1413
g2
(g6
S'\xf2~\x92Gxg\xcd?'
p1414
tp1415
Rp1416
tp1417
a(S'packard model 30'
p1418
g2
(g6
S'\xf3\xeb\xd0\x885_\xcd?'
p1419
tp1420
Rp1421
tp1422
a(S'object-modeling technique'
p1423
g2
(g6
S'h\xeb\xbd\xe6&]\xcd?'
p1424
tp1425
Rp1426
tp1427
a(S'conditional mutual information'
p1428
g2
(g6
S'\xa9\xd5\xc4&\xbc[\xcd?'
p1429
tp1430
Rp1431
tp1432
a(S'multicollinearity'
p1433
g2
(g6
S'\xc3\xa3\xb4\xc8eY\xcd?'
p1434
tp1435
Rp1436
tp1437
a(S'macroeconomic model'
p1438
g2
(g6
S'\x88\xae1\x15\x82S\xcd?'
p1439
tp1440
Rp1441
tp1442
a(S'jamie gunns'
p1443
g2
(g6
S'at\xd1\xd7\x83Q\xcd?'
p1444
tp1445
Rp1446
tp1447
a(S'reference model'
p1448
g2
(g6
S'e\x9b\xb8\xe9\xb1K\xcd?'
p1449
tp1450
Rp1451
tp1452
a(S'latent dirichlet allocation'
p1453
g2
(g6
S'\x034\x81Q\x176\xcd?'
p1454
tp1455
Rp1456
tp1457
a(S'paper model'
p1458
g2
(g6
S'\n7\xa3{\xbe5\xcd?'
p1459
tp1460
Rp1461
tp1462
a(S'machine learning'
p1463
g2
(g6
S'\xd0\xa0$\xbeF,\xcd?'
p1464
tp1465
Rp1466
tp1467
a(S'coefficient of determination'
p1468
g2
(g6
S'\xcb\xdb\x0c\x0f\x9f&\xcd?'
p1469
tp1470
Rp1471
tp1472
a(S'conditions on transformations'
p1473
g2
(g6
S'J\xd2\x1a\x8d\xbe \xcd?'
p1474
tp1475
Rp1476
tp1477
a(S'indian model o'
p1478
g2
(g6
S'\xd1rai\x93 \xcd?'
p1479
tp1480
Rp1481
tp1482
a(S'remington model 7400'
p1483
g2
(g6
S'\xf9\xbe\xcf\n\xef\x13\xcd?'
p1484
tp1485
Rp1486
tp1487
a(S'model a (band)'
p1488
g2
(g6
S'\x9c\x1d9\xf33\n\xcd?'
p1489
tp1490
Rp1491
tp1492
a(S'list of winchester models'
p1493
g2
(g6
S'lc\xe4Hh\t\xcd?'
p1494
tp1495
Rp1496
tp1497
a(S'linear model'
p1498
g2
(g6
S'\xf0\xdev\xf8<\x07\xcd?'
p1499
tp1500
Rp1501
tp1502
a(S'regression diagnostic'
p1503
g2
(g6
S'\xe0h\x96\xfe\x02\x04\xcd?'
p1504
tp1505
Rp1506
tp1507
a(S'forecast (model)'
p1508
g2
(g6
S'\r\x0b\xcb\x9c\x12\x02\xcd?'
p1509
tp1510
Rp1511
tp1512
a.