(lp0
(S'geometry'
p1
cnumpy.core.multiarray
scalar
p2
(cnumpy
dtype
p3
(S'f8'
p4
I0
I1
tp5
Rp6
(I3
S'<'
p7
NNNI-1
I-1
I0
tp8
bS'\xfd\xff\xff\xff\xff\xff\xef?'
p9
tp10
Rp11
tp12
a(S'outline of geometry'
p13
g2
(g6
S'=^\x7f\xaa\xe7c\xec?'
p14
tp15
Rp16
tp17
a(S'list of geometers'
p18
g2
(g6
S'\xc9\x8bJ\xcb\x1e;\xeb?'
p19
tp20
Rp21
tp22
a(S'list of geometry topics'
p23
g2
(g6
S"\x1a3f\xca'\xb7\xea?"
p24
tp25
Rp26
tp27
a(S'history of geometry'
p28
g2
(g6
S'\xb3\xd7\xa4\xec\xd1.\xe9?'
p29
tp30
Rp31
tp32
a(S'synthetic geometry'
p33
g2
(g6
S'\xf3\x03\xb9Xj\xb8\xe8?'
p34
tp35
Rp36
tp37
a(S'absolute geometry'
p38
g2
(g6
S'\xd0\n\x99#F\xf5\xe7?'
p39
tp40
Rp41
tp42
a(S'glossary of areas of mathematics'
p43
g2
(g6
S'\x1bOXGv\x9c\xe7?'
p44
tp45
Rp46
tp47
a(S'non-euclidean geometry'
p48
g2
(g6
S'\xcf\xeb)\xc0J\x0f\xe7?'
p49
tp50
Rp51
tp52
a(S'plane geometry (disambiguation)'
p53
g2
(g6
S'KHW6\xd6\xa9\xe6?'
p54
tp55
Rp56
tp57
a(S'spatial query'
p58
g2
(g6
S'f\xa7\xc2\xda0\xa1\xe6?'
p59
tp60
Rp61
tp62
a(S'models of non-euclidean geometry'
p63
g2
(g6
S'SF\xd5@\xc4_\xe6?'
p64
tp65
Rp66
tp67
a(S'erlangen program'
p68
g2
(g6
S'\xbf\xca=??"\xe6?'
p69
tp70
Rp71
tp72
a(S'transformation geometry'
p73
g2
(g6
S'\x08\xb2\x1b\x91\xd8\x00\xe6?'
p74
tp75
Rp76
tp77
a(S'cabri geometry'
p78
g2
(g6
S'\x0c\\\x91>\xcb\xe8\xe5?'
p79
tp80
Rp81
tp82
a(S'nikolai lobachevsky'
p83
g2
(g6
S'\x1b\xe1\xc8j\xbe\xbb\xe5?'
p84
tp85
Rp86
tp87
a(S'geometry from the land of the incas'
p88
g2
(g6
S'\xf0\x94\x7f\xce/F\xe5?'
p89
tp90
Rp91
tp92
a(S'foundations of geometry'
p93
g2
(g6
S'5\x85\xce\xca\xf1\x10\xe5?'
p94
tp95
Rp96
tp97
a(S'differential geometry'
p98
g2
(g6
S'\xa8\xd1N\xb9S\xe3\xe4?'
p99
tp100
Rp101
tp102
a(S'universal algebraic geometry'
p103
g2
(g6
S'R\x0b\xfa\xf4(j\xe4?'
p104
tp105
Rp106
tp107
a(S'luis santal\xc3\xb3'
p108
g2
(g6
S'\x1c~)\xb7\xf8B\xe4?'
p109
tp110
Rp111
tp112
a(S'euclidean geometry'
p113
g2
(g6
S'\xf9\x855\x96i\xcc\xe3?'
p114
tp115
Rp116
tp117
a(S'klein geometry'
p118
g2
(g6
S'\xd5[l\xdd\x91\x90\xe3?'
p119
tp120
Rp121
tp122
a(S'architectural geometry'
p123
g2
(g6
S'\xf5N\xe1\x7f\x01j\xe3?'
p124
tp125
Rp126
tp127
a(S'elliptic geometry'
p128
g2
(g6
S'\xa3\x12\x9e\xb8\xbd\xc2\xe2?'
p129
tp130
Rp131
tp132
a(S'robert williams (geometer)'
p133
g2
(g6
S'\x9f>r\xbb\xa4\xa1\xe2?'
p134
tp135
Rp136
tp137
a(S'projective geometry'
p138
g2
(g6
S'\xc1\xf2\xf1\xb7\xe1\x9a\xe2?'
p139
tp140
Rp141
tp142
a(S'isaak yaglom'
p143
g2
(g6
S'\x98\x13\x8c\xb9\xb3p\xe2?'
p144
tp145
Rp146
tp147
a(S'solid geometry'
p148
g2
(g6
S'W8\xad\xae\x9aF\xe2?'
p149
tp150
Rp151
tp152
a(S'geometry instancing'
p153
g2
(g6
S'\xc8@\xe2\xe1a\xf4\xe1?'
p154
tp155
Rp156
tp157
a(S'principles of geometry'
p158
g2
(g6
S'\x80\x92\x06\x92\x04\xf0\xe1?'
p159
tp160
Rp161
tp162
a(S'computational geometry'
p163
g2
(g6
S'\xef\xd4\x91\xa6\xcc\xcf\xe1?'
p164
tp165
Rp166
tp167
a(S'glossary of classical algebraic geometry'
p168
g2
(g6
S'[Dp\x15\x98\xaf\xe1?'
p169
tp170
Rp171
tp172
a(S'ordered geometry'
p173
g2
(g6
S'0]M\xe6\xa5\x95\xe1?'
p174
tp175
Rp176
tp177
a(S'journal of geometry and physics'
p178
g2
(g6
S'\xb8\x83\xa8=\x04r\xe1?'
p179
tp180
Rp181
tp182
a(S'geometry and topology'
p183
g2
(g6
S'\x87\x8d\xa3h\x83P\xe1?'
p184
tp185
Rp186
tp187
a(S'monogon'
p188
g2
(g6
S'\x05p_\xc6\xb8O\xe1?'
p189
tp190
Rp191
tp192
a(S'timeline of geometry'
p193
g2
(g6
S'0\xc6\x82\x9e\x9d\x19\xe1?'
p194
tp195
Rp196
tp197
a(S'synthetic differential geometry'
p198
g2
(g6
S'X\xb7R,$\xef\xe0?'
p199
tp200
Rp201
tp202
a(S'geometry (disambiguation)'
p203
g2
(g6
S')\xb7\x1f\x11\xa4\xe9\xe0?'
p204
tp205
Rp206
tp207
a(S'discrete geometry'
p208
g2
(g6
S'\xde\xefVs\xae\xe8\xe0?'
p209
tp210
Rp211
tp212
a(S'line (geometry)'
p213
g2
(g6
S'\x9dE\x84Ru\xe4\xe0?'
p214
tp215
Rp216
tp217
a(S'non-archimedean geometry'
p218
g2
(g6
S'\x9dnUAe\xe4\xe0?'
p219
tp220
Rp221
tp222
a(S'mikhail vaschenko-zakharchenko'
p223
g2
(g6
S'\\:\xc4/.\xe2\xe0?'
p224
tp225
Rp226
tp227
a(S'daniel pedoe'
p228
g2
(g6
S'\xcd^\xbfh\x89\xca\xe0?'
p229
tp230
Rp231
tp232
a(S'tom brooks (writer)'
p233
g2
(g6
S'=\xe5?Bk\xbf\xe0?'
p234
tp235
Rp236
tp237
a(S'abstraction (mathematics)'
p238
g2
(g6
S'\x10}bG\xe9\xbe\xe0?'
p239
tp240
Rp241
tp242
a(S'henry forder'
p243
g2
(g6
S'R\x91}\xa5e\x9d\xe0?'
p244
tp245
Rp246
tp247
a(S'saccheri\xe2\x80\x93legendre theorem'
p248
g2
(g6
S';p\x9c=\x96\x9a\xe0?'
p249
tp250
Rp251
tp252
a(S'journal of differential geometry'
p253
g2
(g6
S'\xacq\xdfP\x8a\x98\xe0?'
p254
tp255
Rp256
tp257
a(S'track geometry car'
p258
g2
(g6
S'\xfe*1\xa5\x81s\xe0?'
p259
tp260
Rp261
tp262
a(S'beniamino segre'
p263
g2
(g6
S'\x99\x83\xe0\x95\x1bm\xe0?'
p264
tp265
Rp266
tp267
a(S'list of books in computational geometry'
p268
g2
(g6
S'e\x13\xab\xad\xf1l\xe0?'
p269
tp270
Rp271
tp272
a(S'nathan altshiller court'
p273
g2
(g6
S'\x00\xcfwu\xfeE\xe0?'
p274
tp275
Rp276
tp277
a(S'hyperbolic geometry'
p278
g2
(g6
S'\xc1\x1a\xea\x94S?\xe0?'
p279
tp280
Rp281
tp282
a(S'galois geometry'
p283
g2
(g6
S'\xa1\x1d\xf4]v7\xe0?'
p284
tp285
Rp286
tp287
a(S'algebraic geometry'
p288
g2
(g6
S';\x1c\x12\xdf&+\xe0?'
p289
tp290
Rp291
tp292
a(S'hand geometry'
p293
g2
(g6
S'\xa1M\xd6\x0fM\xfe\xdf?'
p294
tp295
Rp296
tp297
a(S'moritz pasch'
p298
g2
(g6
S'\xf1\xad\xec\xbc;\xf3\xdf?'
p299
tp300
Rp301
tp302
a(S'affine geometry'
p303
g2
(g6
S'\x02\xd2\x8d6x\xce\xdf?'
p304
tp305
Rp306
tp307
a(S'phillip griffiths'
p308
g2
(g6
S'\xa65\xa2\r\xa6\xc1\xdf?'
p309
tp310
Rp311
tp312
a(S'john roe (mathematician)'
p313
g2
(g6
S'k\x88\x9dZ\x82\xb6\xdf?'
p314
tp315
Rp316
tp317
a(S'david w. henderson'
p318
g2
(g6
S'ExS\x0bM\xad\xdf?'
p319
tp320
Rp321
tp322
a(S'kurt leichtweiss'
p323
g2
(g6
S'\xfd\x101s\xd3^\xdf?'
p324
tp325
Rp326
tp327
a(S'g. b. halsted'
p328
g2
(g6
S')\xc9\x8cw\x159\xdf?'
p329
tp330
Rp331
tp332
a(S'numena + geometry'
p333
g2
(g6
S'm\xdc\x00\xc1e\x13\xdf?'
p334
tp335
Rp336
tp337
a(S'rouben v. ambartzumian'
p338
g2
(g6
S'\xf0\x01\x83K@\xff\xde?'
p339
tp340
Rp341
tp342
a(S"pasch's theorem"
p343
g2
(g6
S'K\x81\xb2{2\xe1\xde?'
p344
tp345
Rp346
tp347
a(S'geometry expert'
p348
g2
(g6
S'\xdc\xae\x08&\xac\xd6\xde?'
p349
tp350
Rp351
tp352
a(S'kenji fukaya'
p353
g2
(g6
S'\xb1\x01I\xf5\xd7\x98\xde?'
p354
tp355
Rp356
tp357
a(S'italian school of algebraic geometry'
p358
g2
(g6
S'\xdd$a\xa6\x06u\xde?'
p359
tp360
Rp361
tp362
a(S'real point'
p363
g2
(g6
S'\x05.T&\xd6t\xde?'
p364
tp365
Rp366
tp367
a(S'algebraic geometry (journal)'
p368
g2
(g6
S'\xa7\xe0\x0bc\x9a\\\xde?'
p369
tp370
Rp371
tp372
a(S'algebraic geometry (book)'
p373
g2
(g6
S'%\x9aaHdQ\xde?'
p374
tp375
Rp376
tp377
a(S'hans schwerdtfeger'
p378
g2
(g6
S'pm\xea}\xe03\xde?'
p379
tp380
Rp381
tp382
a(S'spherical geometry'
p383
g2
(g6
S',1\xe9\x86\x0c&\xde?'
p384
tp385
Rp386
tp387
a(S'computational geometry (journal)'
p388
g2
(g6
S'\x00_i\xc2\xe5!\xde?'
p389
tp390
Rp391
tp392
a(S'dehn plane'
p393
g2
(g6
S'\xf8#\xe1;f\x1a\xde?'
p394
tp395
Rp396
tp397
a(S'owen tromans'
p398
g2
(g6
S'\xe1\xa0V\x98\xb8\x19\xde?'
p399
tp400
Rp401
tp402
a(S'geometry wars: waves'
p403
g2
(g6
S'\xbdu\xa6,\x84\r\xde?'
p404
tp405
Rp406
tp407
a(S'andrei petrovich kiselyov'
p408
g2
(g6
S'\x0f\x133B\x11\n\xde?'
p409
tp410
Rp411
tp412
a(S'pregeometry (model theory)'
p413
g2
(g6
S'8S>M\x8f\xf7\xdd?'
p414
tp415
Rp416
tp417
a(S'sacred geometry'
p418
g2
(g6
S'\xb1M\x1d\xab\x1e\xef\xdd?'
p419
tp420
Rp421
tp422
a(S'hypersurface'
p423
g2
(g6
S'\x16\xb9\x82]X\xb0\xdd?'
p424
tp425
Rp426
tp427
a(S'su buqing'
p428
g2
(g6
S'\xc3\x1f9\xb3\x7f\x86\xdd?'
p429
tp430
Rp431
tp432
a(S'alfred gray (mathematician)'
p433
g2
(g6
S'xKA\x1ee_\xdd?'
p434
tp435
Rp436
tp437
a(S'gheorghe \xc8\x9ai\xc8\x9beica'
p438
g2
(g6
S'\xf7\xb0\x17\x8c)Z\xdd?'
p439
tp440
Rp441
tp442
a(S'thomas banchoff'
p443
g2
(g6
S'f\x1f\x92\xf6\x93O\xdd?'
p444
tp445
Rp446
tp447
a(S'derived algebraic geometry'
p448
g2
(g6
S'\xdb}\x02\x16v<\xdd?'
p449
tp450
Rp451
tp452
a(S'keti tenenblat'
p453
g2
(g6
S'\xab\x8a\xd0<\xb57\xdd?'
p454
tp455
Rp456
tp457
a(S'glossary of algebraic geometry'
p458
g2
(g6
S'\xd0\xdd\x1b\x821-\xdd?'
p459
tp460
Rp461
tp462
a(S'herbert busemann'
p463
g2
(g6
S'\x8aKT}\xb7\xfb\xdc?'
p464
tp465
Rp466
tp467
a(S'buekenhout geometry'
p468
g2
(g6
S'L:\x8b\xe1\xd6\xf0\xdc?'
p469
tp470
Rp471
tp472
a(S'parabolic geometry (differential geometry)'
p473
g2
(g6
S'b\x14w\xec\xb5\xd1\xdc?'
p474
tp475
Rp476
tp477
a(S'point (geometry)'
p478
g2
(g6
S'\x17\xc1\xc5\xc9\xe0\xc3\xdc?'
p479
tp480
Rp481
tp482
a(S'power geometry'
p483
g2
(g6
S'Q\xa0\xb1\xe46\xb3\xdc?'
p484
tp485
Rp486
tp487
a(S'analytic geometry'
p488
g2
(g6
S'\x052\x8eW\x08\xb3\xdc?'
p489
tp490
Rp491
tp492
a(S'abstract differential geometry'
p493
g2
(g6
S'O5\xc7~\xa5\x92\xdc?'
p494
tp495
Rp496
tp497
a(S'sphaerics'
p498
g2
(g6
S'N\x95<\xfaH\x87\xdc?'
p499
tp500
Rp501
tp502
a(S'list of differential geometry topics'
p503
g2
(g6
S'\xa4\xd6\xac]\x9ft\xdc?'
p504
tp505
Rp506
tp507
a(S'the geometry center'
p508
g2
(g6
S']v\x96\x14]o\xdc?'
p509
tp510
Rp511
tp512
a(S'osculating plane'
p513
g2
(g6
S"\x18q&'\xc6j\xdc?"
p514
tp515
Rp516
tp517
a(S'eugenio beltrami'
p518
g2
(g6
S'%\x81\n\x01\x07c\xdc?'
p519
tp520
Rp521
tp522
a(S'projective differential geometry'
p523
g2
(g6
S'\xb2\xb1\xf2X\x1fU\xdc?'
p524
tp525
Rp526
tp527
a(S'patrick du val'
p528
g2
(g6
S'\xf4F\x9c)\xe7N\xdc?'
p529
tp530
Rp531
tp532
a(S'geometry festival'
p533
g2
(g6
S'\xfa\x92\xc4x\x08#\xdc?'
p534
tp535
Rp536
tp537
a(S'geometrization conjecture'
p538
g2
(g6
S'K\xd8Z$0\xfb\xdb?'
p539
tp540
Rp541
tp542
a(S'david a. cox'
p543
g2
(g6
S'\x19\x9b\x83\xec\x02\xe6\xdb?'
p544
tp545
Rp546
tp547
a(S'breakthrough prize in mathematics'
p548
g2
(g6
S'\x1dw\x93@\xaf\xde\xdb?'
p549
tp550
Rp551
tp552
a(S'oscar zariski'
p553
g2
(g6
S'[b\x8dK\x96\xd9\xdb?'
p554
tp555
Rp556
tp557
a(S'alexander nabutovsky'
p558
g2
(g6
S'\x13T\xc2\x8f\x9f\xcf\xdb?'
p559
tp560
Rp561
tp562
a(S'discrete and computational geometry'
p563
g2
(g6
S'P\x17\x85\xf4/\xc3\xdb?'
p564
tp565
Rp566
tp567
a(S'field with one element'
p568
g2
(g6
S"\xce/\xcd\x85'\xbf\xdb?"
p569
tp570
Rp571
tp572
a(S'burt totaro'
p573
g2
(g6
S'\xce\xdb\x08u\x99\x99\xdb?'
p574
tp575
Rp576
tp577
a(S'glossary of arithmetic and diophantine geometry'
p578
g2
(g6
S'O\x17ht\xe7\x93\xdb?'
p579
tp580
Rp581
tp582
a(S'joseph s. b. mitchell'
p583
g2
(g6
S'D\x7fwI*\x93\xdb?'
p584
tp585
Rp586
tp587
a(S'geometry processing'
p588
g2
(g6
S'%\xeb ;(\x92\xdb?'
p589
tp590
Rp591
tp592
a(S'eduardo torroja caballe'
p593
g2
(g6
S'\xf1&\x05\xc0\xaa\x90\xdb?'
p594
tp595
Rp596
tp597
a(S'duncan sommerville'
p598
g2
(g6
S')\xf1\x1d\x11\x99\x83\xdb?'
p599
tp600
Rp601
tp602
a(S'bohumil byd\xc5\xbeovsk\xc3\xbd'
p603
g2
(g6
S'\x8c\x0fl\xd8>|\xdb?'
p604
tp605
Rp606
tp607
a(S'geometry of love'
p608
g2
(g6
S'\x11\xf50Q\x1a|\xdb?'
p609
tp610
Rp611
tp612
a(S'georges henri halphen'
p613
g2
(g6
S'~\x948zWu\xdb?'
p614
tp615
Rp616
tp617
a(S'giovanni girolamo saccheri'
p618
g2
(g6
S'\xfc\xabx~\x87e\xdb?'
p619
tp620
Rp621
tp622
a(S'convex geometry'
p623
g2
(g6
S'H\xd9\xd2\x08gJ\xdb?'
p624
tp625
Rp626
tp627
a(S'max planck institute for mathematics'
p628
g2
(g6
S'\xe35`=Q?\xdb?'
p629
tp630
Rp631
tp632
a(S'feature geometry'
p633
g2
(g6
S'\xb5\xfc\x8c\x92E+\xdb?'
p634
tp635
Rp636
tp637
a(S'theodor reye'
p638
g2
(g6
S'\xdf\xe2\x9a6\x1c\x1d\xdb?'
p639
tp640
Rp641
tp642
a(S'discrete differential geometry'
p643
g2
(g6
S'\x93E\xbeG\xfb\x16\xdb?'
p644
tp645
Rp646
tp647
a(S'matrix theory (physics)'
p648
g2
(g6
S'$\xda\x1dU\x9d\x0c\xdb?'
p649
tp650
Rp651
tp652
a(S'noncommutative standard model'
p653
g2
(g6
S'/\x8eK\x9f\x11\x0c\xdb?'
p654
tp655
Rp656
tp657
a(S'geometry pipelines'
p658
g2
(g6
S'Vk\x11k\xec\x05\xdb?'
p659
tp660
Rp661
tp662
a(S'iskander taimanov'
p663
g2
(g6
S'\x88oH\x1c\x90\x05\xdb?'
p664
tp665
Rp666
tp667
a(S'oleg viro'
p668
g2
(g6
S'B\xb1\x93\xa9\x1f\xde\xda?'
p669
tp670
Rp671
tp672
a(S'james b. carrell'
p673
g2
(g6
S'Z\xf5\xab\x97D\xd2\xda?'
p674
tp675
Rp676
tp677
a(S'geometry of numbers'
p678
g2
(g6
S'\xaf\xe5\x04\xe8\x7f\xb0\xda?'
p679
tp680
Rp681
tp682
a(S'list of important publications in mathematics'
p683
g2
(g6
S' \xaa\xab\xdb\xfd\xa8\xda?'
p684
tp685
Rp686
tp687
a(S'geometric design'
p688
g2
(g6
S'\x97\x81\xba\x81\x05\xa5\xda?'
p689
tp690
Rp691
tp692
a(S'robert bryant (mathematician)'
p693
g2
(g6
S'eT\x9e0<\x93\xda?'
p694
tp695
Rp696
tp697
a(S'foundations of algebraic geometry'
p698
g2
(g6
S'1N\xeeV\xbb\x82\xda?'
p699
tp700
Rp701
tp702
a(S'point\xe2\x80\x93line\xe2\x80\x93plane postulate'
p703
g2
(g6
S'\x12a\x85\xca\xc6{\xda?'
p704
tp705
Rp706
tp707
a(S'square pyramidal molecular geometry'
p708
g2
(g6
S'\n\xa0\x14\xbb;m\xda?'
p709
tp710
Rp711
tp712
a(S'taxicab geometry'
p713
g2
(g6
S'\x14\xb4\x15\xf22k\xda?'
p714
tp715
Rp716
tp717
a(S'quantum geometry'
p718
g2
(g6
S'^\xc3\x9f+\xd4g\xda?'
p719
tp720
Rp721
tp722
a(S'wolf prize in mathematics'
p723
g2
(g6
S'@\xbc\xd6H\xe1W\xda?'
p724
tp725
Rp726
tp727
a(S'differential algebraic geometry'
p728
g2
(g6
S'\x06?\xdc\xb0+T\xda?'
p729
tp730
Rp731
tp732
a(S'geometric modeling'
p733
g2
(g6
S'\x19)v\xfb\x91E\xda?'
p734
tp735
Rp736
tp737
a(S"hilbert's fourth problem"
p738
g2
(g6
S'\xb6\x05\xa5\xe9\xbf1\xda?'
p739
tp740
Rp741
tp742
a(S'tricapped trigonal prismatic molecular geometry'
p743
g2
(g6
S'\x0f\xc0\xdf\xb9\xa6"\xda?'
p744
tp745
Rp746
tp747
a(S'journal of computational geometry'
p748
g2
(g6
S"\xe9H'-\xb8\x19\xda?"
p749
tp750
Rp751
tp752
a(S'euclidean space'
p753
g2
(g6
S'\xe1\x04\x15\x94\x86\x0b\xda?'
p754
tp755
Rp756
tp757
a(S'aleksandr kotelnikov'
p758
g2
(g6
S'\x17\xa4\x87\x0c\x05\x06\xda?'
p759
tp760
Rp761
tp762
a(S'partial geometry'
p763
g2
(g6
S'yyXZ\xd4\xfd\xd9?'
p764
tp765
Rp766
tp767
a(S'siegfried bosch'
p768
g2
(g6
S'"\x0c\x1f\xe9\xc4\xf7\xd9?'
p769
tp770
Rp771
tp772
a(S'charles ernest weatherburn'
p773
g2
(g6
S'?\xc3\xcd\xa5\xc0\xe8\xd9?'
p774
tp775
Rp776
tp777
a(S'joe harris (mathematician)'
p778
g2
(g6
S'd\xde\xb1\x19\x07\xe3\xd9?'
p779
tp780
Rp781
tp782
a(S'hellmuth stachel'
p783
g2
(g6
S'\x82\xe5<|\xe8\xda\xd9?'
p784
tp785
Rp786
tp787
a(S'variable geometry turbomachine'
p788
g2
(g6
S'+]\x8cF!\xd3\xd9?'
p789
tp790
Rp791
tp792
a(S'motivic integration'
p793
g2
(g6
S'\xd54\xbaJ\x02\xd1\xd9?'
p794
tp795
Rp796
tp797
a(S'brendan hassett'
p798
g2
(g6
S'R<R\xbb\xe6\xbe\xd9?'
p799
tp800
Rp801
tp802
a(S'areas of mathematics'
p803
g2
(g6
S'\x07\xefj\x19\x08\xad\xd9?'
p804
tp805
Rp806
tp807
a(S'sylvester medal'
p808
g2
(g6
S'\xf4\xc4\x0c\xb7\x06\xaa\xd9?'
p809
tp810
Rp811
tp812
a(S'ground field'
p813
g2
(g6
S'\xdfN\xd2\xd2\xd6\xa3\xd9?'
p814
tp815
Rp816
tp817
a(S'list of interactive geometry software'
p818
g2
(g6
S'\xa7oV\xda\xfaw\xd9?'
p819
tp820
Rp821
tp822
a(S'th\xc3\xa9bault'
p823
g2
(g6
S'\n\xf7\x0c`sb\xd9?'
p824
tp825
Rp826
tp827
a(S'minhyong kim'
p828
g2
(g6
S'j\x01cY\x15G\xd9?'
p829
tp830
Rp831
tp832
a(S'katsumi nomizu'
p833
g2
(g6
S'\x1c\xb0\xeaU^=\xd9?'
p834
tp835
Rp836
tp837
a(S'parallel (geometry)'
p838
g2
(g6
S'=\xc8\xc3\xfd\xcd/\xd9?'
p839
tp840
Rp841
tp842
a(S'steve shnider'
p843
g2
(g6
S"\xbc\x07\x9b\xea\xa3'\xd9?"
p844
tp845
Rp846
tp847
a(S'cayley\xe2\x80\x93klein metric'
p848
g2
(g6
S'~nQ\x05\xed \xd9?'
p849
tp850
Rp851
tp852
a(S'nikolai durov'
p853
g2
(g6
S'\x8f\xbf\xb7\xf4\xa6\x17\xd9?'
p854
tp855
Rp856
tp857
a(S'cleaver (geometry)'
p858
g2
(g6
S'\xc8\xba\xb4\x15A\x11\xd9?'
p859
tp860
Rp861
tp862
a(S'tim poston'
p863
g2
(g6
S'\xe1\x90\x94\xbc}\n\xd9?'
p864
tp865
Rp866
tp867
a(S'ruth moufang'
p868
g2
(g6
S'`\xa2d\x7f\xb4\xf5\xd8?'
p869
tp870
Rp871
tp872
a(S'symposium on computational geometry'
p873
g2
(g6
S'\xbd\x89\x11P\xe1\xf2\xd8?'
p874
tp875
Rp876
tp877
a(S'k\xc3\xa1roly bezdek'
p878
g2
(g6
S'W{\xa0d<\xd2\xd8?'
p879
tp880
Rp881
tp882
a(S'groups, geometry, and dynamics'
p883
g2
(g6
S'vh\xe1\xb3H\x9f\xd8?'
p884
tp885
Rp886
tp887
a(S'kseg (software)'
p888
g2
(g6
S'<\x90\xafU\x1f\x8b\xd8?'
p889
tp890
Rp891
tp892
a(S'history of mathematics'
p893
g2
(g6
S'/g\xa0F\xa9\x88\xd8?'
p894
tp895
Rp896
tp897
a(S'geometry index'
p898
g2
(g6
S'_\x0bZ#\xbd\x87\xd8?'
p899
tp900
Rp901
tp902
a(S'finite geometry'
p903
g2
(g6
S'\xafv\xdeC\xe5u\xd8?'
p904
tp905
Rp906
tp907
a(S'half-space'
p908
g2
(g6
S'y\x80\x9f(\x93f\xd8?'
p909
tp910
Rp911
tp912
a(S'heinrich guggenheimer'
p913
g2
(g6
S'VM\xc94Zb\xd8?'
p914
tp915
Rp916
tp917
a(S'diophantine geometry'
p918
g2
(g6
S'\xf3\xf7\xaf3&^\xd8?'
p919
tp920
Rp921
tp922
a(S'general position'
p923
g2
(g6
S'\xb4\x13\xac\xa7\r]\xd8?'
p924
tp925
Rp926
tp927
a(S'gheorghe vr\xc3\xa2nceanu'
p928
g2
(g6
S'\x13\xef\x80~\t]\xd8?'
p929
tp930
Rp931
tp932
a(S'continuous geometry'
p933
g2
(g6
S'&)\xda\xfc\x0cW\xd8?'
p934
tp935
Rp936
tp937
a(S'coordinative definition'
p938
g2
(g6
S'\xd7\x94\x99\x83\xeeT\xd8?'
p939
tp940
Rp941
tp942
a(S'capped square antiprismatic molecular geometry'
p943
g2
(g6
S'2}\xea\xaa\tM\xd8?'
p944
tp945
Rp946
tp947
a(S'thomas gerald room'
p948
g2
(g6
S'z\xfe\xd0\xf7\xb7J\xd8?'
p949
tp950
Rp951
tp952
a(S'tam\xc3\xa1s hausel'
p953
g2
(g6
S"^'\x05\xa1\xbfG\xd8?"
p954
tp955
Rp956
tp957
a(S'gino fano'
p958
g2
(g6
S'b\xa9aT5=\xd8?'
p959
tp960
Rp961
tp962
a(S'felix klein'
p963
g2
(g6
S'\xf0\xe91)\xd97\xd8?'
p964
tp965
Rp966
tp967
a(S'list of numerical computational geometry topics'
p968
g2
(g6
S'\n\xdd\x05\x9a\x804\xd8?'
p969
tp970
Rp971
tp972
a(S'richard m. pollack'
p973
g2
(g6
S'\xa8\x0e~\\b0\xd8?'
p974
tp975
Rp976
tp977
a(S'forum geometricorum'
p978
g2
(g6
S'\xfb-F\xdc\x9f/\xd8?'
p979
tp980
Rp981
tp982
a(S'jts topology suite'
p983
g2
(g6
S'\xc1\xf6\x7f\xcd\xb0+\xd8?'
p984
tp985
Rp986
tp987
a(S'werner fenchel'
p988
g2
(g6
S'Ai\x89\xb6w)\xd8?'
p989
tp990
Rp991
tp992
a(S'noncommutative algebraic geometry'
p993
g2
(g6
S'\x04\xdd\xaf\x1dN&\xd8?'
p994
tp995
Rp996
tp997
a(S'euclidean'
p998
g2
(g6
S'%\xac*Ze\x1a\xd8?'
p999
tp1000
Rp1001
tp1002
a(S'hypersphere'
p1003
g2
(g6
S'\x84\x0e\xbb\x94\xe2\x05\xd8?'
p1004
tp1005
Rp1006
tp1007
a(S'shoshichi kobayashi'
p1008
g2
(g6
S't]\x9b\n\x8c\x05\xd8?'
p1009
tp1010
Rp1011
tp1012
a(S'ruppeiner geometry'
p1013
g2
(g6
S'\xf6\xbb[l]\x04\xd8?'
p1014
tp1015
Rp1016
tp1017
a(S'jacob lurie'
p1018
g2
(g6
S'\xb2\x9cD\xcdV\xff\xd7?'
p1019
tp1020
Rp1021
tp1022
a(S'unifying theories in mathematics'
p1023
g2
(g6
S'\x06\xc8k\xc96\xfb\xd7?'
p1024
tp1025
Rp1026
tp1027
a(S'kenneth l. clarkson'
p1028
g2
(g6
S'\xf5\xaey\xa1~\xe6\xd7?'
p1029
tp1030
Rp1031
tp1032
a(S'karen smith (mathematician)'
p1033
g2
(g6
S'I\x95yH\xc5\xe5\xd7?'
p1034
tp1035
Rp1036
tp1037
a(S'askold khovanskii'
p1038
g2
(g6
S'\x87\x97\xce\xcc}\xd7\xd7?'
p1039
tp1040
Rp1041
tp1042
a(S'tam\xc3\xa1s sz\xc5\x91nyi'
p1043
g2
(g6
S'\x00\xe1\xd2\x87\xdc\xd5\xd7?'
p1044
tp1045
Rp1046
tp1047
a(S'differential topology'
p1048
g2
(g6
S"@\xa5\xa1\xc5'\xc8\xd7?"
p1049
tp1050
Rp1051
tp1052
a(S'frances kirwan'
p1053
g2
(g6
S'\xbe-\xa4`Z\xbc\xd7?'
p1054
tp1055
Rp1056
tp1057
a(S'marie-fran\xc3\xa7oise roy'
p1058
g2
(g6
S'\x19\x1e.\xbe\xf5\xb5\xd7?'
p1059
tp1060
Rp1061
tp1062
a(S'space'
p1063
g2
(g6
S'sV[_\xfa\xa1\xd7?'
p1064
tp1065
Rp1066
tp1067
a(S'paul biran'
p1068
g2
(g6
S'\xe3\x9d\xf5[\xb7\x9e\xd7?'
p1069
tp1070
Rp1071
tp1072
a(S'detlef laugwitz'
p1073
g2
(g6
S'\xd5\x02\xa0\xe5O\x8f\xd7?'
p1074
tp1075
Rp1076
tp1077
a(S'arif salimov'
p1078
g2
(g6
S'=x1z\xdb\x8d\xd7?'
p1079
tp1080
Rp1081
tp1082
a(S"hilbert's fifteenth problem"
p1083
g2
(g6
S'\xcc"\x1bh\xc4\x87\xd7?'
p1084
tp1085
Rp1086
tp1087
a(S"joseph o'rourke (professor)"
p1088
g2
(g6
S'z/2?\xe1|\xd7?'
p1089
tp1090
Rp1091
tp1092
a(S'lambert quadrilateral'
p1093
g2
(g6
S'7_;\xfa){\xd7?'
p1094
tp1095
Rp1096
tp1097
a(S'kentaro yano (mathematician)'
p1098
g2
(g6
S'\x11\xb3>^\x10t\xd7?'
p1099
tp1100
Rp1101
tp1102
a(S'schubert calculus'
p1103
g2
(g6
S'\xac\xfe\xed\x9bV_\xd7?'
p1104
tp1105
Rp1106
tp1107
a(S'caroline series'
p1108
g2
(g6
S'&\xb88\x8e\xe2L\xd7?'
p1109
tp1110
Rp1111
tp1112
a(S'abraham seidenberg'
p1113
g2
(g6
S'\x91\xf1yTBK\xd7?'
p1114
tp1115
Rp1116
tp1117
a(S'howard levi'
p1118
g2
(g6
S'\xdd\x9c/\xab\xc0H\xd7?'
p1119
tp1120
Rp1121
tp1122
a(S'warped geometry'
p1123
g2
(g6
S'\x1a\x9c\x8a\x08;4\xd7?'
p1124
tp1125
Rp1126
tp1127
a(S'magic (software)'
p1128
g2
(g6
S'Q\xb9\x18@\xd7/\xd7?'
p1129
tp1130
Rp1131
tp1132
a(S'image geometry correction'
p1133
g2
(g6
S'S\xfbgoV/\xd7?'
p1134
tp1135
Rp1136
tp1137
a(S'list of algebraic geometry topics'
p1138
g2
(g6
S"\r\xeb\xbf\x06%'\xd7?"
p1139
tp1140
Rp1141
tp1142
a(S'point-free'
p1143
g2
(g6
S'P\xbdw9o\x0e\xd7?'
p1144
tp1145
Rp1146
tp1147
a(S'genus\xe2\x80\x93degree formula'
p1148
g2
(g6
S'j\x8aaV\xbc\x08\xd7?'
p1149
tp1150
Rp1151
tp1152
a(S'geometry & topology'
p1153
g2
(g6
S'\xa5\xcd\xf5\x08\xb9\x00\xd7?'
p1154
tp1155
Rp1156
tp1157
a(S'rafael artzy'
p1158
g2
(g6
S'Hf\xce\xfa\xa7\x00\xd7?'
p1159
tp1160
Rp1161
tp1162
a(S'henry seely white'
p1163
g2
(g6
S'\xce\xad\xe3p\xf9\xff\xd6?'
p1164
tp1165
Rp1166
tp1167
a(S"birkhoff's axioms"
p1168
g2
(g6
S'\x81\xc9F\xa0\xb0\xfe\xd6?'
p1169
tp1170
Rp1171
tp1172
a(S'function field of an algebraic variety'
p1173
g2
(g6
S'\x0f\x12\x01)\xa0\xf3\xd6?'
p1174
tp1175
Rp1176
tp1177
a(S'list of mathematics history topics'
p1178
g2
(g6
S'\x8f\x06T\xadU\xea\xd6?'
p1179
tp1180
Rp1181
tp1182
a(S'lorenzo ramero'
p1183
g2
(g6
S'\xda\xfco\xd0S\xe6\xd6?'
p1184
tp1185
Rp1186
tp1187
a(S'alicia dickenstein'
p1188
g2
(g6
S'p\x10&\xce|\xe1\xd6?'
p1189
tp1190
Rp1191
tp1192
a(S"the geometer's sketchpad"
p1193
g2
(g6
S'\xea\x0f\xe5\xda\xf3\xda\xd6?'
p1194
tp1195
Rp1196
tp1197
a(S'diffiety'
p1198
g2
(g6
S'i\xdf\xad\xc1\x07\xd9\xd6?'
p1199
tp1200
Rp1201
tp1202
a(S'international journal of computational geometry and applications'
p1203
g2
(g6
S'@\xbcwS@\xd8\xd6?'
p1204
tp1205
Rp1206
tp1207
a(S"luna's slice theorem"
p1208
g2
(g6
S'\xd6\xe0\x04\xa7\x18\xd8\xd6?'
p1209
tp1210
Rp1211
tp1212
a(S't-shaped molecular geometry'
p1213
g2
(g6
S'a\x99\xe5JW\xd7\xd6?'
p1214
tp1215
Rp1216
tp1217
a(S'richard thomas (mathematician)'
p1218
g2
(g6
S'\xa6=\xab\xda\xb1\xd6\xd6?'
p1219
tp1220
Rp1221
tp1222
a(S'montgomery county mathematically precocious youth program'
p1223
g2
(g6
S'\xfe\xf6J\xd1u\xd3\xd6?'
p1224
tp1225
Rp1226
tp1227
a(S"whitehead's point-free geometry"
p1228
g2
(g6
S'\xa7\x8a\x9c#\xd8\xd0\xd6?'
p1229
tp1230
Rp1231
tp1232
a(S'enumerative geometry'
p1233
g2
(g6
S'0\x81wP\xc6\xce\xd6?'
p1234
tp1235
Rp1236
tp1237
a(S'klaus hulek'
p1238
g2
(g6
S'vE\x99d\x98\xc3\xd6?'
p1239
tp1240
Rp1241
tp1242
a(S'la g\xc3\xa9om\xc3\xa9trie'
p1243
g2
(g6
S'\x10$\x9f\xf5*\xbf\xd6?'
p1244
tp1245
Rp1246
tp1247
a(S'secant'
p1248
g2
(g6
S'\xf7\xa6y\x7f\x9a\xbe\xd6?'
p1249
tp1250
Rp1251
tp1252
a(S'indranil biswas'
p1253
g2
(g6
S'.{F\xcbq\xb6\xd6?'
p1254
tp1255
Rp1256
tp1257
a(S'joseph mundy'
p1258
g2
(g6
S'B\x1f\x9c]%\x8f\xd6?'
p1259
tp1260
Rp1261
tp1262
a(S'secant variety'
p1263
g2
(g6
S'\x1aM4`\xe1\x84\xd6?'
p1264
tp1265
Rp1266
tp1267
a(S'landscape of geometry'
p1268
g2
(g6
S'\xc4\xf0p\xc9O}\xd6?'
p1269
tp1270
Rp1271
tp1272
a(S'geometry wars: retro evolved 2'
p1273
g2
(g6
S'\xa0\x1f\xcf\xd3\xdev\xd6?'
p1274
tp1275
Rp1276
tp1277
a(S'mikhail katz'
p1278
g2
(g6
S'\xfd\xc6\xc0J\x9fs\xd6?'
p1279
tp1280
Rp1281
tp1282
a(S'matilde marcolli'
p1283
g2
(g6
S'=z\x1b\x19\x99j\xd6?'
p1284
tp1285
Rp1286
tp1287
a(S'leroy p. steele prize'
p1288
g2
(g6
S'\xe1\xfd\x0e)?e\xd6?'
p1289
tp1290
Rp1291
tp1292
a(S'ron donagi'
p1293
g2
(g6
S'\x1cJ\xc6\xc8\xfbc\xd6?'
p1294
tp1295
Rp1296
tp1297
a(S'sum of angles of a triangle'
p1298
g2
(g6
S'm\n\x87\x92nc\xd6?'
p1299
tp1300
Rp1301
tp1302
a(S'william edge (mathematician)'
p1303
g2
(g6
S'\xadGJ\xbf\x00X\xd6?'
p1304
tp1305
Rp1306
tp1307
a(S'w. v. d. hodge'
p1308
g2
(g6
S'\xff\x97\x06\xfb\x02W\xd6?'
p1309
tp1310
Rp1311
tp1312
a(S'sergei tabachnikov'
p1313
g2
(g6
S'\xe4\x82\r\xbf\xfeS\xd6?'
p1314
tp1315
Rp1316
tp1317
a(S'information geometry'
p1318
g2
(g6
S'\xea=9PjF\xd6?'
p1319
tp1320
Rp1321
tp1322
a(S'digital geometry'
p1323
g2
(g6
S'\x91\xf3>\xb8iA\xd6?'
p1324
tp1325
Rp1326
tp1327
a(S'bernd siebert'
p1328
g2
(g6
S'\xd2j\xb1\x94\xf4(\xd6?'
p1329
tp1330
Rp1331
tp1332
a(S'giusto bellavitis'
p1333
g2
(g6
S'\xf3\xde\x1d\xb7D#\xd6?'
p1334
tp1335
Rp1336
tp1337
a(S'clay research award'
p1338
g2
(g6
S'_\xd5\xbd\x92\xbf\x1a\xd6?'
p1339
tp1340
Rp1341
tp1342
a(S'hilbert plane'
p1343
g2
(g6
S'\xaa\xc3\x11n\xa5\x1a\xd6?'
p1344
tp1345
Rp1346
tp1347
a(S'j\xc3\xa1nos pach'
p1348
g2
(g6
S'+-v\xb2\x8c\x0b\xd6?'
p1349
tp1350
Rp1351
tp1352
a(S'raoul bricard'
p1353
g2
(g6
S'"\x14\xd5\x87v\n\xd6?'
p1354
tp1355
Rp1356
tp1357
a(S'tomasz mrowka'
p1358
g2
(g6
S'\x97R\xc3\x18\xd0\x07\xd6?'
p1359
tp1360
Rp1361
tp1362
a(S'mathematical visualization'
p1363
g2
(g6
S')\x119x\xeb\xfb\xd5?'
p1364
tp1365
Rp1366
tp1367
a(S'integral geometry'
p1368
g2
(g6
S'\xb6i8a-\xfb\xd5?'
p1369
tp1370
Rp1371
tp1372
a(S'yuri burago'
p1373
g2
(g6
S'F\xc5\xa8\xa7u\xe8\xd5?'
p1374
tp1375
Rp1376
tp1377
a(S'albert nijenhuis'
p1378
g2
(g6
S'\xd3H\x82c/\xe7\xd5?'
p1379
tp1380
Rp1381
tp1382
a(S'john stillwell'
p1383
g2
(g6
S'\xd1:N\x9d\xac\xe3\xd5?'
p1384
tp1385
Rp1386
tp1387
a(S'aleksei pogorelov'
p1388
g2
(g6
S'\xe7@s2\x99\xde\xd5?'
p1389
tp1390
Rp1391
tp1392
a(S'chenyang xu'
p1393
g2
(g6
S'\x87s\xbce\xfb\xdb\xd5?'
p1394
tp1395
Rp1396
tp1397
a(S'spin geometry'
p1398
g2
(g6
S'\xf3\x02rTh\xc9\xd5?'
p1399
tp1400
Rp1401
tp1402
a(S'gerbe'
p1403
g2
(g6
S'j\xf2\xcb"\xd9\xc8\xd5?'
p1404
tp1405
Rp1406
tp1407
a(S'giuseppe pompilj'
p1408
g2
(g6
S'\x90\xbc\xee\xa4=\xc8\xd5?'
p1409
tp1410
Rp1411
tp1412
a(S'zero set'
p1413
g2
(g6
S'SC8\xfc!\xc6\xd5?'
p1414
tp1415
Rp1416
tp1417
a(S"pasch's axiom"
p1418
g2
(g6
S'\x8d)\xcf\xf4\x05\xbb\xd5?'
p1419
tp1420
Rp1421
tp1422
a(S'sergei novikov (mathematician)'
p1423
g2
(g6
S'\xd1\x19\xbbl\xce\xb3\xd5?'
p1424
tp1425
Rp1426
tp1427
a(S'julius pl\xc3\xbccker'
p1428
g2
(g6
S'\x7f>\xf4\x87\xb5\xb2\xd5?'
p1429
tp1430
Rp1431
tp1432
a(S'yair minsky'
p1433
g2
(g6
S'd\x06\x00\xff\xff\x9a\xd5?'
p1434
tp1435
Rp1436
tp1437
a(S'positive current'
p1438
g2
(g6
S'\xbb\xaf\x81g\x8f\x7f\xd5?'
p1439
tp1440
Rp1441
tp1442
a(S'bent bond (disambiguation)'
p1443
g2
(g6
S'k\xa3h\x8f\xe7v\xd5?'
p1444
tp1445
Rp1446
tp1447
a(S'shreeram shankar abhyankar'
p1448
g2
(g6
S'\\M>i\x13u\xd5?'
p1449
tp1450
Rp1451
tp1452
a(S'mathematics subject classification'
p1453
g2
(g6
S'\x01w\r\xdbBq\xd5?'
p1454
tp1455
Rp1456
tp1457
a(S'motion (geometry)'
p1458
g2
(g6
S'm\x01\xa6\xab\xc5h\xd5?'
p1459
tp1460
Rp1461
tp1462
a(S'contributors to the mathematical background for general relativity'
p1463
g2
(g6
S'\x89Ch\xc3pe\xd5?'
p1464
tp1465
Rp1466
tp1467
a(S'derived scheme'
p1468
g2
(g6
S'\x01=\x17\xde\xd0b\xd5?'
p1469
tp1470
Rp1471
tp1472
a(S'geometry wars: touch'
p1473
g2
(g6
S'\x9fJ\xb7\x17\x13b\xd5?'
p1474
tp1475
Rp1476
tp1477
a(S'parallel postulate'
p1478
g2
(g6
S'\x8c\xa4\xdc\x11D^\xd5?'
p1479
tp1480
Rp1481
tp1482
a(S'robin hartshorne'
p1483
g2
(g6
S'\xbd\x92(\x01\xc4Q\xd5?'
p1484
tp1485
Rp1486
tp1487
a(S'trigonal pyramidal molecular geometry'
p1488
g2
(g6
S't\xa6\xceV\xf8O\xd5?'
p1489
tp1490
Rp1491
tp1492
a(S'benz plane'
p1493
g2
(g6
S'\xdb)\xd5\xda\x99M\xd5?'
p1494
tp1495
Rp1496
tp1497
a(S'mathematical sciences publishers'
p1498
g2
(g6
S'\xa4\xff\x8f\xc7\x8dK\xd5?'
p1499
tp1500
Rp1501
tp1502
a(S'steven kleiman'
p1503
g2
(g6
S'\x1d\xfe\xaf\xf3PI\xd5?'
p1504
tp1505
Rp1506
tp1507
a(S'sublime mix'
p1508
g2
(g6
S'\xe7\x8f7\x02\xfdC\xd5?'
p1509
tp1510
Rp1511
tp1512
a.