(lp0
(S'gradient descent'
p1
cnumpy.core.multiarray
scalar
p2
(cnumpy
dtype
p3
(S'f8'
p4
I0
I1
tp5
Rp6
(I3
S'<'
p7
NNNI-1
I-1
I0
tp8
bS'\x04\x00\x00\x00\x00\x00\xf0?'
p9
tp10
Rp11
tp12
a(S'gradient method'
p13
g2
(g6
S'\xd4=\xce\x08\xadH\xe7?'
p14
tp15
Rp16
tp17
a(S'gradient (disambiguation)'
p18
g2
(g6
S'\x91\x84\x94%\xd1\xa5\xe5?'
p19
tp20
Rp21
tp22
a(S'stochastic gradient descent'
p23
g2
(g6
S']$\xa5\x19UG\xe5?'
p24
tp25
Rp26
tp27
a(S'gradient sro'
p28
g2
(g6
S'O-\xafSXC\xe4?'
p29
tp30
Rp31
tp32
a(S'descent direction'
p33
g2
(g6
S'\x88\xe2\xa09\xbe\x13\xe4?'
p34
tp35
Rp36
tp37
a(S'spatial gradient'
p38
g2
(g6
S'LyIZ\x93\xa1\xe3?'
p39
tp40
Rp41
tp42
a(S'nonlinear conjugate gradient method'
p43
g2
(g6
S'\x9f\xb7\xda \xe6n\xe3?'
p44
tp45
Rp46
tp47
a(S'gradient'
p48
g2
(g6
S'\xa3\xfa\xcc&\x8f_\xe3?'
p49
tp50
Rp51
tp52
a(S'gradient-related'
p53
g2
(g6
S'\xc9LTqNd\xe2?'
p54
tp55
Rp56
tp57
a(S'surface gradient'
p58
g2
(g6
S'Np\xa8\x8dY\xb1\xe1?'
p59
tp60
Rp61
tp62
a(S'conjugate gradient method'
p63
g2
(g6
S'\x12\xc9\xec\xf0\xbe\x98\xe1?'
p64
tp65
Rp66
tp67
a(S'image gradient'
p68
g2
(g6
S'dd@\xfdj\x1d\xe1?'
p69
tp70
Rp71
tp72
a(S'gradient-domain image processing'
p73
g2
(g6
S'\xa0\xb5\xbf\xb3:\x84\xe0?'
p74
tp75
Rp76
tp77
a(S'biconjugate gradient method'
p78
g2
(g6
S'\x16JyzG\x13\xe0?'
p79
tp80
Rp81
tp82
a(S'stream gradient'
p83
g2
(g6
S'G"S\xd9\xf6\x95\xdf?'
p84
tp85
Rp86
tp87
a(S'skew gradient'
p88
g2
(g6
S'\x8dx\xf6\xad\xe5\xf4\xde?'
p89
tp90
Rp91
tp92
a(S'gradient-like vector field'
p93
g2
(g6
S'\xacP\xbd\x04\xdd\xc9\xde?'
p94
tp95
Rp96
tp97
a(S'gradient boosting'
p98
g2
(g6
S'#\x80r\xee\x07z\xde?'
p99
tp100
Rp101
tp102
a(S'gradient enhanced nmr spectroscopy'
p103
g2
(g6
S'B:C\xbc\xb8\x00\xde?'
p104
tp105
Rp106
tp107
a(S'gradient pattern analysis'
p108
g2
(g6
S'\x10g\x8d\x95\xe6Y\xdd?'
p109
tp110
Rp111
tp112
a(S'pressure gradient'
p113
g2
(g6
S'\x87\xcd=8\xeb#\xdd?'
p114
tp115
Rp116
tp117
a(S"newton's method in optimization"
p118
g2
(g6
S'\x11tI$\x90\x05\xdc?'
p119
tp120
Rp121
tp122
a(S'alveolar\xe2\x80\x93arterial gradient'
p123
g2
(g6
S'\xcd&\xe1\xbc\x9a\xe8\xdb?'
p124
tp125
Rp126
tp127
a(S'natural evolution strategy'
p128
g2
(g6
S'D\x08;\x05\xf9\xc9\xdb?'
p129
tp130
Rp131
tp132
a(S'color gradient'
p133
g2
(g6
S'k\x92\xf0\x15b\xb9\xdb?'
p134
tp135
Rp136
tp137
a(S'line search'
p138
g2
(g6
S'\x8e\x7f\x97_\xdd\xb8\xdb?'
p139
tp140
Rp141
tp142
a(S'french flag model'
p143
g2
(g6
S'XU\xe6\xdb\xf3?\xdb?'
p144
tp145
Rp146
tp147
a(S'backpropagation'
p148
g2
(g6
S'\xd2\xdd\xa4\x7fb\x11\xdb?'
p149
tp150
Rp151
tp152
a(S'iml++'
p153
g2
(g6
S'\xaf\xcfK\x04t\t\xdb?'
p154
tp155
Rp156
tp157
a(S'interior point method'
p158
g2
(g6
S"\xda\xb4'{j\xe4\xda?"
p159
tp160
Rp161
tp162
a(S'gradient copolymers'
p163
g2
(g6
S'\\\xdd\xb06\x07\xba\xda?'
p164
tp165
Rp166
tp167
a(S'wind gradient'
p168
g2
(g6
S'\xbd\x91\x99e\xe0X\xda?'
p169
tp170
Rp171
tp172
a(S'landweber iteration'
p173
g2
(g6
S'W\xb3=m\xac\xe1\xd9?'
p174
tp175
Rp176
tp177
a(S'frank\xe2\x80\x93wolfe algorithm'
p178
g2
(g6
S'\x91@\x13=l\xac\xd9?'
p179
tp180
Rp181
tp182
a(S'gauss\xe2\x80\x93newton algorithm'
p183
g2
(g6
S'\xa1\xeaY\x81\xab\x98\xd9?'
p184
tp185
Rp186
tp187
a(S'coordinate descent'
p188
g2
(g6
S'=I\x182\xf0f\xd9?'
p189
tp190
Rp191
tp192
a(S'prewitt operator'
p193
g2
(g6
S'K\x02c\xadVD\xd9?'
p194
tp195
Rp196
tp197
a(S'channel types'
p198
g2
(g6
S'!\xa1\xea\x93\xed0\xd9?'
p199
tp200
Rp201
tp202
a(S'drainage gradient'
p203
g2
(g6
S'd\xb2\xf1\xea\xbe&\xd9?'
p204
tp205
Rp206
tp207
a(S'gradient theorem'
p208
g2
(g6
S'{\x94\x05\x9b\xb3\t\xd9?'
p209
tp210
Rp211
tp212
a(S'broyden\xe2\x80\x93fletcher\xe2\x80\x93goldfarb\xe2\x80\x93shanno algorithm'
p213
g2
(g6
S'c\xf5A@oM\xd8?'
p214
tp215
Rp216
tp217
a(S'density gradient'
p218
g2
(g6
S'i\xc9Pz\xb7\x10\xd8?'
p219
tp220
Rp221
tp222
a(S'online machine learning'
p223
g2
(g6
S'\n\xe1\xed8\x01\xe5\xd7?'
p224
tp225
Rp226
tp227
a(S'superconvergence'
p228
g2
(g6
S'"\xcc\xf6\x84\x15\xdc\xd7?'
p229
tp230
Rp231
tp232
a(S'stochastic approximation'
p233
g2
(g6
S'c\x1b\xf1\x84\x9e\xbd\xd7?'
p234
tp235
Rp236
tp237
a(S'gradient multilayer nanofilm'
p238
g2
(g6
S'q\xd0q\xa5\xd4\x8f\xd7?'
p239
tp240
Rp241
tp242
a(S'uzawa iteration'
p243
g2
(g6
S'\xd0\x04\x0f\x1e+m\xd7?'
p244
tp245
Rp246
tp247
a(S'proximal gradient method'
p248
g2
(g6
S'0\x16^\xa6\x9bi\xd7?'
p249
tp250
Rp251
tp252
a(S'descent'
p253
g2
(g6
S'FL\\\x87\xbb$\xd7?'
p254
tp255
Rp256
tp257
a(S'smooth maximum'
p258
g2
(g6
S"'O5\x80H\x0e\xd7?"
p259
tp260
Rp261
tp262
a(S'conjugate residual method'
p263
g2
(g6
S'A|\x84\xd6[\r\xd7?'
p264
tp265
Rp266
tp267
a(S'roberts cross'
p268
g2
(g6
S'g^h^\xa1\xf5\xd6?'
p269
tp270
Rp271
tp272
a(S'pulsed field gradient'
p273
g2
(g6
S'W\xd3\xeb\x9e\x1d\xd8\xd6?'
p274
tp275
Rp276
tp277
a(S'non-linear least squares'
p278
g2
(g6
S'\n\xe4h\x1a\xe7\xba\xd6?'
p279
tp280
Rp281
tp282
a(S'potential gradient'
p283
g2
(g6
S'\xea2\xfa4\x93\xb6\xd6?'
p284
tp285
Rp286
tp287
a(S'rosenbrock function'
p288
g2
(g6
S'\x06\xfc|\x892\xa6\xd6?'
p289
tp290
Rp291
tp292
a(S'sound speed gradient'
p293
g2
(g6
S'yX\xba\x04\xc3\x8f\xd6?'
p294
tp295
Rp296
tp297
a(S'vanishing gradient problem'
p298
g2
(g6
S'\xd6\x9c\xa1\x0e\xd4\x8b\xd6?'
p299
tp300
Rp301
tp302
a(S'preconditioner'
p303
g2
(g6
S'\xe1\x9a\x046\xdcj\xd6?'
p304
tp305
Rp306
tp307
a(S'texture gradient'
p308
g2
(g6
S'\xd3s\x7f\xe4cN\xd6?'
p309
tp310
Rp311
tp312
a(S'modified richardson iteration'
p313
g2
(g6
S'\x80vw\x9d{?\xd6?'
p314
tp315
Rp316
tp317
a(S'derivation of the conjugate gradient method'
p318
g2
(g6
S'D\xcb0\xd4\xde&\xd6?'
p319
tp320
Rp321
tp322
a(S'velocity gradient'
p323
g2
(g6
S'\x8f\xe8\xf0\\\x84\r\xd6?'
p324
tp325
Rp326
tp327
a(S'delta rule'
p328
g2
(g6
S'\x1f\x1d\x94T,\t\xd6?'
p329
tp330
Rp331
tp332
a(S'list of numerical analysis topics'
p333
g2
(g6
S'\xfd+\x1fA?\xef\xd5?'
p334
tp335
Rp336
tp337
a(S'eotvos (unit)'
p338
g2
(g6
S'\xd7\xa0\xaa\x10\x92\xe2\xd5?'
p339
tp340
Rp341
tp342
a(S'quickprop'
p343
g2
(g6
S'\xf8\xb8\xf6<5\xe1\xd5?'
p344
tp345
Rp346
tp347
a(S'steady-state free precession imaging'
p348
g2
(g6
S'V\xf1\x99\xdb\x9d\xda\xd5?'
p349
tp350
Rp351
tp352
a(S'morphological gradient'
p353
g2
(g6
S'\xce\xb1\xd8\x99\xbb\xd7\xd5?'
p354
tp355
Rp356
tp357
a(S'biconjugate gradient stabilized method'
p358
g2
(g6
S'F\xe0\\8B\xcb\xd5?'
p359
tp360
Rp361
tp362
a(S'subgradient method'
p363
g2
(g6
S'F\xc4\xd1=\x8a\xab\xd5?'
p364
tp365
Rp366
tp367
a(S'simultaneous perturbation stochastic approximation'
p368
g2
(g6
S"\xda-'\xe1?.\xd5?"
p369
tp370
Rp371
tp372
a(S'neighbourhood components analysis'
p373
g2
(g6
S'\xb26X\x9a\x81(\xd5?'
p374
tp375
Rp376
tp377
a(S'random coordinate descent'
p378
g2
(g6
S'O\x80\x9a\xfd\xbd\xe9\xd4?'
p379
tp380
Rp381
tp382
a(S'devonshire tunnel'
p383
g2
(g6
S'w\xb5J\xc0f\xae\xd4?'
p384
tp385
Rp386
tp387
a(S"xiaolin wu's line algorithm"
p388
g2
(g6
S'|\xb4\x11\xc0\xca\x96\xd4?'
p389
tp390
Rp391
tp392
a(S'vam (bicycling)'
p393
g2
(g6
S'\xbb(\xaa\x1f\xc7\x83\xd4?'
p394
tp395
Rp396
tp397
a(S'mathematical optimization'
p398
g2
(g6
S'\xfbU\xd5K.L\xd4?'
p399
tp400
Rp401
tp402
a(S'pseudoconvex function'
p403
g2
(g6
S'\x11\xc0*U\xad-\xd4?'
p404
tp405
Rp406
tp407
a(S'sobel operator'
p408
g2
(g6
S'\xadi\x83K\xf4+\xd4?'
p409
tp410
Rp411
tp412
a(S'early stopping'
p413
g2
(g6
S"E\xd7\x96\xb6\xe1'\xd4?"
p414
tp415
Rp416
tp417
a(S'gradsect'
p418
g2
(g6
S'q\xeb\xa6\x8d\x0c!\xd4?'
p419
tp420
Rp421
tp422
a(S'yadics'
p423
g2
(g6
S'\xa0n1\x9d4\x1b\xd4?'
p424
tp425
Rp426
tp427
a(S'gradient network'
p428
g2
(g6
S'\xe1\xca\xb9\xeb\xc7\x15\xd4?'
p429
tp430
Rp431
tp432
a(S'temperature gradient'
p433
g2
(g6
S'n\xd9{zt\xf9\xd3?'
p434
tp435
Rp436
tp437
a(S"korn's inequality"
p438
g2
(g6
S'M9\x9a\x1a$\xd6\xd3?'
p439
tp440
Rp441
tp442
a(S'gradient discretisation method'
p443
g2
(g6
S'\x1dLv\xae\xe1\x9f\xd3?'
p444
tp445
Rp446
tp447
a(S'quasi-newton method'
p448
g2
(g6
S'\xab\xfd\x181H|\xd3?'
p449
tp450
Rp451
tp452
a(S'wolfe conditions'
p453
g2
(g6
S'\x95\x93\xb5\xf6\xaai\xd3?'
p454
tp455
Rp456
tp457
a(S'levenberg\xe2\x80\x93marquardt algorithm'
p458
g2
(g6
S'S`\xebPVf\xd3?'
p459
tp460
Rp461
tp462
a(S"steffensen's method"
p463
g2
(g6
S'Uz\xcfW\xfde\xd3?'
p464
tp465
Rp466
tp467
a(S'immobilized ph gradient'
p468
g2
(g6
S'\xe9\t\x1e@\xfa_\xd3?'
p469
tp470
Rp471
tp472
a(S'quezzi funicular'
p473
g2
(g6
S'] :\xf8\x90A\xd3?'
p474
tp475
Rp476
tp477
a(S'multidisciplinary design optimization'
p478
g2
(g6
S'>\xeb<\xca<\x0c\xd3?'
p479
tp480
Rp481
tp482
a(S'limited-memory bfgs'
p483
g2
(g6
S'_pk\x18\x80\xf5\xd2?'
p484
tp485
Rp486
tp487
a(S'environmental gradient'
p488
g2
(g6
S'3\xa5\xcetp\xf0\xd2?'
p489
tp490
Rp491
tp492
a(S'four-gradient'
p493
g2
(g6
S'L\xb2*E\n\xec\xd2?'
p494
tp495
Rp496
tp497
a(S'elias c. aifantis'
p498
g2
(g6
S'\xa4\xe5\xfb\xa2\xf2\xdb\xd2?'
p499
tp500
Rp501
tp502
a(S'col des planches'
p503
g2
(g6
S'!l\xc8\xe5\xff\xc1\xd2?'
p504
tp505
Rp506
tp507
a(S'geopotential function'
p508
g2
(g6
S'\x18\xc8&\xef\xa5\xab\xd2?'
p509
tp510
Rp511
tp512
a(S'successive parabolic interpolation'
p513
g2
(g6
S'\xbfU\x83>\xcb\xa6\xd2?'
p514
tp515
Rp516
tp517
a(S'descent (video game)'
p518
g2
(g6
S'\x1cN\xd8I\x0e\x9d\xd2?'
p519
tp520
Rp521
tp522
a(S'loss of strength gradient'
p523
g2
(g6
S'\x07\xcc+)$n\xd2?'
p524
tp525
Rp526
tp527
a(S'bicoid (gene)'
p528
g2
(g6
S'\xde\xe0\x92\xeeQc\xd2?'
p529
tp530
Rp531
tp532
a(S"newton's method"
p533
g2
(g6
S'6E\xf1\xb9\xe4S\xd2?'
p534
tp535
Rp536
tp537
a(S'list of americans of english descent'
p538
g2
(g6
S'\x9fZ\xee\x9e\xff:\xd2?'
p539
tp540
Rp541
tp542
a(S'adaptive coordinate descent'
p543
g2
(g6
S'\x1e\r\xbcp\xe0:\xd2?'
p544
tp545
Rp546
tp547
a(S'kaczmarz method'
p548
g2
(g6
S'o\x1f\xd3\xd7\xe2\x19\xd2?'
p549
tp550
Rp551
tp552
a(S'physics of magnetic resonance imaging'
p553
g2
(g6
S'3}\x02\x9f\xb4\x16\xd2?'
p554
tp555
Rp556
tp557
a(S'gradela'
p558
g2
(g6
S'\xa7E;\xea:\xfe\xd1?'
p559
tp560
Rp561
tp562
a(S'gradient-index optics'
p563
g2
(g6
S'\t\xa0G\x8d\x18\xf3\xd1?'
p564
tp565
Rp566
tp567
a(S'sperm thermotaxis'
p568
g2
(g6
S'9\xe5\xeb\x14\x93\xd8\xd1?'
p569
tp570
Rp571
tp572
a(S'parallax software'
p573
g2
(g6
S'\x8cDa\xaa\xf8\xc2\xd1?'
p574
tp575
Rp576
tp577
a(S'henk van der vorst'
p578
g2
(g6
S"\xc6'V\x04\xb7\xb8\xd1?"
p579
tp580
Rp581
tp582
a(S'descent ii'
p583
g2
(g6
S'\xf0\xc0\xed\xea\xba\xb2\xd1?'
p584
tp585
Rp586
tp587
a(S'chebyshev iteration'
p588
g2
(g6
S'\x91E\x98\xfdJ\xa0\xd1?'
p589
tp590
Rp591
tp592
a(S'pcgs'
p593
g2
(g6
S'\x98wQ\x89"e\xd1?'
p594
tp595
Rp596
tp597
a(S"broyden's method"
p598
g2
(g6
S'\x1a~\x94\trB\xd1?'
p599
tp600
Rp601
tp602
a(S'matrix-free methods'
p603
g2
(g6
S'\xf3\xa6t\xf5\xa15\xd1?'
p604
tp605
Rp606
tp607
a(S'unilineality'
p608
g2
(g6
S'1g\x97\n<\xff\xd0?'
p609
tp610
Rp611
tp612
a(S'gradient bionyx'
p613
g2
(g6
S'=\x9fX\xfe\t\xfb\xd0?'
p614
tp615
Rp616
tp617
a(S'proximal gradient methods for learning'
p618
g2
(g6
S'u\xae\x00g\x93\xf4\xd0?'
p619
tp620
Rp621
tp622
a(S'watershed (image processing)'
p623
g2
(g6
S'#\xe6\x16\x19\xb7\xe6\xd0?'
p624
tp625
Rp626
tp627
a(S'variable neighborhood search'
p628
g2
(g6
S'H\xbc\x1c\xaf#\xe3\xd0?'
p629
tp630
Rp631
tp632
a(S'hill climbing'
p633
g2
(g6
S'b\xefT\xfb\xb8\xbd\xd0?'
p634
tp635
Rp636
tp637
a(S'col du platzerwasel'
p638
g2
(g6
S'\xfa\x15\x93\x83\x91\xa7\xd0?'
p639
tp640
Rp641
tp642
a(S'structure tensor'
p643
g2
(g6
S'y\xf0\x0f\x07\xfa\x9b\xd0?'
p644
tp645
Rp646
tp647
a(S'diffusiophoresis'
p648
g2
(g6
S'/\xf7\x10L\xdb\x95\xd0?'
p649
tp650
Rp651
tp652
a(S'adjoint state method'
p653
g2
(g6
S'\xac\xc3\xe0\x19\xf6\x86\xd0?'
p654
tp655
Rp656
tp657
a(S'col du petit ballon'
p658
g2
(g6
S'\xf5f#ke\x85\xd0?'
p659
tp660
Rp661
tp662
a(S'lagrange multiplier'
p663
g2
(g6
S'\xfaqZr\xac\x83\xd0?'
p664
tp665
Rp666
tp667
a(S'backtracking line search'
p668
g2
(g6
S'\xc0\xdbE\x90\xa1x\xd0?'
p669
tp670
Rp671
tp672
a(S'semnoz'
p673
g2
(g6
S'\xb6\x06P\xfa\x10r\xd0?'
p674
tp675
Rp676
tp677
a(S'paul ledoux'
p678
g2
(g6
S'\xcc\xb36\xae[g\xd0?'
p679
tp680
Rp681
tp682
a(S'iter'
p683
g2
(g6
S'3\xd1M\x9b\x1bb\xd0?'
p684
tp685
Rp686
tp687
a(S'naum z. shor'
p688
g2
(g6
S'F`\xf2+@[\xd0?'
p689
tp690
Rp691
tp692
a(S'yurii nesterov'
p693
g2
(g6
S'\x8d3\xe4\x12\xc9Z\xd0?'
p694
tp695
Rp696
tp697
a(S'isoelectric focusing'
p698
g2
(g6
S'\xa6Ifv\xfaY\xd0?'
p699
tp700
Rp701
tp702
a(S'gradient conjecture'
p703
g2
(g6
S'N\xf6}\xff\xd9X\xd0?'
p704
tp705
Rp706
tp707
a(S'porlock hill'
p708
g2
(g6
S'\xcfl\xe8\xd8\xb4Q\xd0?'
p709
tp710
Rp711
tp712
a(S'gradient well-formedness'
p713
g2
(g6
S'\xc4&\xcat\xeeA\xd0?'
p714
tp715
Rp716
tp717
a(S'2013 tour de france mountains classification'
p718
g2
(g6
S'b\x19X\x9a\x1a\x1d\xd0?'
p719
tp720
Rp721
tp722
a(S'active contour model'
p723
g2
(g6
S'\x00y\x8a\xb1+\x1b\xd0?'
p724
tp725
Rp726
tp727
a(S'afterdrop'
p728
g2
(g6
S'\xd1T\xec\x1e\xb9\x18\xd0?'
p729
tp730
Rp731
tp732
a(S'least mean squares filter'
p733
g2
(g6
S'{98|\x12\x18\xd0?'
p734
tp735
Rp736
tp737
a(S'vector calculus identities'
p738
g2
(g6
S'\xd6\x0e\xac@\xdc\x12\xd0?'
p739
tp740
Rp741
tp742
a(S'thermal wind'
p743
g2
(g6
S'\xa8\x07J\xaf\xe0\x02\xd0?'
p744
tp745
Rp746
tp747
a(S'false position method'
p748
g2
(g6
S't\x858\xbd\x19\x01\xd0?'
p749
tp750
Rp751
tp752
a(S'membrane transport'
p753
g2
(g6
S'\xc7\x1a\xbe\x90\x1c\xfe\xcf?'
p754
tp755
Rp756
tp757
a(S"ridders' method"
p758
g2
(g6
S'*\xfd\x90s\xab\xfb\xcf?'
p759
tp760
Rp761
tp762
a(S'ruling gradient'
p763
g2
(g6
S'\x9d?\xc1\xb0\xf2\xee\xcf?'
p764
tp765
Rp766
tp767
a(S'differential evolution'
p768
g2
(g6
S'm%Y\xeb.\xeb\xcf?'
p769
tp770
Rp771
tp772
a(S'folded spectrum method'
p773
g2
(g6
S'C\xaf\xf3g\x9a\xe4\xcf?'
p774
tp775
Rp776
tp777
a(S'top of descent'
p778
g2
(g6
S'\x05}\xaa\x9f\x84\xc5\xcf?'
p779
tp780
Rp781
tp782
a(S'canny edge detector'
p783
g2
(g6
S'\x94b\xe4\xb2\xe1\xb1\xcf?'
p784
tp785
Rp786
tp787
a(S'ffordd pen llech'
p788
g2
(g6
S'.\x1d\xac\x93\x9f\xa7\xcf?'
p789
tp790
Rp791
tp792
a(S'lobpcg'
p793
g2
(g6
S'\xc1\xf2z\xb2\xd8\xa1\xcf?'
p794
tp795
Rp796
tp797
a(S'perlin noise'
p798
g2
(g6
S'Dt\xe5<\xf7\x99\xcf?'
p799
tp800
Rp801
tp802
a(S'gradient noise'
p803
g2
(g6
S'c\xca\xe7\x0c\xc6P\xcf?'
p804
tp805
Rp806
tp807
a(S'pore pressure gradient'
p808
g2
(g6
S'\xd7\xfai\xa9\x9e3\xcf?'
p809
tp810
Rp811
tp812
a(S'ats-4'
p813
g2
(g6
S']a\xdfI$1\xcf?'
p814
tp815
Rp816
tp817
a(S'modified pressure'
p818
g2
(g6
S'l7D\x96\xb4\x1b\xcf?'
p819
tp820
Rp821
tp822
a(S'osmotic power'
p823
g2
(g6
S'[\x9a*\xc0\xd7\x11\xcf?'
p824
tp825
Rp826
tp827
a(S'pressure-gradient force'
p828
g2
(g6
S'3\xe69\\\x1a\xf2\xce?'
p829
tp830
Rp831
tp832
a(S'isocline'
p833
g2
(g6
S'\xa3P\x89@\x93\xcb\xce?'
p834
tp835
Rp836
tp837
a(S'secant method'
p838
g2
(g6
S'C7ir;\xc6\xce?'
p839
tp840
Rp841
tp842
a(S'augmented lagrangian method'
p843
g2
(g6
S'G\xd5;\xb3\x04\xba\xce?'
p844
tp845
Rp846
tp847
a(S'quadrupole splitting'
p848
g2
(g6
S'\xf6\xd9\xdd\xb1\xd1\xaa\xce?'
p849
tp850
Rp851
tp852
a(S'sharnbrook railway station'
p853
g2
(g6
S'\x88\xaf\x02\xaf\xec\xa6\xce?'
p854
tp855
Rp856
tp857
a(S'bregman method'
p858
g2
(g6
S'\x9c\x13\xc0]\xfe\x94\xce?'
p859
tp860
Rp861
tp862
a(S'loss functions for classification'
p863
g2
(g6
S'\xeaBgw\xa2\x8c\xce?'
p864
tp865
Rp866
tp867
a(S'royal descent'
p868
g2
(g6
S'\x13\x15D\xab\xba\x8b\xce?'
p869
tp870
Rp871
tp872
a(S'adaline'
p873
g2
(g6
S'\r\xe5mZ\x92\x83\xce?'
p874
tp875
Rp876
tp877
a(S'ventilation perfusion mismatch'
p878
g2
(g6
S'\x1b8\xf2>_\x83\xce?'
p879
tp880
Rp881
tp882
a(S"householder's method"
p883
g2
(g6
S'T\xf9\xa5\xdc\x86o\xce?'
p884
tp885
Rp886
tp887
a(S'sequential quadratic programming'
p888
g2
(g6
S'\x1a\xca\x90J\x95h\xce?'
p889
tp890
Rp891
tp892
a(S'energy minimization'
p893
g2
(g6
S'F6\xa1\x90\x9fM\xce?'
p894
tp895
Rp896
tp897
a(S'cobyla'
p898
g2
(g6
S'\x17\x017\xa8\xb5L\xce?'
p899
tp900
Rp901
tp902
a(S'support vector machine'
p903
g2
(g6
S'\x18\xaf}\x8d\xd1A\xce?'
p904
tp905
Rp906
tp907
a(S'gamess (us)'
p908
g2
(g6
S'\x92R\xaa\xab?\x16\xce?'
p909
tp910
Rp911
tp912
a(S'nth root algorithm'
p913
g2
(g6
S'.\xc0>\x8aE\x11\xce?'
p914
tp915
Rp916
tp917
a(S'ettingshausen effect'
p918
g2
(g6
S'\x10.B]\xd4\x04\xce?'
p919
tp920
Rp921
tp922
a(S'hillclimbing (railway)'
p923
g2
(g6
S'\x03\x82=\xaf\xc3\x00\xce?'
p924
tp925
Rp926
tp927
a(S'ramp function'
p928
g2
(g6
S'\xb3g\x93\x19@\xdc\xcd?'
p929
tp930
Rp931
tp932
a(S'active transport'
p933
g2
(g6
S'p\xee\xb7\xab\xba\xd9\xcd?'
p934
tp935
Rp936
tp937
a(S'bogacki\xe2\x80\x93shampine method'
p938
g2
(g6
S'\xdc\x91\x9evR\xc1\xcd?'
p939
tp940
Rp941
tp942
a(S'compressed sensing'
p943
g2
(g6
S'v\xd4\x97\xc0\x13\xb1\xcd?'
p944
tp945
Rp946
tp947
a(S'couette flow'
p948
g2
(g6
S'\xda\xfc\x88J\x00\xaf\xcd?'
p949
tp950
Rp951
tp952
a(S'reinforcement learning'
p953
g2
(g6
S'\xc2\xb4  \xb3\x97\xcd?'
p954
tp955
Rp956
tp957
a(S'active set method'
p958
g2
(g6
S'\x8b\xcc\xf11\xa3\x92\xcd?'
p959
tp960
Rp961
tp962
a(S'arab canadians'
p963
g2
(g6
S'\x80M0\xe9\x1c\x8d\xcd?'
p964
tp965
Rp966
tp967
a(S'maratona dles dolomites'
p968
g2
(g6
S'pGQ\xb7\xae~\xcd?'
p969
tp970
Rp971
tp972
a(S'einstein\xe2\x80\x93brillouin\xe2\x80\x93keller method'
p973
g2
(g6
S'\xcc\xc3\x04\xd1\x98}\xcd?'
p974
tp975
Rp976
tp977
a(S'aspectc++'
p978
g2
(g6
S'\xa7\xb9\x95\x18\xbaw\xcd?'
p979
tp980
Rp981
tp982
a(S'iterative method'
p983
g2
(g6
S'\xb7\x13\xb0i\x80m\xcd?'
p984
tp985
Rp986
tp987
a(S'l\xc3\xa9on bottou'
p988
g2
(g6
S'N\xfc@\x08\x06\x1e\xcd?'
p989
tp990
Rp991
tp992
a(S'davidon\xe2\x80\x93fletcher\xe2\x80\x93powell formula'
p993
g2
(g6
S'>\xddHYu\x19\xcd?'
p994
tp995
Rp996
tp997
a(S'chemiosmosis'
p998
g2
(g6
S'\xc8\xe4\x88eu\x11\xcd?'
p999
tp1000
Rp1001
tp1002
a(S"brent's method"
p1003
g2
(g6
S'Y=\x98H\xb4\xf0\xcc?'
p1004
tp1005
Rp1006
tp1007
a(S'edge detection'
p1008
g2
(g6
S'\x9dpE\xaa\xff\xe1\xcc?'
p1009
tp1010
Rp1011
tp1012
a(S'port de pailh\xc3\xa8res'
p1013
g2
(g6
S'\x0b\xbc\x99\xbd\x1d\xbe\xcc?'
p1014
tp1015
Rp1016
tp1017
a(S'bisection method'
p1018
g2
(g6
S'\t\xebI&\xdf\xb8\xcc?'
p1019
tp1020
Rp1021
tp1022
a(S'charles george broyden'
p1023
g2
(g6
S'\x0ff\xb5\xc8\x93\xa6\xcc?'
p1024
tp1025
Rp1026
tp1027
a(S'scalar potential'
p1028
g2
(g6
S'\xd3\xf3@\xc8\xce\x9b\xcc?'
p1029
tp1030
Rp1031
tp1032
a(S'linear multistep method'
p1033
g2
(g6
S'\xe9\x14\xccDP\x88\xcc?'
p1034
tp1035
Rp1036
tp1037
a(S'balanced flow'
p1038
g2
(g6
S'\xf1i\x9b9\xb2R\xcc?'
p1039
tp1040
Rp1041
tp1042
a(S'parareal'
p1043
g2
(g6
S'\x1f:\xdc_\x85R\xcc?'
p1044
tp1045
Rp1046
tp1047
a(S'root-finding algorithm'
p1048
g2
(g6
S'9\xa3i\x19\xb1I\xcc?'
p1049
tp1050
Rp1051
tp1052
a(S'dufour effect'
p1053
g2
(g6
S'\xa2_q\xc4\xb8>\xcc?'
p1054
tp1055
Rp1056
tp1057
a(S'cma-es'
p1058
g2
(g6
S'\xda\xca\xf8\xe6s>\xcc?'
p1059
tp1060
Rp1061
tp1062
a(S'sammon mapping'
p1063
g2
(g6
S'\xa1k\x84\x8c\xf9.\xcc?'
p1064
tp1065
Rp1066
tp1067
a(S'symmetric rank-one'
p1068
g2
(g6
S'!\xd1\xc8\x11\xc7+\xcc?'
p1069
tp1070
Rp1071
tp1072
a(S'quasiconvex function'
p1073
g2
(g6
S'\x14\xb2\x1e\xdd\x0c\x15\xcc?'
p1074
tp1075
Rp1076
tp1077
a(S'alternating direction implicit method'
p1078
g2
(g6
S'\xb8RUr\xf9\x0f\xcc?'
p1079
tp1080
Rp1081
tp1082
a(S'pulsatile flow'
p1083
g2
(g6
S'\x08\xfe\t$"\t\xcc?'
p1084
tp1085
Rp1086
tp1087
a(S'matrixnet'
p1088
g2
(g6
S'\x0eP%kC\xfe\xcb?'
p1089
tp1090
Rp1091
tp1092
a(S'radial basis function network'
p1093
g2
(g6
S'Q\xf9=s\x90\xfb\xcb?'
p1094
tp1095
Rp1096
tp1097
a(S'generalized minimal residual method'
p1098
g2
(g6
S'\xa3\xae\xe3\x7f\x1c\xf4\xcb?'
p1099
tp1100
Rp1101
tp1102
a(S'numerical partial differential equations'
p1103
g2
(g6
S'K%2D\xb1\xe5\xcb?'
p1104
tp1105
Rp1106
tp1107
a(S'ion transporter'
p1108
g2
(g6
S'\xa1\x06\n\xec8\xdc\xcb?'
p1109
tp1110
Rp1111
tp1112
a(S'numerical analysis'
p1113
g2
(g6
S'\xf4\xa7\x92\x10\xd3\xd7\xcb?'
p1114
tp1115
Rp1116
tp1117
a(S'numerical methods for ordinary differential equations'
p1118
g2
(g6
S'\n\xfco\x08\xb3\xd2\xcb?'
p1119
tp1120
Rp1121
tp1122
a(S'lincoa'
p1123
g2
(g6
S'\xdd`fO\xe9\xd1\xcb?'
p1124
tp1125
Rp1126
tp1127
a(S'rastrigin function'
p1128
g2
(g6
S'f\x15#\x0f\xe1\xd0\xcb?'
p1129
tp1130
Rp1131
tp1132
a(S'free boundary problem'
p1133
g2
(g6
S'4y\x995\x8c\xa3\xcb?'
p1134
tp1135
Rp1136
tp1137
a(S'nlpqlp'
p1138
g2
(g6
S'e\x8eSb\x1a\xa2\xcb?'
p1139
tp1140
Rp1141
tp1142
a(S'cohomological descent'
p1143
g2
(g6
S'\xa8\x8b\x98Pn\xa1\xcb?'
p1144
tp1145
Rp1146
tp1147
a(S'nonlinear programming'
p1148
g2
(g6
S'\xc7Ey\xe1^\x9c\xcb?'
p1149
tp1150
Rp1151
tp1152
a(S'truncated newton method'
p1153
g2
(g6
S'y\xb7\x17#\xdf\x8f\xcb?'
p1154
tp1155
Rp1156
tp1157
a(S'2013 grand prix cycliste de montr\xc3\xa9al'
p1158
g2
(g6
S'y\xbe\x8e\x88+\x8c\xcb?'
p1159
tp1160
Rp1161
tp1162
a(S'electrochemical gradient'
p1163
g2
(g6
S':;\x91\xf2bg\xcb?'
p1164
tp1165
Rp1166
tp1167
a(S'marangoni effect'
p1168
g2
(g6
S'\xecR4\xb4Se\xcb?'
p1169
tp1170
Rp1171
tp1172
a(S"halley's method"
p1173
g2
(g6
S'92\xe7A\xdb]\xcb?'
p1174
tp1175
Rp1176
tp1177
a(S'understeer and oversteer'
p1178
g2
(g6
S'\xe2%$\x9a\x9f[\xcb?'
p1179
tp1180
Rp1181
tp1182
a(S'hill-start assist'
p1183
g2
(g6
S'\n\xb8\x8d\xd1\x07N\xcb?'
p1184
tp1185
Rp1186
tp1187
a(S'rosenbrock methods'
p1188
g2
(g6
S'\nB\x10\xc9\xc1\x00\xcb?'
p1189
tp1190
Rp1191
tp1192
a(S'rule of three (aeronautics)'
p1193
g2
(g6
S'V \x80\xdf\x84\xf0\xca?'
p1194
tp1195
Rp1196
tp1197
a(S'fixed-point iteration'
p1198
g2
(g6
S'\x86z/\x15M\xed\xca?'
p1199
tp1200
Rp1201
tp1202
a(S'orientation (computer vision)'
p1203
g2
(g6
S'\xe5\x93e\xdf\x1e\xe3\xca?'
p1204
tp1205
Rp1206
tp1207
a(S'linear programming'
p1208
g2
(g6
S'p(\xa5\xa2%\xe1\xca?'
p1209
tp1210
Rp1211
tp1212
a(S"powell's method"
p1213
g2
(g6
S'GGB\x9f\xb4\xc7\xca?'
p1214
tp1215
Rp1216
tp1217
a(S'nelder\xe2\x80\x93mead method'
p1218
g2
(g6
S'\x13\xe9\xf8i2\xc2\xca?'
p1219
tp1220
Rp1221
tp1222
a(S'iupshara river'
p1223
g2
(g6
S'\xd1\\\x80lG\xc0\xca?'
p1224
tp1225
Rp1226
tp1227
a(S'level set'
p1228
g2
(g6
S'\xf5\x17<j\x04\xba\xca?'
p1229
tp1230
Rp1231
tp1232
a(S'biomolecular gradient'
p1233
g2
(g6
S'\x9e\x12\xd3\xe7(\xb9\xca?'
p1234
tp1235
Rp1236
tp1237
a(S'multicolumn countercurrent solvent gradient purification'
p1238
g2
(g6
S'N\xb1\xab\x14M\xaf\xca?'
p1239
tp1240
Rp1241
tp1242
a(S'delay-gradient congestion control'
p1243
g2
(g6
S'\xd3UjA\xfe\xa6\xca?'
p1244
tp1245
Rp1246
tp1247
a(S'non-negative least squares'
p1248
g2
(g6
S'\xfa\xbc\x0c\x11\x99\x90\xca?'
p1249
tp1250
Rp1251
tp1252
a(S'borychiv descent'
p1253
g2
(g6
S'\xc6e\x8e:T\x86\xca?'
p1254
tp1255
Rp1256
tp1257
a(S'shape optimization'
p1258
g2
(g6
S'j\x06\x0c\x9d\x19}\xca?'
p1259
tp1260
Rp1261
tp1262
a(S'modular equipment transporter'
p1263
g2
(g6
S'\xc85\xbb(dx\xca?'
p1264
tp1265
Rp1266
tp1267
a(S'pic de nore'
p1268
g2
(g6
S'\xea\xe5\xb8\x11|k\xca?'
p1269
tp1270
Rp1271
tp1272
a(S'least squares'
p1273
g2
(g6
S'\x00\xa62<\xfec\xca?'
p1274
tp1275
Rp1276
tp1277
a(S'restricted boltzmann machine'
p1278
g2
(g6
S'\xf5)g\x97\xd7[\xca?'
p1279
tp1280
Rp1281
tp1282
a(S'2015 tour de france, stage 12 to stage 21'
p1283
g2
(g6
S'\xa2\xfag\xf9\x84T\xca?'
p1284
tp1285
Rp1286
tp1287
a(S'successive over-relaxation'
p1288
g2
(g6
S'\x14\xfe\x01\xee\x8dN\xca?'
p1289
tp1290
Rp1291
tp1292
a(S'variational analysis'
p1293
g2
(g6
S'B`\t\xa2\xa3J\xca?'
p1294
tp1295
Rp1296
tp1297
a(S'ellipsoid method'
p1298
g2
(g6
S'}j\xaf)\xb1<\xca?'
p1299
tp1300
Rp1301
tp1302
a(S'rishworth branch'
p1303
g2
(g6
S'\xfeE\x08\xbfE(\xca?'
p1304
tp1305
Rp1306
tp1307
a(S'geostrophic wind'
p1308
g2
(g6
S'\xa0\xff\x80X6&\xca?'
p1309
tp1310
Rp1311
tp1312
a(S'2014 grand prix cycliste de montr\xc3\xa9al'
p1313
g2
(g6
S'\xc6\xbf\x03\xc9\xeb#\xca?'
p1314
tp1315
Rp1316
tp1317
a(S'kanade\xe2\x80\x93lucas\xe2\x80\x93tomasi feature tracker'
p1318
g2
(g6
S'\xa5\x85\x90\x97\xe7\x1d\xca?'
p1319
tp1320
Rp1321
tp1322
a(S'convex optimization'
p1323
g2
(g6
S'n\xf2\x94D\x10\x0e\xca?'
p1324
tp1325
Rp1326
tp1327
a(S'alopex'
p1328
g2
(g6
S'e6\x9f\xe1\x87\x03\xca?'
p1329
tp1330
Rp1331
tp1332
a(S'minimum degree algorithm'
p1333
g2
(g6
S'\x8d\xdf\x99\xe7\xb4\xfe\xc9?'
p1334
tp1335
Rp1336
tp1337
a(S'hessian automatic differentiation'
p1338
g2
(g6
S'\xb2ZTI3\xf1\xc9?'
p1339
tp1340
Rp1341
tp1342
a(S'descent (song)'
p1343
g2
(g6
S'`\xe7\xcf}\x9b\xe7\xc9?'
p1344
tp1345
Rp1346
tp1347
a(S'rectifier (neural networks)'
p1348
g2
(g6
S'\xf2?-\xc5L\xdb\xc9?'
p1349
tp1350
Rp1351
tp1352
a(S'rayleigh dissipation function'
p1353
g2
(g6
S'\xaap\n\x95\xff\xd8\xc9?'
p1354
tp1355
Rp1356
tp1357
a(S'iterator'
p1358
g2
(g6
S'\xef\xbdD\x9fK\xd0\xc9?'
p1359
tp1360
Rp1361
tp1362
a(S'finite element method'
p1363
g2
(g6
S'*\x9f\x1e\xd7\x15\xc8\xc9?'
p1364
tp1365
Rp1366
tp1367
a(S'resistive ballooning mode'
p1368
g2
(g6
S'UO@\x11[\xaf\xc9?'
p1369
tp1370
Rp1371
tp1372
a(S'penhoek pass'
p1373
g2
(g6
S'{\xb9=\x0bX\xa7\xc9?'
p1374
tp1375
Rp1376
tp1377
a(S'regularization (mathematics)'
p1378
g2
(g6
S'\xcdi\xc7|\xf2\x93\xc9?'
p1379
tp1380
Rp1381
tp1382
a(S'list of types of functions'
p1383
g2
(g6
S'\x11=\xa8\x80\xf5\x8b\xc9?'
p1384
tp1385
Rp1386
tp1387
a(S'projections onto convex sets'
p1388
g2
(g6
S'F}f\xc6_\x85\xc9?'
p1389
tp1390
Rp1391
tp1392
a(S"sidi's generalized secant method"
p1393
g2
(g6
S'\xab\x82\xc5\xc9{}\xc9?'
p1394
tp1395
Rp1396
tp1397
a(S'petrov\xe2\x80\x93galerkin method'
p1398
g2
(g6
S'`\xd9.\xe3\x7f{\xc9?'
p1399
tp1400
Rp1401
tp1402
a(S'mur de p\xc3\xa9gu\xc3\xa8re'
p1403
g2
(g6
S'\xec\xe0\xae\x8f*n\xc9?'
p1404
tp1405
Rp1406
tp1407
a(S'method of steepest descent'
p1408
g2
(g6
S'c`<\xb4Si\xc9?'
p1409
tp1410
Rp1411
tp1412
a(S'dupuit\xe2\x80\x93forchheimer assumption'
p1413
g2
(g6
S"@\xae'\x17'g\xc9?"
p1414
tp1415
Rp1416
tp1417
a(S'del'
p1418
g2
(g6
S'I\r\x15\x81\x05b\xc9?'
p1419
tp1420
Rp1421
tp1422
a(S"laplace's method"
p1423
g2
(g6
S'\xee\xcb\xc97\x1da\xc9?'
p1424
tp1425
Rp1426
tp1427
a(S'thermoacoustic heat engine'
p1428
g2
(g6
S'\xa3=l\xed\x1ca\xc9?'
p1429
tp1430
Rp1431
tp1432
a(S'gauss\xe2\x80\x93seidel method'
p1433
g2
(g6
S'\x05\xc5&]9Z\xc9?'
p1434
tp1435
Rp1436
tp1437
a(S'jacobi method'
p1438
g2
(g6
S'\xc1\x915\xe3hQ\xc9?'
p1439
tp1440
Rp1441
tp1442
a(S'golden-section search'
p1443
g2
(g6
S'\x90\x17\xa94dJ\xc9?'
p1444
tp1445
Rp1446
tp1447
a(S'gravity gradiometry'
p1448
g2
(g6
S'v/\xcc\x8dB1\xc9?'
p1449
tp1450
Rp1451
tp1452
a(S'haptotaxis'
p1453
g2
(g6
S'\xca\t\xd0W\x11)\xc9?'
p1454
tp1455
Rp1456
tp1457
a(S'linearization'
p1458
g2
(g6
S'\x94\x1f\x86\x19\xf6\x13\xc9?'
p1459
tp1460
Rp1461
tp1462
a(S'pattern search (optimization)'
p1463
g2
(g6
S'\x85D\xad\n\xdd\x04\xc9?'
p1464
tp1465
Rp1466
tp1467
a(S'ornstein\xe2\x80\x93uhlenbeck operator'
p1468
g2
(g6
S'\x8e\xa024\xea\x03\xc9?'
p1469
tp1470
Rp1471
tp1472
a(S'support function'
p1473
g2
(g6
S'\xbf\xfd\xbb\xbd\xcf\xf6\xc8?'
p1474
tp1475
Rp1476
tp1477
a(S'serum-ascites albumin gradient'
p1478
g2
(g6
S'N_/v\n\xec\xc8?'
p1479
tp1480
Rp1481
tp1482
a(S'luus\xe2\x80\x93jaakola'
p1483
g2
(g6
S'\x8c\x96\xbc\xe2\xbb\xe9\xc8?'
p1484
tp1485
Rp1486
tp1487
a(S'griewank function'
p1488
g2
(g6
S'\xd0\xa6\x10\x9f\xd2\xdd\xc8?'
p1489
tp1490
Rp1491
tp1492
a(S"muller's method"
p1493
g2
(g6
S'\xc6\xf9\xca>g\xd3\xc8?'
p1494
tp1495
Rp1496
tp1497
a(S'similarities between wiener and lms'
p1498
g2
(g6
S'\x16 \xbaL\x8a\xd0\xc8?'
p1499
tp1500
Rp1501
tp1502
a(S'boundary particle method'
p1503
g2
(g6
S'\xe5\xab\xf7\xcc\x1d\xd0\xc8?'
p1504
tp1505
Rp1506
tp1507
a(S'isopycnic'
p1508
g2
(g6
S'\xf6\xf4\x80t.\xc8\xc8?'
p1509
tp1510
Rp1511
tp1512
a.