(lp0
(S'graphical model'
p1
cnumpy.core.multiarray
scalar
p2
(cnumpy
dtype
p3
(S'f8'
p4
I0
I1
tp5
Rp6
(I3
S'<'
p7
NNNI-1
I-1
I0
tp8
bS'\x01\x00\x00\x00\x00\x00\xf0?'
p9
tp10
Rp11
tp12
a(S'moral graph'
p13
g2
(g6
S'\xb1\x90osI\xc0\xe1?'
p14
tp15
Rp16
tp17
a(S'bayesian network'
p18
g2
(g6
S'L\xc6$p\x9d\x1b\xe1?'
p19
tp20
Rp21
tp22
a(S'markov random field'
p23
g2
(g6
S'\\\xd1Z}>\x9a\xe0?'
p24
tp25
Rp26
tp27
a(S'ancestral graph'
p28
g2
(g6
S'\xef^\xe4}\xe1\x90\xdf?'
p29
tp30
Rp31
tp32
a(S'graphical models for protein structure'
p33
g2
(g6
S'\x13\xc8\xf0\x021/\xde?'
p34
tp35
Rp36
tp37
a(S'graph (discrete mathematics)'
p38
g2
(g6
S'0\xbf,\xee)\x0c\xde?'
p39
tp40
Rp41
tp42
a(S'mixed graph'
p43
g2
(g6
S'\xe34\x11\xee\xbey\xdd?'
p44
tp45
Rp46
tp47
a(S'dynamic bayesian network'
p48
g2
(g6
S'\xef<P\xa0\xa9\n\xdd?'
p49
tp50
Rp51
tp52
a(S'factor graph'
p53
g2
(g6
S"('\xad$\x85\x02\xdd?"
p54
tp55
Rp56
tp57
a(S'polytree'
p58
g2
(g6
S'\x95\xd0\x18\x98\xa3\xda\xdc?'
p59
tp60
Rp61
tp62
a(S'graphoid'
p63
g2
(g6
S'c\xbee\x1d\xb4\x90\xdc?'
p64
tp65
Rp66
tp67
a(S'cyclic graph'
p68
g2
(g6
S'=[\xcb5[\x80\xdc?'
p69
tp70
Rp71
tp72
a(S'graph theory'
p73
g2
(g6
S'\xa2\xc9\xb5\xf1\x10j\xdc?'
p74
tp75
Rp76
tp77
a(S'random graph'
p78
g2
(g6
S'\xdb\x02Xz\xde\x08\xdc?'
p79
tp80
Rp81
tp82
a(S'null graph'
p83
g2
(g6
S'\x7fU\xd6"J\xfa\xdb?'
p84
tp85
Rp86
tp87
a(S'junction tree algorithm'
p88
g2
(g6
S'-\xa4\xd6\x91\xc3\xf4\xdb?'
p89
tp90
Rp91
tp92
a(S'line graph'
p93
g2
(g6
S'\xc2Q\xe6\x19q\xa5\xdb?'
p94
tp95
Rp96
tp97
a(S'meringer graph'
p98
g2
(g6
S'\xccE\x11HF\xf8\xda?'
p99
tp100
Rp101
tp102
a(S'graphstream'
p103
g2
(g6
S'%\xed\x87.\x00\xf8\xda?'
p104
tp105
Rp106
tp107
a(S'list of graphs'
p108
g2
(g6
S'e!`\xa2\xff\xd9\xda?'
p109
tp110
Rp111
tp112
a(S'aperiodic graph'
p113
g2
(g6
S'+\xc47;_\xc1\xda?'
p114
tp115
Rp116
tp117
a(S'erd\xc5\x91s\xe2\x80\x93r\xc3\xa9nyi model'
p118
g2
(g6
S'\x08:\xae[%\xbe\xda?'
p119
tp120
Rp121
tp122
a(S'extremal graph theory'
p123
g2
(g6
S'\xc2\xe7V\x9a\x95\xba\xda?'
p124
tp125
Rp126
tp127
a(S'variable-order bayesian network'
p128
g2
(g6
S'\x95\xeb&.\x16\xba\xda?'
p129
tp130
Rp131
tp132
a(S'directed graph'
p133
g2
(g6
S'\xdavp\xad\xf5\xb1\xda?'
p134
tp135
Rp136
tp137
a(S'boxicity'
p138
g2
(g6
S'\xb1\xf8N0\xa2\x8e\xda?'
p139
tp140
Rp141
tp142
a(S'outerplanar graph'
p143
g2
(g6
S'\xbd\xdb\xc9xbq\xda?'
p144
tp145
Rp146
tp147
a(S'k-graph c*-algebra'
p148
g2
(g6
S'\xdc\xcbr\xeal\x18\xda?'
p149
tp150
Rp151
tp152
a(S'shrikhande graph'
p153
g2
(g6
S'lD\xb4\x08&\x15\xda?'
p154
tp155
Rp156
tp157
a(S'graph rewriting'
p158
g2
(g6
S'\xa5 A?0\x02\xda?'
p159
tp160
Rp161
tp162
a(S'graph operations'
p163
g2
(g6
S'0\xb6\x8d7U\xf3\xd9?'
p164
tp165
Rp166
tp167
a(S'voltage graph'
p168
g2
(g6
S'\xfdz\x14J\x15\xdb\xd9?'
p169
tp170
Rp171
tp172
a(S'heawood graph'
p173
g2
(g6
S'\xa2\xed\xf0\x8d\x85\xd2\xd9?'
p174
tp175
Rp176
tp177
a(S'graph power'
p178
g2
(g6
S'\xe3\xde~5\xc2\xcd\xd9?'
p179
tp180
Rp181
tp182
a(S'pseudoforest'
p183
g2
(g6
S'\xa8\xbe\xa5%\r\xbe\xd9?'
p184
tp185
Rp186
tp187
a(S'intersection graph'
p188
g2
(g6
S'\xa7V\x06)\xa9\xba\xd9?'
p189
tp190
Rp191
tp192
a(S'integral graph'
p193
g2
(g6
S'\t&~\xe9\xf8\xb1\xd9?'
p194
tp195
Rp196
tp197
a(S'pancyclic graph'
p198
g2
(g6
S'\x1b\x8e\x0f\xbcp\xab\xd9?'
p199
tp200
Rp201
tp202
a(S'conditional random field'
p203
g2
(g6
S'\xdd`{\x93\xe7\xa6\xd9?'
p204
tp205
Rp206
tp207
a(S'desargues graph'
p208
g2
(g6
S'\x80\xc2\x006\x1b}\xd9?'
p209
tp210
Rp211
tp212
a(S"tietze's graph"
p213
g2
(g6
S'\xf1\xadu\xcd\xc0x\xd9?'
p214
tp215
Rp216
tp217
a(S'clebsch graph'
p218
g2
(g6
S'\xe2$x\x03!l\xd9?'
p219
tp220
Rp221
tp222
a(S'frucht graph'
p223
g2
(g6
S'-\xa3\x11\xa6Mh\xd9?'
p224
tp225
Rp226
tp227
a(S'arboricity'
p228
g2
(g6
S'\xa4\xec\x8fG\x83c\xd9?'
p229
tp230
Rp231
tp232
a(S'halin graph'
p233
g2
(g6
S'\xee\xf3\xfcw\xb0Q\xd9?'
p234
tp235
Rp236
tp237
a(S'triangle graph'
p238
g2
(g6
S'\x92\x84u7\xe2H\xd9?'
p239
tp240
Rp241
tp242
a(S'regular graph'
p243
g2
(g6
S'\x91\x1dU\x1cA?\xd9?'
p244
tp245
Rp246
tp247
a(S'diamond graph'
p248
g2
(g6
S'\xed\xc5\xd7\xf6\xeb5\xd9?'
p249
tp250
Rp251
tp252
a(S'gr\xc3\xb6tzsch graph'
p253
g2
(g6
S'!\xc0e\xbfv0\xd9?'
p254
tp255
Rp256
tp257
a(S'topological graph theory'
p258
g2
(g6
S'zv8\x11\x06*\xd9?'
p259
tp260
Rp261
tp262
a(S'graph'
p263
g2
(g6
S'^\xfaA\xbc\xd5$\xd9?'
p264
tp265
Rp266
tp267
a(S'split (graph theory)'
p268
g2
(g6
S'\x1b\xc9q\xbd\x08!\xd9?'
p269
tp270
Rp271
tp272
a(S'butterfly graph'
p273
g2
(g6
S'6i\xabb\xbf\x11\xd9?'
p274
tp275
Rp276
tp277
a(S"robbins' theorem"
p278
g2
(g6
S'\x1c\xb8Um\xac\x11\xd9?'
p279
tp280
Rp281
tp282
a(S'geometric graph theory'
p283
g2
(g6
S'^0\xd5:\xb2\x10\xd9?'
p284
tp285
Rp286
tp287
a(S'circulant graph'
p288
g2
(g6
S'\xca\x96\x95\xd0\xa7\x10\xd9?'
p289
tp290
Rp291
tp292
a(S'treewidth'
p293
g2
(g6
S'+~\x8b>w\x10\xd9?'
p294
tp295
Rp296
tp297
a(S'f26a graph'
p298
g2
(g6
S'\xd9\xfe\xfa\xd8\xc5\x0f\xd9?'
p299
tp300
Rp301
tp302
a(S'graph property'
p303
g2
(g6
S'\n\xa0%\x07\xe1\x00\xd9?'
p304
tp305
Rp306
tp307
a(S'graph sandwich problem'
p308
g2
(g6
S'\xcf\x91<|\xc0\xec\xd8?'
p309
tp310
Rp311
tp312
a(S'wong graph'
p313
g2
(g6
S"\x9e'\xdb\xde_\xe3\xd8?"
p314
tp315
Rp316
tp317
a(S'biconnected graph'
p318
g2
(g6
S'\xbbJ\x94\xd3q\xde\xd8?'
p319
tp320
Rp321
tp322
a(S'mycielskian'
p323
g2
(g6
S'd\x8d\xc9\xef@\xda\xd8?'
p324
tp325
Rp326
tp327
a(S'logic of graphs'
p328
g2
(g6
S'N\x04\xdd\xdd}\xce\xd8?'
p329
tp330
Rp331
tp332
a(S'graph-tool'
p333
g2
(g6
S'\x0b7<\xc5\xc0\xc7\xd8?'
p334
tp335
Rp336
tp337
a(S'errera graph'
p338
g2
(g6
S'\xb6p\x0e\xbb=\xaf\xd8?'
p339
tp340
Rp341
tp342
a(S'haj\xc3\xb3s construction'
p343
g2
(g6
S'g\x9a\xd1\x87\x91\xae\xd8?'
p344
tp345
Rp346
tp347
a(S'folkman graph'
p348
g2
(g6
S'\x1b\x8ac\xfb\xc7\xa2\xd8?'
p349
tp350
Rp351
tp352
a(S'circuit rank'
p353
g2
(g6
S' .zh$\xa2\xd8?'
p354
tp355
Rp356
tp357
a(S'graph equation'
p358
g2
(g6
S'\x8fY,\xdc\x01\x98\xd8?'
p359
tp360
Rp361
tp362
a(S'foster cage'
p363
g2
(g6
S'a\x17R8#\x8c\xd8?'
p364
tp365
Rp366
tp367
a(S'bayesian programming'
p368
g2
(g6
S'\x0b\x97\x85\x92;\x8b\xd8?'
p369
tp370
Rp371
tp372
a(S'lcf notation'
p373
g2
(g6
S'\x1c\xf3w\xf4.\x89\xd8?'
p374
tp375
Rp376
tp377
a(S'string graph'
p378
g2
(g6
S'\xa9ZHE"w\xd8?'
p379
tp380
Rp381
tp382
a(S'two-graph'
p383
g2
(g6
S'\x9d&\xe3fph\xd8?'
p384
tp385
Rp386
tp387
a(S'wagner graph'
p388
g2
(g6
S'p\x84J\x03\x05d\xd8?'
p389
tp390
Rp391
tp392
a(S'degree (graph theory)'
p393
g2
(g6
S'W3W\xb6\x0ec\xd8?'
p394
tp395
Rp396
tp397
a(S'map graph'
p398
g2
(g6
S'\x1a\xf2\x01\rHb\xd8?'
p399
tp400
Rp401
tp402
a(S'graph factorization'
p403
g2
(g6
S'\t\x9f\xbd\x0b\x99Z\xd8?'
p404
tp405
Rp406
tp407
a(S'panconnectivity'
p408
g2
(g6
S'\xcb3jUWA\xd8?'
p409
tp410
Rp411
tp412
a(S'graphical game theory'
p413
g2
(g6
S'K\x10\xc7`\x00@\xd8?'
p414
tp415
Rp416
tp417
a(S'covering graph'
p418
g2
(g6
S'\xbd\xd2$\xb4>?\xd8?'
p419
tp420
Rp421
tp422
a(S'lattice graph'
p423
g2
(g6
S'\x94\xaa$G47\xd8?'
p424
tp425
Rp426
tp427
a(S'bidirected graph'
p428
g2
(g6
S"\xe2\x03\xa1\xae\x0e'\xd8?"
p429
tp430
Rp431
tp432
a(S'friendship graph'
p433
g2
(g6
S'\xb3\x92\x11\xe1\xc7&\xd8?'
p434
tp435
Rp436
tp437
a(S'gewirtz graph'
p438
g2
(g6
S'\xedR\x9a\xbf\xab\x1e\xd8?'
p439
tp440
Rp441
tp442
a(S'simplex graph'
p443
g2
(g6
S'T\x87\x11\xa9\xd3\x1b\xd8?'
p444
tp445
Rp446
tp447
a(S'complement graph'
p448
g2
(g6
S'\x8a\xafE\xe0\x9b\x0c\xd8?'
p449
tp450
Rp451
tp452
a(S'gray graph'
p453
g2
(g6
S'\xc9\xed\xd3\xe1W\x08\xd8?'
p454
tp455
Rp456
tp457
a(S'graphon'
p458
g2
(g6
S'\x9a)\x01I\x9d\x07\xd8?'
p459
tp460
Rp461
tp462
a(S'frank harary'
p463
g2
(g6
S'Z>\xff]\x85\x02\xd8?'
p464
tp465
Rp466
tp467
a(S'dejter graph'
p468
g2
(g6
S'(\x1d0Z\xae\xfd\xd7?'
p469
tp470
Rp471
tp472
a(S'spectral graph theory'
p473
g2
(g6
S'\xcb\x95\x925l\xeb\xd7?'
p474
tp475
Rp476
tp477
a(S'graph literacy'
p478
g2
(g6
S'\xe0>\xf6e\x87\xe6\xd7?'
p479
tp480
Rp481
tp482
a(S'clique graph (disambiguation)'
p483
g2
(g6
S'\xbdP\x19\xe2\xc5\xdf\xd7?'
p484
tp485
Rp486
tp487
a(S'exponential random graph models'
p488
g2
(g6
S'\xfa\xf3\x86\xf8\xe3\xd6\xd7?'
p489
tp490
Rp491
tp492
a(S'cycle (graph theory)'
p493
g2
(g6
S'w1\x04\x1d\xaf\xd5\xd7?'
p494
tp495
Rp496
tp497
a(S'laves graph'
p498
g2
(g6
S'\xb529\xa7\x9c\xd3\xd7?'
p499
tp500
Rp501
tp502
a(S'flow graph (mathematics)'
p503
g2
(g6
S'\xa6\xda\x99\x98\xcf\xd1\xd7?'
p504
tp505
Rp506
tp507
a(S'spqr tree'
p508
g2
(g6
S'&\xac\xc6\x87X\xc9\xd7?'
p509
tp510
Rp511
tp512
a(S'medial graph'
p513
g2
(g6
S'\x8bQ\x1b\xaa\xd6\xc6\xd7?'
p514
tp515
Rp516
tp517
a(S'book (graph theory)'
p518
g2
(g6
S'\xb2\xdc\xe88\xd3\xc4\xd7?'
p519
tp520
Rp521
tp522
a(S'archimedean graph'
p523
g2
(g6
S'-\xc4\xe2/7\xbb\xd7?'
p524
tp525
Rp526
tp527
a(S'foster graph'
p528
g2
(g6
S'Me\xd3\x89\xf7\xb6\xd7?'
p529
tp530
Rp531
tp532
a(S'graph minor'
p533
g2
(g6
S'4\xfb\xd5TH\xb0\xd7?'
p534
tp535
Rp536
tp537
a(S'goldner\xe2\x80\x93harary graph'
p538
g2
(g6
S'\xd3G\x86(\xeb\x9f\xd7?'
p539
tp540
Rp541
tp542
a(S'skew-symmetric graph'
p543
g2
(g6
S'\xb4\xfbq\xa8\xe5\x9f\xd7?'
p544
tp545
Rp546
tp547
a(S'threshold graph'
p548
g2
(g6
S'\xa5\xdc\xb6\x07\x98\x97\xd7?'
p549
tp550
Rp551
tp552
a(S'graph drawing'
p553
g2
(g6
S'\x04\xa3\x91>\x94\x96\xd7?'
p554
tp555
Rp556
tp557
a(S'hadwiger number'
p558
g2
(g6
S'J\x18\xe8\x0br\x96\xd7?'
p559
tp560
Rp561
tp562
a(S'cubic graph'
p563
g2
(g6
S'\xb3\xdb\rde\x84\xd7?'
p564
tp565
Rp566
tp567
a(S"king's graph"
p568
g2
(g6
S'\xc7%\x11;7\x80\xd7?'
p569
tp570
Rp571
tp572
a(S'graph automorphism'
p573
g2
(g6
S'\xec\xa4@\x88\xaa}\xd7?'
p574
tp575
Rp576
tp577
a(S'null model'
p578
g2
(g6
S'\xba\x8a\xacv\xdfx\xd7?'
p579
tp580
Rp581
tp582
a(S'biclique-free graph'
p583
g2
(g6
S'\xc1sV\xf5no\xd7?'
p584
tp585
Rp586
tp587
a(S'biregular graph'
p588
g2
(g6
S'\xe0\xc5\xe09Wo\xd7?'
p589
tp590
Rp591
tp592
a(S'connectivity (graph theory)'
p593
g2
(g6
S'3\xc5o\xfb\xecn\xd7?'
p594
tp595
Rp596
tp597
a(S'circle graph'
p598
g2
(g6
S'j\xe9\xb3\xcb\xabe\xd7?'
p599
tp600
Rp601
tp602
a(S'orientation (graph theory)'
p603
g2
(g6
S'\x91`:\x9f\xc3a\xd7?'
p604
tp605
Rp606
tp607
a(S'flow graph'
p608
g2
(g6
S'\xf4\xccs\x1f\r^\xd7?'
p609
tp610
Rp611
tp612
a(S'graph canonization'
p613
g2
(g6
S'tl/\xc8\x92Z\xd7?'
p614
tp615
Rp616
tp617
a(S'graph structure theorem'
p618
g2
(g6
S'J\xcf\x83\xd1\xc8T\xd7?'
p619
tp620
Rp621
tp622
a(S'nauru graph'
p623
g2
(g6
S'r50\xc6\xd4G\xd7?'
p624
tp625
Rp626
tp627
a(S'bivariegated graph'
p628
g2
(g6
S'\xd6p\x83\xafRG\xd7?'
p629
tp630
Rp631
tp632
a(S'petersen graph'
p633
g2
(g6
S'\xda\xe0u\x81LG\xd7?'
p634
tp635
Rp636
tp637
a(S'tr\xc3\xa9maux tree'
p638
g2
(g6
S'k\xef01R<\xd7?'
p639
tp640
Rp641
tp642
a(S'robertson\xe2\x80\x93wegner graph'
p643
g2
(g6
S'H\x99\xa0\x02\xa1*\xd7?'
p644
tp645
Rp646
tp647
a(S'(a,b)-decomposability'
p648
g2
(g6
S'v\x01}\xf6\xf5#\xd7?'
p649
tp650
Rp651
tp652
a(S'rank (graph theory)'
p653
g2
(g6
S'\xca\xea\x82\xb2\xcf\x19\xd7?'
p654
tp655
Rp656
tp657
a(S'ljubljana graph'
p658
g2
(g6
S'\xf9\xa2f\xb2\xb3\x14\xd7?'
p659
tp660
Rp661
tp662
a(S'directed acyclic graph'
p663
g2
(g6
S'\xf2\xee\x89xU\x07\xd7?'
p664
tp665
Rp666
tp667
a(S'robertson graph'
p668
g2
(g6
S'\xac\x0c[s,\x03\xd7?'
p669
tp670
Rp671
tp672
a(S'chv\xc3\xa1tal graph'
p673
g2
(g6
S'p\x95)\x1b\xf1\xfe\xd6?'
p674
tp675
Rp676
tp677
a(S'st-planar graph'
p678
g2
(g6
S'P\xaa\xc5w\xe0\xfe\xd6?'
p679
tp680
Rp681
tp682
a(S'dot (graph description language)'
p683
g2
(g6
S'Eg\x1a\xfc\xef\xfa\xd6?'
p684
tp685
Rp686
tp687
a(S'factor-critical graph'
p688
g2
(g6
S'\x9a%\xd0\n\xd4\xf0\xd6?'
p689
tp690
Rp691
tp692
a(S"rook's graph"
p693
g2
(g6
S'jf\xf1\xae\x1f\xe0\xd6?'
p694
tp695
Rp696
tp697
a(S'credal network'
p698
g2
(g6
S'\xb6uZ\x89r\xd2\xd6?'
p699
tp700
Rp701
tp702
a(S'homeomorphism (graph theory)'
p703
g2
(g6
S',\xb1\xa7\xe2\xf5\xc3\xd6?'
p704
tp705
Rp706
tp707
a(S'rado graph'
p708
g2
(g6
S'\xaf\\E\x85\xde\xc0\xd6?'
p709
tp710
Rp711
tp712
a(S'cycle graph'
p713
g2
(g6
S'\xa2\xd0\xca\x83\xed\xbf\xd6?'
p714
tp715
Rp716
tp717
a(S'universal graph'
p718
g2
(g6
S'\x14\xec\xfe3\x14\xba\xd6?'
p719
tp720
Rp721
tp722
a(S'dual graph'
p723
g2
(g6
S'H\x85\xa3\rR\xb7\xd6?'
p724
tp725
Rp726
tp727
a(S'graph of a function'
p728
g2
(g6
S'F\xee\xa6\x01\x91\xac\xd6?'
p729
tp730
Rp731
tp732
a(S'algebraic graph theory'
p733
g2
(g6
S'J\xaa\x8f\x80\xb2\xab\xd6?'
p734
tp735
Rp736
tp737
a(S'network motif'
p738
g2
(g6
S'\xfe8Nm\x8b\xa5\xd6?'
p739
tp740
Rp741
tp742
a(S'schl\xc3\xa4fli graph'
p743
g2
(g6
S'\x01\x99(\x06\x9f\xa4\xd6?'
p744
tp745
Rp746
tp747
a(S'interval (graph theory)'
p748
g2
(g6
S'\x8bS]\x1bV\x9b\xd6?'
p749
tp750
Rp751
tp752
a(S'kautz graph'
p753
g2
(g6
S"\x93\xfb\x89'\xc7\x9a\xd6?"
p754
tp755
Rp756
tp757
a(S'perfect graph theorem'
p758
g2
(g6
S'|\xdf\xcf\x1dR\x98\xd6?'
p759
tp760
Rp761
tp762
a(S'pathwidth'
p763
g2
(g6
S'\x91\xbcc\x99I\x98\xd6?'
p764
tp765
Rp766
tp767
a(S'gallery of named graphs'
p768
g2
(g6
S'\x1c\xdc\xbd\x9fC\x8c\xd6?'
p769
tp770
Rp771
tp772
a(S'loop (graph theory)'
p773
g2
(g6
S'\x16\xad,\xf5\x16\x8c\xd6?'
p774
tp775
Rp776
tp777
a(S'relative neighborhood graph'
p778
g2
(g6
S'\xdf\xe6\xaf\xaa\x8f\x81\xd6?'
p779
tp780
Rp781
tp782
a(S'henson graph'
p783
g2
(g6
S'\xebM\xf2\x0bz~\xd6?'
p784
tp785
Rp786
tp787
a(S'eulerian path'
p788
g2
(g6
S'8\x85\xbf\xf8\x0b{\xd6?'
p789
tp790
Rp791
tp792
a(S'causal graph'
p793
g2
(g6
S'\x1aj\xc9\xec\xcbs\xd6?'
p794
tp795
Rp796
tp797
a(S'herschel graph'
p798
g2
(g6
S's\xa8\xd5\xf2\x9dj\xd6?'
p799
tp800
Rp801
tp802
a(S'wiener\xe2\x80\x93araya graph'
p803
g2
(g6
S'j\x1c\xc9\xf0tg\xd6?'
p804
tp805
Rp806
tp807
a(S'periodic graph (graph theory)'
p808
g2
(g6
S'\x83\xc9}\x0e\x1fc\xd6?'
p809
tp810
Rp811
tp812
a(S'unit distance graph'
p813
g2
(g6
S'\x10\x16\xba@DU\xd6?'
p814
tp815
Rp816
tp817
a(S'power graph analysis'
p818
g2
(g6
S'M\xbb\xcec\xb2T\xd6?'
p819
tp820
Rp821
tp822
a(S'multipartite graph'
p823
g2
(g6
S'\x0c\xc1e\x1c\nN\xd6?'
p824
tp825
Rp826
tp827
a(S'zig-zag product'
p828
g2
(g6
S'r\xba9\xf4\xa9G\xd6?'
p829
tp830
Rp831
tp832
a(S'minimum rank of a graph'
p833
g2
(g6
S'\xc4F_y\xf6F\xd6?'
p834
tp835
Rp836
tp837
a(S'well-covered graph'
p838
g2
(g6
S'\xd0+\x1a\x10uB\xd6?'
p839
tp840
Rp841
tp842
a(S'laman graph'
p843
g2
(g6
S'\x0c\x9a\xad-t?\xd6?'
p844
tp845
Rp846
tp847
a(S'bull graph'
p848
g2
(g6
S'\xcb\xac?\xf1\xd05\xd6?'
p849
tp850
Rp851
tp852
a(S'petersen family'
p853
g2
(g6
S'\xa07}\x99\x06/\xd6?'
p854
tp855
Rp856
tp857
a(S'unit disk graph'
p858
g2
(g6
S'\xb9+KH\x02/\xd6?'
p859
tp860
Rp861
tp862
a(S'graphcrunch'
p863
g2
(g6
S'L\xfc\x12\x17\xfe(\xd6?'
p864
tp865
Rp866
tp867
a(S'transpose graph'
p868
g2
(g6
S'\xc5\x01\x8b\xb6\xd3#\xd6?'
p869
tp870
Rp871
tp872
a(S'subhamiltonian graph'
p873
g2
(g6
S'v\x8e(\xfcF\x1d\xd6?'
p874
tp875
Rp876
tp877
a(S'markov model'
p878
g2
(g6
S'\xe7\xb7\xc0\x88\xb3\x19\xd6?'
p879
tp880
Rp881
tp882
a(S'cograph'
p883
g2
(g6
S'\x1ex\xb3\xbeK\x0f\xd6?'
p884
tp885
Rp886
tp887
a(S'theta graph'
p888
g2
(g6
S'K\x86\xa1\xc6\xe5\x0e\xd6?'
p889
tp890
Rp891
tp892
a(S'distance-transitive graph'
p893
g2
(g6
S'%\xff\x9f\x16\xc3\x0c\xd6?'
p894
tp895
Rp896
tp897
a(S'call graph'
p898
g2
(g6
S'\x0c\xfdj\xfe}\n\xd6?'
p899
tp900
Rp901
tp902
a(S'signed graph'
p903
g2
(g6
S'G\x87\x9bBp\t\xd6?'
p904
tp905
Rp906
tp907
a(S'graphml'
p908
g2
(g6
S'\xbd\x0e\xd8W\xc3\x03\xd6?'
p909
tp910
Rp911
tp912
a(S'hammersley\xe2\x80\x93clifford theorem'
p913
g2
(g6
S'\x06\x07\xdb\xc5o\x02\xd6?'
p914
tp915
Rp916
tp917
a(S'process graph'
p918
g2
(g6
S'\xf2\xf0[8\xd2\xff\xd5?'
p919
tp920
Rp921
tp922
a(S'quantum graph'
p923
g2
(g6
S'[\xbf\x81CZ\xfd\xd5?'
p924
tp925
Rp926
tp927
a(S'social graph'
p928
g2
(g6
S'\xc6\xf7\x18\x84\n\xf9\xd5?'
p929
tp930
Rp931
tp932
a(S'gosset graph'
p933
g2
(g6
S'vA\xc7\x13\xb1\xf6\xd5?'
p934
tp935
Rp936
tp937
a(S'coxeter graph'
p938
g2
(g6
S'\xbd8\xba\xb8r\xee\xd5?'
p939
tp940
Rp941
tp942
a(S'planar graph'
p943
g2
(g6
S';\xf1\xa5\xe2\x04\xee\xd5?'
p944
tp945
Rp946
tp947
a(S'connected component (graph theory)'
p948
g2
(g6
S'o\x94?U\xbf\xec\xd5?'
p949
tp950
Rp951
tp952
a(S'levi graph'
p953
g2
(g6
S'\xfc\xbd\xb9g\xa2\xdd\xd5?'
p954
tp955
Rp956
tp957
a(S'markov tree'
p958
g2
(g6
S'R\x10\x95\xe3\xd2\xd9\xd5?'
p959
tp960
Rp961
tp962
a(S'disjunctive graph'
p963
g2
(g6
S'\xac\x0e\x0c\xd3\xfe\xd4\xd5?'
p964
tp965
Rp966
tp967
a(S'two-dimensional graph'
p968
g2
(g6
S'\xd6\x81\xa2\xfa\x16\xd4\xd5?'
p969
tp970
Rp971
tp972
a(S'holt graph'
p973
g2
(g6
S'\xc2[\x83\x96\xae\xd2\xd5?'
p974
tp975
Rp976
tp977
a(S'dipole graph'
p978
g2
(g6
S'\xfb|\x07\xf8\x81\xca\xd5?'
p979
tp980
Rp981
tp982
a(S'hypergraph'
p983
g2
(g6
S'\x8f\xbb\xca\xd5)\xc3\xd5?'
p984
tp985
Rp986
tp987
a(S'comparability graph'
p988
g2
(g6
S'\xf1-\n$\xdd\xbe\xd5?'
p989
tp990
Rp991
tp992
a(S'mcgee graph'
p993
g2
(g6
S'P\xc1\xa7\xc5\xc8\xbe\xd5?'
p994
tp995
Rp996
tp997
a(S'hoffman graph'
p998
g2
(g6
S'\xa4\xe3\x83\xd9\x18\xb1\xd5?'
p999
tp1000
Rp1001
tp1002
a(S'apex graph'
p1003
g2
(g6
S'\xb0\x1e\x84\x84 \xa4\xd5?'
p1004
tp1005
Rp1006
tp1007
a(S'erd\xc5\x91s\xe2\x80\x93stone theorem'
p1008
g2
(g6
S'\x7f\xa6>\x91B\xa0\xd5?'
p1009
tp1010
Rp1011
tp1012
a(S'hadwiger conjecture (graph theory)'
p1013
g2
(g6
S'D\xed\xc1i*\x9d\xd5?'
p1014
tp1015
Rp1016
tp1017
a(S'meurs challenger'
p1018
g2
(g6
S'U\xf4\xb2\xbf\x9b\x97\xd5?'
p1019
tp1020
Rp1021
tp1022
a(S'path graph'
p1023
g2
(g6
S'\xa2\xf3\xb0[\x96\x94\xd5?'
p1024
tp1025
Rp1026
tp1027
a(S'median graph'
p1028
g2
(g6
S'\xd2\xf4\x10\xa6\x07\x91\xd5?'
p1029
tp1030
Rp1031
tp1032
a(S'replacement product'
p1033
g2
(g6
S'\xa4\xecA\x05\x96\x8b\xd5?'
p1034
tp1035
Rp1036
tp1037
a(S'hidden markov model'
p1038
g2
(g6
S'\x13vL\xe8\xb1\x7f\xd5?'
p1039
tp1040
Rp1041
tp1042
a(S'wheel graph'
p1043
g2
(g6
S'\x00E\x1bQ\t~\xd5?'
p1044
tp1045
Rp1046
tp1047
a(S'branch-decomposition'
p1048
g2
(g6
S'T\xd0\x19\x8bj}\xd5?'
p1049
tp1050
Rp1051
tp1052
a(S'highly irregular graph'
p1053
g2
(g6
S'j>\\\x14[}\xd5?'
p1054
tp1055
Rp1056
tp1057
a(S'topology (electrical circuits)'
p1058
g2
(g6
S'{\xf2\xcb\xe7\xd0u\xd5?'
p1059
tp1060
Rp1061
tp1062
a(S'bipartite double cover'
p1063
g2
(g6
S'\x87\x84G\xefhu\xd5?'
p1064
tp1065
Rp1066
tp1067
a(S'distance-hereditary graph'
p1068
g2
(g6
S'z\xaa\x9a\xb4@t\xd5?'
p1069
tp1070
Rp1071
tp1072
a(S"tur\xc3\xa1n's theorem"
p1073
g2
(g6
S'k\xfdb\xb6\rs\xd5?'
p1074
tp1075
Rp1076
tp1077
a(S'italo jose dejter'
p1078
g2
(g6
S'"\x80\xa6\x8a\x17p\xd5?'
p1079
tp1080
Rp1081
tp1082
a(S'colin de verdi\xc3\xa8re graph invariant'
p1083
g2
(g6
S'\xc7Bi\xd1&o\xd5?'
p1084
tp1085
Rp1086
tp1087
a(S'contact graph'
p1088
g2
(g6
S'\x8b\x01\xb2\xae`m\xd5?'
p1089
tp1090
Rp1091
tp1092
a(S'klein graphs'
p1093
g2
(g6
S'K\xa9\xbaY\xbch\xd5?'
p1094
tp1095
Rp1096
tp1097
a(S'biased random walk on a graph'
p1098
g2
(g6
S'H\xb7\tt\xfff\xd5?'
p1099
tp1100
Rp1101
tp1102
a(S'sparksee (graph database)'
p1103
g2
(g6
S'\n@\xa1\x8a\x98^\xd5?'
p1104
tp1105
Rp1106
tp1107
a(S'neighbourhood (graph theory)'
p1108
g2
(g6
S'\xda\x10\xee\x12\xfa[\xd5?'
p1109
tp1110
Rp1111
tp1112
a(S'graph state'
p1113
g2
(g6
S'X\xa0\x97\t\xa3V\xd5?'
p1114
tp1115
Rp1116
tp1117
a(S'matchstick graph'
p1118
g2
(g6
S'*\xa0t\x8c\x02V\xd5?'
p1119
tp1120
Rp1121
tp1122
a(S'quotient graph'
p1123
g2
(g6
S'\xd5\xb3\x92D\xa4M\xd5?'
p1124
tp1125
Rp1126
tp1127
a(S'triangle-free graph'
p1128
g2
(g6
S'B\xf5\x83\xc7\xe3F\xd5?'
p1129
tp1130
Rp1131
tp1132
a(S'windmill graph'
p1133
g2
(g6
S'c\xd2\x1c\x1a1B\xd5?'
p1134
tp1135
Rp1136
tp1137
a(S'clique (graph theory)'
p1138
g2
(g6
S'\x87/\x15\xc3\x07?\xd5?'
p1139
tp1140
Rp1141
tp1142
a(S'bipolar orientation'
p1143
g2
(g6
S'\x98\xfe\xa7\xaa\x8e9\xd5?'
p1144
tp1145
Rp1146
tp1147
a(S'random geometric graph'
p1148
g2
(g6
S'\xebg[&\xf86\xd5?'
p1149
tp1150
Rp1151
tp1152
a(S'lov\xc3\xa1sz number'
p1153
g2
(g6
S'\xe0}\xab\x9c\xff2\xd5?'
p1154
tp1155
Rp1156
tp1157
a(S'reconstruction conjecture'
p1158
g2
(g6
S'\xa3[\x1fl\x852\xd5?'
p1159
tp1160
Rp1161
tp1162
a(S'block graph'
p1163
g2
(g6
S'\xa6\x06;\x9c\xcd0\xd5?'
p1164
tp1165
Rp1166
tp1167
a(S'bipartite graph'
p1168
g2
(g6
S'\x0fi-\x89W*\xd5?'
p1169
tp1170
Rp1171
tp1172
a(S'antiprism graph'
p1173
g2
(g6
S'J\xe3\xa5T\x9d%\xd5?'
p1174
tp1175
Rp1176
tp1177
a(S'ladder graph'
p1178
g2
(g6
S'\xa6\x96\x93\x19\x01\x1e\xd5?'
p1179
tp1180
Rp1181
tp1182
a(S"wagner's theorem"
p1183
g2
(g6
S'\x8f_w\x8d\x1d\x1c\xd5?'
p1184
tp1185
Rp1186
tp1187
a(S'core (graph theory)'
p1188
g2
(g6
S'?lO\xd6t\x19\xd5?'
p1189
tp1190
Rp1191
tp1192
a(S'hidden markov random field'
p1193
g2
(g6
S'Z7\xa2\x94D\x15\xd5?'
p1194
tp1195
Rp1196
tp1197
a(S'hypohamiltonian graph'
p1198
g2
(g6
S'\xfbE\xcdvO\x0f\xd5?'
p1199
tp1200
Rp1201
tp1202
a(S'intersection number (graph theory)'
p1203
g2
(g6
S'\xb5\x8bB\x93\x04\x0c\xd5?'
p1204
tp1205
Rp1206
tp1207
a(S'sousselier graph'
p1208
g2
(g6
S'\xa0\x08\xd6\x99i\x03\xd5?'
p1209
tp1210
Rp1211
tp1212
a(S'estimation of distribution algorithm'
p1213
g2
(g6
S'\x84\xd9\xa4\x95\xb1\x00\xd5?'
p1214
tp1215
Rp1216
tp1217
a(S'list of graph theory topics'
p1218
g2
(g6
S'\x8b\xadf\xd4\xd5\xff\xd4?'
p1219
tp1220
Rp1221
tp1222
a(S'force-directed graph drawing'
p1223
g2
(g6
S'\xf6L-\x97A\xfe\xd4?'
p1224
tp1225
Rp1226
tp1227
a(S'parity graph'
p1228
g2
(g6
S'\xc2\xde\x85\xc6X\xfc\xd4?'
p1229
tp1230
Rp1231
tp1232
a(S'johnson graph'
p1233
g2
(g6
S'\xe1\x0b\xf8\x85)\xfa\xd4?'
p1234
tp1235
Rp1236
tp1237
a(S'ordered graph'
p1238
g2
(g6
S'\xfc\x84yZ4\xf9\xd4?'
p1239
tp1240
Rp1241
tp1242
a(S'watts and strogatz model'
p1243
g2
(g6
S'n\xb3\xfe\xb1y\xf8\xd4?'
p1244
tp1245
Rp1246
tp1247
a(S'probabilistic method'
p1248
g2
(g6
S'%\x9e\x97}{\xf4\xd4?'
p1249
tp1250
Rp1251
tp1252
a(S'graph (topology)'
p1253
g2
(g6
S'\x0f\x00\xda\x18l\xef\xd4?'
p1254
tp1255
Rp1256
tp1257
a(S'cluster graph'
p1258
g2
(g6
S'\xc2\xf6\x14u*\xed\xd4?'
p1259
tp1260
Rp1261
tp1262
a(S'k-vertex-connected graph'
p1263
g2
(g6
S'\x92\xc9*\xfc_\xe9\xd4?'
p1264
tp1265
Rp1266
tp1267
a(S'dense graph'
p1268
g2
(g6
S'\xf0\x01qO\x97\xe6\xd4?'
p1269
tp1270
Rp1271
tp1272
a(S'tree-depth'
p1273
g2
(g6
S'\xf1\x81\x84\x8a\x86\xe5\xd4?'
p1274
tp1275
Rp1276
tp1277
a(S'self-complementary graph'
p1278
g2
(g6
S'\xd0\xf2\xbf\x81\xd5\xe3\xd4?'
p1279
tp1280
Rp1281
tp1282
a(S'biggs\xe2\x80\x93smith graph'
p1283
g2
(g6
S'\x94\x8b\x06\x02\xa3\xe3\xd4?'
p1284
tp1285
Rp1286
tp1287
a(S'belief propagation'
p1288
g2
(g6
S'92\x90\x92\x1d\xe2\xd4?'
p1289
tp1290
Rp1291
tp1292
a(S'slope number'
p1293
g2
(g6
S'X\xe3\xe0\xa4\xfb\xde\xd4?'
p1294
tp1295
Rp1296
tp1297
a(S'perkel graph'
p1298
g2
(g6
S'T\x89\xa8!\x0b\xdd\xd4?'
p1299
tp1300
Rp1301
tp1302
a(S'meyniel graph'
p1303
g2
(g6
S'\x03\x11\x8c\xc2&\xcf\xd4?'
p1304
tp1305
Rp1306
tp1307
a(S'linkless embedding'
p1308
g2
(g6
S']P\xb66g\xca\xd4?'
p1309
tp1310
Rp1311
tp1312
a(S'graph database'
p1313
g2
(g6
S'\x96\xf5\xd7pw\xc8\xd4?'
p1314
tp1315
Rp1316
tp1317
a(S'three utilities problem'
p1318
g2
(g6
S'+\xa5\x97\x1e\x91\xbe\xd4?'
p1319
tp1320
Rp1321
tp1322
a(S'molecular graph'
p1323
g2
(g6
S'\xdf\xc3\xe55!\xb9\xd4?'
p1324
tp1325
Rp1326
tp1327
a(S'linear forest'
p1328
g2
(g6
S'wi\x1c\xe0\xe3\xb4\xd4?'
p1329
tp1330
Rp1331
tp1332
a(S'poussin graph'
p1333
g2
(g6
S'd\xfd\x8c\xed\xa4\xb3\xd4?'
p1334
tp1335
Rp1336
tp1337
a(S'toroidal graph'
p1338
g2
(g6
S'\xa1.\x94\x0b*\xa8\xd4?'
p1339
tp1340
Rp1341
tp1342
a(S'citation graph'
p1343
g2
(g6
S'[@ss-\x9d\xd4?'
p1344
tp1345
Rp1346
tp1347
a(S'datascene'
p1348
g2
(g6
S'\x0e\x8e\x96\x1e\xdb\x93\xd4?'
p1349
tp1350
Rp1351
tp1352
a(S'minimum cut'
p1353
g2
(g6
S'\x0ca\xba\x17?\x91\xd4?'
p1354
tp1355
Rp1356
tp1357
a(S'polyhedral graph'
p1358
g2
(g6
S'\xaa&!#\x01\x8f\xd4?'
p1359
tp1360
Rp1361
tp1362
a(S'multi-level technique'
p1363
g2
(g6
S'q\x1er\xaf?\x8c\xd4?'
p1364
tp1365
Rp1366
tp1367
a(S'implicit graph'
p1368
g2
(g6
S'\xec\xe7\xae\xfa\xbd\x87\xd4?'
p1369
tp1370
Rp1371
tp1372
a(S'claw-free graph'
p1373
g2
(g6
S'\xc0]\xddS\x04\x81\xd4?'
p1374
tp1375
Rp1376
tp1377
a(S'star (graph theory)'
p1378
g2
(g6
S'\xc8\x1c\xc92\xe0\x80\xd4?'
p1379
tp1380
Rp1381
tp1382
a(S'2-factor theorem'
p1383
g2
(g6
S'\x9f\xf0\x1d\x08c{\xd4?'
p1384
tp1385
Rp1386
tp1387
a(S'meredith graph'
p1388
g2
(g6
S'\xc7W\xf9\xaaNk\xd4?'
p1389
tp1390
Rp1391
tp1392
a(S'resistance distance'
p1393
g2
(g6
S'\xcb\x84*\x03\xcfg\xd4?'
p1394
tp1395
Rp1396
tp1397
a(S'platonic graph'
p1398
g2
(g6
S'\x9bXO\xbb\xdb[\xd4?'
p1399
tp1400
Rp1401
tp1402
a(S'markovian discrimination'
p1403
g2
(g6
S'\xf4B@\x97\x15X\xd4?'
p1404
tp1405
Rp1406
tp1407
a(S'strong perfect graph theorem'
p1408
g2
(g6
S'\xc9r@\x0e2W\xd4?'
p1409
tp1410
Rp1411
tp1412
a(S'random regular graph'
p1413
g2
(g6
S'\x84$\xa5\xf0\x03U\xd4?'
p1414
tp1415
Rp1416
tp1417
a(S'bipartite half'
p1418
g2
(g6
S'h\x0b\x12\x9b\xb3K\xd4?'
p1419
tp1420
Rp1421
tp1422
a(S'strength of a graph'
p1423
g2
(g6
S'\xc6"\xb1\x8c\x88I\xd4?'
p1424
tp1425
Rp1426
tp1427
a(S'feedback vertex set'
p1428
g2
(g6
S'\xe6\xda~1\x1eF\xd4?'
p1429
tp1430
Rp1431
tp1432
a(S'franklin graph'
p1433
g2
(g6
S'\x7f\xceT;\xbfB\xd4?'
p1434
tp1435
Rp1436
tp1437
a(S'frankl\xe2\x80\x93r\xc3\xb6dl graph'
p1438
g2
(g6
S'\xae\xb6\xe9\x80\x1f4\xd4?'
p1439
tp1440
Rp1441
tp1442
a(S'international symposium on graph drawing'
p1443
g2
(g6
S'5v\x02\x89\xb33\xd4?'
p1444
tp1445
Rp1446
tp1447
a(S'semi-symmetric graph'
p1448
g2
(g6
S'\xe1\x84\xf3\xe4\xa5$\xd4?'
p1449
tp1450
Rp1451
tp1452
a(S'strongly regular graph'
p1453
g2
(g6
S'A\xee~\xb2{"\xd4?'
p1454
tp1455
Rp1456
tp1457
a(S'graph coloring game'
p1458
g2
(g6
S'\x11\xfcB\x84\xc1\x1f\xd4?'
p1459
tp1460
Rp1461
tp1462
a(S'route inspection problem'
p1463
g2
(g6
S'\x93\xac(d\xd7\x13\xd4?'
p1464
tp1465
Rp1466
tp1467
a(S'clique complex'
p1468
g2
(g6
S'1\xfbPj6\t\xd4?'
p1469
tp1470
Rp1471
tp1472
a(S'path (graph theory)'
p1473
g2
(g6
S'\x8a\x8beR\xf5\x08\xd4?'
p1474
tp1475
Rp1476
tp1477
a(S'forbidden graph characterization'
p1478
g2
(g6
S'8\x05\x88\xad3\x06\xd4?'
p1479
tp1480
Rp1481
tp1482
a(S'pappus graph'
p1483
g2
(g6
S'\x85\xca\xf4C\xfc\xf8\xd3?'
p1484
tp1485
Rp1486
tp1487
a(S'graph edit distance'
p1488
g2
(g6
S'\x90caq\xf6\xf2\xd3?'
p1489
tp1490
Rp1491
tp1492
a(S'critical graph'
p1493
g2
(g6
S'\xe4\xc3\xa2V\xf0\xf0\xd3?'
p1494
tp1495
Rp1496
tp1497
a(S'horst sachs'
p1498
g2
(g6
S'\xbf@T\xdd\xd5\xec\xd3?'
p1499
tp1500
Rp1501
tp1502
a(S'higman\xe2\x80\x93sims graph'
p1503
g2
(g6
S'pG\xb5\xe5\xd9\xeb\xd3?'
p1504
tp1505
Rp1506
tp1507
a(S'network controllability'
p1508
g2
(g6
S'w9\x9a\x98F\xea\xd3?'
p1509
tp1510
Rp1511
tp1512
a.