(lp0
(S'hidden markov model'
p1
cnumpy.core.multiarray
scalar
p2
(cnumpy
dtype
p3
(S'f8'
p4
I0
I1
tp5
Rp6
(I3
S'<'
p7
NNNI-1
I-1
I0
tp8
bS'\x03\x00\x00\x00\x00\x00\xf0?'
p9
tp10
Rp11
tp12
a(S'markov model'
p13
g2
(g6
S'\xc1P\xf4\xb7\xa9$\xe5?'
p14
tp15
Rp16
tp17
a(S'hidden semi-markov model'
p18
g2
(g6
S'h1\x16t\xae\t\xe5?'
p19
tp20
Rp21
tp22
a(S'markovian discrimination'
p23
g2
(g6
S'\xd7\x0e:\x8eQ\x0c\xe4?'
p24
tp25
Rp26
tp27
a(S'markov chain'
p28
g2
(g6
S'\x93\x8a\xa4\x82\x10\x00\xe4?'
p29
tp30
Rp31
tp32
a(S'baum\xe2\x80\x93welch algorithm'
p33
g2
(g6
S'\xf8q\xd1\xe9\xd3\xf0\xe3?'
p34
tp35
Rp36
tp37
a(S'hidden markov random field'
p38
g2
(g6
S'\xf4r\x0e\xb4\x00\xe6\xe3?'
p39
tp40
Rp41
tp42
a(S'markov property'
p43
g2
(g6
S'\xd6\x99\x94\xc7\xda\xfe\xe1?'
p44
tp45
Rp46
tp47
a(S'markov information source'
p48
g2
(g6
S'\xb7i\x08\xb2\x8c\xd3\xe1?'
p49
tp50
Rp51
tp52
a(S'forward algorithm'
p53
g2
(g6
S'/\x82U\x1e?\xcd\xe1?'
p54
tp55
Rp56
tp57
a(S'maximum-entropy markov model'
p58
g2
(g6
S'`\x1e\x85\x1bME\xe1?'
p59
tp60
Rp61
tp62
a(S'markov random field'
p63
g2
(g6
S'QuY\xe2m7\xe1?'
p64
tp65
Rp66
tp67
a(S'andrey markov'
p68
g2
(g6
S'\xc2\xedI\xbd\xd4\xfb\xe0?'
p69
tp70
Rp71
tp72
a(S'hierarchical hidden markov model'
p73
g2
(g6
S'\xe5**[5\xb8\xe0?'
p74
tp75
Rp76
tp77
a(S'markov renewal process'
p78
g2
(g6
S'\xbd/\xe0\xca;n\xe0?'
p79
tp80
Rp81
tp82
a(S'layered hidden markov model'
p83
g2
(g6
S'\xdc\xf8i\xdd\x10C\xe0?'
p84
tp85
Rp86
tp87
a(S'markov'
p88
g2
(g6
S'\xa7\x98\xf4\x1e\x98#\xe0?'
p89
tp90
Rp91
tp92
a(S'variable-order bayesian network'
p93
g2
(g6
S'vn\xe8\xeez\xe7\xdf?'
p94
tp95
Rp96
tp97
a(S'markov chains on a measurable state space'
p98
g2
(g6
S'\xc3>\xbbc\x9d\xe0\xdf?'
p99
tp100
Rp101
tp102
a(S'additive markov chain'
p103
g2
(g6
S'\x15\x87~v\xa1\xf5\xde?'
p104
tp105
Rp106
tp107
a(S'markov logic network'
p108
g2
(g6
S'\xcbl\x8b\x89a\xf0\xde?'
p109
tp110
Rp111
tp112
a(S'time-inhomogeneous hidden bernoulli model'
p113
g2
(g6
S'\x80Q\xc6\x8f;\xb3\xde?'
p114
tp115
Rp116
tp117
a(S'markov chain geostatistics'
p118
g2
(g6
S'Vwj\x86Ab\xde?'
p119
tp120
Rp121
tp122
a(S'variable-order markov model'
p123
g2
(g6
S'MS\xd4/\xb7\xda\xdd?'
p124
tp125
Rp126
tp127
a(S'time-series segmentation'
p128
g2
(g6
S'\x9f\xff\xcf)\xa8\xd8\xdd?'
p129
tp130
Rp131
tp132
a(S"kolmogorov's criterion"
p133
g2
(g6
S'\x84EC\xd8|\xa0\xdd?'
p134
tp135
Rp136
tp137
a(S'forward\xe2\x80\x93backward algorithm'
p138
g2
(g6
S'J\x8d\xe2\xe5\xf5j\xdd?'
p139
tp140
Rp141
tp142
a(S'uniformization (probability theory)'
p143
g2
(g6
S'k\xe2\xbfi\xf0\xe3\xdc?'
p144
tp145
Rp146
tp147
a(S'markov kernel'
p148
g2
(g6
S'\\\xd2\xbc\xef\xb5\xb9\xdc?'
p149
tp150
Rp151
tp152
a(S'viterbi algorithm'
p153
g2
(g6
S'\xab\tq\xe6\x9f\x9e\xdc?'
p154
tp155
Rp156
tp157
a(S'markov number'
p158
g2
(g6
S'\xd0\x0b\x95\xda \x98\xdc?'
p159
tp160
Rp161
tp162
a(S'markov reward model'
p163
g2
(g6
S'\xa8\x165\xd75\x8d\xdc?'
p164
tp165
Rp166
tp167
a(S'georgi markov'
p168
g2
(g6
S'\xed\x8b]\x8c\xeez\xdc?'
p169
tp170
Rp171
tp172
a(S'conditional random field'
p173
g2
(g6
S'\xe6\x10\xe8\xc8Pq\xdc?'
p174
tp175
Rp176
tp177
a(S'ihor markov'
p178
g2
(g6
S'\xe2\xd5?B\xa5Y\xdc?'
p179
tp180
Rp181
tp182
a(S'markov decision process'
p183
g2
(g6
S'\x9bQ:q\xf1\t\xdc?'
p184
tp185
Rp186
tp187
a(S'telescoping markov chain'
p188
g2
(g6
S'\xa2\x02i\x96\xddd\xdb?'
p189
tp190
Rp191
tp192
a(S'oleg markov'
p193
g2
(g6
S'\xd3\x194\xd0GV\xdb?'
p194
tp195
Rp196
tp197
a(S'sergey markov'
p198
g2
(g6
S'\xe3<=\x14g3\xdb?'
p199
tp200
Rp201
tp202
a(S'discrete phase-type distribution'
p203
g2
(g6
S'i\xfa\x05\xffp\x04\xdb?'
p204
tp205
Rp206
tp207
a(S'markov partition'
p208
g2
(g6
S'\xc2\x0fZ\xbe\x03\xd5\xda?'
p209
tp210
Rp211
tp212
a(S'transiogram'
p213
g2
(g6
S'1\x10\x83\xcbT\xa8\xda?'
p214
tp215
Rp216
tp217
a(S'markov additive process'
p218
g2
(g6
S'\xe8\x85\xb8L\x1a\x89\xda?'
p219
tp220
Rp221
tp222
a(S'markov strategy'
p223
g2
(g6
S'\xc1\xa6TP\xf8\x11\xda?'
p224
tp225
Rp226
tp227
a(S'hammersley\xe2\x80\x93clifford theorem'
p228
g2
(g6
S'\xfem\xaa)\x02\xa8\xd9?'
p229
tp230
Rp231
tp232
a(S'causal markov condition'
p233
g2
(g6
S'Y\xd8\x0e\xf6\xdf\xa1\xd9?'
p234
tp235
Rp236
tp237
a(S'mixture model'
p238
g2
(g6
S'\xefjv\xcd\xdd\x9f\xd9?'
p239
tp240
Rp241
tp242
a(S'nearly completely decomposable markov chain'
p243
g2
(g6
S'\xfdq2dB\x82\xd9?'
p244
tp245
Rp246
tp247
a(S'markov blanket'
p248
g2
(g6
S'3\xfc\xb6Z\x91\xbe\xd8?'
p249
tp250
Rp251
tp252
a(S'konstantin markov'
p253
g2
(g6
S'\x87\xa8,\xbd\x9d\xbb\xd8?'
p254
tp255
Rp256
tp257
a(S'quantum markov chain'
p258
g2
(g6
S'5\xad\x9f]I\x14\xd8?'
p259
tp260
Rp261
tp262
a(S'markovian arrival process'
p263
g2
(g6
S'\x96\x19\x98 \xf9\x0c\xd8?'
p264
tp265
Rp266
tp267
a(S'gibbs sampling'
p268
g2
(g6
S'o\xfb{t}\n\xd8?'
p269
tp270
Rp271
tp272
a(S'vladimir markov (politician)'
p273
g2
(g6
S'6\xa2L\xaa\x1c\xf1\xd7?'
p274
tp275
Rp276
tp277
a(S'models of dna evolution'
p278
g2
(g6
S't\x0b\xe1\xffu\xcc\xd7?'
p279
tp280
Rp281
tp282
a(S"kemeny's constant"
p283
g2
(g6
S'\xfa]:S7\x97\xd7?'
p284
tp285
Rp286
tp287
a(S'generative model'
p288
g2
(g6
S'\xccm7M~\x7f\xd7?'
p289
tp290
Rp291
tp292
a(S'sergey alexandrovich markov'
p293
g2
(g6
S'\xe5\x86\x115\xfcw\xd7?'
p294
tp295
Rp296
tp297
a(S'helmuth markov'
p298
g2
(g6
S'\xfcS\xca@Ei\xd7?'
p299
tp300
Rp301
tp302
a(S'andrey markov, jr.'
p303
g2
(g6
S'\x19E\x02a\x8dL\xd7?'
p304
tp305
Rp306
tp307
a(S'markov\xe2\x80\x93krein theorem'
p308
g2
(g6
S'\xd2<\x0f2\x8eC\xd7?'
p309
tp310
Rp311
tp312
a(S'sequence labeling'
p313
g2
(g6
S'\xf5\xae\xed\x1bQ9\xd7?'
p314
tp315
Rp316
tp317
a(S'catalog of articles in probability theory'
p318
g2
(g6
S':\x9f?\x8418\xd7?'
p319
tp320
Rp321
tp322
a(S'probability distribution'
p323
g2
(g6
S'\xa3\x90\x08\xc2\x80\xcc\xd6?'
p324
tp325
Rp326
tp327
a(S'construction of an irreducible markov chain in the ising model'
p328
g2
(g6
S'\xeao\x86\x1c\x10\xbb\xd6?'
p329
tp330
Rp331
tp332
a(S'metropolis\xe2\x80\x93hastings algorithm'
p333
g2
(g6
S'\xa0\x07\\(\xce\xab\xd6?'
p334
tp335
Rp336
tp337
a(S'gauss\xe2\x80\x93markov process'
p338
g2
(g6
S'\x02\x94$\xd3\x86\x9c\xd6?'
p339
tp340
Rp341
tp342
a(S'absorbing markov chain'
p343
g2
(g6
S'\xe2\xf4.\xaf\x81m\xd6?'
p344
tp345
Rp346
tp347
a(S'bayesian programming'
p348
g2
(g6
S'r_\xc52Kb\xd6?'
p349
tp350
Rp351
tp352
a(S'david williams (mathematician)'
p353
g2
(g6
S'Q}\xd0\xe5\xedN\xd6?'
p354
tp355
Rp356
tp357
a(S'georgi markov (weightlifter)'
p358
g2
(g6
S'?\xefe\xa9\xa1N\xd6?'
p359
tp360
Rp361
tp362
a(S'coupling from the past'
p363
g2
(g6
S'M\x8f\x98\x83\xe1H\xd6?'
p364
tp365
Rp366
tp367
a(S"markov's principle"
p368
g2
(g6
S'\xb6\xb4\xc0)\xc55\xd6?'
p369
tp370
Rp371
tp372
a(S'list of probability topics'
p373
g2
(g6
S'NV\xe1{\x88,\xd6?'
p374
tp375
Rp376
tp377
a(S'categorical distribution'
p378
g2
(g6
S'T\\"\xfc\x15\x13\xd6?'
p379
tp380
Rp381
tp382
a(S'alexander markov'
p383
g2
(g6
S'\xa2\xab\x8e\xd3\xac\xef\xd5?'
p384
tp385
Rp386
tp387
a(S'bayesian network'
p388
g2
(g6
S'r\x90\xd6\xe1\x97\xe4\xd5?'
p389
tp390
Rp391
tp392
a(S'10000000 (number)'
p393
g2
(g6
S'\xb4\x1a\x9ea\xe1\xdd\xd5?'
p394
tp395
Rp396
tp397
a(S'dirichlet-multinomial distribution'
p398
g2
(g6
S'b\xfeH\xa8\x92\xda\xd5?'
p399
tp400
Rp401
tp402
a(S'dirichlet process'
p403
g2
(g6
S'\x99u\xdc\x04\x16\xd0\xd5?'
p404
tp405
Rp406
tp407
a(S'examples of markov chains'
p408
g2
(g6
S'N\xa3\xeb\xa6\x83\xcf\xd5?'
p409
tp410
Rp411
tp412
a(S'ivan markov'
p413
g2
(g6
S'?6\xa5\x9b.\xc9\xd5?'
p414
tp415
Rp416
tp417
a(S'multiple-try metropolis'
p418
g2
(g6
S'nC\xdf\x93x\xb5\xd5?'
p419
tp420
Rp421
tp422
a(S'list of statistics articles'
p423
g2
(g6
S'\xe9\x1bCo\xdc\xa9\xd5?'
p424
tp425
Rp426
tp427
a(S"markov brothers' inequality"
p428
g2
(g6
S'\xd7F\xc0\x90\xf4\xa4\xd5?'
p429
tp430
Rp431
tp432
a(S'information bottleneck method'
p433
g2
(g6
S'\xa1\xd5\x16\x06\xb7\xa1\xd5?'
p434
tp435
Rp436
tp437
a(S'graphical model'
p438
g2
(g6
S'\x13vL\xe8\xb1\x7f\xd5?'
p439
tp440
Rp441
tp442
a(S'chapman\xe2\x80\x93kolmogorov equation'
p443
g2
(g6
S'\x1d\x8c\x10\xccGL\xd5?'
p444
tp445
Rp446
tp447
a(S'language model'
p448
g2
(g6
S'p\x97\x14\x87\xdcI\xd5?'
p449
tp450
Rp451
tp452
a(S'lumpability'
p453
g2
(g6
S':\xcc\xdcl\x10(\xd5?'
p454
tp455
Rp456
tp457
a(S'recursive bayesian estimation'
p458
g2
(g6
S'\x01"\xd4\x83Q\xf8\xd4?'
p459
tp460
Rp461
tp462
a(S'bayesian inference in phylogeny'
p463
g2
(g6
S'y\x08\x92{\xf0\xcc\xd4?'
p464
tp465
Rp466
tp467
a(S'dirichlet distribution'
p468
g2
(g6
S'D\xd8\xcb\xefJ\xc8\xd4?'
p469
tp470
Rp471
tp472
a(S'bayesian hierarchical modeling'
p473
g2
(g6
S'(0\xe2\xf2$\xc7\xd4?'
p474
tp475
Rp476
tp477
a(S'mean field particle methods'
p478
g2
(g6
S'g4B\x11\xc0\x8c\xd4?'
p479
tp480
Rp481
tp482
a(S'outline of probability'
p483
g2
(g6
S'$\x99\xac\x10\xc9r\xd4?'
p484
tp485
Rp486
tp487
a(S'joint probability distribution'
p488
g2
(g6
S'\xbe\x8e90\xe3p\xd4?'
p489
tp490
Rp491
tp492
a(S'markov tree'
p493
g2
(g6
S'\xde\xb1\xd2q\x9ei\xd4?'
p494
tp495
Rp496
tp497
a(S'multinomial distribution'
p498
g2
(g6
S'\x01\xaf\xd2#\xe0?\xd4?'
p499
tp500
Rp501
tp502
a(S'monte carlo pomdp'
p503
g2
(g6
S'#\x99\xfe\x1b\x12<\xd4?'
p504
tp505
Rp506
tp507
a(S'hidden'
p508
g2
(g6
S'b\xbf\xb65o:\xd4?'
p509
tp510
Rp511
tp512
a(S'variational bayesian methods'
p513
g2
(g6
S'X\xc7\xc0\xb8\xec,\xd4?'
p514
tp515
Rp516
tp517
a(S'markov algorithm'
p518
g2
(g6
S'#y\xdap5\x19\xd4?'
p519
tp520
Rp521
tp522
a(S"foster's theorem"
p523
g2
(g6
S'n\xbc\xb2\x8f\xbb\x12\xd4?'
p524
tp525
Rp526
tp527
a(S'hierarchical dirichlet process'
p528
g2
(g6
S'\x16\xf8\x18\x065\x10\xd4?'
p529
tp530
Rp531
tp532
a(S'piecewise-deterministic markov process'
p533
g2
(g6
S'\xf7\xb1\xc8Qw\x04\xd4?'
p534
tp535
Rp536
tp537
a(S'estimation of distribution algorithm'
p538
g2
(g6
S'\x1f\x9fS\x1b\x8b\xec\xd3?'
p539
tp540
Rp541
tp542
a(S'list of stochastic processes topics'
p543
g2
(g6
S'42\x02\x14\xf0\xea\xd3?'
p544
tp545
Rp546
tp547
a(S'hidden city'
p548
g2
(g6
S'>\xe1\xdd\x97M\xac\xd3?'
p549
tp550
Rp551
tp552
a(S'matrix analytic method'
p553
g2
(g6
S'\xe8\x85\x14\x89\xef\xa7\xd3?'
p554
tp555
Rp556
tp557
a(S'rule of succession'
p558
g2
(g6
S'E?\xcf\x88\xee\x93\xd3?'
p559
tp560
Rp561
tp562
a(S'velko markov'
p563
g2
(g6
S'\x11\xb7\x02W\x82\x89\xd3?'
p564
tp565
Rp566
tp567
a(S'reversible-jump markov chain monte carlo'
p568
g2
(g6
S'\xca:R\x8f<\x86\xd3?'
p569
tp570
Rp571
tp572
a(S"markov's inequality"
p573
g2
(g6
S'\xecH7~Yt\xd3?'
p574
tp575
Rp576
tp577
a(S'stochastic context-free grammar'
p578
g2
(g6
S'\xf5\x8b\x1e\xda\xb3M\xd3?'
p579
tp580
Rp581
tp582
a(S'swendsen\xe2\x80\x93wang algorithm'
p583
g2
(g6
S'\x9fN\xd0\xb3r9\xd3?'
p584
tp585
Rp586
tp587
a(S'expectation\xe2\x80\x93maximization algorithm'
p588
g2
(g6
S'M\x06\xcao\xf87\xd3?'
p589
tp590
Rp591
tp592
a(S'vic markov'
p593
g2
(g6
S'Y_\x82i\x19\x16\xd3?'
p594
tp595
Rp596
tp597
a(S'hidden variable'
p598
g2
(g6
S'x\xcf\x92\xc8\xeb\x0e\xd3?'
p599
tp600
Rp601
tp602
a(S'graphical models for protein structure'
p603
g2
(g6
S'\xde0\x80\xc1\xa8\xfb\xd2?'
p604
tp605
Rp606
tp607
a(S'inductive probability'
p608
g2
(g6
S'/\xa0\xa1\x11\xae\xea\xd2?'
p609
tp610
Rp611
tp612
a(S'million'
p613
g2
(g6
S'+\xeb\xe3\x086\xe8\xd2?'
p614
tp615
Rp616
tp617
a(S'generalized linear model'
p618
g2
(g6
S'\x9dmf\x14\xdb\xe0\xd2?'
p619
tp620
Rp621
tp622
a(S"l'encobert"
p623
g2
(g6
S'\xf0\x0b\x92\x17"\xd8\xd2?'
p624
tp625
Rp626
tp627
a(S'memorylessness'
p628
g2
(g6
S'\x9e8\x07}\x97\xc9\xd2?'
p629
tp630
Rp631
tp632
a(S'quasi-birth\xe2\x80\x93death process'
p633
g2
(g6
S'-\xe9\xab\xe1)\xc9\xd2?'
p634
tp635
Rp636
tp637
a(S'restricted boltzmann machine'
p638
g2
(g6
S'\xf3\x18L\xaa\x83\xc2\xd2?'
p639
tp640
Rp641
tp642
a(S'ibm alignment models'
p643
g2
(g6
S'\xccBH=\xe1\xbe\xd2?'
p644
tp645
Rp646
tp647
a(S'statistical model'
p648
g2
(g6
S'\xe2\xea\x1a\x8d\xb5\xbe\xd2?'
p649
tp650
Rp651
tp652
a(S'binomial regression'
p653
g2
(g6
S'04E\x87U\xab\xd2?'
p654
tp655
Rp656
tp657
a(S'probability density function'
p658
g2
(g6
S'\xdf\x7fo\x1bi\x9e\xd2?'
p659
tp660
Rp661
tp662
a(S'cape markov'
p663
g2
(g6
S'pK\x89j\r\x95\xd2?'
p664
tp665
Rp666
tp667
a(S'tigrfams'
p668
g2
(g6
S'Lt\xf0\x87\x8b{\xd2?'
p669
tp670
Rp671
tp672
a(S'pseudocount'
p673
g2
(g6
S'rj\xe10\x01w\xd2?'
p674
tp675
Rp676
tp677
a(S'markov spectrum'
p678
g2
(g6
S'\x10o.#\xfdr\xd2?'
p679
tp680
Rp681
tp682
a(S'khristo markov'
p683
g2
(g6
S'\xd6&\xfc1\x0cm\xd2?'
p684
tp685
Rp686
tp687
a(S'marginal distribution'
p688
g2
(g6
S'\x89\x80M\xd9\xa5c\xd2?'
p689
tp690
Rp691
tp692
a(S'linear probability model'
p693
g2
(g6
S'w>\xba\xcd\x01_\xd2?'
p694
tp695
Rp696
tp697
a(S'hidden world'
p698
g2
(g6
S'>&\x04\xb1BR\xd2?'
p699
tp700
Rp701
tp702
a(S'iterated filtering'
p703
g2
(g6
S'\x1842\xa1\x881\xd2?'
p704
tp705
Rp706
tp707
a(S'dynamic bayesian network'
p708
g2
(g6
S'rP\x0c\xff\x07/\xd2?'
p709
tp710
Rp711
tp712
a(S'spike-and-slab variable selection'
p713
g2
(g6
S'LQ\xb3!c*\xd2?'
p714
tp715
Rp716
tp717
a(S'probit model'
p718
g2
(g6
S'r\xce8\xf7\x10)\xd2?'
p719
tp720
Rp721
tp722
a(S'johannes runnenburg'
p723
g2
(g6
S'm!cX`\x1e\xd2?'
p724
tp725
Rp726
tp727
a(S'hmmer'
p728
g2
(g6
S'8\xb0o*+\x1a\xd2?'
p729
tp730
Rp731
tp732
a(S'probability'
p733
g2
(g6
S'\xf4e^o\xad\x0f\xd2?'
p734
tp735
Rp736
tp737
a(S'markov switching multifractal'
p738
g2
(g6
S'\x99\xca\xa12\xd4\xfa\xd1?'
p739
tp740
Rp741
tp742
a(S'context tree weighting'
p743
g2
(g6
S'\xa8\xb8\xbc?\xe9\xea\xd1?'
p744
tp745
Rp746
tp747
a(S'aleksandar markov'
p748
g2
(g6
S'E\xa0w~\xc9\xe8\xd1?'
p749
tp750
Rp751
tp752
a(S'iterative viterbi decoding'
p753
g2
(g6
S'\xff\x8a`8\x93\xe0\xd1?'
p754
tp755
Rp756
tp757
a(S'moisey markov'
p758
g2
(g6
S'\xa4t\x8cD>\xca\xd1?'
p759
tp760
Rp761
tp762
a(S'asymmetric simple exclusion process'
p763
g2
(g6
S'R(\xb1R9\xc7\xd1?'
p764
tp765
Rp766
tp767
a(S'gibbs measure'
p768
g2
(g6
S'\xe6\xf5\xff}T\xc4\xd1?'
p769
tp770
Rp771
tp772
a(S'stochastic petri net'
p773
g2
(g6
S'J\xc6zL\x16\xc4\xd1?'
p774
tp775
Rp776
tp777
a(S'bayesian econometrics'
p778
g2
(g6
S'\x86`d\xaa\x9e\xc1\xd1?'
p779
tp780
Rp781
tp782
a(S'compound probability distribution'
p783
g2
(g6
S'\xc3\x01\xd2cK\xb8\xd1?'
p784
tp785
Rp786
tp787
a(S'probability theory'
p788
g2
(g6
S'b(\xe2*Y\x9e\xd1?'
p789
tp790
Rp791
tp792
a(S'concentration parameter'
p793
g2
(g6
S'l\x14\x1f\xcc\xa6\x9b\xd1?'
p794
tp795
Rp796
tp797
a(S'inside\xe2\x80\x93outside algorithm'
p798
g2
(g6
S'K]\xc0\x9d\x00\x8c\xd1?'
p799
tp800
Rp801
tp802
a(S'markov chain mixing time'
p803
g2
(g6
S'\xb82\x0f\x8e\xea\x81\xd1?'
p804
tp805
Rp806
tp807
a(S'mathematical model'
p808
g2
(g6
S'\xee\xf0Pj_y\xd1?'
p809
tp810
Rp811
tp812
a(S'time series'
p813
g2
(g6
S'\xf2\x129\x08\x95w\xd1?'
p814
tp815
Rp816
tp817
a(S'history of network traffic models'
p818
g2
(g6
S'\x8d\r\x02U\xc9r\xd1?'
p819
tp820
Rp821
tp822
a(S'bayesian inference'
p823
g2
(g6
S'\x95\x08\xbc\xc3<r\xd1?'
p824
tp825
Rp826
tp827
a(S'conditional probability'
p828
g2
(g6
S'\xb7\x15\x1e\x7f+h\xd1?'
p829
tp830
Rp831
tp832
a(S'markov chain monte carlo'
p833
g2
(g6
S'\xaeY\xde0}d\xd1?'
p834
tp835
Rp836
tp837
a(S'law of total probability'
p838
g2
(g6
S'sN%\xc3\xb3U\xd1?'
p839
tp840
Rp841
tp842
a(S'particle filter'
p843
g2
(g6
S'\xc4\xb6\x81\xac\xc8D\xd1?'
p844
tp845
Rp846
tp847
a(S'approximate bayesian computation'
p848
g2
(g6
S'\xb0\xad]y\\4\xd1?'
p849
tp850
Rp851
tp852
a(S'local hidden variable theory'
p853
g2
(g6
S'\x84\xaf0ck,\xd1?'
p854
tp855
Rp856
tp857
a(S'interacting particle system'
p858
g2
(g6
S'\x14;\x7flv*\xd1?'
p859
tp860
Rp861
tp862
a(S'frequentist probability'
p863
g2
(g6
S'\xbbo\xb8\xcb\xf1"\xd1?'
p864
tp865
Rp866
tp867
a(S'structured prediction'
p868
g2
(g6
S'\x80\xe7\xa3M\x87"\xd1?'
p869
tp870
Rp871
tp872
a(S'eufrosina dvoichenko-markov'
p873
g2
(g6
S'\x1a\x94\xeeF\xc9 \xd1?'
p874
tp875
Rp876
tp877
a(S'vector generalized linear model'
p878
g2
(g6
S'\xe0\xa8\xac\x87\xfe\x1c\xd1?'
p879
tp880
Rp881
tp882
a(S'perplexity'
p883
g2
(g6
S'\x9a\xb4+\xed)\x1c\xd1?'
p884
tp885
Rp886
tp887
a(S'hidden valley'
p888
g2
(g6
S'r\x8dg\xa9\x98\x1a\xd1?'
p889
tp890
Rp891
tp892
a(S'stochastic chains with memory of variable length'
p893
g2
(g6
S'yh\xe1\\R\x17\xd1?'
p894
tp895
Rp896
tp897
a(S'empirical probability'
p898
g2
(g6
S'\xad\x0c=\xf8\x03\x16\xd1?'
p899
tp900
Rp901
tp902
a(S'bayesian probability'
p903
g2
(g6
S'\xaa\xcaI\xa0\xcf\n\xd1?'
p904
tp905
Rp906
tp907
a(S'arcsine distribution'
p908
g2
(g6
S'\xef\xca6\x90l\x06\xd1?'
p909
tp910
Rp911
tp912
a(S'symmetric probability distribution'
p913
g2
(g6
S'\xe3\x10\xf5\xcf\xc4\x01\xd1?'
p914
tp915
Rp916
tp917
a(S'marginal likelihood'
p918
g2
(g6
S'\xa7b\xf3\xaf\x98\xf6\xd0?'
p919
tp920
Rp921
tp922
a(S'phase-type distribution'
p923
g2
(g6
S'\xe0K\xf5\xd1b\xf5\xd0?'
p924
tp925
Rp926
tp927
a(S'predictive state representation'
p928
g2
(g6
S'\x93*\xad:%\xe1\xd0?'
p929
tp930
Rp931
tp932
a(S'pattern theory'
p933
g2
(g6
S'\t\x9e\x7f\x87c\xdc\xd0?'
p934
tp935
Rp936
tp937
a(S'probability interpretations'
p938
g2
(g6
S'D\xf0\x071\xd1\xdb\xd0?'
p939
tp940
Rp941
tp942
a(S'inverse probability'
p943
g2
(g6
S'P\x84\x05\xa3\x8b\xd7\xd0?'
p944
tp945
Rp946
tp947
a(S'cheeger bound'
p948
g2
(g6
S'X\xc4\x8d\x11\x89\xd6\xd0?'
p949
tp950
Rp951
tp952
a(S'algorithmic inference'
p953
g2
(g6
S'\xa8\xb5r*-\xd5\xd0?'
p954
tp955
Rp956
tp957
a(S'multinomial logistic regression'
p958
g2
(g6
S'j5\xecr\x8b\xd4\xd0?'
p959
tp960
Rp961
tp962
a(S'posterior probability'
p963
g2
(g6
S'5\xc2M\xda\xdf\xd3\xd0?'
p964
tp965
Rp966
tp967
a(S'hidden line removal'
p968
g2
(g6
S'k;\xf2\x142\xcd\xd0?'
p969
tp970
Rp971
tp972
a(S'wakeby distribution'
p973
g2
(g6
S'\x1fE\x1b%Z\xc7\xd0?'
p974
tp975
Rp976
tp977
a(S'mathematical statistics'
p978
g2
(g6
S'\xef%\xf7d\xef\xc2\xd0?'
p979
tp980
Rp981
tp982
a(S'stuart geman'
p983
g2
(g6
S'k}\xc2\xd9{\xbc\xd0?'
p984
tp985
Rp986
tp987
a(S'grouped dirichlet distribution'
p988
g2
(g6
S'\x7f\x9d\x8c2\xcc\xbb\xd0?'
p989
tp990
Rp991
tp992
a(S'stochastic matrix'
p993
g2
(g6
S'\x18/=\xc5\xf4\xb9\xd0?'
p994
tp995
Rp996
tp997
a(S'independent and identically distributed random variables'
p998
g2
(g6
S'I\xbb\xca\x95\xe5\xb5\xd0?'
p999
tp1000
Rp1001
tp1002
a(S'generalized additive model for location, scale and shape'
p1003
g2
(g6
S'U\r[\x1e\xd0\xb4\xd0?'
p1004
tp1005
Rp1006
tp1007
a(S'margaret markov'
p1008
g2
(g6
S'\t-\xd8x\xa9\xac\xd0?'
p1009
tp1010
Rp1011
tp1012
a(S'the arena (1974 film)'
p1013
g2
(g6
S'7\xf3\xe4,\xe8\x95\xd0?'
p1014
tp1015
Rp1016
tp1017
a(S'hmm'
p1018
g2
(g6
S'\xb2e\x10\xf9\xa5\x90\xd0?'
p1019
tp1020
Rp1021
tp1022
a(S'conditional probability distribution'
p1023
g2
(g6
S'\xae\xc1|\xfc2\x8b\xd0?'
p1024
tp1025
Rp1026
tp1027
a(S'genemark'
p1028
g2
(g6
S'\xc7\x14e4\xc8\x87\xd0?'
p1029
tp1030
Rp1031
tp1032
a(S'probability space'
p1033
g2
(g6
S'\x08%g.\xab\x87\xd0?'
p1034
tp1035
Rp1036
tp1037
a(S'adian\xe2\x80\x93rabin theorem'
p1038
g2
(g6
S'e\xf1\xeb\xd1\x8c\x82\xd0?'
p1039
tp1040
Rp1041
tp1042
a(S'random sample consensus'
p1043
g2
(g6
S'\x8e8G\x8cX~\xd0?'
p1044
tp1045
Rp1046
tp1047
a(S'list of convolutions of probability distributions'
p1048
g2
(g6
S'\xa7\xee\x19\x00Cs\xd0?'
p1049
tp1050
Rp1051
tp1052
a(S'mixing time'
p1053
g2
(g6
S'\xfe\x06\x10\xdf\xc2r\xd0?'
p1054
tp1055
Rp1056
tp1057
a(S'distribution learning theory'
p1058
g2
(g6
S'\xeek\xef\xe7\x91r\xd0?'
p1059
tp1060
Rp1061
tp1062
a(S'principle of transformation groups'
p1063
g2
(g6
S'%02\x1a\xeao\xd0?'
p1064
tp1065
Rp1066
tp1067
a(S'beta distribution'
p1068
g2
(g6
S'\x88\xdc\xa06\x00j\xd0?'
p1069
tp1070
Rp1071
tp1072
a(S'hyperexponential distribution'
p1073
g2
(g6
S'~\xcc\xf7\x83 V\xd0?'
p1074
tp1075
Rp1076
tp1077
a(S'bayesian linear regression'
p1078
g2
(g6
S'Z-\xe8(\xd1T\xd0?'
p1079
tp1080
Rp1081
tp1082
a(S'n-gram'
p1083
g2
(g6
S'b\xf0\xd6\xc4PT\xd0?'
p1084
tp1085
Rp1086
tp1087
a(S'geometric distribution'
p1088
g2
(g6
S'\x857\xc6\x0b\xba;\xd0?'
p1089
tp1090
Rp1091
tp1092
a(S'polynomial-time algorithm for approximating the volume of convex bodies'
p1093
g2
(g6
S'`\xa6\x1f\xe1\x05;\xd0?'
p1094
tp1095
Rp1096
tp1097
a(S"student's t-distribution"
p1098
g2
(g6
S'\xcb\xec\x99\xc4\xfa9\xd0?'
p1099
tp1100
Rp1101
tp1102
a(S'semantic analysis (machine learning)'
p1103
g2
(g6
S'\xbfFo\x0e-9\xd0?'
p1104
tp1105
Rp1106
tp1107
a(S'chain rule (probability)'
p1108
g2
(g6
S'\xf1U\x923\n8\xd0?'
p1109
tp1110
Rp1111
tp1112
a(S'evgeny markov (writer)'
p1113
g2
(g6
S'\x8d\x7f\x93\xf4\x9b5\xd0?'
p1114
tp1115
Rp1116
tp1117
a(S'inverted dirichlet distribution'
p1118
g2
(g6
S'\xd4K\xca13(\xd0?'
p1119
tp1120
Rp1121
tp1122
a(S'k-distribution'
p1123
g2
(g6
S'n\xed.QY&\xd0?'
p1124
tp1125
Rp1126
tp1127
a(S'variational message passing'
p1128
g2
(g6
S'K|6\xa7\x05%\xd0?'
p1129
tp1130
Rp1131
tp1132
a(S'frequentist inference'
p1133
g2
(g6
S'\xd9\x83\x12\xaa\x83\x1f\xd0?'
p1134
tp1135
Rp1136
tp1137
a(S'probability distribution fitting'
p1138
g2
(g6
S'MP\x0c\xbc\xf0\x1b\xd0?'
p1139
tp1140
Rp1141
tp1142
a(S'history of probability'
p1143
g2
(g6
S'\x81\x80\x1ey\xb8\x1a\xd0?'
p1144
tp1145
Rp1146
tp1147
a(S'posterior predictive distribution'
p1148
g2
(g6
S'*\x9e\x89 \xc7\x13\xd0?'
p1149
tp1150
Rp1151
tp1152
a(S'f-distribution'
p1153
g2
(g6
S'R6\xb4\xde \x08\xd0?'
p1154
tp1155
Rp1156
tp1157
a(S'probability mass function'
p1158
g2
(g6
S'\x99\x0bm\\y\x03\xd0?'
p1159
tp1160
Rp1161
tp1162
a(S'georgi markov (wrestler)'
p1163
g2
(g6
S'-\x0e\xfd\x13\xe0\xfd\xcf?'
p1164
tp1165
Rp1166
tp1167
a(S'notation in probability and statistics'
p1168
g2
(g6
S'\xb6_\xdd\xf7\x89\xf3\xcf?'
p1169
tp1170
Rp1171
tp1172
a(S'fluid queue'
p1173
g2
(g6
S'\xc9\x83\xf9\xc8\x89\xea\xcf?'
p1174
tp1175
Rp1176
tp1177
a(S'imprecise probability'
p1178
g2
(g6
S'\x04q\xad\xdc\xd6\xe3\xcf?'
p1179
tp1180
Rp1181
tp1182
a(S'statistical association football predictions'
p1183
g2
(g6
S'\xf9\x87\x0f\xc0d\xe3\xcf?'
p1184
tp1185
Rp1186
tp1187
a(S'hybrid monte carlo'
p1188
g2
(g6
S'"\xc67\x00\xf9\xd2\xcf?'
p1189
tp1190
Rp1191
tp1192
a(S'hypoexponential distribution'
p1193
g2
(g6
S'B\x93!\xa3\xc3\xcb\xcf?'
p1194
tp1195
Rp1196
tp1197
a(S'list of albums containing a hidden track'
p1198
g2
(g6
S'\xae+0\xf3\xce\xc2\xcf?'
p1199
tp1200
Rp1201
tp1202
a(S'list of probability distributions'
p1203
g2
(g6
S'\x8b\xe6\xa8e&\xc1\xcf?'
p1204
tp1205
Rp1206
tp1207
a(S'spectral expansion solution'
p1208
g2
(g6
S'\xcb\xe0\x8a\\\x16\xbc\xcf?'
p1209
tp1210
Rp1211
tp1212
a(S'law of the unconscious statistician'
p1213
g2
(g6
S'\xd7\xf8\xdf\xc7\x84\xad\xcf?'
p1214
tp1215
Rp1216
tp1217
a(S'markov perfect equilibrium'
p1218
g2
(g6
S"\xe2\xf5<\xc9'\xa5\xcf?"
p1219
tp1220
Rp1221
tp1222
a(S'overdispersion'
p1223
g2
(g6
S'\x0b\n\x1dki\x96\xcf?'
p1224
tp1225
Rp1226
tp1227
a(S'bayesian knowledge tracing'
p1228
g2
(g6
S'\xc3\xb0E\t\n\x90\xcf?'
p1229
tp1230
Rp1231
tp1232
a(S'transition rate matrix'
p1233
g2
(g6
S'\xd9\xaf\x8dA*\x88\xcf?'
p1234
tp1235
Rp1236
tp1237
a(S'probability amplitude'
p1238
g2
(g6
S'\xaa*\x1f$\xce\x85\xcf?'
p1239
tp1240
Rp1241
tp1242
a(S'mixture distribution'
p1243
g2
(g6
S'=\xdc\x17W"}\xcf?'
p1244
tp1245
Rp1246
tp1247
a(S'multimodal learning'
p1248
g2
(g6
S'\xd5\x94\x00s\xeem\xcf?'
p1249
tp1250
Rp1251
tp1252
a(S'regular conditional probability'
p1253
g2
(g6
S'\xb0B0\xffRd\xcf?'
p1254
tp1255
Rp1256
tp1257
a(S"kelly's lemma"
p1258
g2
(g6
S'\x94W\x9bK\xd0a\xcf?'
p1259
tp1260
Rp1261
tp1262
a(S'van houtum distribution'
p1263
g2
(g6
S'\x0fa\x91A\xea`\xcf?'
p1264
tp1265
Rp1266
tp1267
a(S'yevgeni markov (footballer, born 1994)'
p1268
g2
(g6
S'\xcf\xaa\x02\xf9VW\xcf?'
p1269
tp1270
Rp1271
tp1272
a(S'foundations of statistics'
p1273
g2
(g6
S'\xe6\xd7,^\x8eR\xcf?'
p1274
tp1275
Rp1276
tp1277
a(S'substitution model'
p1278
g2
(g6
S'l\x9f\n\x14\xfcE\xcf?'
p1279
tp1280
Rp1281
tp1282
a(S'random variable'
p1283
g2
(g6
S'\x80\xac\x96\xfeNC\xcf?'
p1284
tp1285
Rp1286
tp1287
a(S'nakagami distribution'
p1288
g2
(g6
S')\xbf\x01\x93_A\xcf?'
p1289
tp1290
Rp1291
tp1292
a(S'credal set'
p1293
g2
(g6
S'\xben\xd5\x1b\xa9<\xcf?'
p1294
tp1295
Rp1296
tp1297
a(S'interpro'
p1298
g2
(g6
S'\x99\x19(\xa0j6\xcf?'
p1299
tp1300
Rp1301
tp1302
a(S'classical definition of probability'
p1303
g2
(g6
S'd\x08>Sr4\xcf?'
p1304
tp1305
Rp1306
tp1307
a(S'gittins index'
p1308
g2
(g6
S'\x17\x82\r\xf0\xd61\xcf?'
p1309
tp1310
Rp1311
tp1312
a(S'conditional independence'
p1313
g2
(g6
S')x\xa8\x01.*\xcf?'
p1314
tp1315
Rp1316
tp1317
a(S'one-shot learning'
p1318
g2
(g6
S'^\xd3-\x9e\xa2)\xcf?'
p1319
tp1320
Rp1321
tp1322
a(S'm/g/1 queue'
p1323
g2
(g6
S'\xe1\xb6+\x92i\x13\xcf?'
p1324
tp1325
Rp1326
tp1327
a(S'hyperparameter'
p1328
g2
(g6
S'\x85\xdc\xe6p\xa1\x0c\xcf?'
p1329
tp1330
Rp1331
tp1332
a(S'laurent saloff-coste'
p1333
g2
(g6
S'\xda\x19^\x94\xc2\x00\xcf?'
p1334
tp1335
Rp1336
tp1337
a(S'probability integral transform'
p1338
g2
(g6
S'\xe8-\xb74:\xf6\xce?'
p1339
tp1340
Rp1341
tp1342
a(S'list of probability journals'
p1343
g2
(g6
S'\x80?\x95\xb8\x05\xdd\xce?'
p1344
tp1345
Rp1346
tp1347
a(S'hidden champions'
p1348
g2
(g6
S'&\x95\x08\xcd\xc3\xd9\xce?'
p1349
tp1350
Rp1351
tp1352
a(S'pseudo-random number sampling'
p1353
g2
(g6
S'\xbf\x96\x06\xab\x8c\xd7\xce?'
p1354
tp1355
Rp1356
tp1357
a(S'mixture (probability)'
p1358
g2
(g6
S'\xc0\xf2\xa1*\x17\xb3\xce?'
p1359
tp1360
Rp1361
tp1362
a(S'logit-normal distribution'
p1363
g2
(g6
S'F\xf3\x8b\xed\xe1\xab\xce?'
p1364
tp1365
Rp1366
tp1367
a(S'dyadic distribution'
p1368
g2
(g6
S'\xdd\n\xc7\xba\x15\xaa\xce?'
p1369
tp1370
Rp1371
tp1372
a(S'normal-gamma distribution'
p1373
g2
(g6
S'\x1aHT\xf4:\xa6\xce?'
p1374
tp1375
Rp1376
tp1377
a(S'hidden track'
p1378
g2
(g6
S'=hB\xbd\xdf\xa1\xce?'
p1379
tp1380
Rp1381
tp1382
a(S'pattern recognition'
p1383
g2
(g6
S'3&\xe9\xf1X\xa0\xce?'
p1384
tp1385
Rp1386
tp1387
a(S'logarithmic distribution'
p1388
g2
(g6
S'\xc0\xb5\xf2q4\x9c\xce?'
p1389
tp1390
Rp1391
tp1392
a(S'bcjr algorithm'
p1393
g2
(g6
S'k\x99\xe4\x9a8\x96\xce?'
p1394
tp1395
Rp1396
tp1397
a(S'nikolai yevgenyevich markov'
p1398
g2
(g6
S'\xe8\xaa\xe0\xf3\x93\x95\xce?'
p1399
tp1400
Rp1401
tp1402
a(S'kumaraswamy distribution'
p1403
g2
(g6
S'\xddOYAi\x94\xce?'
p1404
tp1405
Rp1406
tp1407
a(S'twisting properties'
p1408
g2
(g6
S'W\x9e\xc2\xbb\x14}\xce?'
p1409
tp1410
Rp1411
tp1412
a(S"de finetti's theorem"
p1413
g2
(g6
S'\x1a\xdf\x024\xe8|\xce?'
p1414
tp1415
Rp1416
tp1417
a(S'markov reward model checker'
p1418
g2
(g6
S'\x0c\xf5\xfcQ\xa6|\xce?'
p1419
tp1420
Rp1421
tp1422
a(S'product distribution'
p1423
g2
(g6
S'u\xa7\xe7\x97.w\xce?'
p1424
tp1425
Rp1426
tp1427
a(S'gompertz distribution'
p1428
g2
(g6
S'n\x12\xb5\x08\xcev\xce?'
p1429
tp1430
Rp1431
tp1432
a(S'rayleigh mixture distribution'
p1433
g2
(g6
S'6\xf9B\x06\xf0q\xce?'
p1434
tp1435
Rp1436
tp1437
a(S'entropy rate'
p1438
g2
(g6
S'\xc6\xc9\x14\xb8\x80k\xce?'
p1439
tp1440
Rp1441
tp1442
a(S'identifiability'
p1443
g2
(g6
S'\xe8\xfa\xb5\x8d\xecd\xce?'
p1444
tp1445
Rp1446
tp1447
a(S'nikolay markov (footballer)'
p1448
g2
(g6
S'I\xdf$\x8a\xffX\xce?'
p1449
tp1450
Rp1451
tp1452
a(S'unimodality'
p1453
g2
(g6
S'\x91\xa5\xf66\xcfW\xce?'
p1454
tp1455
Rp1456
tp1457
a(S'yevgeni ivanovich markov'
p1458
g2
(g6
S'\x05\x97\x07\r\x10V\xce?'
p1459
tp1460
Rp1461
tp1462
a(S'probability box'
p1463
g2
(g6
S'\n\x92\x07p\x14M\xce?'
p1464
tp1465
Rp1466
tp1467
a(S'constellation model'
p1468
g2
(g6
S'E\x82\xaf/#9\xce?'
p1469
tp1470
Rp1471
tp1472
a(S'hidden lake'
p1473
g2
(g6
S'\xd0bXM\xea8\xce?'
p1474
tp1475
Rp1476
tp1477
a(S'prior probability'
p1478
g2
(g6
S"/+\xa8C~'\xce?"
p1479
tp1480
Rp1481
tp1482
a(S'indecomposable distribution'
p1483
g2
(g6
S'\xe0\xfdB\x89\x8e\x1d\xce?'
p1484
tp1485
Rp1486
tp1487
a(S'digital probabilistic physics'
p1488
g2
(g6
S'r\x0f60\xee\x0f\xce?'
p1489
tp1490
Rp1491
tp1492
a(S'conditioning (probability)'
p1493
g2
(g6
S'^\xdc\x8f\xbf\xa4\x0e\xce?'
p1494
tp1495
Rp1496
tp1497
a(S'hidden sector'
p1498
g2
(g6
S'r\x12\xf8f\xb1\x0c\xce?'
p1499
tp1500
Rp1501
tp1502
a(S'pseudolikelihood'
p1503
g2
(g6
S'\x0c\xfcIsD\xf6\xcd?'
p1504
tp1505
Rp1506
tp1507
a(S'exponential family'
p1508
g2
(g6
S'\x8d\xf5P\xb4\xf8\xf3\xcd?'
p1509
tp1510
Rp1511
tp1512
a.