(lp0
(S'history of natural language processing'
p1
cnumpy.core.multiarray
scalar
p2
(cnumpy
dtype
p3
(S'f8'
p4
I0
I1
tp5
Rp6
(I3
S'<'
p7
NNNI-1
I-1
I0
tp8
bS'\x04\x00\x00\x00\x00\x00\xf0?'
p9
tp10
Rp11
tp12
a(S'natural language processing'
p13
g2
(g6
S'\xb6o\xc2\xdd\xec\xa7\xe1?'
p14
tp15
Rp16
tp17
a(S'outline of natural language processing'
p18
g2
(g6
S'\xab\xb2\xf8\xc6Ju\xe0?'
p19
tp20
Rp21
tp22
a(S'history of machine translation'
p23
g2
(g6
S'\x8e\x0bm\x0e4\xbb\xdf?'
p24
tp25
Rp26
tp27
a(S'machine translation'
p28
g2
(g6
S'\xe8\xd7|\x9d,\x8f\xdc?'
p29
tp30
Rp31
tp32
a(S'dictionary-based machine translation'
p33
g2
(g6
S'\xb9?E\x12\xb8\x83\xdb?'
p34
tp35
Rp36
tp37
a(S'statistical machine translation'
p38
g2
(g6
S'\xc0\xb6B2}c\xdb?'
p39
tp40
Rp41
tp42
a(S'hybrid machine translation'
p43
g2
(g6
S'\xfd\xc1\x9b\xa6\x8e\xbb\xda?'
p44
tp45
Rp46
tp47
a(S'interlingual machine translation'
p48
g2
(g6
S'\xae\x8aa0\xee0\xda?'
p49
tp50
Rp51
tp52
a(S'comparison of different machine translation approaches'
p53
g2
(g6
S"\xd9$\xbf'\x84\x89\xd9?"
p54
tp55
Rp56
tp57
a(S'natural language understanding'
p58
g2
(g6
S'\x99)n\x7f\xfc\x89\xd8?'
p59
tp60
Rp61
tp62
a(S'list of research laboratories for machine translation'
p63
g2
(g6
S'\x19\xcc(\xfa>+\xd8?'
p64
tp65
Rp66
tp67
a(S'machine learning'
p68
g2
(g6
S'\xea\\P\xf8\xfd#\xd7?'
p69
tp70
Rp71
tp72
a(S'timeline of machine translation'
p73
g2
(g6
S'Z\x9b>\\\x05\x82\xd6?'
p74
tp75
Rp76
tp77
a(S'automatic language translator'
p78
g2
(g6
S'v\xc4!\xef\xbf\x1d\xd6?'
p79
tp80
Rp81
tp82
a(S'google neural machine translation'
p83
g2
(g6
S'\x99\x0b\x87\xa4\x04\xd8\xd5?'
p84
tp85
Rp86
tp87
a(S'jaime carbonell'
p88
g2
(g6
S'\x90\xac\xbf\xb6o\xb7\xd5?'
p89
tp90
Rp91
tp92
a(S'dlib'
p93
g2
(g6
S'\xe8X\xcfj\x91s\xd5?'
p94
tp95
Rp96
tp97
a(S'rule-based machine translation'
p98
g2
(g6
S'\xf2\xcf\xde\xb8dI\xd5?'
p99
tp100
Rp101
tp102
a(S'promt'
p103
g2
(g6
S'\x93\xe6\xcd\x11\x01)\xd5?'
p104
tp105
Rp106
tp107
a(S'computational linguistics'
p108
g2
(g6
S'\xe4\xa7\xe4\xb1\xee\xd2\xd4?'
p109
tp110
Rp111
tp112
a(S'omniscien technologies'
p113
g2
(g6
S'\xbd\xcb\xd8k(\xc8\xd4?'
p114
tp115
Rp116
tp117
a(S'martin kay'
p118
g2
(g6
S'?0\xe0\xa0U\x89\xd4?'
p119
tp120
Rp121
tp122
a(S'controlled language in machine translation'
p123
g2
(g6
S'\xce\xe3v\x883\x88\xd4?'
p124
tp125
Rp126
tp127
a(S'speech translation'
p128
g2
(g6
S's\x0fC\x05\x03g\xd4?'
p129
tp130
Rp131
tp132
a(S'computer-assisted translation'
p133
g2
(g6
S'8.]\xb5?T\xd4?'
p134
tp135
Rp136
tp137
a(S'apptek'
p138
g2
(g6
S'\x1b\xd8\xcb4Z8\xd4?'
p139
tp140
Rp141
tp142
a(S'medslt'
p143
g2
(g6
S'}/\xae<\xdb1\xd4?'
p144
tp145
Rp146
tp147
a(S'software system'
p148
g2
(g6
S'\x8e(\xf3\x8c\xcb,\xd4?'
p149
tp150
Rp151
tp152
a(S'pairaphrase'
p153
g2
(g6
S'Zp\xae{\xc2"\xd4?'
p154
tp155
Rp156
tp157
a(S'example-based machine translation'
p158
g2
(g6
S'i{\x0b\xe9\x0e\x07\xd4?'
p159
tp160
Rp161
tp162
a(S'philipp koehn'
p163
g2
(g6
S" '\xcb\x04*\xe6\xd3?"
p164
tp165
Rp166
tp167
a(S'software'
p168
g2
(g6
S'\x90 ?X\xbe\xb9\xd3?'
p169
tp170
Rp171
tp172
a(S'alpac'
p173
g2
(g6
S'\xe9\xb4\xa50$\xb3\xd3?'
p174
tp175
Rp176
tp177
a(S'transfer-based machine translation'
p178
g2
(g6
S'\x13/\\\xa4r\x8b\xd3?'
p179
tp180
Rp181
tp182
a(S'apertium'
p183
g2
(g6
S'\xe71\x85FD\x8b\xd3?'
p184
tp185
Rp186
tp187
a(S'language weaver'
p188
g2
(g6
S'#\xe7\xee}Kc\xd3?'
p189
tp190
Rp191
tp192
a(S'georgetown\xe2\x80\x93ibm experiment'
p193
g2
(g6
S'\x7f\xc8@l\x8cW\xd3?'
p194
tp195
Rp196
tp197
a(S'language education'
p198
g2
(g6
S'\xcd\xc7L\x8f\x87N\xd3?'
p199
tp200
Rp201
tp202
a(S'interactive machine translation'
p203
g2
(g6
S'\x8b\x85}3\xe2A\xd3?'
p204
tp205
Rp206
tp207
a(S'xtm international'
p208
g2
(g6
S'\xbc4t\xa7K\x0c\xd3?'
p209
tp210
Rp211
tp212
a(S'meedan'
p213
g2
(g6
S'\x00\xa09\xe4\xdb\x02\xd3?'
p214
tp215
Rp216
tp217
a(S'translation'
p218
g2
(g6
S'\x11\xf4\xa2\xf4\x1d\xf6\xd2?'
p219
tp220
Rp221
tp222
a(S'europarl corpus'
p223
g2
(g6
S'A\x92\x06\xf9\xf9\xe3\xd2?'
p224
tp225
Rp226
tp227
a(S'natural language user interface'
p228
g2
(g6
S"/M\xb6'Z\xd8\xd2?"
p229
tp230
Rp231
tp232
a(S'software development'
p233
g2
(g6
S'\x8e\xddHiL\xcc\xd2?'
p234
tp235
Rp236
tp237
a(S'round-trip translation'
p238
g2
(g6
S'\xd4e\xaej\x1b\xca\xd2?'
p239
tp240
Rp241
tp242
a(S'list of artificial intelligence projects'
p243
g2
(g6
S'\x12\xc4\xe3\x0e\r\xb5\xd2?'
p244
tp245
Rp246
tp247
a(S'tanagra (machine learning)'
p248
g2
(g6
S"\x08\xa0\x8d0'\xa5\xd2?"
p249
tp250
Rp251
tp252
a(S'machine translation software usability'
p253
g2
(g6
S'\x91\xeb; ]\x89\xd2?'
p254
tp255
Rp256
tp257
a(S'steve omohundro'
p258
g2
(g6
S'#C\x10b\xad\x88\xd2?'
p259
tp260
Rp261
tp262
a(S'artificial intelligence'
p263
g2
(g6
S'"\xc2\x0f\xe7\xa9w\xd2?'
p264
tp265
Rp266
tp267
a(S'margaret masterman'
p268
g2
(g6
S'\xfe\x18;\x91\x1dw\xd2?'
p269
tp270
Rp271
tp272
a(S'statistical language acquisition'
p273
g2
(g6
S'R\x88>\xca\xfen\xd2?'
p274
tp275
Rp276
tp277
a(S'european association for machine translation'
p278
g2
(g6
S'\xe3w\xa3\xe3\xfb_\xd2?'
p279
tp280
Rp281
tp282
a(S'system software'
p283
g2
(g6
S"]+')\xddD\xd2?"
p284
tp285
Rp286
tp287
a(S'computer language'
p288
g2
(g6
S'\x0c;\xd3\xe8\xdb(\xd2?'
p289
tp290
Rp291
tp292
a(S'language identification'
p293
g2
(g6
S'\xd1\xbbi\xa2#\x1a\xd2?'
p294
tp295
Rp296
tp297
a(S'x-machine'
p298
g2
(g6
S'\xf4\xa3\xd1\xeb,\n\xd2?'
p299
tp300
Rp301
tp302
a(S'outline of software'
p303
g2
(g6
S'\xa3\xbd\xe6\xf5\xa7\t\xd2?'
p304
tp305
Rp306
tp307
a(S'linguistics'
p308
g2
(g6
S'I\xde\xe6\x94\xee\xe7\xd1?'
p309
tp310
Rp311
tp312
a(S'john d. lafferty'
p313
g2
(g6
S'|\xd6\xe7\xa1\xb0\xe7\xd1?'
p314
tp315
Rp316
tp317
a(S'language industry'
p318
g2
(g6
S'\xec\xa9\xbc\x8b\xe2\xe1\xd1?'
p319
tp320
Rp321
tp322
a(S'software language'
p323
g2
(g6
S'\xf9\xcb\xc9\x17\xf0\xcf\xd1?'
p324
tp325
Rp326
tp327
a(S'synchronous context-free grammar'
p328
g2
(g6
S't\xd8IB\xcf\xc2\xd1?'
p329
tp330
Rp331
tp332
a(S'language and communication technologies'
p333
g2
(g6
S'\x9d\xea\xea\xc0-\xb8\xd1?'
p334
tp335
Rp336
tp337
a(S'computability'
p338
g2
(g6
S'\xbe\t\xbbHu\xb7\xd1?'
p339
tp340
Rp341
tp342
a(S'software industry'
p343
g2
(g6
S'\xfd\x13\xd2\xe3\xb7\xa7\xd1?'
p344
tp345
Rp346
tp347
a(S'index of software engineering articles'
p348
g2
(g6
S'\xff\xd9\xc5]\x8d\x9c\xd1?'
p349
tp350
Rp351
tp352
a(S'thomas g. dietterich'
p353
g2
(g6
S'\xa6Y\x10TN\x98\xd1?'
p354
tp355
Rp356
tp357
a(S'language acquisition'
p358
g2
(g6
S'F\xb3\xdfEXy\xd1?'
p359
tp360
Rp361
tp362
a(S'corpora in translation studies'
p363
g2
(g6
S'k[\xeaW0y\xd1?'
p364
tp365
Rp366
tp367
a(S'natural language toolkit'
p368
g2
(g6
S'ZxM\xb5\x05q\xd1?'
p369
tp370
Rp371
tp372
a(S'lepor'
p373
g2
(g6
S'\xf5\xc3\r\xd9;j\xd1?'
p374
tp375
Rp376
tp377
a(S'neural machine translation'
p378
g2
(g6
S'9B\x88\x94\xa9b\xd1?'
p379
tp380
Rp381
tp382
a(S'history of software engineering'
p383
g2
(g6
S'\x05\x1f\x08f\tT\xd1?'
p384
tp385
Rp386
tp387
a(S'evaluation of machine translation'
p388
g2
(g6
S'90w\x1b\x99E\xd1?'
p389
tp390
Rp391
tp392
a(S'adsotrans'
p393
g2
(g6
S'(\xb4W\x85QC\xd1?'
p394
tp395
Rp396
tp397
a(S'euromatrix'
p398
g2
(g6
S'`t\xae\xcb\xf1>\xd1?'
p399
tp400
Rp401
tp402
a(S'natural language programming'
p403
g2
(g6
S'\xb2\xb6\x8f\x06\x9f=\xd1?'
p404
tp405
Rp406
tp407
a(S'bitext word alignment'
p408
g2
(g6
S'\xdb\xed\xc4S\x05,\xd1?'
p409
tp410
Rp411
tp412
a(S'neural designer'
p413
g2
(g6
S'\xdc\x03k\xa7\xc4\x1f\xd1?'
p414
tp415
Rp416
tp417
a(S'electronic data processing'
p418
g2
(g6
S'\xb2\xcb=(W\x1f\xd1?'
p419
tp420
Rp421
tp422
a(S'language'
p423
g2
(g6
S'sr\xc8\x02\xbc\x1e\xd1?'
p424
tp425
Rp426
tp427
a(S'technical translation'
p428
g2
(g6
S'\\\xb3\xfc\xb1I\x18\xd1?'
p429
tp430
Rp431
tp432
a(S'educational software'
p433
g2
(g6
S'\x7f\xbf8\x95\x1c\x16\xd1?'
p434
tp435
Rp436
tp437
a(S'outline of software engineering'
p438
g2
(g6
S'\xef\xfdo\x0b\x93\x02\xd1?'
p439
tp440
Rp441
tp442
a(S'computing'
p443
g2
(g6
S'u\nP$\x80\xe7\xd0?'
p444
tp445
Rp446
tp447
a(S'human\xe2\x80\x93machine system'
p448
g2
(g6
S'\xa2\xe7{\xf6.\xe6\xd0?'
p449
tp450
Rp451
tp452
a(S'institute for language and speech processing'
p453
g2
(g6
S'\xd6\x9c;\x82\x9f\xe3\xd0?'
p454
tp455
Rp456
tp457
a(S'list of statistical packages'
p458
g2
(g6
S'\x07\xa4\xf8bX\xe1\xd0?'
p459
tp460
Rp461
tp462
a(S'natural language generation'
p463
g2
(g6
S"\x06'\xc6\xe1\x98\xe0\xd0?"
p464
tp465
Rp466
tp467
a(S'list of free and open-source software packages'
p468
g2
(g6
S'4\xe2\xd9\x15\xec\xde\xd0?'
p469
tp470
Rp471
tp472
a(S'walter daelemans'
p473
g2
(g6
S'\xb7I\x9aT\x9f\xde\xd0?'
p474
tp475
Rp476
tp477
a(S'grammar\xe2\x80\x93translation method'
p478
g2
(g6
S'\xe7\xe5\xd2\xd4l\xdd\xd0?'
p479
tp480
Rp481
tp482
a(S'ayasdi'
p483
g2
(g6
S'\xde\xff_GU\xda\xd0?'
p484
tp485
Rp486
tp487
a(S'software map'
p488
g2
(g6
S'1\xf3\x81\xe4\x08\xda\xd0?'
p489
tp490
Rp491
tp492
a(S'software analytics'
p493
g2
(g6
S'F4%\xe6G\xd4\xd0?'
p494
tp495
Rp496
tp497
a(S'makoto nagao'
p498
g2
(g6
S'oKN\x8a\xde\xd0\xd0?'
p499
tp500
Rp501
tp502
a(S'mobile translation'
p503
g2
(g6
S'\x99\xa6\xbb\x0bt\xc6\xd0?'
p504
tp505
Rp506
tp507
a(S'caitra'
p508
g2
(g6
S'\xa5\xa9m\xf6?\xc6\xd0?'
p509
tp510
Rp511
tp512
a(S'software diagnosis'
p513
g2
(g6
S'8\xc3\tR\xc5\xc3\xd0?'
p514
tp515
Rp516
tp517
a(S'psycholinguistics'
p518
g2
(g6
S'\x9a\xd3V\x13\x07\xbd\xd0?'
p519
tp520
Rp521
tp522
a(S'computer programming'
p523
g2
(g6
S'J\xb1l\x93\xac\xb6\xd0?'
p524
tp525
Rp526
tp527
a(S'etap-3'
p528
g2
(g6
S'\xbd\x0bM\xa1B\xb0\xd0?'
p529
tp530
Rp531
tp532
a(S'application software'
p533
g2
(g6
S"8pA'\xac\xae\xd0?"
p534
tp535
Rp536
tp537
a(S'memoq'
p538
g2
(g6
S'\x10\xdc{\xa7\xc9\xab\xd0?'
p539
tp540
Rp541
tp542
a(S'l\xc3\xa9on bottou'
p543
g2
(g6
S'\xe6\xc5?[\x01\xaa\xd0?'
p544
tp545
Rp546
tp547
a(S'h2o (software)'
p548
g2
(g6
S'\xbfe`\xde\xac\x9f\xd0?'
p549
tp550
Rp551
tp552
a(S'timeline of machine learning'
p553
g2
(g6
S'\xa3\xff[b2\x9a\xd0?'
p554
tp555
Rp556
tp557
a(S'system'
p558
g2
(g6
S'\xde\xc0\xaa\x15\x8d\x95\xd0?'
p559
tp560
Rp561
tp562
a(S'lojban'
p563
g2
(g6
S'C\xb2\xe2\x8ao\x95\xd0?'
p564
tp565
Rp566
tp567
a(S'li sheng (computer scientist)'
p568
g2
(g6
S'\x95\xa0\xe4\x10:\x94\xd0?'
p569
tp570
Rp571
tp572
a(S'pivot language'
p573
g2
(g6
S'\xfb\xb4\xf9\xb0\x10\x8f\xd0?'
p574
tp575
Rp576
tp577
a(S'openlogos'
p578
g2
(g6
S'\x9a\x06\x03\xb0=\x8d\xd0?'
p579
tp580
Rp581
tp582
a(S'list of biomedical cybernetics software'
p583
g2
(g6
S'\x97"H\x17;\x83\xd0?'
p584
tp585
Rp586
tp587
a(S'moses (machine translation)'
p588
g2
(g6
S'\x03\xf8lM\x08\x83\xd0?'
p589
tp590
Rp591
tp592
a(S'outline of computer science'
p593
g2
(g6
S'qS~\xfb#~\xd0?'
p594
tp595
Rp596
tp597
a(S'language pedagogy'
p598
g2
(g6
S'\x06\xa6\x14\xcf\x1f~\xd0?'
p599
tp600
Rp601
tp602
a(S'word-sense disambiguation'
p603
g2
(g6
S'TDnc\x9dy\xd0?'
p604
tp605
Rp606
tp607
a(S'data collection system'
p608
g2
(g6
S'+\xe3\xad\x93\xdaw\xd0?'
p609
tp610
Rp611
tp612
a(S'machine to machine'
p613
g2
(g6
S'\x81\xc4\xbd\xea\x1al\xd0?'
p614
tp615
Rp616
tp617
a(S'bachelor of software engineering'
p618
g2
(g6
S'\xe0U\xb7Wgk\xd0?'
p619
tp620
Rp621
tp622
a(S'bare machine'
p623
g2
(g6
S'Wb\xce^V[\xd0?'
p624
tp625
Rp626
tp627
a(S'computer program'
p628
g2
(g6
S'3+\x96&/X\xd0?'
p629
tp630
Rp631
tp632
a(S'cache language model'
p633
g2
(g6
S'\xa1\x07\xe8C\x03X\xd0?'
p634
tp635
Rp636
tp637
a(S'list of computer scientists'
p638
g2
(g6
S'\x1fZ\xb2\x1a\xf6V\xd0?'
p639
tp640
Rp641
tp642
a(S'feature learning'
p643
g2
(g6
S'\xf8\xdf\xf6\t\xccL\xd0?'
p644
tp645
Rp646
tp647
a(S'theories of second-language acquisition'
p648
g2
(g6
S'\xe4\xcf\xbe\x14\xfaI\xd0?'
p649
tp650
Rp651
tp652
a(S'timeline of artificial intelligence'
p653
g2
(g6
S'`\xbf6j}B\xd0?'
p654
tp655
Rp656
tp657
a(S'software developer'
p658
g2
(g6
S'\xef7\xe0]\xa6@\xd0?'
p659
tp660
Rp661
tp662
a(S'paxata'
p663
g2
(g6
S'\x81(\xda\xffe;\xd0?'
p664
tp665
Rp666
tp667
a(S'constructed language'
p668
g2
(g6
S'\x8a\x94B\xbc]9\xd0?'
p669
tp670
Rp671
tp672
a(S'comparison of machine translation applications'
p673
g2
(g6
S'7-?~\xc33\xd0?'
p674
tp675
Rp676
tp677
a(S'second language'
p678
g2
(g6
S'>\x90\x8b5\xa32\xd0?'
p679
tp680
Rp681
tp682
a(S'kiev laboratory for artificial intelligence'
p683
g2
(g6
S'-\xea\x9f\x1al1\xd0?'
p684
tp685
Rp686
tp687
a(S'arria nlg'
p688
g2
(g6
S'\xe7\x11\x83G\xa6\x1d\xd0?'
p689
tp690
Rp691
tp692
a(S'computer-assisted language learning'
p693
g2
(g6
S'\xbd\xc3I:\x91\x1c\xd0?'
p694
tp695
Rp696
tp697
a(S'ubiquitous knowledge processing lab'
p698
g2
(g6
S'#Q\x88\x986\x1c\xd0?'
p699
tp700
Rp701
tp702
a(S'apache systemml'
p703
g2
(g6
S'\x93\xc4\x8aX\x1e\x1c\xd0?'
p704
tp705
Rp706
tp707
a(S'semantic gap'
p708
g2
(g6
S'\xfc\x97\x04\xbc,\x12\xd0?'
p709
tp710
Rp711
tp712
a(S'integrated geo systems'
p713
g2
(g6
S'\xa8\x93\t,\x8a\x08\xd0?'
p714
tp715
Rp716
tp717
a(S'larry druffel'
p718
g2
(g6
S'\x8a\xdd\x17\xf7\x83\x08\xd0?'
p719
tp720
Rp721
tp722
a(S'source language (translation)'
p723
g2
(g6
S'\x11\x1c>\x18\xd1\x01\xd0?'
p724
tp725
Rp726
tp727
a(S'foreign language'
p728
g2
(g6
S'\xda\xef\xea\x14\x01\xf3\xcf?'
p729
tp730
Rp731
tp732
a(S'pattern recognition'
p733
g2
(g6
S'I\xdfJ{\x00\xf3\xcf?'
p734
tp735
Rp736
tp737
a(S'john ball (cognitive scientist)'
p738
g2
(g6
S'\x98D\xf2>\xbf\xf2\xcf?'
p739
tp740
Rp741
tp742
a(S'machine translation in china'
p743
g2
(g6
S'\xbc1b\n\xed\xe3\xcf?'
p744
tp745
Rp746
tp747
a(S'opennn'
p748
g2
(g6
S'~Kq\xc1\xf5\xda\xcf?'
p749
tp750
Rp751
tp752
a(S'native-language identification'
p753
g2
(g6
S'3\xbe0\x9b?\xc7\xcf?'
p754
tp755
Rp756
tp757
a(S'outline of software development'
p758
g2
(g6
S'\x8aT\x85\xaf\xb8\xb5\xcf?'
p759
tp760
Rp761
tp762
a(S'software brittleness'
p763
g2
(g6
S'O\x03\x08\xa4\x7f\xb4\xcf?'
p764
tp765
Rp766
tp767
a(S'software engineering'
p768
g2
(g6
S'Pr\x93\xb0\xeb\xb3\xcf?'
p769
tp770
Rp771
tp772
a(S'software design'
p773
g2
(g6
S'E\xc5W\x0cQ\xad\xcf?'
p774
tp775
Rp776
tp777
a(S'chatbot'
p778
g2
(g6
S'~\x0e\x87Z\x9a\xac\xcf?'
p779
tp780
Rp781
tp782
a(S'multilingualism'
p783
g2
(g6
S'+\xf6\xc9C\xd7\xab\xcf?'
p784
tp785
Rp786
tp787
a(S'event driven executive'
p788
g2
(g6
S':\xf0\x88\x80\xd9\x95\xcf?'
p789
tp790
Rp791
tp792
a(S'embodied bilingual language'
p793
g2
(g6
S'Z<\xce\xec\xde\x90\xcf?'
p794
tp795
Rp796
tp797
a(S'list of numerical analysis software'
p798
g2
(g6
S'\xf1\x07W\xa4}\x85\xcf?'
p799
tp800
Rp801
tp802
a(S'glossary of artificial intelligence'
p803
g2
(g6
S'\xa7\x0eS\xee\x11\x83\xcf?'
p804
tp805
Rp806
tp807
a(S'machine (disambiguation)'
p808
g2
(g6
S'\x0f\xc6\x80<G}\xcf?'
p809
tp810
Rp811
tp812
a(S'stochastic grammar'
p813
g2
(g6
S'm\xfd\x1f\xaf\xd9w\xcf?'
p814
tp815
Rp816
tp817
a(S'tibco software'
p818
g2
(g6
S'\xa5a\xe3l\x15r\xcf?'
p819
tp820
Rp821
tp822
a(S'literal translation'
p823
g2
(g6
S'\xb5\x89\x1a\x11\xc2`\xcf?'
p824
tp825
Rp826
tp827
a(S'james f. allen'
p828
g2
(g6
S'\t\xe6>\x94\x1e`\xcf?'
p829
tp830
Rp831
tp832
a(S'distributed language translation'
p833
g2
(g6
S'\t\x0e\x19\xaf\tZ\xcf?'
p834
tp835
Rp836
tp837
a(S'list of open-source software for mathematics'
p838
g2
(g6
S'\xe2\xc9\x12\xf6<C\xcf?'
p839
tp840
Rp841
tp842
a(S'machine perception'
p843
g2
(g6
S'\x9d\x07\x1ce\xa1B\xcf?'
p844
tp845
Rp846
tp847
a(S'list of mergers and acquisitions by microsoft'
p848
g2
(g6
S'm8\xe9"MA\xcf?'
p849
tp850
Rp851
tp852
a(S'deep learning'
p853
g2
(g6
S'\x94z(,\xc2-\xcf?'
p854
tp855
Rp856
tp857
a(S'outline of second-language acquisition'
p858
g2
(g6
S'\xf7\x19\xb0D\x17!\xcf?'
p859
tp860
Rp861
tp862
a(S'nello cristianini'
p863
g2
(g6
S'\x81\xbf\xbf\xb8n\r\xcf?'
p864
tp865
Rp866
tp867
a(S'language technology'
p868
g2
(g6
S'Ui\xfd3\x00\r\xcf?'
p869
tp870
Rp871
tp872
a(S'learnability'
p873
g2
(g6
S'\xb0M;\x81\xe1\x08\xcf?'
p874
tp875
Rp876
tp877
a(S'adversarial machine learning'
p878
g2
(g6
S'\x98\x1e\x8a\x01\x8d\xfd\xce?'
p879
tp880
Rp881
tp882
a(S'list of mergers and acquisitions by symantec'
p883
g2
(g6
S'{%~\x00\xee\xf9\xce?'
p884
tp885
Rp886
tp887
a(S'systran'
p888
g2
(g6
S'f\x04\xf4\x04\x16\xf7\xce?'
p889
tp890
Rp891
tp892
a(S'list of common misconceptions about language learning'
p893
g2
(g6
S'$\x04\r_\xfa\xf2\xce?'
p894
tp895
Rp896
tp897
a(S'list of music software'
p898
g2
(g6
S'\xbf\x17\x15\x01\xde\xf0\xce?'
p899
tp900
Rp901
tp902
a(S'list of mergers and acquisitions by ibm'
p903
g2
(g6
S'\xbb\x9dRQ\xc8\xe4\xce?'
p904
tp905
Rp906
tp907
a(S'data processing system'
p908
g2
(g6
S'H\x1a\xc10\x03\xe1\xce?'
p909
tp910
Rp911
tp912
a(S'commercial software'
p913
g2
(g6
S' \xff\x14\xbe\x1a\xc2\xce?'
p914
tp915
Rp916
tp917
a(S'natural language'
p918
g2
(g6
S'\x03\x073\xa6\x9a\xbb\xce?'
p919
tp920
Rp921
tp922
a(S'grammar induction'
p923
g2
(g6
S'\xb8~\xab\x81\t\xb5\xce?'
p924
tp925
Rp926
tp927
a(S'getdataback'
p928
g2
(g6
S'\xee\xe3J\x8b}\xa3\xce?'
p929
tp930
Rp931
tp932
a(S'translation studies'
p933
g2
(g6
S'9\xc7c\x9b\r\x91\xce?'
p934
tp935
Rp936
tp937
a(S'real-time computing'
p938
g2
(g6
S'\xd9\xe4\xde\xc2\xd5\x8b\xce?'
p939
tp940
Rp941
tp942
a(S'machine-dependent software'
p943
g2
(g6
S'\xda~\xd8\x14,\x88\xce?'
p944
tp945
Rp946
tp947
a(S'andrew mccallum'
p948
g2
(g6
S'\x04V&\x810\x85\xce?'
p949
tp950
Rp951
tp952
a(S'critical period hypothesis'
p953
g2
(g6
S'\xcf\xe1;\xb4\x9b\x80\xce?'
p954
tp955
Rp956
tp957
a(S'afnlp'
p958
g2
(g6
S'\xf4\x1d\x08#\x02~\xce?'
p959
tp960
Rp961
tp962
a(S'geomagic'
p963
g2
(g6
S'`-\xeb\xca\xd4}\xce?'
p964
tp965
Rp966
tp967
a(S'michael collins (computational linguist)'
p968
g2
(g6
S'\x10/n\xca\x83x\xce?'
p969
tp970
Rp971
tp972
a(S'data & analysis center for software'
p973
g2
(g6
S'\xbd\xdc\xcaR9h\xce?'
p974
tp975
Rp976
tp977
a(S'university of edinburgh school of informatics'
p978
g2
(g6
S',\x99\xc1\xc5ca\xce?'
p979
tp980
Rp981
tp982
a(S'simultaneous bilingualism'
p983
g2
(g6
S'\x13s\x9f$\x04_\xce?'
p984
tp985
Rp986
tp987
a(S'software mining'
p988
g2
(g6
S'\x85\x83\x15t\xd7\\\xce?'
p989
tp990
Rp991
tp992
a(S'franz josef och'
p993
g2
(g6
S'$\x95\x89\xdf\x03X\xce?'
p994
tp995
Rp996
tp997
a(S'paul pimsleur'
p998
g2
(g6
S'!\x03Ua\xa3V\xce?'
p999
tp1000
Rp1001
tp1002
a(S'free software'
p1003
g2
(g6
S'\xd6\x97\xabu?V\xce?'
p1004
tp1005
Rp1006
tp1007
a(S'weka (machine learning)'
p1008
g2
(g6
S'\xf4\xb0\xaa\x1c\x08V\xce?'
p1009
tp1010
Rp1011
tp1012
a(S'software deployment'
p1013
g2
(g6
S'\xbe\xb9{\x93[I\xce?'
p1014
tp1015
Rp1016
tp1017
a(S'apache singa'
p1018
g2
(g6
S'\xafc\xa6\xf5\xc7F\xce?'
p1019
tp1020
Rp1021
tp1022
a(S'vivian cook (academic)'
p1023
g2
(g6
S'\xd9\xa2\xa9\xf2\xc4C\xce?'
p1024
tp1025
Rp1026
tp1027
a(S'cullinet'
p1028
g2
(g6
S'\xfc\x19\xee\x98\xad<\xce?'
p1029
tp1030
Rp1031
tp1032
a(S'retail software'
p1033
g2
(g6
S'\xdf\xb8\x87\x15\x068\xce?'
p1034
tp1035
Rp1036
tp1037
a(S'history of virtual learning environments'
p1038
g2
(g6
S'WYl6L,\xce?'
p1039
tp1040
Rp1041
tp1042
a(S'algorithmic learning theory'
p1043
g2
(g6
S'\x8eGG\xa4\xef)\xce?'
p1044
tp1045
Rp1046
tp1047
a(S'dan roth'
p1048
g2
(g6
S'u\x9d\xfa\x83\xdc)\xce?'
p1049
tp1050
Rp1051
tp1052
a(S'journal of systems and software'
p1053
g2
(g6
S'\x82\xa6\xbc9\xc9\x1e\xce?'
p1054
tp1055
Rp1056
tp1057
a(S'translation memory'
p1058
g2
(g6
S'\xb5z|F\xd8\x1c\xce?'
p1059
tp1060
Rp1061
tp1062
a(S'data mining'
p1063
g2
(g6
S'G\x19b\x03\x99\x14\xce?'
p1064
tp1065
Rp1066
tp1067
a(S'list of pioneers in computer science'
p1068
g2
(g6
S'.\xa8e\x082\x10\xce?'
p1069
tp1070
Rp1071
tp1072
a(S'read-only turing machine'
p1073
g2
(g6
S'h\xe3R7\xee\x0b\xce?'
p1074
tp1075
Rp1076
tp1077
a(S'information system'
p1078
g2
(g6
S'j\x0b0h\xbb\x07\xce?'
p1079
tp1080
Rp1081
tp1082
a(S'theoretical computer science'
p1083
g2
(g6
S'\x1a\xa2\xbc\xdd\n\x01\xce?'
p1084
tp1085
Rp1086
tp1087
a(S'wang institute of graduate studies'
p1088
g2
(g6
S'6\xea\xa7\x17\x96\xfe\xcd?'
p1089
tp1090
Rp1091
tp1092
a(S'history of software'
p1093
g2
(g6
S'i3\xd4\x04\x8f\xea\xcd?'
p1094
tp1095
Rp1096
tp1097
a(S'artificial intelligence systems integration'
p1098
g2
(g6
S'y\x94\x96\x0ew\xe9\xcd?'
p1099
tp1100
Rp1101
tp1102
a(S'knowledge based software assistant'
p1103
g2
(g6
S'\x8e\xe6\xb3*\x11\xe4\xcd?'
p1104
tp1105
Rp1106
tp1107
a(S'proprietary software'
p1108
g2
(g6
S'\xb8\xb8\x01\x17\x1f\xd0\xcd?'
p1109
tp1110
Rp1111
tp1112
a(S'niutrans'
p1113
g2
(g6
S'\xe6/\xf2\xdf\xac\xcf\xcd?'
p1114
tp1115
Rp1116
tp1117
a(S'stepes'
p1118
g2
(g6
S'\xf6\x18\xbb\xb5\x9b\xce\xcd?'
p1119
tp1120
Rp1121
tp1122
a(S'history of operating systems'
p1123
g2
(g6
S'\xb5\xd8\x1f\x19F\xcc\xcd?'
p1124
tp1125
Rp1126
tp1127
a(S'conceptual dependency theory'
p1128
g2
(g6
S'\xbe\xabR\xdc}\xcb\xcd?'
p1129
tp1130
Rp1131
tp1132
a(S'software studies'
p1133
g2
(g6
S'\x9ci\xd8zp\xc9\xcd?'
p1134
tp1135
Rp1136
tp1137
a(S'zellig harris'
p1138
g2
(g6
S'\x11\xa90\xe7\x0c\xc8\xcd?'
p1139
tp1140
Rp1141
tp1142
a(S'languageware'
p1143
g2
(g6
S'9R\x1b*\xaf\xc6\xcd?'
p1144
tp1145
Rp1146
tp1147
a(S'philosophy of language'
p1148
g2
(g6
S'\xd1\x84\x1bS\xe6\xc1\xcd?'
p1149
tp1150
Rp1151
tp1152
a(S'hp it management software'
p1153
g2
(g6
S':\xc9q\xab\xe1\xc0\xcd?'
p1154
tp1155
Rp1156
tp1157
a(S'stream x-machine'
p1158
g2
(g6
S'\xfaroz\r\xb8\xcd?'
p1159
tp1160
Rp1161
tp1162
a(S'concordancer'
p1163
g2
(g6
S'eN\x83\x00)\xb7\xcd?'
p1164
tp1165
Rp1166
tp1167
a(S'software development process'
p1168
g2
(g6
S'Y\xa5]\xda\xe8\xb4\xcd?'
p1169
tp1170
Rp1171
tp1172
a(S'input hypothesis'
p1173
g2
(g6
S'%\x8a\xea\xbb\xcb\xb0\xcd?'
p1174
tp1175
Rp1176
tp1177
a(S'poverty of the stimulus'
p1178
g2
(g6
S'\xa0\x1az\xefU\xae\xcd?'
p1179
tp1180
Rp1181
tp1182
a(S'lingvosoft'
p1183
g2
(g6
S'\xb7!b\xfd\x9f\x99\xcd?'
p1184
tp1185
Rp1186
tp1187
a(S'worldware'
p1188
g2
(g6
S'>Q\xa0\xbe3\x95\xcd?'
p1189
tp1190
Rp1191
tp1192
a(S'innateness hypothesis'
p1193
g2
(g6
S'\x87\xb7c\xc9\xe0\x8b\xcd?'
p1194
tp1195
Rp1196
tp1197
a(S'ibm system/7'
p1198
g2
(g6
S's\x1b\xd2)\xd9\x81\xcd?'
p1199
tp1200
Rp1201
tp1202
a(S'language development'
p1203
g2
(g6
S'\xbdI\xb6\xa7d{\xcd?'
p1204
tp1205
Rp1206
tp1207
a(S'information extraction'
p1208
g2
(g6
S'p#\x95Q\xc8r\xcd?'
p1209
tp1210
Rp1211
tp1212
a(S'junction grammar'
p1213
g2
(g6
S'\x96B\xe0\x89Tp\xcd?'
p1214
tp1215
Rp1216
tp1217
a(S'ipo model'
p1218
g2
(g6
S'#v\xf6,\xd8h\xcd?'
p1219
tp1220
Rp1221
tp1222
a(S'software law'
p1223
g2
(g6
S'\xce\x05\xe0\xd3\xd8`\xcd?'
p1224
tp1225
Rp1226
tp1227
a(S'list of amstrad cpc games'
p1228
g2
(g6
S'\xef\xc4\x97\x80\xab^\xcd?'
p1229
tp1230
Rp1231
tp1232
a(S'evolutionary linguistics'
p1233
g2
(g6
S'\x9d\xea\x95\xcf\xabY\xcd?'
p1234
tp1235
Rp1236
tp1237
a(S'robert l. glass'
p1238
g2
(g6
S'\xfbgF\x8fPY\xcd?'
p1239
tp1240
Rp1241
tp1242
a(S'eurotra'
p1243
g2
(g6
S'\xaf\xacf8\x8dT\xcd?'
p1244
tp1245
Rp1246
tp1247
a(S'language exchange'
p1248
g2
(g6
S'd\xdf\xba\xb4\xa7Q\xcd?'
p1249
tp1250
Rp1251
tp1252
a(S'list of programming languages for artificial intelligence'
p1253
g2
(g6
S'\xeb\xd6B\xe7\xcfM\xcd?'
p1254
tp1255
Rp1256
tp1257
a(S'data science'
p1258
g2
(g6
S'\xe8\x94\xbf\xfb\xc1J\xcd?'
p1259
tp1260
Rp1261
tp1262
a(S'software business'
p1263
g2
(g6
S'v?_\xe5\x10J\xcd?'
p1264
tp1265
Rp1266
tp1267
a(S'software house'
p1268
g2
(g6
S'\xc4\xc1\xc6\xd4CG\xcd?'
p1269
tp1270
Rp1271
tp1272
a(S'mathematical software'
p1273
g2
(g6
S'N\x9c)\xe2\xafC\xcd?'
p1274
tp1275
Rp1276
tp1277
a(S'semi-supervised learning'
p1278
g2
(g6
S'1IE\xb0\xd9B\xcd?'
p1279
tp1280
Rp1281
tp1282
a(S'list of text mining software'
p1283
g2
(g6
S'v6\xa0\x83\x13=\xcd?'
p1284
tp1285
Rp1286
tp1287
a(S'list of unsolved problems in linguistics'
p1288
g2
(g6
S'l,<W\xeb7\xcd?'
p1289
tp1290
Rp1291
tp1292
a(S'software-defined data center'
p1293
g2
(g6
S'\x13\xba\xae}\xfc6\xcd?'
p1294
tp1295
Rp1296
tp1297
a(S'data stream mining'
p1298
g2
(g6
S'\xc3v\xf4\x1d\xec,\xcd?'
p1299
tp1300
Rp1301
tp1302
a(S'retrievalware'
p1303
g2
(g6
S'@}T6\xc3+\xcd?'
p1304
tp1305
Rp1306
tp1307
a(S'software visualization'
p1308
g2
(g6
S'\xf2D#\xcfs+\xcd?'
p1309
tp1310
Rp1311
tp1312
a(S'software categories'
p1313
g2
(g6
S'|@\x1c\xd8\xac%\xcd?'
p1314
tp1315
Rp1316
tp1317
a(S'deep linguistic processing'
p1318
g2
(g6
S'D\x14\xec\xed\x0b#\xcd?'
p1319
tp1320
Rp1321
tp1322
a(S'turing machine equivalents'
p1323
g2
(g6
S'i\x0c/\xc5\xb5 \xcd?'
p1324
tp1325
Rp1326
tp1327
a(S'journal of machine learning research'
p1328
g2
(g6
S'c \xd1O\xb6\x1d\xcd?'
p1329
tp1330
Rp1331
tp1332
a(S'language death'
p1333
g2
(g6
S'\xa1\xf7\xff}K\x16\xcd?'
p1334
tp1335
Rp1336
tp1337
a(S'natural approach'
p1338
g2
(g6
S'g*\xd7(I\x14\xcd?'
p1339
tp1340
Rp1341
tp1342
a(S'before you know it (software)'
p1343
g2
(g6
S'\xf4.\xc0\xcaj\x12\xcd?'
p1344
tp1345
Rp1346
tp1347
a(S'second-language acquisition'
p1348
g2
(g6
S'\x11\xf0b\x92\x06\x12\xcd?'
p1349
tp1350
Rp1351
tp1352
a(S'globalization management system'
p1353
g2
(g6
S'\xa2\x92\x0e\x1a\xa1\x11\xcd?'
p1354
tp1355
Rp1356
tp1357
a(S'ultra (machine translation system)'
p1358
g2
(g6
S'\xd0\x99\x19X\t\x0f\xcd?'
p1359
tp1360
Rp1361
tp1362
a(S'salvatore j. stolfo'
p1363
g2
(g6
S'\xcciJ\xfai\x0e\xcd?'
p1364
tp1365
Rp1366
tp1367
a(S'maluuba'
p1368
g2
(g6
S'1e\xf5\xcc/\x0c\xcd?'
p1369
tp1370
Rp1371
tp1372
a(S'ultralingua'
p1373
g2
(g6
S'\x18\xeb\xd5\x14M\x03\xcd?'
p1374
tp1375
Rp1376
tp1377
a(S'sequential bilingualism'
p1378
g2
(g6
S'#=(\xdc4\x03\xcd?'
p1379
tp1380
Rp1381
tp1382
a(S'intelligent tutoring system'
p1383
g2
(g6
S'&\xabus\xc0\xfd\xcc?'
p1384
tp1385
Rp1386
tp1387
a(S'skytree, inc'
p1388
g2
(g6
S'\xab\xe5\x19\xeb\x1d\xef\xcc?'
p1389
tp1390
Rp1391
tp1392
a(S'list of zx spectrum games'
p1393
g2
(g6
S'\xa3*`u\xca\xe7\xcc?'
p1394
tp1395
Rp1396
tp1397
a(S'revulytics'
p1398
g2
(g6
S'\xca\xa6r\xab\xa3\xdd\xcc?'
p1399
tp1400
Rp1401
tp1402
a(S'data model'
p1403
g2
(g6
S'\x95\n\x03\xb5\x13\xd4\xcc?'
p1404
tp1405
Rp1406
tp1407
a(S'brian macwhinney'
p1408
g2
(g6
S'\x85R^of\xd3\xcc?'
p1409
tp1410
Rp1411
tp1412
a(S'ryszard s. michalski'
p1413
g2
(g6
S'\xc2\xa0\x1ff\x88\xc4\xcc?'
p1414
tp1415
Rp1416
tp1417
a(S'linguatec'
p1418
g2
(g6
S'\x9bH\xf0\xec\xf4\xc2\xcc?'
p1419
tp1420
Rp1421
tp1422
a(S'spss'
p1423
g2
(g6
S'\xfdBk i\xbb\xcc?'
p1424
tp1425
Rp1426
tp1427
a(S'mehryar mohri'
p1428
g2
(g6
S' \x9eu\xe6M\xbb\xcc?'
p1429
tp1430
Rp1431
tp1432
a(S'system of systems'
p1433
g2
(g6
S'\x99\xa6\xe3\xb3*\xba\xcc?'
p1434
tp1435
Rp1436
tp1437
a(S'index of dos games (m)'
p1438
g2
(g6
S'\xa8N\n\x85\x89\xb4\xcc?'
p1439
tp1440
Rp1441
tp1442
a(S'skymind'
p1443
g2
(g6
S'\xe4\xc5L\x8b\x9e\xb3\xcc?'
p1444
tp1445
Rp1446
tp1447
a(S'comit'
p1448
g2
(g6
S'\x7f\x18\x08\xce\x93\xb3\xcc?'
p1449
tp1450
Rp1451
tp1452
a(S'index of dos games (b)'
p1453
g2
(g6
S'\xf6F\x9bZI\xb2\xcc?'
p1454
tp1455
Rp1456
tp1457
a(S'data-intensive computing'
p1458
g2
(g6
S'\xf45\xef\xbbo\xb0\xcc?'
p1459
tp1460
Rp1461
tp1462
a(S'bleu'
p1463
g2
(g6
S'6\xcb\xbe\xc2\x8f\xaf\xcc?'
p1464
tp1465
Rp1466
tp1467
a(S'weidner communications'
p1468
g2
(g6
S'}U4\x1b\xd2\xab\xcc?'
p1469
tp1470
Rp1471
tp1472
a(S'business intelligence software'
p1473
g2
(g6
S'#\xa1\xb3\x12\x81\x9d\xcc?'
p1474
tp1475
Rp1476
tp1477
a(S'machine-generated data'
p1478
g2
(g6
S'nhp\x0b\x1a\x99\xcc?'
p1479
tp1480
Rp1481
tp1482
a(S'anusaaraka'
p1483
g2
(g6
S']\xa4VQ\xdd\x91\xcc?'
p1484
tp1485
Rp1486
tp1487
a(S'tore dyb\xc3\xa5'
p1488
g2
(g6
S'7\xfb\x0e\xdd\xaf\x8a\xcc?'
p1489
tp1490
Rp1491
tp1492
a(S'software crisis'
p1493
g2
(g6
S'\xb6rm\xea-\x86\xcc?'
p1494
tp1495
Rp1496
tp1497
a(S'universal grammar'
p1498
g2
(g6
S'wZ\x99\xab\xc0\x84\xcc?'
p1499
tp1500
Rp1501
tp1502
a(S'yandex.translate'
p1503
g2
(g6
S'9+\xb5\x84<\x83\xcc?'
p1504
tp1505
Rp1506
tp1507
a(S'bilingual memory'
p1508
g2
(g6
S'\x01?\xa3,Pt\xcc?'
p1509
tp1510
Rp1511
tp1512
a.