(lp0
(S'human'
p1
cnumpy.core.multiarray
scalar
p2
(cnumpy
dtype
p3
(S'f8'
p4
I0
I1
tp5
Rp6
(I3
S'<'
p7
NNNI-1
I-1
I0
tp8
bS'\xf7\xff\xff\xff\xff\xff\xef?'
p9
tp10
Rp11
tp12
a(S'human evolution'
p13
g2
(g6
S'\r$\x9b\xd1$\x1a\xe5?'
p14
tp15
Rp16
tp17
a(S'anatomically modern human'
p18
g2
(g6
S'\xe3\x8b-\xefI9\xe4?'
p19
tp20
Rp21
tp22
a(S'human taxonomy'
p23
g2
(g6
S'\xf2\xb6\xee\xfe\n\xb9\xe3?'
p24
tp25
Rp26
tp27
a(S'human evolutionary genetics'
p28
g2
(g6
S'g\x84Q\xb9\xb0\xc0\xe1?'
p29
tp30
Rp31
tp32
a(S'human (disambiguation)'
p33
g2
(g6
S'\xd0Lm\x1c\xd6\xac\xe1?'
p34
tp35
Rp36
tp37
a(S'archaic humans'
p38
g2
(g6
S' bu\x1bhq\xe1?'
p39
tp40
Rp41
tp42
a(S'homo sapiens'
p43
g2
(g6
S'\x92\xc7r-\x19H\xe0?'
p44
tp45
Rp46
tp47
a(S'evolution of human intelligence'
p48
g2
(g6
S"k\xa14\x7f\xa8'\xdf?"
p49
tp50
Rp51
tp52
a(S'human genetic variation'
p53
g2
(g6
S"\x87\xaa#ly'\xdf?"
p54
tp55
Rp56
tp57
a(S'timeline of human evolution'
p58
g2
(g6
S'\x90{$\x12\xf0\xa8\xde?'
p59
tp60
Rp61
tp62
a(S'recent african origin of modern humans'
p63
g2
(g6
S'6\xdb\xbd\xb6\xb2\x8e\xde?'
p64
tp65
Rp66
tp67
a(S'hominidae'
p68
g2
(g6
S'\xbfx6\xa1\x0ew\xde?'
p69
tp70
Rp71
tp72
a(S'homininae'
p73
g2
(g6
S'x\xde \x14E\xff\xdc?'
p74
tp75
Rp76
tp77
a(S'early human migrations'
p78
g2
(g6
S'\xe7CR\x18\x7f\xf3\xdc?'
p79
tp80
Rp81
tp82
a(S'man after man'
p83
g2
(g6
S'b;\xb0\xc4?s\xdc?'
p84
tp85
Rp86
tp87
a(S'culture and social cognition'
p88
g2
(g6
S'\xddHoV\xd1\x0e\xdc?'
p89
tp90
Rp91
tp92
a(S'paleoanthropology'
p93
g2
(g6
S'#\x05\x92^S\xeb\xdb?'
p94
tp95
Rp96
tp97
a(S'origin of language'
p98
g2
(g6
S'\x832\x84\xf6p\xb2\xdb?'
p99
tp100
Rp101
tp102
a(S'prey (tv series)'
p103
g2
(g6
S'\xbd\xaa\xb09:j\xdb?'
p104
tp105
Rp106
tp107
a(S'homo'
p108
g2
(g6
S'\xf6\xb2\x85\xb0FB\xdb?'
p109
tp110
Rp111
tp112
a(S'transhumanism'
p113
g2
(g6
S'\x9bB\x9c\nt&\xdb?'
p114
tp115
Rp116
tp117
a(S'anthropic'
p118
g2
(g6
S"\x17'\xda\x12\xfc\xeb\xda?"
p119
tp120
Rp121
tp122
a(S'human variability'
p123
g2
(g6
S'}\xfe\xc98}\xb4\xda?'
p124
tp125
Rp126
tp127
a(S'erik trinkaus'
p128
g2
(g6
S'\x15$\x10\x12\xeb\x7f\xda?'
p129
tp130
Rp131
tp132
a(S'before the dawn (book)'
p133
g2
(g6
S'$]\xdc\xaf\x02s\xda?'
p134
tp135
Rp136
tp137
a(S'behavioral modernity'
p138
g2
(g6
S'\x06\xe6\xaa\xf1,q\xda?'
p139
tp140
Rp141
tp142
a(S'muscular evolution in humans'
p143
g2
(g6
S'(<*|\xa1M\xda?'
p144
tp145
Rp146
tp147
a(S'trans-species psychology'
p148
g2
(g6
S'X`\xe5\xb3\xfaJ\xda?'
p149
tp150
Rp151
tp152
a(S'chimpanzee genome project'
p153
g2
(g6
S'cy\xb2E\x043\xda?'
p154
tp155
Rp156
tp157
a(S'evolutionary origin of religions'
p158
g2
(g6
S';<\xb0\xb9\xb4)\xda?'
p159
tp160
Rp161
tp162
a(S'the humans (video game)'
p163
g2
(g6
S'\xcebi\x10\xc5\x0c\xda?'
p164
tp165
Rp166
tp167
a(S'up from dragons'
p168
g2
(g6
S'&\xc5\xda&\xed\xf4\xd9?'
p169
tp170
Rp171
tp172
a(S'anthropocentrism'
p173
g2
(g6
S'>rv\x06)\xa7\xd9?'
p174
tp175
Rp176
tp177
a(S'sexual selection in humans'
p178
g2
(g6
S'H\x87\x02\xe9\xef\x9b\xd9?'
p179
tp180
Rp181
tp182
a(S'ardipithecus'
p183
g2
(g6
S'\x15\x07\xe5ULc\xd9?'
p184
tp185
Rp186
tp187
a(S'hominini'
p188
g2
(g6
S'!\xadFlIc\xd9?'
p189
tp190
Rp191
tp192
a(S'chimpanzee\xe2\x80\x93human last common ancestor'
p193
g2
(g6
S'\xed5V\x05\x08?\xd9?'
p194
tp195
Rp196
tp197
a(S'australopithecus'
p198
g2
(g6
S'$\xb3s\xf0\x1c+\xd9?'
p199
tp200
Rp201
tp202
a(S'the incredible human journey'
p203
g2
(g6
S'`r\xac\xe5/\x0e\xd9?'
p204
tp205
Rp206
tp207
a(S'origin of speech'
p208
g2
(g6
S'j\x0f\xed\xa3\x8c\t\xd9?'
p209
tp210
Rp211
tp212
a(S'dehumanization'
p213
g2
(g6
S':\n\xf7hl\xe4\xd8?'
p214
tp215
Rp216
tp217
a(S'human origins'
p218
g2
(g6
S'd\xf1\xd5\xc2\xdf\xdc\xd8?'
p219
tp220
Rp221
tp222
a(S'self-reflection'
p223
g2
(g6
S'\tt\xeaI\xc6\xca\xd8?'
p224
tp225
Rp226
tp227
a(S'ape'
p228
g2
(g6
S'\x83}\x11\x9aB\xc9\xd8?'
p229
tp230
Rp231
tp232
a(S'evolution of the brain'
p233
g2
(g6
S'\x8bV\x92\xe3\x99\xab\xd8?'
p234
tp235
Rp236
tp237
a(S'australopithecine'
p238
g2
(g6
S'\xa4\xa2\x01\x95\xa0\xa2\xd8?'
p239
tp240
Rp241
tp242
a(S'human skeletal changes due to bipedalism'
p243
g2
(g6
S'\xfe\xcb\xb6K\xcf\x9a\xd8?'
p244
tp245
Rp246
tp247
a(S'humanzee'
p248
g2
(g6
S'\xaf\x12\x07\xe0\xe7\x88\xd8?'
p249
tp250
Rp251
tp252
a(S'outline of transhumanism'
p253
g2
(g6
S'\x7f\x1f<7Xp\xd8?'
p254
tp255
Rp256
tp257
a(S'homo sapiens idaltu'
p258
g2
(g6
S'fV\x06\xa1\x96b\xd8?'
p259
tp260
Rp261
tp262
a(S'homo floresiensis'
p263
g2
(g6
S'\x97\x8c\xc3\xbe\xb9_\xd8?'
p264
tp265
Rp266
tp267
a(S'colonization in europe'
p268
g2
(g6
S'@\xfa\x8e\xe3KE\xd8?'
p269
tp270
Rp271
tp272
a(S"lilith's brood"
p273
g2
(g6
S'\x18;JR\x07#\xd8?'
p274
tp275
Rp276
tp277
a(S'race (human categorization)'
p278
g2
(g6
S'\xab7\x9e\xef\x03\x15\xd8?'
p279
tp280
Rp281
tp282
a(S'biocentrism (ethics)'
p283
g2
(g6
S'\xfa\x0cM\x97\xad\x14\xd8?'
p284
tp285
Rp286
tp287
a(S'human disguise'
p288
g2
(g6
S',\xb8\xf0\xa0\xd0\x00\xd8?'
p289
tp290
Rp291
tp292
a(S'cognitive specialization'
p293
g2
(g6
S' \xd2\x02km\xe4\xd7?'
p294
tp295
Rp296
tp297
a(S'the 10,000 year explosion'
p298
g2
(g6
S'q]3\x13f\xe2\xd7?'
p299
tp300
Rp301
tp302
a(S'superintelligence'
p303
g2
(g6
S'\xbe\xe1\xef\xf6U\xd4\xd7?'
p304
tp305
Rp306
tp307
a(S'homo heidelbergensis'
p308
g2
(g6
S'\x8f\x13\\\x17.\xd1\xd7?'
p309
tp310
Rp311
tp312
a(S'variome'
p313
g2
(g6
S'v=\t\xac\x0c\xc3\xd7?'
p314
tp315
Rp316
tp317
a(S'non-human'
p318
g2
(g6
S'P\xfe0O\x8b\x9e\xd7?'
p319
tp320
Rp321
tp322
a(S'the third chimpanzee'
p323
g2
(g6
S'\xfc\x9b\xd2\x95\xf6\x81\xd7?'
p324
tp325
Rp326
tp327
a(S'american anthropology'
p328
g2
(g6
S'Y\xd2\xf3<"\x1b\xd7?'
p329
tp330
Rp331
tp332
a(S'manot 1'
p333
g2
(g6
S'\xec\x85b\xb3\x14\x11\xd7?'
p334
tp335
Rp336
tp337
a(S'man-eater'
p338
g2
(g6
S'kv\xb0\x7fa\r\xd7?'
p339
tp340
Rp341
tp342
a(S'evolution of morality'
p343
g2
(g6
S'\x9c\xa8/\xcbV\xfe\xd6?'
p344
tp345
Rp346
tp347
a(S'humans (noon universe)'
p348
g2
(g6
S']\xf5\xea\x8d\xc9\xdd\xd6?'
p349
tp350
Rp351
tp352
a(S'evolutionary anthropology'
p353
g2
(g6
S'P|\x01\xc4f\xba\xd6?'
p354
tp355
Rp356
tp357
a(S'superhuman'
p358
g2
(g6
S'0i\xcd\x8a"\xb7\xd6?'
p359
tp360
Rp361
tp362
a(S'homo habilis'
p363
g2
(g6
S'S\xa5\x9c\x87\x8e\xa4\xd6?'
p364
tp365
Rp366
tp367
a(S'red deer cave people'
p368
g2
(g6
S'L\xbd%\xb7\x14\xa1\xd6?'
p369
tp370
Rp371
tp372
a(S'archaic human admixture with modern humans'
p373
g2
(g6
S'\xbfr\xe9\xdd7\x8f\xd6?'
p374
tp375
Rp376
tp377
a(S'the myth of the one percent'
p378
g2
(g6
S'\xc3\xa2\xab\x8a\xb8|\xd6?'
p379
tp380
Rp381
tp382
a(S'sahelanthropus'
p383
g2
(g6
S'\xfe4L\xd9\xff^\xd6?'
p384
tp385
Rp386
tp387
a(S'human nature'
p388
g2
(g6
S'\xd0\x14g\x980\t\xd6?'
p389
tp390
Rp391
tp392
a(S'names for the human species'
p393
g2
(g6
S'\x05l\xf0\xd9\xaa\x00\xd6?'
p394
tp395
Rp396
tp397
a(S'evolutionary psychology'
p398
g2
(g6
S'Pd\xaf\x02\xd3\xf9\xd5?'
p399
tp400
Rp401
tp402
a(S'human\xe2\x80\x93animal hybrid'
p403
g2
(g6
S'\xb4\xd7\x95g\xc2\xe5\xd5?'
p404
tp405
Rp406
tp407
a(S'the journey of man'
p408
g2
(g6
S'\xc0\xe6\xc2\xac\xfd\xdc\xd5?'
p409
tp410
Rp411
tp412
a(S'human-based computation'
p413
g2
(g6
S'G\xc1F\x11\xc7\xd8\xd5?'
p414
tp415
Rp416
tp417
a(S'ethnozoology'
p418
g2
(g6
S'\xdc\xc1\xe8\xec\xab\xd3\xd5?'
p419
tp420
Rp421
tp422
a(S'splicers'
p423
g2
(g6
S'\xfe\xac\xf7\xee`\xd1\xd5?'
p424
tp425
Rp426
tp427
a(S'neanderthal extinction'
p428
g2
(g6
S'\xe0\x08\x93V.\xb1\xd5?'
p429
tp430
Rp431
tp432
a(S'paranthropus'
p433
g2
(g6
S'\x07\x8f\\\xf9\x06\x8a\xd5?'
p434
tp435
Rp436
tp437
a(S'race and genetics'
p438
g2
(g6
S'\x9c\xc4wZ:\x86\xd5?'
p439
tp440
Rp441
tp442
a(S'ecocentrism'
p443
g2
(g6
S'\x7fg\x9b\xd8\x0e\x7f\xd5?'
p444
tp445
Rp446
tp447
a(S'homo antecessor'
p448
g2
(g6
S'\xaf\xa2&\xb1&|\xd5?'
p449
tp450
Rp451
tp452
a(S'cognitive genomics'
p453
g2
(g6
S"\x8e\n\x0b\x90't\xd5?"
p454
tp455
Rp456
tp457
a(S'most recent common ancestor'
p458
g2
(g6
S'\xb6\xb7h\x87Vq\xd5?'
p459
tp460
Rp461
tp462
a(S'dirge (novel)'
p463
g2
(g6
S'\r\xcc\xc9r\x84g\xd5?'
p464
tp465
Rp466
tp467
a(S'human development'
p468
g2
(g6
S'\xb00\xa2\x1f\xe4c\xd5?'
p469
tp470
Rp471
tp472
a(S'homo gautengensis'
p473
g2
(g6
S'y\xda\xec\xd5\xb4U\xd5?'
p474
tp475
Rp476
tp477
a(S'human ethology'
p478
g2
(g6
S'8\xf3}YT;\xd5?'
p479
tp480
Rp481
tp482
a(S'human (dungeons & dragons)'
p483
g2
(g6
S'\xb5Fw\xee\x880\xd5?'
p484
tp485
Rp486
tp487
a(S'chimpanzee'
p488
g2
(g6
S'\x924\xb3\xab\xd5,\xd5?'
p489
tp490
Rp491
tp492
a(S'pneumocystis jirovecii'
p493
g2
(g6
S'\x8fy\x8d~\x19)\xd5?'
p494
tp495
Rp496
tp497
a(S'mark stoneking'
p498
g2
(g6
S'\xc1\xe2$\xb3\x15\x0b\xd5?'
p499
tp500
Rp501
tp502
a(S'chigs'
p503
g2
(g6
S'\xbb\xcfO\x17\xd4\x02\xd5?'
p504
tp505
Rp506
tp507
a(S'multiregional origin of modern humans'
p508
g2
(g6
S'Q\xb9\xcf\x8aD\xf1\xd4?'
p509
tp510
Rp511
tp512
a(S'zaid orudzhev'
p513
g2
(g6
S'B\x82\xf2\xd4u\xea\xd4?'
p514
tp515
Rp516
tp517
a(S'tame animal'
p518
g2
(g6
S'\xa2\x0cG\xfc\xeb\xe9\xd4?'
p519
tp520
Rp521
tp522
a(S'human beings in buddhism'
p523
g2
(g6
S"\xde)\x00'U\xca\xd4?"
p524
tp525
Rp526
tp527
a(S'predictions made by ray kurzweil'
p528
g2
(g6
S'\xebC\xac>\xcd\xbf\xd4?'
p529
tp530
Rp531
tp532
a(S'human scale'
p533
g2
(g6
S'\x8a\xfe\x97\x91\xb7\xbb\xd4?'
p534
tp535
Rp536
tp537
a(S'being human'
p538
g2
(g6
S'\xd5k41\x84\xb6\xd4?'
p539
tp540
Rp541
tp542
a(S'hominization'
p543
g2
(g6
S"'\x97\x1dT,\xb1\xd4?"
p544
tp545
Rp546
tp547
a(S'introduction to evolution'
p548
g2
(g6
S'\x97:(4\xdc\xa2\xd4?'
p549
tp550
Rp551
tp552
a(S'g factor in non-humans'
p553
g2
(g6
S'\xaa&_AL\x9b\xd4?'
p554
tp555
Rp556
tp557
a(S'michael tomasello'
p558
g2
(g6
S'F`wb\n\x94\xd4?'
p559
tp560
Rp561
tp562
a(S'cold and heat adaptations in humans'
p563
g2
(g6
S'-\x97\xe2-j{\xd4?'
p564
tp565
Rp566
tp567
a(S'evidence of common descent'
p568
g2
(g6
S'b\xa79\x98\xa3k\xd4?'
p569
tp570
Rp571
tp572
a(S'human evolution (disambiguation)'
p573
g2
(g6
S'l\xe2+w;j\xd4?'
p574
tp575
Rp576
tp577
a(S'izana'
p578
g2
(g6
S'\xfbY\xcbu5i\xd4?'
p579
tp580
Rp581
tp582
a(S'jean-jacques hublin'
p583
g2
(g6
S'o\xa1J\xf0Ug\xd4?'
p584
tp585
Rp586
tp587
a(S'homo sapiens (marvel comics)'
p588
g2
(g6
S'\x8d\xcdf\xd0\xd0b\xd4?'
p589
tp590
Rp591
tp592
a(S'homo sapiens (disambiguation)'
p593
g2
(g6
S'\xfa7\xc9\xc2\x91_\xd4?'
p594
tp595
Rp596
tp597
a(S'control of fire by early humans'
p598
g2
(g6
S'\xfe\xf9\xb1\xaeHD\xd4?'
p599
tp600
Rp601
tp602
a(S'ardipithecus ramidus'
p603
g2
(g6
S'\xbc\xdc+W\x06D\xd4?'
p604
tp605
Rp606
tp607
a(S'aquatic ape hypothesis'
p608
g2
(g6
S'=\x16Y\x95\x14B\xd4?'
p609
tp610
Rp611
tp612
a(S'neoteny in humans'
p613
g2
(g6
S'\xaa\xc2\xc8o\x8e;\xd4?'
p614
tp615
Rp616
tp617
a(S'voluntary human extinction movement'
p618
g2
(g6
S'\x93\xf0~\x91K;\xd4?'
p619
tp620
Rp621
tp622
a(S'denisovan'
p623
g2
(g6
S'\xd8\xe2\xd8C\xb96\xd4?'
p624
tp625
Rp626
tp627
a(S'only human'
p628
g2
(g6
S'>{\xb3\xd7\xf7/\xd4?'
p629
tp630
Rp631
tp632
a(S'alison s. brooks'
p633
g2
(g6
S'ZwC\xe6\xbb*\xd4?'
p634
tp635
Rp636
tp637
a(S'the infinity concerto'
p638
g2
(g6
S'72)7\x00\x1c\xd4?'
p639
tp640
Rp641
tp642
a(S'homo erectus'
p643
g2
(g6
S'8\x8f\xa9}\xc3\x19\xd4?'
p644
tp645
Rp646
tp647
a(S'self-domestication'
p648
g2
(g6
S'\xb2\x1c\x172=\x19\xd4?'
p649
tp650
Rp651
tp652
a(S'human-based genetic algorithm'
p653
g2
(g6
S'P\xd9\xca\xb7W\x08\xd4?'
p654
tp655
Rp656
tp657
a(S'the pixar universe'
p658
g2
(g6
S't\x87\x1f\tF\x02\xd4?'
p659
tp660
Rp661
tp662
a(S'genetic engineering in science fiction'
p663
g2
(g6
S']\xbe\x01i/\xf2\xd3?'
p664
tp665
Rp666
tp667
a(S'anthroponotic disease'
p668
g2
(g6
S'\xa4\x08\x00j\xd4\xf1\xd3?'
p669
tp670
Rp671
tp672
a(S'turkana boy'
p673
g2
(g6
S'^0\\-q\xee\xd3?'
p674
tp675
Rp676
tp677
a(S'australopithecus afarensis'
p678
g2
(g6
S'2\xf3\xfd\x96|\xed\xd3?'
p679
tp680
Rp681
tp682
a(S'human physical appearance'
p683
g2
(g6
S'5\xa7|v\xcf\xec\xd3?'
p684
tp685
Rp686
tp687
a(S'molecular anthropology'
p688
g2
(g6
S'\xcf\xd6$v{\xe7\xd3?'
p689
tp690
Rp691
tp692
a(S'prehistoric technology'
p693
g2
(g6
S'5=N\x93\xe7\xe3\xd3?'
p694
tp695
Rp696
tp697
a(S'lsmem1'
p698
g2
(g6
S'\\\xe0\xb4_\x0f\xd0\xd3?'
p699
tp700
Rp701
tp702
a(S'the naked ape'
p703
g2
(g6
S'\xaf5\xb8\xaf\xe8\xcd\xd3?'
p704
tp705
Rp706
tp707
a(S'homo ergaster'
p708
g2
(g6
S'\x0f \xfe\x94\x83\xc7\xd3?'
p709
tp710
Rp711
tp712
a(S'human genetic clustering'
p713
g2
(g6
S'\xec\\\x88\xfc\x01\xc5\xd3?'
p714
tp715
Rp716
tp717
a(S'common chimpanzee'
p718
g2
(g6
S'\xb4\xa8\xf4)\xf0\xc1\xd3?'
p719
tp720
Rp721
tp722
a(S'human race'
p723
g2
(g6
S'\x97\xd4\x805\x95\xbe\xd3?'
p724
tp725
Rp726
tp727
a(S'the wild boy'
p728
g2
(g6
S'\xbew\x8c\xa0\xac\xb7\xd3?'
p729
tp730
Rp731
tp732
a(S'list of common misconceptions'
p733
g2
(g6
S'\x8f\xb1\x15\xc6\x86\xb4\xd3?'
p734
tp735
Rp736
tp737
a(S'paleogenetics'
p738
g2
(g6
S'a\xd2<\xa5\xa1\xad\xd3?'
p739
tp740
Rp741
tp742
a(S'human genome diversity project'
p743
g2
(g6
S'\xf7\xab_\xbe\xfb\xac\xd3?'
p744
tp745
Rp746
tp747
a(S'human behavior'
p748
g2
(g6
S'\xa7\x8c]m\xe9\xa8\xd3?'
p749
tp750
Rp751
tp752
a(S'giday woldegabriel'
p753
g2
(g6
S'\xaa\x05\x15\xd5y\xa6\xd3?'
p754
tp755
Rp756
tp757
a(S'hominid dental morphology evolution'
p758
g2
(g6
S'\x80\xec\xc5\xea;\xa4\xd3?'
p759
tp760
Rp761
tp762
a(S'obstetrical dilemma'
p763
g2
(g6
S'\xb5\x0b\x8b\xae\x9b\x9b\xd3?'
p764
tp765
Rp766
tp767
a(S'history of evolutionary thought'
p768
g2
(g6
S'\xabw|)c\x82\xd3?'
p769
tp770
Rp771
tp772
a(S'progress in artificial intelligence'
p773
g2
(g6
S'!9\xe9%\x80u\xd3?'
p774
tp775
Rp776
tp777
a(S'technoself studies'
p778
g2
(g6
S'ph\x9d\xac\xa1r\xd3?'
p779
tp780
Rp781
tp782
a(S'evolutionary psychology of language'
p783
g2
(g6
S'\x12i\xad\x818p\xd3?'
p784
tp785
Rp786
tp787
a(S'human capital'
p788
g2
(g6
S'"\xcc\xdb\x00\xd6h\xd3?'
p789
tp790
Rp791
tp792
a(S'human\xe2\x80\x93wildlife conflict'
p793
g2
(g6
S'\xf0B:\xa4\x95h\xd3?'
p794
tp795
Rp796
tp797
a(S'history of eurasia'
p798
g2
(g6
S'4\x82n\xe2\xbf^\xd3?'
p799
tp800
Rp801
tp802
a(S'primate'
p803
g2
(g6
S'\x85b,r\xbc[\xd3?'
p804
tp805
Rp806
tp807
a(S'comparative psychology'
p808
g2
(g6
S'\xe9\xba\x1d\xec%N\xd3?'
p809
tp810
Rp811
tp812
a(S'the humans (comic)'
p813
g2
(g6
S'\xca\xe9\x99I\x9fH\xd3?'
p814
tp815
Rp816
tp817
a(S'1000 genomes project'
p818
g2
(g6
S'nM\xa0M\xb9E\xd3?'
p819
tp820
Rp821
tp822
a(S'sexual differentiation'
p823
g2
(g6
S'\xf9\xd1\xe9@~@\xd3?'
p824
tp825
Rp826
tp827
a(S'neurobiological origins of language'
p828
g2
(g6
S'?\xfb\xab\xc6R?\xd3?'
p829
tp830
Rp831
tp832
a(S'the human body'
p833
g2
(g6
S'g+\xaf\x83}<\xd3?'
p834
tp835
Rp836
tp837
a(S'anthroposphere'
p838
g2
(g6
S'\xd5\x10\x9cYF7\xd3?'
p839
tp840
Rp841
tp842
a(S'elizabeth v. spelman'
p843
g2
(g6
S'y\xb2\x981\xf5/\xd3?'
p844
tp845
Rp846
tp847
a(S'evolutionary psychology of religion'
p848
g2
(g6
S'6\xc6\r\x86S,\xd3?'
p849
tp850
Rp851
tp852
a(S'skhul and qafzeh hominids'
p853
g2
(g6
S'K?(\x126*\xd3?'
p854
tp855
Rp856
tp857
a(S'evolution'
p858
g2
(g6
S'\x9c\xb9\xbe\xf8`(\xd3?'
p859
tp860
Rp861
tp862
a(S'human condition'
p863
g2
(g6
S'1|\x89\xb63(\xd3?'
p864
tp865
Rp866
tp867
a(S'the human revolution (human origins)'
p868
g2
(g6
S'\x15r\x97\x94\x8a&\xd3?'
p869
tp870
Rp871
tp872
a(S'primate cognition'
p873
g2
(g6
S'Nv\x81R\xc6\x1c\xd3?'
p874
tp875
Rp876
tp877
a(S'environmental ethics'
p878
g2
(g6
S'nC?\xe6\xc2\x1c\xd3?'
p879
tp880
Rp881
tp882
a(S'biohistory'
p883
g2
(g6
S'\x03\x06_;\xf5\x18\xd3?'
p884
tp885
Rp886
tp887
a(S'posthumanism'
p888
g2
(g6
S'\xe6\xda|\xf4\xcb\x12\xd3?'
p889
tp890
Rp891
tp892
a(S"marx's theory of human nature"
p893
g2
(g6
S'\xa8\xe1\xfb*d\x10\xd3?'
p894
tp895
Rp896
tp897
a(S'phylogeography'
p898
g2
(g6
S'Myw\xa3s\x00\xd3?'
p899
tp900
Rp901
tp902
a(S'neanderthal genome project'
p903
g2
(g6
S'\xa0\xaa\x166\xcc\xfb\xd2?'
p904
tp905
Rp906
tp907
a(S'living fossil (short story)'
p908
g2
(g6
S'zN\x00\xc5j\xf7\xd2?'
p909
tp910
Rp911
tp912
a(S'mrdini'
p913
g2
(g6
S'\xb0\xec\x15\xaa\x11\xf6\xd2?'
p914
tp915
Rp916
tp917
a(S'human development (humanity)'
p918
g2
(g6
S'\xa6s\x7f-\x19\xf1\xd2?'
p919
tp920
Rp921
tp922
a(S'sex differences in human physiology'
p923
g2
(g6
S'\x97tJ\x9c\xec\xed\xd2?'
p924
tp925
Rp926
tp927
a(S'neanderthal'
p928
g2
(g6
S"d\xd8\xc1\xb0'\xdd\xd2?"
p929
tp930
Rp931
tp932
a(S'culture theory'
p933
g2
(g6
S"'\x15\xec+F\xd9\xd2?"
p934
tp935
Rp936
tp937
a(S'posthuman'
p938
g2
(g6
S'\x80\x85\xdayE\xd5\xd2?'
p939
tp940
Rp941
tp942
a(S'speciesism'
p943
g2
(g6
S'K\xc7\x9b;\xfc\xca\xd2?'
p944
tp945
Rp946
tp947
a(S'human genome'
p948
g2
(g6
S'\xe6$\x15\xca\x0b\xc7\xd2?'
p949
tp950
Rp951
tp952
a(S'java man'
p953
g2
(g6
S'\xe9v\n A\xaf\xd2?'
p954
tp955
Rp956
tp957
a(S'human services'
p958
g2
(g6
S'_t\xddHw\xae\xd2?'
p959
tp960
Rp961
tp962
a(S'baculum'
p963
g2
(g6
S'\x83a\xb1(o\xad\xd2?'
p964
tp965
Rp966
tp967
a(S'richard wrangham'
p968
g2
(g6
S'\x98\xd3}4g\x8f\xd2?'
p969
tp970
Rp971
tp972
a(S'tenctonese'
p973
g2
(g6
S'M*75K\x8f\xd2?'
p974
tp975
Rp976
tp977
a(S'animal consciousness'
p978
g2
(g6
S'#\xfa\xd4\xaa@\x8e\xd2?'
p979
tp980
Rp981
tp982
a(S'anthropocene'
p983
g2
(g6
S'\xd9\x88\xe1U\x8f\x89\xd2?'
p984
tp985
Rp986
tp987
a(S'unumbotte'
p988
g2
(g6
S'\x8cx\x10\xa4B\x89\xd2?'
p989
tp990
Rp991
tp992
a(S'neoteny'
p993
g2
(g6
S'\xc4\xcd\x82)\xfa\x84\xd2?'
p994
tp995
Rp996
tp997
a(S'hhaa'
p998
g2
(g6
S'\x08\x01\xffZ\xe6~\xd2?'
p999
tp1000
Rp1001
tp1002
a(S'missing link (film)'
p1003
g2
(g6
S'k\xa2\xd1&&{\xd2?'
p1004
tp1005
Rp1006
tp1007
a(S'orang bunian'
p1008
g2
(g6
S'y\x96er\xf4v\xd2?'
p1009
tp1010
Rp1011
tp1012
a(S'catching fire: how cooking made us human'
p1013
g2
(g6
S'jW\x80w\xb4r\xd2?'
p1014
tp1015
Rp1016
tp1017
a(S'ekistics'
p1018
g2
(g6
S'u\xcc\x8aqIp\xd2?'
p1019
tp1020
Rp1021
tp1022
a(S'the damned trilogy'
p1023
g2
(g6
S'\x98C\xf4\xdc\xddh\xd2?'
p1024
tp1025
Rp1026
tp1027
a(S'emotion in animals'
p1028
g2
(g6
S'Z\x9b"8\xddf\xd2?'
p1029
tp1030
Rp1031
tp1032
a(S'human vestigiality'
p1033
g2
(g6
S'\x89\xd5\r -d\xd2?'
p1034
tp1035
Rp1036
tp1037
a(S'sivapithecus'
p1038
g2
(g6
S'\xdb\x13/\xe2*b\xd2?'
p1039
tp1040
Rp1041
tp1042
a(S'anthropization'
p1043
g2
(g6
S'^\xcc\x13\x94\xf8U\xd2?'
p1044
tp1045
Rp1046
tp1047
a(S'human science'
p1048
g2
(g6
S'm\xcf\xeb\xd39T\xd2?'
p1049
tp1050
Rp1051
tp1052
a(S'theory of mind in animals'
p1053
g2
(g6
S'\xbf\xd0\xfe\xbbdQ\xd2?'
p1054
tp1055
Rp1056
tp1057
a(S'super-humanism'
p1058
g2
(g6
S'C\xf6b\x84\x06Q\xd2?'
p1059
tp1060
Rp1061
tp1062
a(S'human overpopulation'
p1063
g2
(g6
S'\xcbX\x96E^L\xd2?'
p1064
tp1065
Rp1066
tp1067
a(S'encephalization'
p1068
g2
(g6
S'Q\xbb+9\rK\xd2?'
p1069
tp1070
Rp1071
tp1072
a(S'lower paleolithic'
p1073
g2
(g6
S'\x14\xc52"\xe7F\xd2?'
p1074
tp1075
Rp1076
tp1077
a(S'homo naledi'
p1078
g2
(g6
S'2\x9a\x87\x82\x02C\xd2?'
p1079
tp1080
Rp1081
tp1082
a(S'bipedalism'
p1083
g2
(g6
S'#\r\xbbW\xb2B\xd2?'
p1084
tp1085
Rp1086
tp1087
a(S'sex at dawn'
p1088
g2
(g6
S'\xce%2\x8b\xbd>\xd2?'
p1089
tp1090
Rp1091
tp1092
a(S'homo (disambiguation)'
p1093
g2
(g6
S'\xf6\xdcV}m>\xd2?'
p1094
tp1095
Rp1096
tp1097
a(S'human revolution'
p1098
g2
(g6
S'\x11\xd7F\xce\xeb8\xd2?'
p1099
tp1100
Rp1101
tp1102
a(S'human skin color'
p1103
g2
(g6
S'\xaa\xb5\x82\x11\xc56\xd2?'
p1104
tp1105
Rp1106
tp1107
a(S'helliconia'
p1108
g2
(g6
S'T;\x8a\x86*.\xd2?'
p1109
tp1110
Rp1111
tp1112
a(S'cooperative eye hypothesis'
p1113
g2
(g6
S'\x1e\x13<_\x03(\xd2?'
p1114
tp1115
Rp1116
tp1117
a(S'dmanisi'
p1118
g2
(g6
S'\xf4\xfa\xa5g\xc9$\xd2?'
p1119
tp1120
Rp1121
tp1122
a(S'model organism'
p1123
g2
(g6
S'\x17b\x18q\x9a!\xd2?'
p1124
tp1125
Rp1126
tp1127
a(S'quadrumana'
p1128
g2
(g6
S"'\x9dB\xc5\x88\x1f\xd2?"
p1129
tp1130
Rp1131
tp1132
a(S'homo economicus'
p1133
g2
(g6
S'\xf9\xde\xd9U+\x13\xd2?'
p1134
tp1135
Rp1136
tp1137
a(S'milford h. wolpoff'
p1138
g2
(g6
S'u\xdaN\xdfC\x12\xd2?'
p1139
tp1140
Rp1141
tp1142
a(S'berhane asfaw'
p1143
g2
(g6
S'\x08\xbbS\xc2f\xfe\xd1?'
p1144
tp1145
Rp1146
tp1147
a(S'pierolapithecus'
p1148
g2
(g6
S'\xdb\xab%\x15\x90\xfb\xd1?'
p1149
tp1150
Rp1151
tp1152
a(S'holocene extinction'
p1153
g2
(g6
S'Z\x1a\x1fiT\xee\xd1?'
p1154
tp1155
Rp1156
tp1157
a(S'reconciliation ecology'
p1158
g2
(g6
S'4\x03`\xa1\xbd\xe8\xd1?'
p1159
tp1160
Rp1161
tp1162
a(S'dog intelligence'
p1163
g2
(g6
S'\x87\xee\xdb\xd5w\xe8\xd1?'
p1164
tp1165
Rp1166
tp1167
a(S'list of human evolution fossils'
p1168
g2
(g6
S'\xebf\xa4!d\xdf\xd1?'
p1169
tp1170
Rp1171
tp1172
a(S'human ecology'
p1173
g2
(g6
S'\xd4\xec\\\x1c\xd2\xda\xd1?'
p1174
tp1175
Rp1176
tp1177
a(S'social animal'
p1178
g2
(g6
S'\xe7\x00e\x7fW\xc7\xd1?'
p1179
tp1180
Rp1181
tp1182
a(S'international bioethics committee'
p1183
g2
(g6
S'\xd2?)E\xa1\xc1\xd1?'
p1184
tp1185
Rp1186
tp1187
a(S'physiological prematurity'
p1188
g2
(g6
S'S\x99\x99\xd8\xa7\xba\xd1?'
p1189
tp1190
Rp1191
tp1192
a(S'animal language'
p1193
g2
(g6
S'\x19 \xd6\xe0\xf4\xb6\xd1?'
p1194
tp1195
Rp1196
tp1197
a(S'archaeogenetics'
p1198
g2
(g6
S'\xe3\xf2+\x9b\xdc\xb4\xd1?'
p1199
tp1200
Rp1201
tp1202
a(S"human genetic diversity: lewontin's fallacy"
p1203
g2
(g6
S'\x97\xa2x|\x1b\xaf\xd1?'
p1204
tp1205
Rp1206
tp1207
a(S'tetsuro matsuzawa'
p1208
g2
(g6
S'1b\x7f\x00\x99\xab\xd1?'
p1209
tp1210
Rp1211
tp1212
a(S'human nature (disambiguation)'
p1213
g2
(g6
S'\x82\x83\x90\xbc\xd9\xa9\xd1?'
p1214
tp1215
Rp1216
tp1217
a(S'david reich (geneticist)'
p1218
g2
(g6
S'd\x87\xb0\xf8\xcd\xa8\xd1?'
p1219
tp1220
Rp1221
tp1222
a(S'human (surname)'
p1223
g2
(g6
S'\x1a\xd0\x1e\xfd\x18\xa3\xd1?'
p1224
tp1225
Rp1226
tp1227
a(S'list of fictional assimilating races'
p1228
g2
(g6
S',v\x06(U\x9f\xd1?'
p1229
tp1230
Rp1231
tp1232
a(S'human variome project'
p1233
g2
(g6
S'\xab#W\xd5\x17\x9e\xd1?'
p1234
tp1235
Rp1236
tp1237
a(S'evolutionary mismatch'
p1238
g2
(g6
S'\xc7G\xa5."\x9c\xd1?'
p1239
tp1240
Rp1241
tp1242
a(S'prehistoric asia'
p1243
g2
(g6
S'\xbc\x9b\x10\xe1D\x98\xd1?'
p1244
tp1245
Rp1246
tp1247
a(S'noogenesis'
p1248
g2
(g6
S'b\xee"V\xe3\x96\xd1?'
p1249
tp1250
Rp1251
tp1252
a(S'domestication of animals'
p1253
g2
(g6
S'\x8a* \xc0\xfd\x95\xd1?'
p1254
tp1255
Rp1256
tp1257
a(S'african archaeology'
p1258
g2
(g6
S'\x1fp\xdbZ\x8b\x8d\xd1?'
p1259
tp1260
Rp1261
tp1262
a(S'anthropophilia'
p1263
g2
(g6
S'd)*4\n\x8d\xd1?'
p1264
tp1265
Rp1266
tp1267
a(S'therianthropy'
p1268
g2
(g6
S'\xe7R\x9bM\xa8\x8c\xd1?'
p1269
tp1270
Rp1271
tp1272
a(S'prodynorphin'
p1273
g2
(g6
S'\x0f\xa5\xea\xc3\x84\x8c\xd1?'
p1274
tp1275
Rp1276
tp1277
a(S'discovery of human antiquity'
p1278
g2
(g6
S'\xfb|k\x0b\x88\x87\xd1?'
p1279
tp1280
Rp1281
tp1282
a(S'human bonding'
p1283
g2
(g6
S'\xb5D3[\x18\x83\xd1?'
p1284
tp1285
Rp1286
tp1287
a(S'the war against the chtorr'
p1288
g2
(g6
S'\xca\x8d\x12\xb7~z\xd1?'
p1289
tp1290
Rp1291
tp1292
a(S'anthropometry'
p1293
g2
(g6
S'9u\x8c-Ay\xd1?'
p1294
tp1295
Rp1296
tp1297
a(S'list of alien species in the honorverse'
p1298
g2
(g6
S'\x1c\x16\x0eMhx\xd1?'
p1299
tp1300
Rp1301
tp1302
a(S'animal cognition'
p1303
g2
(g6
S'(\xa1KM2t\xd1?'
p1304
tp1305
Rp1306
tp1307
a(S'historical race concepts'
p1308
g2
(g6
S'\x166\xf5{\nq\xd1?'
p1309
tp1310
Rp1311
tp1312
a(S'human extinction'
p1313
g2
(g6
S'\xe05\xa2I\xa8p\xd1?'
p1314
tp1315
Rp1316
tp1317
a(S'great ape project'
p1318
g2
(g6
S'\xaa\x9cB\xeb\xf6k\xd1?'
p1319
tp1320
Rp1321
tp1322
a(S'guido barbujani'
p1323
g2
(g6
S'\xbd\xe1LDQe\xd1?'
p1324
tp1325
Rp1326
tp1327
a(S'nature'
p1328
g2
(g6
S'\n\x85\xa4\xf8\xfeX\xd1?'
p1329
tp1330
Rp1331
tp1332
a(S'human-centered computing'
p1333
g2
(g6
S'W|\xc7\xd7\xe3R\xd1?'
p1334
tp1335
Rp1336
tp1337
a(S'human reliability'
p1338
g2
(g6
S'@mc\x12.E\xd1?'
p1339
tp1340
Rp1341
tp1342
a(S'scladina'
p1343
g2
(g6
S'Md\x14\xf5N>\xd1?'
p1344
tp1345
Rp1346
tp1347
a(S'out of africa i'
p1348
g2
(g6
S'\xb8\x8d\xf4\x0bB>\xd1?'
p1349
tp1350
Rp1351
tp1352
a(S'anthropogeny'
p1353
g2
(g6
S'/\x05\xad\xdf\x14=\xd1?'
p1354
tp1355
Rp1356
tp1357
a(S'negroid'
p1358
g2
(g6
S'\x90Km\xb0\r7\xd1?'
p1359
tp1360
Rp1361
tp1362
a(S'known space'
p1363
g2
(g6
S'\x07\xe0\x90^\xb35\xd1?'
p1364
tp1365
Rp1366
tp1367
a(S'd\xc3\xa6mon (his dark materials)'
p1368
g2
(g6
S'\x08,\x9d\xeaa+\xd1?'
p1369
tp1370
Rp1371
tp1372
a(S'lynn jorde'
p1373
g2
(g6
S"\xd1y\xb6\x87U'\xd1?"
p1374
tp1375
Rp1376
tp1377
a(S'primatology'
p1378
g2
(g6
S'kS]B\xe5&\xd1?'
p1379
tp1380
Rp1381
tp1382
a(S'cog (project)'
p1383
g2
(g6
S'h\x95\xfbTc%\xd1?'
p1384
tp1385
Rp1386
tp1387
a(S'outline of social science'
p1388
g2
(g6
S'd\xbd\x1a1\xd6"\xd1?'
p1389
tp1390
Rp1391
tp1392
a(S'planet of the apes (novel)'
p1393
g2
(g6
S'\xb6\xd2\xbe.\xd8!\xd1?'
p1394
tp1395
Rp1396
tp1397
a(S'human rights education'
p1398
g2
(g6
S'@5\xd9\xde\xc5\x1e\xd1?'
p1399
tp1400
Rp1401
tp1402
a(S'anthropomorphism'
p1403
g2
(g6
S'5R\x80!\x91\x1e\xd1?'
p1404
tp1405
Rp1406
tp1407
a(S'paleolithic'
p1408
g2
(g6
S'Jw\xaf\xf0v\x1c\xd1?'
p1409
tp1410
Rp1411
tp1412
a(S'nbpf3'
p1413
g2
(g6
S"-3O\x03'\x17\xd1?"
p1414
tp1415
Rp1416
tp1417
a(S'dark skin'
p1418
g2
(g6
S'o\r\x7f\x10\xed\x16\xd1?'
p1419
tp1420
Rp1421
tp1422
a(S'animal culture'
p1423
g2
(g6
S'\x94\x12\x01N\xe1\x16\xd1?'
p1424
tp1425
Rp1426
tp1427
a(S'human systems integration division'
p1428
g2
(g6
S'\xc6ia\xce\xb9\x14\xd1?'
p1429
tp1430
Rp1431
tp1432
a(S'human behavioral ecology'
p1433
g2
(g6
S'42e\xcbE\x14\xd1?'
p1434
tp1435
Rp1436
tp1437
a(S'demonic males'
p1438
g2
(g6
S'@\xec@\xc0\xca\x12\xd1?'
p1439
tp1440
Rp1441
tp1442
a(S'mauer 1'
p1443
g2
(g6
S'\xf5Phj\xa8\x10\xd1?'
p1444
tp1445
Rp1446
tp1447
a(S'man'
p1448
g2
(g6
S'\x8e\xeb\xe2\x1c\xa7\x0c\xd1?'
p1449
tp1450
Rp1451
tp1452
a(S'evolutionary aesthetics'
p1453
g2
(g6
S'\xb9\x8e\xbd\xf7\x11\n\xd1?'
p1454
tp1455
Rp1456
tp1457
a(S'the dragon masters'
p1458
g2
(g6
S"\xa0'\x8ed\xca\t\xd1?"
p1459
tp1460
Rp1461
tp1462
a(S'sociocultural evolution'
p1463
g2
(g6
S'{\xa0%`\xb7\x07\xd1?'
p1464
tp1465
Rp1466
tp1467
a(S'orrorin'
p1468
g2
(g6
S'7\x99\xb2"\xa4\x06\xd1?'
p1469
tp1470
Rp1471
tp1472
a(S'chororapithecus'
p1473
g2
(g6
S';9$\xca5\x01\xd1?'
p1474
tp1475
Rp1476
tp1477
a(S'origins of society'
p1478
g2
(g6
S'\xeaOhd#\xff\xd0?'
p1479
tp1480
Rp1481
tp1482
a(S'origin of the domestic dog'
p1483
g2
(g6
S'\xa2q\xec=!\xff\xd0?'
p1484
tp1485
Rp1486
tp1487
a(S'extinctioners'
p1488
g2
(g6
S'\xbd\xc0\xc9\x01\xb6\xfd\xd0?'
p1489
tp1490
Rp1491
tp1492
a(S'institute of human origins'
p1493
g2
(g6
S'GN\x929r\xfd\xd0?'
p1494
tp1495
Rp1496
tp1497
a(S'allan wilson'
p1498
g2
(g6
S'\x8e\xffR]y\xfa\xd0?'
p1499
tp1500
Rp1501
tp1502
a(S'anne and bernard spitzer hall of human origins'
p1503
g2
(g6
S'2\xb8X\xe6\xa4\xf4\xd0?'
p1504
tp1505
Rp1506
tp1507
a(S'paleodemography'
p1508
g2
(g6
S'6\x0c\xfb|\xa8\xed\xd0?'
p1509
tp1510
Rp1511
tp1512
a.