(lp0
(S'idlib'
p1
cnumpy.core.multiarray
scalar
p2
(cnumpy
dtype
p3
(S'f8'
p4
I0
I1
tp5
Rp6
(I3
S'<'
p7
NNNI-1
I-1
I0
tp8
bS'\xfb\xff\xff\xff\xff\xff\xef?'
p9
tp10
Rp11
tp12
a(S'faylun'
p13
g2
(g6
S'OOt\xfd\x85D\xea?'
p14
tp15
Rp16
tp17
a(S'idlib district'
p18
g2
(g6
S'\x12\xfe\xbdyi\xd0\xe9?'
p19
tp20
Rp21
tp22
a(S'idlib governorate'
p23
g2
(g6
S'\xb0\xd0\xe2f\xb7\x18\xe9?'
p24
tp25
Rp26
tp27
a(S'idlib governorate clashes'
p28
g2
(g6
S'N\xa6>Xvm\xe8?'
p29
tp30
Rp31
tp32
a(S'nahlaya'
p33
g2
(g6
S'\xa8\xd3\xfe\xd4\xce\x96\xe7?'
p34
tp35
Rp36
tp37
a(S'second battle of idlib'
p38
g2
(g6
S'\xccp&u\xd3&\xe7?'
p39
tp40
Rp41
tp42
a(S"idlib martyrs' brigade"
p43
g2
(g6
S'\xee\x8aj7\xbf\x1f\xe7?'
p44
tp45
Rp46
tp47
a(S'azmarin'
p48
g2
(g6
S'\x00r\x15\xb5\xa6v\xe6?'
p49
tp50
Rp51
tp52
a(S'idlib governorate clashes (september 2011\xe2\x80\x93march 2012)'
p53
g2
(g6
S'a6\xe4\x18\xbe0\xe6?'
p54
tp55
Rp56
tp57
a(S'millis, syria'
p58
g2
(g6
S'Q\xd1\xb4\n\xa4\x0b\xe6?'
p59
tp60
Rp61
tp62
a(S'talamar'
p63
g2
(g6
S'\xe1\xaa\x02Q\x03\xe1\xe5?'
p64
tp65
Rp66
tp67
a(S'first battle of idlib'
p68
g2
(g6
S'\n\xe2\x8eWR\x86\xe5?'
p69
tp70
Rp71
tp72
a(S'haranabush'
p73
g2
(g6
S'\x1c\xd5\xfa\xa3\x0fq\xe5?'
p74
tp75
Rp76
tp77
a(S'kurin, syria'
p78
g2
(g6
S'oo\xd8\x12+[\xe5?'
p79
tp80
Rp81
tp82
a(S'mardikh'
p83
g2
(g6
S'\xc3-\xb4\xdcM;\xe5?'
p84
tp85
Rp86
tp87
a(S'free idlib army'
p88
g2
(g6
S'/\xa2\x97\x08&&\xe5?'
p89
tp90
Rp91
tp92
a(S'killi'
p93
g2
(g6
S'q:\xe3\xaf\xfd\x1b\xe5?'
p94
tp95
Rp96
tp97
a(S'ghanem ibrahim al-hassan'
p98
g2
(g6
S'b\x1dq\x08W\x8c\xe4?'
p99
tp100
Rp101
tp102
a(S'abu talha, syria'
p103
g2
(g6
S'g\x85\x08\x9c\x0c!\xe4?'
p104
tp105
Rp106
tp107
a(S'2015 idlib offensive'
p108
g2
(g6
S'\x07\x90\xeb\xf2i\x03\xe4?'
p109
tp110
Rp111
tp112
a(S'urum al-jawz'
p113
g2
(g6
S"\xdc'\x16\x85\xdd5\xe3?"
p114
tp115
Rp116
tp117
a(S'hizano'
p118
g2
(g6
S'|\xd7\xfb\xd6\x89\xfa\xe2?'
p119
tp120
Rp121
tp122
a(S'armanaz'
p123
g2
(g6
S'\x83{\xfc\xc9\xf3\x93\xe2?'
p124
tp125
Rp126
tp127
a(S'barisha, harem district'
p128
g2
(g6
S'\xd1\x97\xc0\x95/x\xe2?'
p129
tp130
Rp131
tp132
a(S'idlib governorate clashes (june 2012\xe2\x80\x93april 2013)'
p133
g2
(g6
S'\xed(X\x86\x07\x00\xe2?'
p134
tp135
Rp136
tp137
a(S'december 2011 jabal al-zawiya massacres'
p138
g2
(g6
S'\x02\xd4n\xb7\xe6\xb3\xe1?'
p139
tp140
Rp141
tp142
a(S'ariha'
p143
g2
(g6
S']\x8c\x89^\x84\xa8\xe1?'
p144
tp145
Rp146
tp147
a(S'bidama'
p148
g2
(g6
S'\xfe\xc9\x89BXv\xe1?'
p149
tp150
Rp151
tp152
a(S"ta'um"
p153
g2
(g6
S'\x01T\x02\x13`\x08\xe1?'
p154
tp155
Rp156
tp157
a(S'battle of victory'
p158
g2
(g6
S'\xc6\xad\x06+8\xe4\xe0?'
p159
tp160
Rp161
tp162
a(S'hazarin'
p163
g2
(g6
S'x\x9c\xd6\xa3\x10\x1a\xe0?'
p164
tp165
Rp166
tp167
a(S'idlib military council'
p168
g2
(g6
S'l\x0e\xd5\x9bOX\xdf?'
p169
tp170
Rp171
tp172
a(S'barisha'
p173
g2
(g6
S'.\x15\x9b3\xa2T\xdf?'
p174
tp175
Rp176
tp177
a(S'binnish'
p178
g2
(g6
S'\xe8\xfe\x98I\\\x00\xdf?'
p179
tp180
Rp181
tp182
a(S'salwah'
p183
g2
(g6
S'\x14\x8awo\x1c,\xde?'
p184
tp185
Rp186
tp187
a(S'university of aleppo'
p188
g2
(g6
S'8<5w(\xd2\xdd?'
p189
tp190
Rp191
tp192
a(S'al-mastumah'
p193
g2
(g6
S'!\xa6\x15#`\xc6\xdd?'
p194
tp195
Rp196
tp197
a(S'kafriya'
p198
g2
(g6
S'\x0c\xa7C\x8e\xb1-\xdd?'
p199
tp200
Rp201
tp202
a(S'qurqania'
p203
g2
(g6
S'\xe5\x94\xd3~b\xef\xdc?'
p204
tp205
Rp206
tp207
a(S'taftanaz military airbase'
p208
g2
(g6
S'y\x1a]\x15\xd1\xae\xdc?'
p209
tp210
Rp211
tp212
a(S'sinjar, idlib'
p213
g2
(g6
S'V\x13I\xddZ\x97\xdc?'
p214
tp215
Rp216
tp217
a(S'qudsaya'
p218
g2
(g6
S'\xceo\xa01\xecv\xdc?'
p219
tp220
Rp221
tp222
a(S'al-alani'
p223
g2
(g6
S'a2\xbf\xc2Gg\xdb?'
p224
tp225
Rp226
tp227
a(S'april 2016 idlib bombings'
p228
g2
(g6
S'G\xfeN\x05\x9b\xf1\xda?'
p229
tp230
Rp231
tp232
a(S'qah'
p233
g2
(g6
S'=\xb1\xb9\xa3\x80\xbc\xda?'
p234
tp235
Rp236
tp237
a(S'2014 idlib city raid'
p238
g2
(g6
S'~\x97K\xc0w{\xda?'
p239
tp240
Rp241
tp242
a(S'juzif'
p243
g2
(g6
S'\xf1hs\xc0\xabu\xda?'
p244
tp245
Rp246
tp247
a(S'ariha district'
p248
g2
(g6
S'\x83x|Pqd\xda?'
p249
tp250
Rp251
tp252
a(S'atme'
p253
g2
(g6
S'8\xdbe\xa0>0\xda?'
p254
tp255
Rp256
tp257
a(S'hurriya'
p258
g2
(g6
S'\x0fZ\xd1\x12\xbc\xd6\xd9?'
p259
tp260
Rp261
tp262
a(S'ihsim'
p263
g2
(g6
S'\x98y\xc3\xd1e-\xd9?'
p264
tp265
Rp266
tp267
a(S'sarmin'
p268
g2
(g6
S'AZ\xd9E\t\xf2\xd8?'
p269
tp270
Rp271
tp272
a(S'muhambal'
p273
g2
(g6
S'P\xcf\x1bXy\xdc\xd8?'
p274
tp275
Rp276
tp277
a(S'timeline of the syrian civil war (january\xe2\x80\x93april 2012)'
p278
g2
(g6
S'J\x9e\xec"\xc0\xc0\xd8?'
p279
tp280
Rp281
tp282
a(S'banabil'
p283
g2
(g6
S'\xd9\x19C\xd7\x97\x8a\xd8?'
p284
tp285
Rp286
tp287
a(S'al-qunaya'
p288
g2
(g6
S'=\x08\xfe7kj\xd8?'
p289
tp290
Rp291
tp292
a(S'2014 idlib offensive'
p293
g2
(g6
S'c\x13\x83\x9a\xfe\x19\xd8?'
p294
tp295
Rp296
tp297
a(S'ajnad al-sham'
p298
g2
(g6
S'#t\xa1\x84 J\xd7?'
p299
tp300
Rp301
tp302
a(S'harim mountains'
p303
g2
(g6
S'O\xffa\x9a\x95I\xd7?'
p304
tp305
Rp306
tp307
a(S'army of conquest'
p308
g2
(g6
S'\x842\x96\xe6xH\xd7?'
p309
tp310
Rp311
tp312
a(S'khan al-sabil'
p313
g2
(g6
S'~\x94\x16/\xbd$\xd7?'
p314
tp315
Rp316
tp317
a(S'kafr dariyan'
p318
g2
(g6
S'ZoK\xa8\xd2\x1b\xd7?'
p319
tp320
Rp321
tp322
a(S'iblin, syria'
p323
g2
(g6
S'j\xfa\xf1\x18\x7f\xab\xd6?'
p324
tp325
Rp326
tp327
a(S'saraqib'
p328
g2
(g6
S'\xda\x8d\xea\xbd\xd4\x8b\xd6?'
p329
tp330
Rp331
tp332
a(S'kaftin'
p333
g2
(g6
S'\xf73T\xa4\x0fS\xd6?'
p334
tp335
Rp336
tp337
a(S'marayan'
p338
g2
(g6
S'e(\x06t\xa0B\xd6?'
p339
tp340
Rp341
tp342
a(S'urum'
p343
g2
(g6
S'\x80\xed\xda\x17r\x19\xd6?'
p344
tp345
Rp346
tp347
a(S'northwestern syria offensive (april\xe2\x80\x93june 2015)'
p348
g2
(g6
S'\xd8}@SF\xea\xd5?'
p349
tp350
Rp351
tp352
a(S'kafr kila, syria'
p353
g2
(g6
S'E\xa0\x93\xb4\xf9\xbf\xd5?'
p354
tp355
Rp356
tp357
a(S"siege of al-fu'ah and kafriya"
p358
g2
(g6
S'7\xa5}{\x89\xbf\xd5?'
p359
tp360
Rp361
tp362
a(S'jisr al-shughur district'
p363
g2
(g6
S'\xa9\xf8\x99N\xad.\xd5?'
p364
tp365
Rp366
tp367
a(S"syrian martyrs' brigade"
p368
g2
(g6
S'\xf3zm\x8c\x1a\x99\xd4?'
p369
tp370
Rp371
tp372
a(S'free syrian army operations'
p373
g2
(g6
S'=: \\\xb8\x90\xd4?'
p374
tp375
Rp376
tp377
a(S'al-tamanah'
p378
g2
(g6
S'3\xb5P\x18\xdc\x84\xd4?'
p379
tp380
Rp381
tp382
a(S'albay ahmed berri'
p383
g2
(g6
S'm\x02\xfe\xabd{\xd4?'
p384
tp385
Rp386
tp387
a(S'taladah'
p388
g2
(g6
S'1\xae)\x1c\xd0]\xd4?'
p389
tp390
Rp391
tp392
a(S'jaysh al-sunna'
p393
g2
(g6
S'\xd1\xeb\xdd\xf4\xcb$\xd4?'
p394
tp395
Rp396
tp397
a(S'muhajirin wa-ansar alliance'
p398
g2
(g6
S'S\xd7H\xddN\x1e\xd4?'
p399
tp400
Rp401
tp402
a(S'timeline of the syrian civil war (may\xe2\x80\x93august 2012)'
p403
g2
(g6
S'\x88\x91\x8c\x19>\xe4\xd3?'
p404
tp405
Rp406
tp407
a(S'zarzur'
p408
g2
(g6
S'\xd4\xf9\xc54\x05\xc2\xd3?'
p409
tp410
Rp411
tp412
a(S'yakubiyah'
p413
g2
(g6
S'\xd3\xd97i\r\xaa\xd3?'
p414
tp415
Rp416
tp417
a(S"al-fu'ah"
p418
g2
(g6
S'\xda\xe8G1m\x91\xd3?'
p419
tp420
Rp421
tp422
a(S'army of revolutionaries'
p423
g2
(g6
S'#\xca7\xf4;\x91\xd3?'
p424
tp425
Rp426
tp427
a(S'al-janudiyah'
p428
g2
(g6
S'2lu\xf0\xa9\x87\xd3?'
p429
tp430
Rp431
tp432
a(S'northern division (syrian rebel group)'
p433
g2
(g6
S'\xca\xf8\xca\x15\x87\x84\xd3?'
p434
tp435
Rp436
tp437
a(S'turmanin'
p438
g2
(g6
S'?M8\xe7\xcdt\xd3?'
p439
tp440
Rp441
tp442
a(S'darkush'
p443
g2
(g6
S'\xc3\x18du\xc8_\xd3?'
p444
tp445
Rp446
tp447
a(S'siege of wadi barada'
p448
g2
(g6
S's\xac7\x1f\x00B\xd3?'
p449
tp450
Rp451
tp452
a(S'maarrat misrin'
p453
g2
(g6
S';\xa4\xf0]+7\xd3?'
p454
tp455
Rp456
tp457
a(S'jabal zawiya'
p458
g2
(g6
S'C.K_\xbc\x0f\xd3?'
p459
tp460
Rp461
tp462
a(S'mountain hawks brigade'
p463
g2
(g6
S'n\x89\xcc2\xa3\xec\xd2?'
p464
tp465
Rp466
tp467
a(S'maar shurin'
p468
g2
(g6
S'T\x07E\xca\xb1\xdf\xd2?'
p469
tp470
Rp471
tp472
a(S'battle of saraqeb'
p473
g2
(g6
S'rQm\xa5\x81\xaf\xd2?'
p474
tp475
Rp476
tp477
a(S'aleppo governorate'
p478
g2
(g6
S'\xa8\xe0\xc7\xe7\x95\xa9\xd2?'
p479
tp480
Rp481
tp482
a(S'maarrat al-ikhwan'
p483
g2
(g6
S'pP\x07\xbcV\x96\xd2?'
p484
tp485
Rp486
tp487
a(S"maarrat al-nu'man district"
p488
g2
(g6
S'n\x9a\xceC\xf9p\xd2?'
p489
tp490
Rp491
tp492
a(S'kafr latah'
p493
g2
(g6
S'\x9d=<\xb4@X\xd2?'
p494
tp495
Rp496
tp497
a(S'tell sultan'
p498
g2
(g6
S'\xddL\x15\x8d\x1c@\xd2?'
p499
tp500
Rp501
tp502
a(S'qalb loze'
p503
g2
(g6
S'cQ\xd3\xffo\xcb\xd1?'
p504
tp505
Rp506
tp507
a(S'timeline of the syrian civil war (may\xe2\x80\x93august 2016)'
p508
g2
(g6
S'\xe7\x1djA\\\xa8\xd1?'
p509
tp510
Rp511
tp512
a(S'zanbaqi'
p513
g2
(g6
S'\xeb\x02d\xd3\xbc\x9d\xd1?'
p514
tp515
Rp516
tp517
a(S'list of cities in syria'
p518
g2
(g6
S'#\xa8s\xd9-\x99\xd1?'
p519
tp520
Rp521
tp522
a(S'biret'
p523
g2
(g6
S'\x86\x82\xe3k:s\xd1?'
p524
tp525
Rp526
tp527
a(S'kafr takharim'
p528
g2
(g6
S'l\xe6\xca4m^\xd1?'
p529
tp530
Rp531
tp532
a(S'course of events of the syrian civil war'
p533
g2
(g6
S'>\xdc\xffm}F\xd1?'
p534
tp535
Rp536
tp537
a(S'abu al-duhur'
p538
g2
(g6
S'\xda0\xa2\x83s\x1e\xd1?'
p539
tp540
Rp541
tp542
a(S'brennan'
p543
g2
(g6
S'\xa6\x12\xf5\x15\x0e\xea\xd0?'
p544
tp545
Rp546
tp547
a(S'martyrs of islam brigade'
p548
g2
(g6
S'p\xe3\x8a\x118\xe9\xd0?'
p549
tp550
Rp551
tp552
a(S'use of chemical weapons in the syrian civil war'
p553
g2
(g6
S'\xf4\xd0\xb3\xd2r\xe2\xd0?'
p554
tp555
Rp556
tp557
a(S'moussa al-omar'
p558
g2
(g6
S'o:0\xb0F\xc7\xd0?'
p559
tp560
Rp561
tp562
a(S'timeline of the syrian civil war (january\xe2\x80\x93july 2015)'
p563
g2
(g6
S'\x96IE\xac\x1eT\xd0?'
p564
tp565
Rp566
tp567
a(S'salqin'
p568
g2
(g6
S'Iu\xcbOHS\xd0?'
p569
tp570
Rp571
tp572
a(S'burhan sahyouni'
p573
g2
(g6
S'\x8e\xc9\x9b\x9emC\xd0?'
p574
tp575
Rp576
tp577
a(S'the opcw fact-finding mission in syria'
p578
g2
(g6
S'sA<\x83H5\xd0?'
p579
tp580
Rp581
tp582
a(S'muadamiyat al-sham'
p583
g2
(g6
S'\x1e\x07\tx\x97-\xd0?'
p584
tp585
Rp586
tp587
a(S'2015 zabadani cease-fire agreement'
p588
g2
(g6
S'f\x00\x83\xc4\xcf&\xd0?'
p589
tp590
Rp591
tp592
a(S'al-dana, syria'
p593
g2
(g6
S'\x90;\x1ca\xd8\x0e\xd0?'
p594
tp595
Rp596
tp597
a(S'taftanaz'
p598
g2
(g6
S'\x89\xbd\xa8(\xa8\x04\xd0?'
p599
tp600
Rp601
tp602
a(S'hish, syria'
p603
g2
(g6
S'/m\x7f\xe3d\x01\xd0?'
p604
tp605
Rp606
tp607
a(S'april 2012 idlib governorate operation'
p608
g2
(g6
S'6x\xa0\xba\x84\x91\xcf?'
p609
tp610
Rp611
tp612
a(S'imam bukhari jamaat'
p613
g2
(g6
S'\xb9\xcc"\xf12\x8e\xcf?'
p614
tp615
Rp616
tp617
a(S'ismaila jagne'
p618
g2
(g6
S"s'\xc2\x12\x95b\xcf?"
p619
tp620
Rp621
tp622
a(S'suheil al-hassan'
p623
g2
(g6
S'wa5\xa7\xbfQ\xcf?'
p624
tp625
Rp626
tp627
a(S'siege of base 46'
p628
g2
(g6
S'+r\xc9\x91\xd8C\xcf?'
p629
tp630
Rp631
tp632
a(S'harem district'
p633
g2
(g6
S'\x95\xaa\xf3y}8\xcf?'
p634
tp635
Rp636
tp637
a(S'atarib district'
p638
g2
(g6
S'\x96\xcc&\xddc0\xcf?'
p639
tp640
Rp641
tp642
a(S'tell afis'
p643
g2
(g6
S';$\x9cd\xcc-\xcf?'
p644
tp645
Rp646
tp647
a(S'darayya'
p648
g2
(g6
S'Bxt\xdd\x9f\x18\xcf?'
p649
tp650
Rp651
tp652
a(S'syrian protests (march 2016-present)'
p653
g2
(g6
S'\xce\xc2\xdf\xa3\x94\xda\xce?'
p654
tp655
Rp656
tp657
a(S'2015 syrian air force an-26 crash'
p658
g2
(g6
S'q\xdefH\xbd\x8e\xce?'
p659
tp660
Rp661
tp662
a(S'2012 in syria'
p663
g2
(g6
S'\xb1\x98"\x880\x8e\xce?'
p664
tp665
Rp666
tp667
a(S'timeline of the syrian civil war (september\xe2\x80\x93december 2016)'
p668
g2
(g6
S'\xee\x17\x9d\x9fu\x85\xce?'
p669
tp670
Rp671
tp672
a(S'siege of darayya and muadamiyat'
p673
g2
(g6
S'\xc8i(\x01\x07\xfd\xcd?'
p674
tp675
Rp676
tp677
a(S'pattin'
p678
g2
(g6
S'd\xdelm$\xdf\xcd?'
p679
tp680
Rp681
tp682
a(S'ahfad al-rasul brigade'
p683
g2
(g6
S'\xc9\x0b\r\x11\x86\x89\xcd?'
p684
tp685
Rp686
tp687
a(S'jamal maarouf'
p688
g2
(g6
S'\xef\x05\xc0e\x9aE\xcd?'
p689
tp690
Rp691
tp692
a(S'syrian revolutionaries front'
p693
g2
(g6
S'R\x9e\x01\x9b\\A\xcd?'
p694
tp695
Rp696
tp697
a(S'timeline of the syrian civil war (september\xe2\x80\x93december 2011)'
p698
g2
(g6
S'\xecK85\x9b"\xcd?'
p699
tp700
Rp701
tp702
a(S'timeline of the syrian civil war (august\xe2\x80\x93december 2015)'
p703
g2
(g6
S'\xc4z\xe2\xdd}\x8a\xcc?'
p704
tp705
Rp706
tp707
a(S'timeline of the syrian civil war (january\xe2\x80\x93april 2016)'
p708
g2
(g6
S'\x02\xff4<aW\xcc?'
p709
tp710
Rp711
tp712
a(S'al-tulaysiyah'
p713
g2
(g6
S'\t\xe2\xfcq\x84J\xcc?'
p714
tp715
Rp716
tp717
a(S'second siege of wadi deif'
p718
g2
(g6
S'V\xa5$\x9bJD\xcc?'
p719
tp720
Rp721
tp722
a(S'list of massacres in syria'
p723
g2
(g6
S'\xef`p\x0c\x1d\x0b\xcc?'
p724
tp725
Rp726
tp727
a(S'15th special forces division'
p728
g2
(g6
S'\xc5\xc3\x1b\x8e\xa8\xb8\xcb?'
p729
tp730
Rp731
tp732
a(S'qastun'
p733
g2
(g6
S'j\x82 o\xfd\x90\xcb?'
p734
tp735
Rp736
tp737
a(S'hananu revolt'
p738
g2
(g6
S'\x18\xcc\xe9\xd4\xfav\xcb?'
p739
tp740
Rp741
tp742
a(S'northwestern syria offensive (october\xe2\x80\x93november 2015)'
p743
g2
(g6
S'\xeb\xa2\xa6\xcc\x85K\xcb?'
p744
tp745
Rp746
tp747
a(S'syrian civil war'
p748
g2
(g6
S'\xbe\x9dB\x98\xbf0\xcb?'
p749
tp750
Rp751
tp752
a(S'hama governorate'
p753
g2
(g6
S'\xcb\xf6^\xae\xdb\x10\xcb?'
p754
tp755
Rp756
tp757
a(S'ansar al-sham'
p758
g2
(g6
S'\xc0\x83\xba\xdc \xf8\xca?'
p759
tp760
Rp761
tp762
a(S'fahd jassem al-freij'
p763
g2
(g6
S'l\xdbC\x10\x81\xf1\xca?'
p764
tp765
Rp766
tp767
a(S'battle of taftanaz'
p768
g2
(g6
S'xj\x1b--\xf1\xca?'
p769
tp770
Rp771
tp772
a(S'kafr rumah'
p773
g2
(g6
S'\x14G\x89:\x17\xb3\xca?'
p774
tp775
Rp776
tp777
a(S'al-nusra front\xe2\x80\x93srf/hazzm movement conflict'
p778
g2
(g6
S'b\xed\x87n\x8c\x90\xca?'
p779
tp780
Rp781
tp782
a(S'al-ziyarah'
p783
g2
(g6
S'\x98\xd2\xe5A\x16_\xca?'
p784
tp785
Rp786
tp787
a(S'cities and towns during the syrian civil war'
p788
g2
(g6
S'=\xab\xa9QC\x0f\xca?'
p789
tp790
Rp791
tp792
a(S'october 2016 idlib governorate clashes'
p793
g2
(g6
S'\x8dhI\xbd\xf5\xbc\xc9?'
p794
tp795
Rp796
tp797
a(S'december 2011 syrian\xe2\x80\x93turkish border clash'
p798
g2
(g6
S'\x0c\x8b\xe8\x9d\x9b\xbb\xc9?'
p799
tp800
Rp801
tp802
a(S'1st armoured division (syria)'
p803
g2
(g6
S'\x809q\x87E\xba\xc9?'
p804
tp805
Rp806
tp807
a(S'abu omar'
p808
g2
(g6
S'\xfe\xc1\xac\xfd\xd1\x81\xc9?'
p809
tp810
Rp811
tp812
a(S'syrian parliamentary election, 2007'
p813
g2
(g6
S'\xf4\x96t^\xecI\xc9?'
p814
tp815
Rp816
tp817
a(S'1st coastal division'
p818
g2
(g6
S'G\xf9\xb3\x80\x84&\xc9?'
p819
tp820
Rp821
tp822
a(S'syrian revolutionary command council'
p823
g2
(g6
S'\xd7\x0e\x87\xb3\xac\x19\xc9?'
p824
tp825
Rp826
tp827
a(S'hamida nana'
p828
g2
(g6
S'6*\xab*\xfa\xeb\xc8?'
p829
tp830
Rp831
tp832
a(S'maar shamshah'
p833
g2
(g6
S'8F\xd3!+\xdf\xc8?'
p834
tp835
Rp836
tp837
a(S'shinan, syria'
p838
g2
(g6
S'\xcd\xd6z\xfd\x1e\xb9\xc8?'
p839
tp840
Rp841
tp842
a(S'9th armoured division (syria)'
p843
g2
(g6
S'm\xd7\r\n\x98\xb5\xc8?'
p844
tp845
Rp846
tp847
a(S'deir sharqi'
p848
g2
(g6
S'\xfa\x84\x94\xed\xd1\xb2\xc8?'
p849
tp850
Rp851
tp852
a(S'summer 2011 jabal al-zawiya operation'
p853
g2
(g6
S'm\x0b\xcb\xe4!\x97\xc8?'
p854
tp855
Rp856
tp857
a(S'aleppo plateau'
p858
g2
(g6
S'\x7f\xe7m\xfb#c\xc8?'
p859
tp860
Rp861
tp862
a(S'syrian local elections, 2011'
p863
g2
(g6
S'm\x85\xd4\xf2\x14!\xc8?'
p864
tp865
Rp866
tp867
a(S'khan al-shih offensive (october\xe2\x80\x93november 2016)'
p868
g2
(g6
S'\xd4B\xf2\xe5\xbb\xef\xc7?'
p869
tp870
Rp871
tp872
a(S'jisr al-shughur'
p873
g2
(g6
S'7\x9d\x1d\xa4A\xdd\xc7?'
p874
tp875
Rp876
tp877
a(S'jabal al-akrad'
p878
g2
(g6
S'\x12\xbc\x0b\xcb\xdf\xc0\xc7?'
p879
tp880
Rp881
tp882
a(S'battle of aleppo (2012\xe2\x80\x9316)'
p883
g2
(g6
S'\x90\xd5\xbb%\xe8\xb6\xc7?'
p884
tp885
Rp886
tp887
a(S'hadi al abdullah'
p888
g2
(g6
S'\x01wcI\xff\x8d\xc7?'
p889
tp890
Rp891
tp892
a(S'aleppo offensive (november\xe2\x80\x93december 2016)'
p893
g2
(g6
S'\x7f\xf2\xaf\x9b\x02o\xc7?'
p894
tp895
Rp896
tp897
a(S'january 2012 al-midan bombing'
p898
g2
(g6
S'#|X\xd1\x8bj\xc7?'
p899
tp900
Rp901
tp902
a(S'syrian parliamentary election, 2016'
p903
g2
(g6
S'\xa6 \xd7\xef\xd4g\xc7?'
p904
tp905
Rp906
tp907
a(S'hazzm movement'
p908
g2
(g6
S'\xe7D\xc6\xe5vD\xc7?'
p909
tp910
Rp911
tp912
a(S'al-ghab offensive (july\xe2\x80\x93august 2015)'
p913
g2
(g6
S'OX\x90\x03Q1\xc7?'
p914
tp915
Rp916
tp917
a(S'timeline of the syrian civil war (may\xe2\x80\x93august 2011)'
p918
g2
(g6
S'\xcag\xb0\x11P!\xc7?'
p919
tp920
Rp921
tp922
a(S'harem, syria'
p923
g2
(g6
S'\x9e\nR\xff.\x18\xc7?'
p924
tp925
Rp926
tp927
a(S'russian armed forces casualties in syria'
p928
g2
(g6
S'\x97\x1f\x06[\xad\xe1\xc6?'
p929
tp930
Rp931
tp932
a(S'syrian civil war ceasefires'
p933
g2
(g6
S'\xd59\xaa]*\xc3\xc6?'
p934
tp935
Rp936
tp937
a(S'list of mountains of syria'
p938
g2
(g6
S'\x93`\xfe\xf2\xdc\xc1\xc6?'
p939
tp940
Rp941
tp942
a(S'tell mannas'
p943
g2
(g6
S'\x1b\xc0a\xdf6\xb6\xc6?'
p944
tp945
Rp946
tp947
a(S'kafr nabl'
p948
g2
(g6
S'\xf2\t\xd7\xa0\x06l\xc6?'
p949
tp950
Rp951
tp952
a(S"battle of maarrat al-nu'man"
p953
g2
(g6
S"sy'z\xc6&\xc6?"
p954
tp955
Rp956
tp957
a(S'kamuna refugee camp massacre'
p958
g2
(g6
S'w\xe8\x1b\xbc_\x0c\xc6?'
p959
tp960
Rp961
tp962
a(S'zardana'
p963
g2
(g6
S'\xd0\x82\\\\\xa4\xd7\xc5?'
p964
tp965
Rp966
tp967
a(S'hawar kilis operations room'
p968
g2
(g6
S'c"\xb8\xf1\xf3\xc0\xc5?'
p969
tp970
Rp971
tp972
a(S'2013 syrian premier league'
p973
g2
(g6
S'J\x86\xd0\x17\xecy\xc5?'
p974
tp975
Rp976
tp977
a(S'zaina erhaim'
p978
g2
(g6
S'?\xa4"5\xb7f\xc5?'
p979
tp980
Rp981
tp982
a(S'aleppo vilayet'
p983
g2
(g6
S'\xd6\x99wm\xc8^\xc5?'
p984
tp985
Rp986
tp987
a(S'free syrian army'
p988
g2
(g6
S'\x17\x83\xc5\xc1\x1cR\xc5?'
p989
tp990
Rp991
tp992
a(S'aleppo offensive (october\xe2\x80\x93december 2015)'
p993
g2
(g6
S'\x19\xbb\xeb\x02wO\xc5?'
p994
tp995
Rp996
tp997
a(S'4th armoured division (syria)'
p998
g2
(g6
S'\xd9!\xc4\x83\x87\x18\xc5?'
p999
tp1000
Rp1001
tp1002
a(S'khan al-asal'
p1003
g2
(g6
S'\x13\x90|0\x9f\x12\xc5?'
p1004
tp1005
Rp1006
tp1007
a(S'division 30'
p1008
g2
(g6
S'(\x9ab\x1e\x83\r\xc5?'
p1009
tp1010
Rp1011
tp1012
a(S'2011\xe2\x80\x9312 syrian premier league'
p1013
g2
(g6
S'\xb7\xcb\xd7\xdc\xdb\x02\xc5?'
p1014
tp1015
Rp1016
tp1017
a(S'aleppo offensive (august\xe2\x80\x93september 2016)'
p1018
g2
(g6
S'\x85pj\xd7\x9d\xc9\xc4?'
p1019
tp1020
Rp1021
tp1022
a(S'2014 syrian premier league'
p1023
g2
(g6
S'c6\x9d\xdbM\xa9\xc4?'
p1024
tp1025
Rp1026
tp1027
a(S'fatah halab'
p1028
g2
(g6
S'\x9e\x88\xd5\x07V\xa4\xc4?'
p1029
tp1030
Rp1031
tp1032
a(S'sarmada'
p1033
g2
(g6
S'\x1e\xca\xf8\x8f\xbe\x88\xc4?'
p1034
tp1035
Rp1036
tp1037
a(S'aleppo'
p1038
g2
(g6
S'\x15\x02\x0fj\xdds\xc4?'
p1039
tp1040
Rp1041
tp1042
a(S'2013 in syria'
p1043
g2
(g6
S'PRS\xac\x9cf\xc4?'
p1044
tp1045
Rp1046
tp1047
a(S'list of journalists killed during the syrian civil war'
p1048
g2
(g6
S'\x1d\xf2|\xe4\xa5@\xc4?'
p1049
tp1050
Rp1051
tp1052
a(S'2014 al-safira offensive'
p1053
g2
(g6
S'0\x9fh\xf4\xc4<\xc4?'
p1054
tp1055
Rp1056
tp1057
a(S'khan al-shih'
p1058
g2
(g6
S'\xdfQch\x08;\xc4?'
p1059
tp1060
Rp1061
tp1062
a(S'harran (disambiguation)'
p1063
g2
(g6
S'\x830\x02\x19\xd30\xc4?'
p1064
tp1065
Rp1066
tp1067
a(S'movement for justice and development in syria'
p1068
g2
(g6
S'\x98\xdd\xca\xba\x910\xc4?'
p1069
tp1070
Rp1071
tp1072
a(S'ibrahim hananu'
p1073
g2
(g6
S'j\xe7\x15\xe6\x85.\xc4?'
p1074
tp1075
Rp1076
tp1077
a(S'hass, syria'
p1078
g2
(g6
S']\x80y\xec\xea\x1a\xc4?'
p1079
tp1080
Rp1081
tp1082
a(S'armenian diocese of beroea'
p1083
g2
(g6
S'\x13\xa3\xedU\xef\x08\xc4?'
p1084
tp1085
Rp1086
tp1087
a(S'13th division (syrian rebel group)'
p1088
g2
(g6
S'\x84:\xc9\xbc[\xf8\xc3?'
p1089
tp1090
Rp1091
tp1092
a(S'syrian national resistance'
p1093
g2
(g6
S'c\xfa\xf6\xde\xa3\xec\xc3?'
p1094
tp1095
Rp1096
tp1097
a(S'operation canopus star'
p1098
g2
(g6
S'Y\xabKxh\xd8\xc3?'
p1099
tp1100
Rp1101
tp1102
a(S'dead cities'
p1103
g2
(g6
S'\xae\x8f1Q\xaa\xc0\xc3?'
p1104
tp1105
Rp1106
tp1107
a(S'17th division (syria)'
p1108
g2
(g6
S'Y/\xe0E\x01\x8f\xc3?'
p1109
tp1110
Rp1111
tp1112
a(S'enab baladi'
p1113
g2
(g6
S'\x87u\x94%\x01|\xc3?'
p1114
tp1115
Rp1116
tp1117
a(S'list of heritage sites damaged during the syrian civil war'
p1118
g2
(g6
S'\xbfB\xeffTz\xc3?'
p1119
tp1120
Rp1121
tp1122
a(S'omayya sc'
p1123
g2
(g6
S'p\xfa\x98\x14\xd2W\xc3?'
p1124
tp1125
Rp1126
tp1127
a(S'daraa and as-suwayda offensive (june 2015)'
p1128
g2
(g6
S'\x0f\x10\x130\x8eR\xc3?'
p1129
tp1130
Rp1131
tp1132
a(S'list of massacres during the syrian civil war'
p1133
g2
(g6
S'\xccM;\xc6=L\xc3?'
p1134
tp1135
Rp1136
tp1137
a(S'russian military intervention in syria'
p1138
g2
(g6
S'2\xaf\xc8(PH\xc3?'
p1139
tp1140
Rp1141
tp1142
a(S'districts of syria'
p1143
g2
(g6
S'\xe6\xc7\xa2\xe1\x191\xc3?'
p1144
tp1145
Rp1146
tp1147
a(S'syrian opposition'
p1148
g2
(g6
S'\x0c\x0fqAh\x1b\xc3?'
p1149
tp1150
Rp1151
tp1152
a(S'syria'
p1153
g2
(g6
S'\xa806\x86\xe9\x15\xc3?'
p1154
tp1155
Rp1156
tp1157
a(S'siege of aleppo (1980)'
p1158
g2
(g6
S'\xa1Z\x99\xeb\x8a\x14\xc3?'
p1159
tp1160
Rp1161
tp1162
a(S'afrin canton'
p1163
g2
(g6
S'+A\x95\xff#\x11\xc3?'
p1164
tp1165
Rp1166
tp1167
a(S'2009\xe2\x80\x9310 syrian premier league'
p1168
g2
(g6
S'\xad\x9e`\x00\xff\x0c\xc3?'
p1169
tp1170
Rp1171
tp1172
a(S'2016 aleppo summer campaign'
p1173
g2
(g6
S'\xaa\xf6\xd5\xceE\x0b\xc3?'
p1174
tp1175
Rp1176
tp1177
a(S'turkman bareh'
p1178
g2
(g6
S'\x8c\x8d\xde\x17\x06\x07\xc3?'
p1179
tp1180
Rp1181
tp1182
a(S'local coordination committees of syria'
p1183
g2
(g6
S'\x17\xf8a\x13\x8d\xfa\xc2?'
p1184
tp1185
Rp1186
tp1187
a(S'timeline of the syrian civil war (august\xe2\x80\x93december 2014)'
p1188
g2
(g6
S'\x88\x9fJ\xaei\xfa\xc2?'
p1189
tp1190
Rp1191
tp1192
a(S'daraa offensive (june\xe2\x80\x93july 2015)'
p1193
g2
(g6
S'\x02\x9fY\xfe\xe1\xe7\xc2?'
p1194
tp1195
Rp1196
tp1197
a(S'state of aleppo'
p1198
g2
(g6
S'U\xbb\x96:\x08\xde\xc2?'
p1199
tp1200
Rp1201
tp1202
a(S'jarez'
p1203
g2
(g6
S'\x1aB\x18\xcdF\xc2\xc2?'
p1204
tp1205
Rp1206
tp1207
a(S'military intelligence directorate (syria)'
p1208
g2
(g6
S'1z/\xd5f\xa7\xc2?'
p1209
tp1210
Rp1211
tp1212
a(S'anadan'
p1213
g2
(g6
S'p$\x18G\xa4\x82\xc2?'
p1214
tp1215
Rp1216
tp1217
a(S'inter-rebel conflict during the syrian civil war'
p1218
g2
(g6
S"\x81'\xb6~\xfbi\xc2?"
p1219
tp1220
Rp1221
tp1222
a(S'vehicle registration plates of syria'
p1223
g2
(g6
S'b.\x08U\xdce\xc2?'
p1224
tp1225
Rp1226
tp1227
a(S'nawaf al-fares'
p1228
g2
(g6
S"\x18Ug'\x07c\xc2?"
p1229
tp1230
Rp1231
tp1232
a(S'jaysh al-nasr'
p1233
g2
(g6
S'\xc3O\xf0\x9b\x97^\xc2?'
p1234
tp1235
Rp1236
tp1237
a(S'maryamin, afrin'
p1238
g2
(g6
S'\xa2\xdb\x80\xa7\xca@\xc2?'
p1239
tp1240
Rp1241
tp1242
a(S'meidan ekbis'
p1243
g2
(g6
S'Du)\xf7\xc97\xc2?'
p1244
tp1245
Rp1246
tp1247
a(S'2012 aleppo governorate clashes'
p1248
g2
(g6
S'3\xb1\xc7\xb5^3\xc2?'
p1249
tp1250
Rp1251
tp1252
a(S'tell touqan'
p1253
g2
(g6
S'kc\xfe\xac\x8e)\xc2?'
p1254
tp1255
Rp1256
tp1257
a(S'ibrahim hamidi'
p1258
g2
(g6
S'\xa1o\x8e\xc3T%\xc2?'
p1259
tp1260
Rp1261
tp1262
a(S'history of syria'
p1263
g2
(g6
S'\xab\x16\xeb(N\x16\xc2?'
p1264
tp1265
Rp1266
tp1267
a(S'timeline of the syrian civil war (may\xe2\x80\x93december 2013)'
p1268
g2
(g6
S'\x81J\xa2\x9c\xb1\r\xc2?'
p1269
tp1270
Rp1271
tp1272
a(S'nbc news team kidnapping in syria'
p1273
g2
(g6
S'\xa3\xd6\xdb\xf93\xe6\xc1?'
p1274
tp1275
Rp1276
tp1277
a(S'list of members of the parliament of syria, 1961'
p1278
g2
(g6
S'\x93\x0c\x05`\xab\xc0\xc1?'
p1279
tp1280
Rp1281
tp1282
a(S'syrian interim government'
p1283
g2
(g6
S'|S\xcc\xd7J\xbc\xc1?'
p1284
tp1285
Rp1286
tp1287
a(S'2016 in aviation'
p1288
g2
(g6
S'\xe34\xa0\xc5(\xb2\xc1?'
p1289
tp1290
Rp1291
tp1292
a(S'aleppo offensive (september\xe2\x80\x93october 2016)'
p1293
g2
(g6
S'\xd1n\x9bp\x96\xae\xc1?'
p1294
tp1295
Rp1296
tp1297
a(S'battle of khirbet al-joz'
p1298
g2
(g6
S't\x88\xf4\x87U\xab\xc1?'
p1299
tp1300
Rp1301
tp1302
a(S'2012 murder on the syrian-turkish border'
p1303
g2
(g6
S'\xdfZ\xa45\x99\x98\xc1?'
p1304
tp1305
Rp1306
tp1307
a(S'ghaytun'
p1308
g2
(g6
S'\xb2\xc5\xcf\xb7\tj\xc1?'
p1309
tp1310
Rp1311
tp1312
a(S'melkite greek catholic archeparchy of aleppo'
p1313
g2
(g6
S'p\x14$b_J\xc1?'
p1314
tp1315
Rp1316
tp1317
a(S'battle of harem'
p1318
g2
(g6
S'\x9c\xcc[\xce\x03I\xc1?'
p1319
tp1320
Rp1321
tp1322
a(S'ihtaimlat'
p1323
g2
(g6
S'\xb9\x9e\xa7^\xcfD\xc1?'
p1324
tp1325
Rp1326
tp1327
a(S'list of terrorist incidents in syria'
p1328
g2
(g6
S'\xd2\xe8r\xee\xc49\xc1?'
p1329
tp1330
Rp1331
tp1332
a(S'menagh'
p1333
g2
(g6
S'\xb9\xc5t\x8b\xe54\xc1?'
p1334
tp1335
Rp1336
tp1337
a(S'darat izza'
p1338
g2
(g6
S'9\x11\x8bU\x7f(\xc1?'
p1339
tp1340
Rp1341
tp1342
a(S"mar'i pasha al-mallah"
p1343
g2
(g6
S'\xf4\xbf\x01\xa66&\xc1?'
p1344
tp1345
Rp1346
tp1347
a(S'hayyah kabirah'
p1348
g2
(g6
S'\xaa\x8d\xea\xe1\x00$\xc1?'
p1349
tp1350
Rp1351
tp1352
a(S'duwaybiq'
p1353
g2
(g6
S'\x99\xfd6\xa6f\x1c\xc1?'
p1354
tp1355
Rp1356
tp1357
a(S'atarib'
p1358
g2
(g6
S'J\xeb\x04l\xe7\x1a\xc1?'
p1359
tp1360
Rp1361
tp1362
a(S'northern aleppo offensive (february 2016)'
p1363
g2
(g6
S'\xb2\x1d2+\xfd\x14\xc1?'
p1364
tp1365
Rp1366
tp1367
a(S'aleppo revolutionary council'
p1368
g2
(g6
S'y\x9dv\x17v\x14\xc1?'
p1369
tp1370
Rp1371
tp1372
a(S'2015\xe2\x80\x9316 latakia offensive'
p1373
g2
(g6
S'\x16KM\x95)\x0f\xc1?'
p1374
tp1375
Rp1376
tp1377
a(S'afrin, syria'
p1378
g2
(g6
S'u\xcf&z4\x07\xc1?'
p1379
tp1380
Rp1381
tp1382
a(S'kafra, syria'
p1383
g2
(g6
S'R\xa1mUe\xf4\xc0?'
p1384
tp1385
Rp1386
tp1387
a(S'ahmad badreddin hassoun'
p1388
g2
(g6
S'\x94\x84=0\x04\xef\xc0?'
p1389
tp1390
Rp1391
tp1392
a(S'al-zahraa'
p1393
g2
(g6
S'"\x0eZ!e\xed\xc0?'
p1394
tp1395
Rp1396
tp1397
a(S'sectarianism and minorities in the syrian civil war'
p1398
g2
(g6
S'\xed\xfd\xc8j\x14\xe2\xc0?'
p1399
tp1400
Rp1401
tp1402
a(S'syrian islamic liberation front'
p1403
g2
(g6
S'p4\xf1ys\xe0\xc0?'
p1404
tp1405
Rp1406
tp1407
a(S'kaljibrin'
p1408
g2
(g6
S'2\xa7!\xf5\xfb\xde\xc0?'
p1409
tp1410
Rp1411
tp1412
a(S'iso 3166-2:sy'
p1413
g2
(g6
S'\x1f\xb9\x01\\\xcc\xd4\xc0?'
p1414
tp1415
Rp1416
tp1417
a(S'siege of aleppo'
p1418
g2
(g6
S'\xc7P\x9cJ\x0f\xc1\xc0?'
p1419
tp1420
Rp1421
tp1422
a(S'al-fayruziyah'
p1423
g2
(g6
S'x40\x0f\xd7\xbc\xc0?'
p1424
tp1425
Rp1426
tp1427
a(S'hassan hamada'
p1428
g2
(g6
S'\xf5B\x99y\xab\xb0\xc0?'
p1429
tp1430
Rp1431
tp1432
a(S'timeline of the arab spring'
p1433
g2
(g6
S'\x8f\xbdHLc\xa7\xc0?'
p1434
tp1435
Rp1436
tp1437
a(S'tatiyah'
p1438
g2
(g6
S'v&\x83\x7f\x96\xa6\xc0?'
p1439
tp1440
Rp1441
tp1442
a(S'naddah'
p1443
g2
(g6
S'v&\x83\x7f\x96\xa6\xc0?'
p1444
tp1445
Rp1446
tp1447
a(S'2016 hama offensive'
p1448
g2
(g6
S'\xa0\xb0\xe0\x0e\xfe\x8f\xc0?'
p1449
tp1450
Rp1451
tp1452
a(S'nayarah'
p1453
g2
(g6
S'\xecZ\xda\xd7\xf0\x8b\xc0?'
p1454
tp1455
Rp1456
tp1457
a(S'nubl'
p1458
g2
(g6
S'\xb2\xf4;\t\xcd\x88\xc0?'
p1459
tp1460
Rp1461
tp1462
a(S'aleppo (disambiguation)'
p1463
g2
(g6
S'\xbe\x93\xb8\xd5)u\xc0?'
p1464
tp1465
Rp1466
tp1467
a(S'combat operations in 2016 during the battle of aleppo'
p1468
g2
(g6
S'\xdb\xa8\xa7\xac\x0ed\xc0?'
p1469
tp1470
Rp1471
tp1472
a(S'salaheddine district'
p1473
g2
(g6
S'\xfd1F0\x90_\xc0?'
p1474
tp1475
Rp1476
tp1477
a(S'jalaa sc'
p1478
g2
(g6
S'\xa3\x9f\\/\xde]\xc0?'
p1479
tp1480
Rp1481
tp1482
a(S'aleppo offensive (october\xe2\x80\x93december 2013)'
p1483
g2
(g6
S'\x8a\xf8\xb6\x9f\xfeR\xc0?'
p1484
tp1485
Rp1486
tp1487
a(S'al-malikiyah, azaz'
p1488
g2
(g6
S'A\x84{\xd0\xf8;\xc0?'
p1489
tp1490
Rp1491
tp1492
a(S'tell rahal'
p1493
g2
(g6
S' \n\x17QE6\xc0?'
p1494
tp1495
Rp1496
tp1497
a(S'oqayba'
p1498
g2
(g6
S'\x04wc\xf0\x02"\xc0?'
p1499
tp1500
Rp1501
tp1502
a(S'sarrin'
p1503
g2
(g6
S'\rl3\xea\x10!\xc0?'
p1504
tp1505
Rp1506
tp1507
a(S'dayr hafir'
p1508
g2
(g6
S'\x9b\x94\xd26\xac\x1b\xc0?'
p1509
tp1510
Rp1511
tp1512
a.