(lp0
(S'imagenets'
p1
cnumpy.core.multiarray
scalar
p2
(cnumpy
dtype
p3
(S'f8'
p4
I0
I1
tp5
Rp6
(I3
S'<'
p7
NNNI-1
I-1
I0
tp8
bS'\x02\x00\x00\x00\x00\x00\xf0?'
p9
tp10
Rp11
tp12
a(S'gui'
p13
g2
(g6
S'\xed\x9c\x1e\xb5\xdcK\xd6?'
p14
tp15
Rp16
tp17
a(S'gui minhai'
p18
g2
(g6
S'\xab\x8cu\xda\x1a\xfd\xd4?'
p19
tp20
Rp21
tp22
a(S'comparison of s.m.a.r.t. tools'
p23
g2
(g6
S'k\x87b\xcat\xd1\xd4?'
p24
tp25
Rp26
tp27
a(S'list of information graphics software'
p28
g2
(g6
S'\x94:U5?\xa3\xd4?'
p29
tp30
Rp31
tp32
a(S'gui boratto'
p33
g2
(g6
S'\x83\xe8\x19\x81]\x9e\xd4?'
p34
tp35
Rp36
tp37
a(S'list of programming language researchers'
p38
g2
(g6
S'P\x01F\x0e\x0e\x03\xd4?'
p39
tp40
Rp41
tp42
a(S'integration tree'
p43
g2
(g6
S'\xe8\xed\x0cU\xb6\xe1\xd3?'
p44
tp45
Rp46
tp47
a(S'gui gui'
p48
g2
(g6
S'\x16\x90\x8dY\x06>\xd3?'
p49
tp50
Rp51
tp52
a(S"gui d'ussel"
p53
g2
(g6
S'\xd3\xf5\x1b\x81\xc7\x82\xd2?'
p54
tp55
Rp56
tp57
a(S'as aventuras de gui & estopa'
p58
g2
(g6
S'\xf5L\xca\xfb\xc2<\xd2?'
p59
tp60
Rp61
tp62
a(S'gui de cavalhon'
p63
g2
(g6
S'\xbdQ\xe5w\x8c/\xd2?'
p64
tp65
Rp66
tp67
a(S'wxhaskell'
p68
g2
(g6
S'\xa4\x1d30F\xfc\xd1?'
p69
tp70
Rp71
tp72
a(S'jan roelfs'
p73
g2
(g6
S'\xc9\xc1y}\xd0\xed\xd1?'
p74
tp75
Rp76
tp77
a(S'adg excellence in production design award'
p78
g2
(g6
S'\xc93\xdec\xfe\xc3\xd1?'
p79
tp80
Rp81
tp82
a(S'graphical user interface builder'
p83
g2
(g6
S' l\xa5`\x83\xba\xd1?'
p84
tp85
Rp86
tp87
a(S'gui (food)'
p88
g2
(g6
S'\xf4\x0e\xe5\x94\x94\x8f\xd1?'
p89
tp90
Rp91
tp92
a(S'platform-independent gui library'
p93
g2
(g6
S'\xd9\xc8N\x9b\xb2u\xd1?'
p94
tp95
Rp96
tp97
a(S'squish (froglogic)'
p98
g2
(g6
S'\xe3\xf4iCM\xe7\xd0?'
p99
tp100
Rp101
tp102
a(S'pater sparrow'
p103
g2
(g6
S'\xdb\xfa\xabY\xc5\xb0\xd0?'
p104
tp105
Rp106
tp107
a(S'corel designer'
p108
g2
(g6
S'\xa7\xd2\xb7\xf8\xdd\xab\xd0?'
p109
tp110
Rp111
tp112
a(S'richard sylbert'
p113
g2
(g6
S'\xad\xa14\xd1QQ\xd0?'
p114
tp115
Rp116
tp117
a(S'gary kordan'
p118
g2
(g6
S'kKJ\x1a\xa2;\xd0?'
p119
tp120
Rp121
tp122
a(S'chris tsirgiotis'
p123
g2
(g6
S'\xbc\xc6\xf5\xe2&\x1b\xd0?'
p124
tp125
Rp126
tp127
a(S'list of video game designers'
p128
g2
(g6
S'\xc6-\x91\xbcX\x04\xd0?'
p129
tp130
Rp131
tp132
a(S'comparison of packet analyzers'
p133
g2
(g6
S'G5\x9cf\x9e\xe7\xcf?'
p134
tp135
Rp136
tp137
a(S'adobe source libraries'
p138
g2
(g6
S'\x12\xe9\xa5!?\xdb\xcf?'
p139
tp140
Rp141
tp142
a(S'list of artistic occupations'
p143
g2
(g6
S']\xe2Lg\x13\xcc\xcf?'
p144
tp145
Rp146
tp147
a(S'list of supernatural beings in chinese folklore'
p148
g2
(g6
S'\xd1V\xe4\xac>\x9c\xcf?'
p149
tp150
Rp151
tp152
a(S'costume designers guild award for best costume design \xe2\x80\x93 contemporary tv series'
p153
g2
(g6
S'\xcb\xd1E\xc7\xd6\x90\xcf?'
p154
tp155
Rp156
tp157
a(S'comparison of usenet newsreaders'
p158
g2
(g6
S'\x19%\t\xa1\x9f\r\xcf?'
p159
tp160
Rp161
tp162
a(S'rick heinrichs'
p163
g2
(g6
S'\x83\xb2.K\x03\xea\xce?'
p164
tp165
Rp166
tp167
a(S'days of our own'
p168
g2
(g6
S'`\xf1\xa0J_\xe0\xce?'
p169
tp170
Rp171
tp172
a(S'graphical user interface testing'
p173
g2
(g6
S'\xd2g\x9cx\xa5\xa7\xce?'
p174
tp175
Rp176
tp177
a(S'opencv'
p178
g2
(g6
S'\xb4\x18\x0c?Y{\xce?'
p179
tp180
Rp181
tp182
a(S'comparison of internet relay chat clients'
p183
g2
(g6
S'\xf2\xee\xa5\xf9\x9eS\xce?'
p184
tp185
Rp186
tp187
a(S'ranorex'
p188
g2
(g6
S'\x8e\xc6\xaauJD\xce?'
p189
tp190
Rp191
tp192
a(S'computer vision'
p193
g2
(g6
S'\xa0\xf6^.V-\xce?'
p194
tp195
Rp196
tp197
a(S'maveryx'
p198
g2
(g6
S'ZP/\xfd\xb8\x1f\xce?'
p199
tp200
Rp201
tp202
a(S'gui guerrejat'
p203
g2
(g6
S'\xb3o`\xae\xb8\x1f\xce?'
p204
tp205
Rp206
tp207
a(S'ma gui (martial artist)'
p208
g2
(g6
S'\xe0\x1eL\xe8\x8e\x19\xce?'
p209
tp210
Rp211
tp212
a(S'fltk'
p213
g2
(g6
S'\x9d\xe3\t\xa5H\x05\xce?'
p214
tp215
Rp216
tp217
a(S'gui brandao'
p218
g2
(g6
S'\x15;o\x08\xd7\xf5\xcd?'
p219
tp220
Rp221
tp222
a(S'pdftk'
p223
g2
(g6
S'\xc7\x97\xe42<\xf3\xcd?'
p224
tp225
Rp226
tp227
a(S'openvx'
p228
g2
(g6
S'K\x9et)\xa7\x86\xcd?'
p229
tp230
Rp231
tp232
a(S'r commander'
p233
g2
(g6
S'\x14\xbb\xda\x84(+\xcd?'
p234
tp235
Rp236
tp237
a(S'hiroji kiyotake'
p238
g2
(g6
S'\xce\xadG\xee!\xf2\xcc?'
p239
tp240
Rp241
tp242
a(S'xvt'
p243
g2
(g6
S'\x9fK\x9f4\xb6\xec\xcc?'
p244
tp245
Rp246
tp247
a(S'software prototyping'
p248
g2
(g6
S'\xc0XO\x87N\xd2\xcc?'
p249
tp250
Rp251
tp252
a(S'comparison of statistical packages'
p253
g2
(g6
S'\xf4\xae\x13\x97\xaa\xc8\xcc?'
p254
tp255
Rp256
tp257
a(S'princess dowager helan'
p258
g2
(g6
S'\x16R\x91N\x14\xbe\xcc?'
p259
tp260
Rp261
tp262
a(S'andy bialk'
p263
g2
(g6
S'_s\xbd\xb4\xd7\xaa\xcc?'
p264
tp265
Rp266
tp267
a(S'ray game designer 2'
p268
g2
(g6
S'\xf7\xae\xad\xba\xf5\xa5\xcc?'
p269
tp270
Rp271
tp272
a(S'xblite'
p273
g2
(g6
S'X\xee/\xd8\xa7}\xcc?'
p274
tp275
Rp276
tp277
a(S'monodevelop'
p278
g2
(g6
S'\xa1\xcf\xcf\xf9\x7fj\xcc?'
p279
tp280
Rp281
tp282
a(S'designer people'
p283
g2
(g6
S'eXOw\xc9=\xcc?'
p284
tp285
Rp286
tp287
a(S'integrating vision toolkit'
p288
g2
(g6
S'i\xb0\xe9\xac\xec8\xcc?'
p289
tp290
Rp291
tp292
a(S'gui youguang'
p293
g2
(g6
S'w\xe3?\xe3\x904\xcc?'
p294
tp295
Rp296
tp297
a(S'cross-platform'
p298
g2
(g6
S'is\xf1\xea\x98\x12\xcc?'
p299
tp300
Rp301
tp302
a(S'unixodbc'
p303
g2
(g6
S'\xaa\x13\x1e\xa9T\x00\xcc?'
p304
tp305
Rp306
tp307
a(S'nobuteru y\xc5\xabki'
p308
g2
(g6
S'\xd8\x03Jmc\xfc\xcb?'
p309
tp310
Rp311
tp312
a(S'take this house and sell it'
p313
g2
(g6
S'@\x8b\xa2\xe1\xf9\xf8\xcb?'
p314
tp315
Rp316
tp317
a(S'smartmontools'
p318
g2
(g6
S'Ill6\x87\xf8\xcb?'
p319
tp320
Rp321
tp322
a(S'ujml'
p323
g2
(g6
S'\xbe\xbd\x84/\\\xd7\xcb?'
p324
tp325
Rp326
tp327
a(S'kazuma kaneko'
p328
g2
(g6
S'\x1b\xb7&\xe4\xa4\xd5\xcb?'
p329
tp330
Rp331
tp332
a(S'osadl'
p333
g2
(g6
S' \xf3\xd7\xca\xce\xd2\xcb?'
p334
tp335
Rp336
tp337
a(S'list of art center college of design people'
p338
g2
(g6
S'\x93\xc3_%\xb5\xc1\xcb?'
p339
tp340
Rp341
tp342
a(S'invesalius'
p343
g2
(g6
S' \x16HE\x88\xbe\xcb?'
p344
tp345
Rp346
tp347
a(S'robot software'
p348
g2
(g6
S'\xec\xd0\x16\xbc:\x89\xcb?'
p349
tp350
Rp351
tp352
a(S'david hackl'
p353
g2
(g6
S'\x03\x83\x9c\xfdMs\xcb?'
p354
tp355
Rp356
tp357
a(S'standard widget toolkit'
p358
g2
(g6
S'\xb0\x91\xb6\xde\xaaj\xcb?'
p359
tp360
Rp361
tp362
a(S'opengem'
p363
g2
(g6
S'\xe8\xf3\x8e\xd8\x88U\xcb?'
p364
tp365
Rp366
tp367
a(S'nuredin loxha'
p368
g2
(g6
S'\x19f\xca\xf8$I\xcb?'
p369
tp370
Rp371
tp372
a(S'vision guided robotic systems'
p373
g2
(g6
S'\xf4\xa5z\xa8\x91=\xcb?'
p374
tp375
Rp376
tp377
a(S'list of alumni of the fashion institute of technology'
p378
g2
(g6
S'\x1e\xf3P}\xc1\x19\xcb?'
p379
tp380
Rp381
tp382
a(S"bertran folcon d'avignon"
p383
g2
(g6
S'\x19v\xdc\x14\x89\xe8\xca?'
p384
tp385
Rp386
tp387
a(S'paper prototyping'
p388
g2
(g6
S'\xda\xf3\x99p>\xe0\xca?'
p389
tp390
Rp391
tp392
a(S'vittorio gui'
p393
g2
(g6
S'\xd5*\xf5\x94F\xd3\xca?'
p394
tp395
Rp396
tp397
a(S'history of the graphical user interface'
p398
g2
(g6
S'\xcfO?\xc1\x11\xd3\xca?'
p399
tp400
Rp401
tp402
a(S'li gui'
p403
g2
(g6
S'\x97\xf4\xd9\xdeH\xcb\xca?'
p404
tp405
Rp406
tp407
a(S'open-source robotics'
p408
g2
(g6
S'\xaa\xaf?\xfe\xbf\x96\xca?'
p409
tp410
Rp411
tp412
a(S'outline of computer vision'
p413
g2
(g6
S'\x8ba\xffX\xcbR\xca?'
p414
tp415
Rp416
tp417
a(S'list of .net libraries and frameworks'
p418
g2
(g6
S'b{7YDD\xca?'
p419
tp420
Rp421
tp422
a(S'olex2'
p423
g2
(g6
S'\xe7:|X\x821\xca?'
p424
tp425
Rp426
tp427
a(S'wxpython'
p428
g2
(g6
S'\xdcCy\x1c,+\xca?'
p429
tp430
Rp431
tp432
a(S'telefinder'
p433
g2
(g6
S'B\xc2\xc8#\x18\x1e\xca?'
p434
tp435
Rp436
tp437
a(S'index of software engineering articles'
p438
g2
(g6
S'z:lT\x94\x12\xca?'
p439
tp440
Rp441
tp442
a(S'aforge.net'
p443
g2
(g6
S'\xb7\xcf\xb8\n\x9a\xec\xc9?'
p444
tp445
Rp446
tp447
a(S'xara photo & graphic designer'
p448
g2
(g6
S'VM\xc0\xa0\xe6\xdf\xc9?'
p449
tp450
Rp451
tp452
a(S'comparison of mobile internet relay chat clients'
p453
g2
(g6
S'\x97\xc4\xb8\x1b;\xde\xc9?'
p454
tp455
Rp456
tp457
a(S'he gui'
p458
g2
(g6
S'\xc51K\xd3\x89\xd8\xc9?'
p459
tp460
Rp461
tp462
a(S'rob heinsoo'
p463
g2
(g6
S'fX%6c\xca\xc9?'
p464
tp465
Rp466
tp467
a(S'suttirat anne larlarb'
p468
g2
(g6
S'P\x92\x8eR\x98\x9b\xc9?'
p469
tp470
Rp471
tp472
a(S'college of optometrists in vision development'
p473
g2
(g6
S'\xf8RI\xc0\x18]\xc9?'
p474
tp475
Rp476
tp477
a(S'vectorlinux'
p478
g2
(g6
S'\xac\xff\x03B\x84Y\xc9?'
p479
tp480
Rp481
tp482
a(S'timesys'
p483
g2
(g6
S'\x88\xfb\xe5/\xdcO\xc9?'
p484
tp485
Rp486
tp487
a(S'metalink'
p488
g2
(g6
S'c\x02\x03\xa0\xacM\xc9?'
p489
tp490
Rp491
tp492
a(S'source code'
p493
g2
(g6
S'\xf57\xc3[\x95A\xc9?'
p494
tp495
Rp496
tp497
a(S'list of new zealand designers and artisans'
p498
g2
(g6
S'\xd4h\x86\x19\xfd>\xc9?'
p499
tp500
Rp501
tp502
a(S'luigi gui'
p503
g2
(g6
S'\xcfX\xec\xb8\xa06\xc9?'
p504
tp505
Rp506
tp507
a(S'list of russian aerospace engineers'
p508
g2
(g6
S'\xafprF\xa9.\xc9?'
p509
tp510
Rp511
tp512
a(S'andrew zisserman'
p513
g2
(g6
S'\x07?6\x13D,\xc9?'
p514
tp515
Rp516
tp517
a(S'world vision international'
p518
g2
(g6
S'\x95\x07Y\'i"\xc9?'
p519
tp520
Rp521
tp522
a(S'linux'
p523
g2
(g6
S'+\x8c\xbc\rk\x1c\xc9?'
p524
tp525
Rp526
tp527
a(S'list of linux adopters'
p528
g2
(g6
S'\x04O\\\xa7\xeb\x1a\xc9?'
p529
tp530
Rp531
tp532
a(S'liu wanchuan'
p533
g2
(g6
S'\xd5-2R_\x10\xc9?'
p534
tp535
Rp536
tp537
a(S'mirela rupic'
p538
g2
(g6
S'\xef^\xb5b\xa2\xf7\xc8?'
p539
tp540
Rp541
tp542
a(S'chromophobia (album)'
p543
g2
(g6
S'\x99.}x\xc0\xf0\xc8?'
p544
tp545
Rp546
tp547
a(S'care-providing robot friend'
p548
g2
(g6
S'Y\x1d\xa2\x12\xf9\xe5\xc8?'
p549
tp550
Rp551
tp552
a(S'steve boeddeker'
p553
g2
(g6
S'oq\xd1\xaaq\xda\xc8?'
p554
tp555
Rp556
tp557
a(S'software vision mixer'
p558
g2
(g6
S'\xc8\xce\xbe\x91,\xd4\xc8?'
p559
tp560
Rp561
tp562
a(S'comparison of gui testing tools'
p563
g2
(g6
S'\xbf\xcb&\x80\xc2\xb4\xc8?'
p564
tp565
Rp566
tp567
a(S'list of free and open-source software packages'
p568
g2
(g6
S'\x97T\x82\x06\x7f\xaa\xc8?'
p569
tp570
Rp571
tp572
a(S'automatix'
p573
g2
(g6
S',\x8d\xaf\xabE\xa5\xc8?'
p574
tp575
Rp576
tp577
a(S"peire d'ussel"
p578
g2
(g6
S'\xa7B\xa7\xc8\x1a\xa0\xc8?'
p579
tp580
Rp581
tp582
a(S'linux adoption'
p583
g2
(g6
S']\x1e\xcf\x16W\x86\xc8?'
p584
tp585
Rp586
tp587
a(S'windows subsystem for linux'
p588
g2
(g6
S'\xde\x98\xb1\x13\x9b\x80\xc8?'
p589
tp590
Rp591
tp592
a(S'emperor daowu of northern wei'
p593
g2
(g6
S'\xc6\x9a\xfb5\xa7~\xc8?'
p594
tp595
Rp596
tp597
a(S'vision'
p598
g2
(g6
S'\x93,\xcdgk}\xc8?'
p599
tp600
Rp601
tp602
a(S'application framework'
p603
g2
(g6
S'\xea\x1d\xdc\xc6\x9d{\xc8?'
p604
tp605
Rp606
tp607
a(S'hp winrunner'
p608
g2
(g6
S'\xb2\x8a\xdb5\xb2z\xc8?'
p609
tp610
Rp611
tp612
a(S'k\xc5\x8dsuke fujishima'
p613
g2
(g6
S'\xc1\xc9Nody\xc8?'
p614
tp615
Rp616
tp617
a(S'gui (vessel)'
p618
g2
(g6
S'!\xe7O\x82Rw\xc8?'
p619
tp620
Rp621
tp622
a(S'toshiyuki kubooka'
p623
g2
(g6
S'_d\x0c\xd7\xcbl\xc8?'
p624
tp625
Rp626
tp627
a(S'steve peters (game designer)'
p628
g2
(g6
S';`\xd5\x89\xb1h\xc8?'
p629
tp630
Rp631
tp632
a(S'software blueprint'
p633
g2
(g6
S'\x9d\x02\xf1\xa3{f\xc8?'
p634
tp635
Rp636
tp637
a(S'elle style awards'
p638
g2
(g6
S'\xb9\xb4\xe3\x19\xa7c\xc8?'
p639
tp640
Rp641
tp642
a(S'widestudio'
p643
g2
(g6
S'\x96\xef&\xd0\x16U\xc8?'
p644
tp645
Rp646
tp647
a(S'soliton technologies'
p648
g2
(g6
S':\xc8\xf7-\x13R\xc8?'
p649
tp650
Rp651
tp652
a(S'mkvtoolnix'
p653
g2
(g6
S'\xdf\xac\x92\xed\xe2Q\xc8?'
p654
tp655
Rp656
tp657
a(S'international design awards'
p658
g2
(g6
S'mm h\xd0H\xc8?'
p659
tp660
Rp661
tp662
a(S'2020 vision'
p663
g2
(g6
S'\x03G\xb2\x12\xb6G\xc8?'
p664
tp665
Rp666
tp667
a(S'tortoise (disambiguation)'
p668
g2
(g6
S':\xf2\xa4\x98\xaa=\xc8?'
p669
tp670
Rp671
tp672
a(S'supercollider'
p673
g2
(g6
S'\x8fA\xef\xe35=\xc8?'
p674
tp675
Rp676
tp677
a(S'world vision australia'
p678
g2
(g6
S'\xa5bEC\xad:\xc8?'
p679
tp680
Rp681
tp682
a(S'tuxmathscrabble'
p683
g2
(g6
S'\xbb\x8d\x91\xa8e6\xc8?'
p684
tp685
Rp686
tp687
a(S'wireframesketcher'
p688
g2
(g6
S'\xd27S\x90#\x1d\xc8?'
p689
tp690
Rp691
tp692
a(S'designer label'
p693
g2
(g6
S'\xcb\x05$\xf7K\x0b\xc8?'
p694
tp695
Rp696
tp697
a(S'programming by demonstration'
p698
g2
(g6
S'\x07k&\xc2K\x01\xc8?'
p699
tp700
Rp701
tp702
a(S'nico marlet'
p703
g2
(g6
S'\xc1Z\t?\x98\xfd\xc7?'
p704
tp705
Rp706
tp707
a(S'lambdanative'
p708
g2
(g6
S'{\x99*\x97\x8e\xf6\xc7?'
p709
tp710
Rp711
tp712
a(S"sloane u'ren"
p713
g2
(g6
S'[\x12\xb8\x88G\xf6\xc7?'
p714
tp715
Rp716
tp717
a(S'computer programming'
p718
g2
(g6
S's3\xb1T\xaf\xeb\xc7?'
p719
tp720
Rp721
tp722
a(S'list of cranbrook academy of art alumni and faculty'
p723
g2
(g6
S'\xa6\xdd]\xb7\x12\xe2\xc7?'
p724
tp725
Rp726
tp727
a(S'rapid prototyping'
p728
g2
(g6
S'k\x1e\x8b\xa9\xe8\xe1\xc7?'
p729
tp730
Rp731
tp732
a(S'testing anywhere'
p733
g2
(g6
S'\xb4\x8e \xce\x7f\xe1\xc7?'
p734
tp735
Rp736
tp737
a(S'robotics simulator'
p738
g2
(g6
S'\xc5\xd5tZ\x85\xda\xc7?'
p739
tp740
Rp741
tp742
a(S'list of artificial intelligence projects'
p743
g2
(g6
S'\xf9\x14\xb1\x802\xda\xc7?'
p744
tp745
Rp746
tp747
a(S'michael stemmle'
p748
g2
(g6
S'\x80g\xb1\x8f\x1e\xd2\xc7?'
p749
tp750
Rp751
tp752
a(S'montavista'
p753
g2
(g6
S'\xdd\xeb6{\xa7\xce\xc7?'
p754
tp755
Rp756
tp757
a(S'off-line programming (robotics)'
p758
g2
(g6
S'\xda\xfc\xd9\x89;\xcd\xc7?'
p759
tp760
Rp761
tp762
a(S'list of software based on kodi and xbmc'
p763
g2
(g6
S'\x8cz\x01\x8e\x1c\xcc\xc7?'
p764
tp765
Rp766
tp767
a(S'programming domain'
p768
g2
(g6
S'Z\x86\xe3\xe7\xa9\xca\xc7?'
p769
tp770
Rp771
tp772
a(S'world vision united states'
p773
g2
(g6
S')\xa8\xd4\xad\x9c\xc4\xc7?'
p774
tp775
Rp776
tp777
a(S'computer program'
p778
g2
(g6
S"V\x83\x9a'\xa0\xc2\xc7?"
p779
tp780
Rp781
tp782
a(S'xara'
p783
g2
(g6
S'\xc9\x91tX6\xc2\xc7?'
p784
tp785
Rp786
tp787
a(S'list of widget toolkits'
p788
g2
(g6
S'd\xdc\x81Y\xb6\xc1\xc7?'
p789
tp790
Rp791
tp792
a(S'balsamiq'
p793
g2
(g6
S'\x16\xaeY\x80\xbe\xc0\xc7?'
p794
tp795
Rp796
tp797
a(S'linux gaming'
p798
g2
(g6
S'+e7\xab\xa5\xba\xc7?'
p799
tp800
Rp801
tp802
a(S'ryo sugimoto'
p803
g2
(g6
S'l2\xa3E\x81\xb9\xc7?'
p804
tp805
Rp806
tp807
a(S'linux desktop testing project'
p808
g2
(g6
S'Q\xae\\i\xdf\xb7\xc7?'
p809
tp810
Rp811
tp812
a(S'software framework'
p813
g2
(g6
S'3\xea\xe2\xc8a\xad\xc7?'
p814
tp815
Rp816
tp817
a(S'automation (disambiguation)'
p818
g2
(g6
S'\t\xad}h\xc4\xa7\xc7?'
p819
tp820
Rp821
tp822
a(S'heuristiclab'
p823
g2
(g6
S'\xc6y\xd0T^\x9b\xc7?'
p824
tp825
Rp826
tp827
a(S'linux foundation'
p828
g2
(g6
S'\xdbIzQ\x11\x7f\xc7?'
p829
tp830
Rp831
tp832
a(S'openmfg'
p833
g2
(g6
S'\xe7\xe4\x07D\xbaz\xc7?'
p834
tp835
Rp836
tp837
a(S'eliot connors'
p838
g2
(g6
S'\xb0\xde\x89\x87\xcfx\xc7?'
p839
tp840
Rp841
tp842
a(S'the linux programming interface'
p843
g2
(g6
S'w\x9c}0\x7fv\xc7?'
p844
tp845
Rp846
tp847
a(S'sharpdevelop'
p848
g2
(g6
S't!\x10IJv\xc7?'
p849
tp850
Rp851
tp852
a(S'isuru linux'
p853
g2
(g6
S'\xe5w\n\xa9\xb0u\xc7?'
p854
tp855
Rp856
tp857
a(S'packet generator'
p858
g2
(g6
S'\xc8kFt\xf8n\xc7?'
p859
tp860
Rp861
tp862
a(S'machine-dependent software'
p863
g2
(g6
S':\x0f\xd8s[g\xc7?'
p864
tp865
Rp866
tp867
a(S'cviptools'
p868
g2
(g6
S'\x15^\x83!\x85_\xc7?'
p869
tp870
Rp871
tp872
a(S'fashion institute of design & merchandising'
p873
g2
(g6
S'kB}\xf5\xa0]\xc7?'
p874
tp875
Rp876
tp877
a(S'sandy dvore'
p878
g2
(g6
S'}\x19gX]D\xc7?'
p879
tp880
Rp881
tp882
a(S'luckybackup'
p883
g2
(g6
S'\x1d\x17\xa9\xbf\x1bD\xc7?'
p884
tp885
Rp886
tp887
a(S'test automation'
p888
g2
(g6
S'\xa9\x00\xfc\x8f\x832\xc7?'
p889
tp890
Rp891
tp892
a(S'scottish fashion awards'
p893
g2
(g6
S'\x9b~i\xfa}0\xc7?'
p894
tp895
Rp896
tp897
a(S'comparison of ssh clients'
p898
g2
(g6
S')\xc1\x0eq\x1a-\xc7?'
p899
tp900
Rp901
tp902
a(S'vigra'
p903
g2
(g6
S'\xf7\xaa\xd8d\xd5,\xc7?'
p904
tp905
Rp906
tp907
a(S'nabeel abbas (entrepreneur)'
p908
g2
(g6
S'\x8dK\xd9\x05\xd5\x1a\xc7?'
p909
tp910
Rp911
tp912
a(S'anjuta'
p913
g2
(g6
S"'\xba\x952i\x18\xc7?"
p914
tp915
Rp916
tp917
a(S"eble d'ussel"
p918
g2
(g6
S'2Nx\xcd[\x18\xc7?'
p919
tp920
Rp921
tp922
a(S'mopac'
p923
g2
(g6
S'}\xe1\xbbG\xdf\x15\xc7?'
p924
tp925
Rp926
tp927
a(S'objectified'
p928
g2
(g6
S'\xabr\xb3>D\x15\xc7?'
p929
tp930
Rp931
tp932
a(S'list of elle brasil (brazil) cover models'
p933
g2
(g6
S'\xe6\xb8\x1b/\xf0\x12\xc7?'
p934
tp935
Rp936
tp937
a(S'vision international university'
p938
g2
(g6
S'95O\x1f\xaf\x10\xc7?'
p939
tp940
Rp941
tp942
a(S'cognex corporation'
p943
g2
(g6
S'@R\x0f\xc2\xd0\x03\xc7?'
p944
tp945
Rp946
tp947
a(S'salvius'
p948
g2
(g6
S'\x88K\x06\xfd\xc1\xed\xc6?'
p949
tp950
Rp951
tp952
a(S'p.i.s.d.'
p953
g2
(g6
S'C$\x88}\x16\xea\xc6?'
p954
tp955
Rp956
tp957
a(S'skyos'
p958
g2
(g6
S'a\x0f\x9d\x81\xe7\xe5\xc6?'
p959
tp960
Rp961
tp962
a(S'linux distribution'
p963
g2
(g6
S'\xdb\xd3"\xab\xc9\xd0\xc6?'
p964
tp965
Rp966
tp967
a(S'esvn'
p968
g2
(g6
S'^l\x8f\x1e=\xc3\xc6?'
p969
tp970
Rp971
tp972
a(S'xbasic'
p973
g2
(g6
S'\x9ez\xbd\xfc~\xbb\xc6?'
p974
tp975
Rp976
tp977
a(S'google web designer'
p978
g2
(g6
S'\x1eoKL\x85\xb8\xc6?'
p979
tp980
Rp981
tp982
a(S'moblock'
p983
g2
(g6
S'\xb0\r\\r\xea\xb0\xc6?'
p984
tp985
Rp986
tp987
a(S'erin hoffman'
p988
g2
(g6
S'j\xc9\x82o\xa6\xae\xc6?'
p989
tp990
Rp991
tp992
a(S'bruce perens'
p993
g2
(g6
S'r\x96\x0fs\xe4\xa8\xc6?'
p994
tp995
Rp996
tp997
a(S'graphical user interface'
p998
g2
(g6
S'|\xd5\xd49\xb1\x9d\xc6?'
p999
tp1000
Rp1001
tp1002
a(S'charles zembillas'
p1003
g2
(g6
S'i\xc0\xc7\xa1\x94\x90\xc6?'
p1004
tp1005
Rp1006
tp1007
a(S'akira yasuda'
p1008
g2
(g6
S'u\xad\xd8Sb\x8c\xc6?'
p1009
tp1010
Rp1011
tp1012
a(S'muneesh sappel'
p1013
g2
(g6
S'{ IJr\x7f\xc6?'
p1014
tp1015
Rp1016
tp1017
a(S'jbnd'
p1018
g2
(g6
S'P\x17\xe1\x88\x98}\xc6?'
p1019
tp1020
Rp1021
tp1022
a(S'event dispatching thread'
p1023
g2
(g6
S'\x95J\x00\xc9\xb1{\xc6?'
p1024
tp1025
Rp1026
tp1027
a(S'criticism of linux'
p1028
g2
(g6
S'\x0c\xaa\rO\x9ew\xc6?'
p1029
tp1030
Rp1031
tp1032
a(S'new vision (disambiguation)'
p1033
g2
(g6
S'aU\xfa\x1dsu\xc6?'
p1034
tp1035
Rp1036
tp1037
a(S'vexillography'
p1038
g2
(g6
S'\x1b\xe7\xa8\xa4\x0fq\xc6?'
p1039
tp1040
Rp1041
tp1042
a(S'gui (surname)'
p1043
g2
(g6
S'\xd43x\xef+m\xc6?'
p1044
tp1045
Rp1046
tp1047
a(S'australian research council centre of excellence for robotic vision'
p1048
g2
(g6
S'\xd9vi\x17*b\xc6?'
p1049
tp1050
Rp1051
tp1052
a(S'xtuple'
p1053
g2
(g6
S'\xa5\x7f\xce\x9d\x11_\xc6?'
p1054
tp1055
Rp1056
tp1057
a(S'bcx'
p1058
g2
(g6
S'\xb5\rr@$]\xc6?'
p1059
tp1060
Rp1061
tp1062
a(S'comparison of webdav software'
p1063
g2
(g6
S'n\xe8\xc5\xde\xafI\xc6?'
p1064
tp1065
Rp1066
tp1067
a(S'vance lorenzini'
p1068
g2
(g6
S'd\x95\xc0\x8dgI\xc6?'
p1069
tp1070
Rp1071
tp1072
a(S'patrolbot'
p1073
g2
(g6
S'\xd7\x93\x08\xabyC\xc6?'
p1074
tp1075
Rp1076
tp1077
a(S'vision source'
p1078
g2
(g6
S'nW\x07#2C\xc6?'
p1079
tp1080
Rp1081
tp1082
a(S'history of free and open-source software'
p1083
g2
(g6
S'\x00\x1f\xd8W(A\xc6?'
p1084
tp1085
Rp1086
tp1087
a(S'\xc3\x89cole camondo'
p1088
g2
(g6
S'w\xb34}j=\xc6?'
p1089
tp1090
Rp1091
tp1092
a(S'conemu'
p1093
g2
(g6
S'6\xed)\xd3\xcb;\xc6?'
p1094
tp1095
Rp1096
tp1097
a(S'business models for open-source software'
p1098
g2
(g6
S'{\xb6\xab\x8c\xc22\xc6?'
p1099
tp1100
Rp1101
tp1102
a(S'open-source software movement'
p1103
g2
(g6
S"yP\xec\x8b\xf3'\xc6?"
p1104
tp1105
Rp1106
tp1107
a(S'source lines of code'
p1108
g2
(g6
S'K\xf7\x07\x90\x07\x1f\xc6?'
p1109
tp1110
Rp1111
tp1112
a(S'linux range of use'
p1113
g2
(g6
S'\x89A\x89\xc8^\x19\xc6?'
p1114
tp1115
Rp1116
tp1117
a(S'crace'
p1118
g2
(g6
S'k\x86\x00\xd5\xd7\x16\xc6?'
p1119
tp1120
Rp1121
tp1122
a(S'list of disk partitioning software'
p1123
g2
(g6
S'\x148dB\xbb\x12\xc6?'
p1124
tp1125
Rp1126
tp1127
a(S'z-order'
p1128
g2
(g6
S'U{\x93p\x15\x11\xc6?'
p1129
tp1130
Rp1131
tp1132
a(S'conectiva'
p1133
g2
(g6
S'P?b|\xa5\x0f\xc6?'
p1134
tp1135
Rp1136
tp1137
a(S'open-source software'
p1138
g2
(g6
S'z\xe1\x16\x89|\x0f\xc6?'
p1139
tp1140
Rp1141
tp1142
a(S'world vision india'
p1143
g2
(g6
S'M\xe0`3\xc8\x00\xc6?'
p1144
tp1145
Rp1146
tp1147
a(S'source code editor'
p1148
g2
(g6
S'\xc7C\xa2&\x9c\xff\xc5?'
p1149
tp1150
Rp1151
tp1152
a(S'phoenix object basic'
p1153
g2
(g6
S':T\xd3\xcb\xb0\xee\xc5?'
p1154
tp1155
Rp1156
tp1157
a(S'linux.com'
p1158
g2
(g6
S'\x8aS\r\x15\xe9\xde\xc5?'
p1159
tp1160
Rp1161
tp1162
a(S'rifat \xc3\x96zbek'
p1163
g2
(g6
S'G\xd6w8\x1b\xdb\xc5?'
p1164
tp1165
Rp1166
tp1167
a(S'freepbx distro'
p1168
g2
(g6
S'\xf2\x0e\xe6\xc1M\xda\xc5?'
p1169
tp1170
Rp1171
tp1172
a(S'index of home automation articles'
p1173
g2
(g6
S'\xac1\xe8A\x93\xd5\xc5?'
p1174
tp1175
Rp1176
tp1177
a(S'gui yufang'
p1178
g2
(g6
S'\x95\x914\xf7\xac\xd2\xc5?'
p1179
tp1180
Rp1181
tp1182
a(S'software'
p1183
g2
(g6
S'\xe5[\xb8"\xe0\xcd\xc5?'
p1184
tp1185
Rp1186
tp1187
a(S'write once, compile anywhere'
p1188
g2
(g6
S'\x9f\xe7\xb1\xb2\xba\xca\xc5?'
p1189
tp1190
Rp1191
tp1192
a(S'comparison of email clients'
p1193
g2
(g6
S'L\xceG\x80\xe2\xc9\xc5?'
p1194
tp1195
Rp1196
tp1197
a(S'yoshiyuki sadamoto'
p1198
g2
(g6
S'\xae?\xe4n\x06\xc6\xc5?'
p1199
tp1200
Rp1201
tp1202
a(S'open-source software development'
p1203
g2
(g6
S'{2${\x87\xc2\xc5?'
p1204
tp1205
Rp1206
tp1207
a(S'professional open source'
p1208
g2
(g6
S'\x99\xfc1\x0f<\xc1\xc5?'
p1209
tp1210
Rp1211
tp1212
a(S'mandriva'
p1213
g2
(g6
S'#\xe6h\xb9\xbc\xbd\xc5?'
p1214
tp1215
Rp1216
tp1217
a(S'vision statement'
p1218
g2
(g6
S'\xf6\xa4\xbb\xfb\xd2\xb8\xc5?'
p1219
tp1220
Rp1221
tp1222
a(S'warewolf (software)'
p1223
g2
(g6
S'\xe3m/\x01b\xb6\xc5?'
p1224
tp1225
Rp1226
tp1227
a(S'college of medallists'
p1228
g2
(g6
S'\x82(\x17QU\xb3\xc5?'
p1229
tp1230
Rp1231
tp1232
a(S'werner almesberger'
p1233
g2
(g6
S'\xd6\x84R\xa9\x81\xae\xc5?'
p1234
tp1235
Rp1236
tp1237
a(S'xplanet'
p1238
g2
(g6
S'\xc4_|\xa6V\xaa\xc5?'
p1239
tp1240
Rp1241
tp1242
a(S'linus torvalds'
p1243
g2
(g6
S'\xc5\x01\x95\xc40\xa8\xc5?'
p1244
tp1245
Rp1246
tp1247
a(S'outline of software engineering'
p1248
g2
(g6
S'j\xb0\xeed\x0c\xa5\xc5?'
p1249
tp1250
Rp1251
tp1252
a(S'list of linux distributions'
p1253
g2
(g6
S'\xcb\xfd1b\xb4\xa1\xc5?'
p1254
tp1255
Rp1256
tp1257
a(S'william vii of montpellier'
p1258
g2
(g6
S'Q\xf3\xc3\xa7\x9b\xa0\xc5?'
p1259
tp1260
Rp1261
tp1262
a(S'lin gui (table tennis)'
p1263
g2
(g6
S'\xa8T\xee\x85\xd1\x9c\xc5?'
p1264
tp1265
Rp1266
tp1267
a(S'modular audio recognition framework'
p1268
g2
(g6
S'G\xdc\xeba-\x98\xc5?'
p1269
tp1270
Rp1271
tp1272
a(S'sapgui'
p1273
g2
(g6
S'Wo\xcb+\xb3\x8e\xc5?'
p1274
tp1275
Rp1276
tp1277
a(S'vision radio network'
p1278
g2
(g6
S'\xbf\x16\xff[6\x88\xc5?'
p1279
tp1280
Rp1281
tp1282
a(S'icewm'
p1283
g2
(g6
S'\xe1\xd1\xf1n\xff~\xc5?'
p1284
tp1285
Rp1286
tp1287
a(S'nicholas kirkwood'
p1288
g2
(g6
S'E2p\xd4"}\xc5?'
p1289
tp1290
Rp1291
tp1292
a(S'list of open-source hardware projects'
p1293
g2
(g6
S'\xa6\x9e,ZD{\xc5?'
p1294
tp1295
Rp1296
tp1297
a(S'machine perception'
p1298
g2
(g6
S'\x86\xdb\x95\xc4\xa0k\xc5?'
p1299
tp1300
Rp1301
tp1302
a(S'comparison of open-source and closed-source software'
p1303
g2
(g6
S'\xb7\x7f\xb5\xf5\xffj\xc5?'
p1304
tp1305
Rp1306
tp1307
a(S'mevislab'
p1308
g2
(g6
S'\xf1\x1b\x8dV\xd7j\xc5?'
p1309
tp1310
Rp1311
tp1312
a(S'gessan enriquez'
p1313
g2
(g6
S'\xec C\x0c5i\xc5?'
p1314
tp1315
Rp1316
tp1317
a(S'engarde secure linux'
p1318
g2
(g6
S'\x00v\xdd7\x06g\xc5?'
p1319
tp1320
Rp1321
tp1322
a(S'golfing union of ireland'
p1323
g2
(g6
S'\x80FZ|\xe1e\xc5?'
p1324
tp1325
Rp1326
tp1327
a(S'linux on z systems'
p1328
g2
(g6
S'\xbd\x93y\xcb\xd5b\xc5?'
p1329
tp1330
Rp1331
tp1332
a(S'graphlab'
p1333
g2
(g6
S'H\x97w\xf0\x84b\xc5?'
p1334
tp1335
Rp1336
tp1337
a(S'bremen'
p1338
g2
(g6
S'\x92\x03j\x15z^\xc5?'
p1339
tp1340
Rp1341
tp1342
a(S'list of open-source bioinformatics software'
p1343
g2
(g6
S'\xb4<?\xd7"\\\xc5?'
p1344
tp1345
Rp1346
tp1347
a(S'aviatyrannis'
p1348
g2
(g6
S'\xea\r\xc0\xc9\xefT\xc5?'
p1349
tp1350
Rp1351
tp1352
a(S'ole automation'
p1353
g2
(g6
S'\tiA\xc4\xfeQ\xc5?'
p1354
tp1355
Rp1356
tp1357
a(S'longene'
p1358
g2
(g6
S'\x8c\xd2\x00Z\x9bP\xc5?'
p1359
tp1360
Rp1361
tp1362
a(S'statutory professor in the analysis of partial differential equations'
p1363
g2
(g6
S'\xa0\x15{\xa8zK\xc5?'
p1364
tp1365
Rp1366
tp1367
a(S'michi himeno'
p1368
g2
(g6
S'\x10\xcf\x0cC\x97H\xc5?'
p1369
tp1370
Rp1371
tp1372
a(S'criticism of desktop linux'
p1373
g2
(g6
S'\xaeQ\xba0\xb0A\xc5?'
p1374
tp1375
Rp1376
tp1377
a(S'double vision (disambiguation)'
p1378
g2
(g6
S'\x0f\xf4\x9c\xa0\x1aA\xc5?'
p1379
tp1380
Rp1381
tp1382
a(S'avsnap'
p1383
g2
(g6
S'Hey\xe9\xcd9\xc5?'
p1384
tp1385
Rp1386
tp1387
a(S'automatic programming'
p1388
g2
(g6
S'xT\xca\xbe\xc57\xc5?'
p1389
tp1390
Rp1391
tp1392
a(S'history of linux'
p1393
g2
(g6
S'\x9b\xfeT\xbf\xac1\xc5?'
p1394
tp1395
Rp1396
tp1397
a(S'team world vision'
p1398
g2
(g6
S'\xf5$\x03\xdb`-\xc5?'
p1399
tp1400
Rp1401
tp1402
a(S'lu\xc3\xads buchinho'
p1403
g2
(g6
S'\xf8\x82o\xbd\x99,\xc5?'
p1404
tp1405
Rp1406
tp1407
a(S'blankon'
p1408
g2
(g6
S'\xeaA\xa9\x91\xf8)\xc5?'
p1409
tp1410
Rp1411
tp1412
a(S'vision (marvel comics)'
p1413
g2
(g6
S'\xb4P\x90\xda7!\xc5?'
p1414
tp1415
Rp1416
tp1417
a(S'topologilinux'
p1418
g2
(g6
S'\x81\xc3:\x92\x19\x1e\xc5?'
p1419
tp1420
Rp1421
tp1422
a(S'fmslogo'
p1423
g2
(g6
S'\x82\x91\x19\x17c\x19\xc5?'
p1424
tp1425
Rp1426
tp1427
a(S'framework (office suite)'
p1428
g2
(g6
S'\xc0\xa3|\xa1?\x16\xc5?'
p1429
tp1430
Rp1431
tp1432
a(S'under phoenix phenomenon'
p1433
g2
(g6
S'\xa4\xae\x89\xb2\x02\x16\xc5?'
p1434
tp1435
Rp1436
tp1437
a(S'mandriva linux'
p1438
g2
(g6
S'\xd5-\x14\xa1Q\r\xc5?'
p1439
tp1440
Rp1441
tp1442
a(S'linux user and developer'
p1443
g2
(g6
S'R;\xc8{\xbb\x05\xc5?'
p1444
tp1445
Rp1446
tp1447
a(S'industrial robot'
p1448
g2
(g6
S'\x06<\x0f\x01d\x02\xc5?'
p1449
tp1450
Rp1451
tp1452
a(S'booyo'
p1453
g2
(g6
S'\xab\xceJa\x00\x01\xc5?'
p1454
tp1455
Rp1456
tp1457
a(S'rajesh pratap singh'
p1458
g2
(g6
S'G\xe7pl\xfc\xf7\xc4?'
p1459
tp1460
Rp1461
tp1462
a(S'sagetv'
p1463
g2
(g6
S'\xd7\xb8-b\x01\xf6\xc4?'
p1464
tp1465
Rp1466
tp1467
a(S'rock story'
p1468
g2
(g6
S'>\x99\xfa\xb0\xac\xf5\xc4?'
p1469
tp1470
Rp1471
tp1472
a(S'peggy clark'
p1473
g2
(g6
S'w\xd8\xd4\xa6\xcd\xf4\xc4?'
p1474
tp1475
Rp1476
tp1477
a(S'index of robotics articles'
p1478
g2
(g6
S'\xe3,\xcb-R\xf4\xc4?'
p1479
tp1480
Rp1481
tp1482
a(S'digital prototyping'
p1483
g2
(g6
S'\x81\x03\x93\x9ef\xf3\xc4?'
p1484
tp1485
Rp1486
tp1487
a(S'timeline of open-source software'
p1488
g2
(g6
S'\x0ff\x8c\x91\x16\xf2\xc4?'
p1489
tp1490
Rp1491
tp1492
a(S'brian savegar'
p1493
g2
(g6
S'\x96\x05\r\r\x1a\xef\xc4?'
p1494
tp1495
Rp1496
tp1497
a(S'software testing automation framework'
p1498
g2
(g6
S',^=O\xcf\xec\xc4?'
p1499
tp1500
Rp1501
tp1502
a(S'buildmaster'
p1503
g2
(g6
S'\xf8-)\x9f\x8e\xe7\xc4?'
p1504
tp1505
Rp1506
tp1507
a(S'bernard gui'
p1508
g2
(g6
S'E\xd9\xb1\xa96\xe5\xc4?'
p1509
tp1510
Rp1511
tp1512
a.