(lp0
(S'imprecise probability'
p1
cnumpy.core.multiarray
scalar
p2
(cnumpy
dtype
p3
(S'f8'
p4
I0
I1
tp5
Rp6
(I3
S'<'
p7
NNNI-1
I-1
I0
tp8
bS'\xfc\xff\xff\xff\xff\xff\xef?'
p9
tp10
Rp11
tp12
a(S'sipta'
p13
g2
(g6
S'\x90\xeb\x9a\x1cB\xc8\xe7?'
p14
tp15
Rp16
tp17
a(S'upper and lower probabilities'
p18
g2
(g6
S'\xfd\xb1<\xba\xe5\xa8\xe4?'
p19
tp20
Rp21
tp22
a(S'probability'
p23
g2
(g6
S'\xdd\x04\x9f\xa9\xff\xa5\xe4?'
p24
tp25
Rp26
tp27
a(S'frequentist probability'
p28
g2
(g6
S'\xbdwP:\x06\x1e\xe4?'
p29
tp30
Rp31
tp32
a(S'inductive probability'
p33
g2
(g6
S'K6\xa7\xf20*\xe3?'
p34
tp35
Rp36
tp37
a(S'probability interpretations'
p38
g2
(g6
S'\xef\xaf\xe4\xd7\x99\xf4\xe2?'
p39
tp40
Rp41
tp42
a(S'conditional probability'
p43
g2
(g6
S'\r;|\xd5sX\xe2?'
p44
tp45
Rp46
tp47
a(S'probability space'
p48
g2
(g6
S'\x17i\x9a\x14F0\xe2?'
p49
tp50
Rp51
tp52
a(S'classical definition of probability'
p53
g2
(g6
S'r\xaa\xa5g4\xca\xe1?'
p54
tp55
Rp56
tp57
a(S'probability and statistics'
p58
g2
(g6
S'\x93h\xd4\xfa\x9b+\xe1?'
p59
tp60
Rp61
tp62
a(S'law of total probability'
p63
g2
(g6
S'\xa9\xf8`\x8b\x9e\x0c\xe1?'
p64
tp65
Rp66
tp67
a(S'credal set'
p68
g2
(g6
S"\x8b;\x1d'\x91\x0c\xe1?"
p69
tp70
Rp71
tp72
a(S'list of probability journals'
p73
g2
(g6
S'%\xcb\xcec<\xd2\xe0?'
p74
tp75
Rp76
tp77
a(S'probability axioms'
p78
g2
(g6
S'\xa8\x0b\xbe+E\xc8\xe0?'
p79
tp80
Rp81
tp82
a(S'c+-probability'
p83
g2
(g6
S'\x9b\x98\xcb\xa7\x00\xc2\xe0?'
p84
tp85
Rp86
tp87
a(S'unit measure'
p88
g2
(g6
S'((\x829E\x96\xe0?'
p89
tp90
Rp91
tp92
a(S'outline of probability'
p93
g2
(g6
S'\xb6\xc7\\\x8f\x1f{\xe0?'
p94
tp95
Rp96
tp97
a(S'empirical probability'
p98
g2
(g6
S'\x0c\xa0\xf1X\xbeb\xe0?'
p99
tp100
Rp101
tp102
a(S'probability measure'
p103
g2
(g6
S'=\x8a\xb5\x0f\xecX\xe0?'
p104
tp105
Rp106
tp107
a(S'probability theory'
p108
g2
(g6
S' t{{\x002\xe0?'
p109
tp110
Rp111
tp112
a(S'orders of magnitude (probability)'
p113
g2
(g6
S'\xbagh\xa9@.\xe0?'
p114
tp115
Rp116
tp117
a(S'history of probability'
p118
g2
(g6
S'"\xa2\x08j\xfe\x08\xe0?'
p119
tp120
Rp121
tp122
a(S'probability distribution'
p123
g2
(g6
S'\x0b\r\xcd\xc0\xef\xbb\xdf?'
p124
tp125
Rp126
tp127
a(S'posterior probability'
p128
g2
(g6
S'w/\x18=\x81\xf2\xde?'
p129
tp130
Rp131
tp132
a(S'probability amplitude'
p133
g2
(g6
S'\x18\xd2\xdc\x8e\x13\xba\xde?'
p134
tp135
Rp136
tp137
a(S'ray solomonoff'
p138
g2
(g6
S'\xec?\xe0\xde\x9f\x95\xde?'
p139
tp140
Rp141
tp142
a(S'probability bounds analysis'
p143
g2
(g6
S'\x0b,c\xe2\xf6k\xde?'
p144
tp145
Rp146
tp147
a(S'regular conditional probability'
p148
g2
(g6
S'\xcaD-*Yh\xde?'
p149
tp150
Rp151
tp152
a(S'probability distribution function'
p153
g2
(g6
S'\xd5\xae\x9c\xe7\xc3\r\xde?'
p154
tp155
Rp156
tp157
a(S'inverse probability'
p158
g2
(g6
S'\x9b\xc0!{\x8f\xd2\xdd?'
p159
tp160
Rp161
tp162
a(S'a treatise on probability'
p163
g2
(g6
S'\r\xc3\xfc\x7f8\x00\xdd?'
p164
tp165
Rp166
tp167
a(S'glossary of probability and statistics'
p168
g2
(g6
S'\xb82\xc80\xa8\xc3\xdc?'
p169
tp170
Rp171
tp172
a(S'exotic probability'
p173
g2
(g6
S'n\xab\xb2F\xa1\xae\xdc?'
p174
tp175
Rp176
tp177
a(S'coverage probability'
p178
g2
(g6
S'b\xf1\xec\x85\xbf\x82\xdc?'
p179
tp180
Rp181
tp182
a(S'excursion probability'
p183
g2
(g6
S'r\xbc\x87\xae\xd3c\xdc?'
p184
tp185
Rp186
tp187
a(S'prospect theory'
p188
g2
(g6
S'I\xa5\xd1\x06yc\xdc?'
p189
tp190
Rp191
tp192
a(S'notation in probability and statistics'
p193
g2
(g6
S'v\x11\xc9\x82\xb4D\xdc?'
p194
tp195
Rp196
tp197
a(S'elementary event'
p198
g2
(g6
S'\x96]\x14&\xa6\x0f\xdc?'
p199
tp200
Rp201
tp202
a(S'bruno de finetti'
p203
g2
(g6
S'\xaeitN\xc8\x08\xdc?'
p204
tp205
Rp206
tp207
a(S'inclusion probability'
p208
g2
(g6
S'\xcb\x8f[\xa1\x98\xe5\xdb?'
p209
tp210
Rp211
tp212
a(S'probability mass function'
p213
g2
(g6
S"\x14\x8e\x02'\xc5\xb2\xdb?"
p214
tp215
Rp216
tp217
a(S'bayesian probability'
p218
g2
(g6
S'$\xabD\rd\x8c\xdb?'
p219
tp220
Rp221
tp222
a(S'list of probability topics'
p223
g2
(g6
S'R\x96Xw\x19|\xdb?'
p224
tp225
Rp226
tp227
a(S'wet bias'
p228
g2
(g6
S'+|\xe0i\x85)\xdb?'
p229
tp230
Rp231
tp232
a(S'sunrise problem'
p233
g2
(g6
S'\xac\xe8J\x9f\xa6\r\xdb?'
p234
tp235
Rp236
tp237
a(S'pairwise error probability'
p238
g2
(g6
S'C\xd2X\xbb\xf8\x08\xdb?'
p239
tp240
Rp241
tp242
a(S'probability density function'
p243
g2
(g6
S'+\xbe\x13\xcc\xa8\x03\xdb?'
p244
tp245
Rp246
tp247
a(S'win probability added'
p248
g2
(g6
S'\xd1k%F\x08\x01\xdb?'
p249
tp250
Rp251
tp252
a(S'neyman construction'
p253
g2
(g6
S'\x1fso\xbb~\xa2\xda?'
p254
tp255
Rp256
tp257
a(S'henry e. kyburg, jr.'
p258
g2
(g6
S'\xd2\xce\x17\xc9`|\xda?'
p259
tp260
Rp261
tp262
a(S'craps principle'
p263
g2
(g6
S'\x82?\x8d\xeb6P\xda?'
p264
tp265
Rp266
tp267
a(S'forward\xe2\x80\x93backward algorithm'
p268
g2
(g6
S'6\xc1\x9b0bN\xda?'
p269
tp270
Rp271
tp272
a(S'cafeteria group'
p273
g2
(g6
S'sx\xda\x19\xd9I\xda?'
p274
tp275
Rp276
tp277
a(S'pignistic probability'
p278
g2
(g6
S'\xe6\xb5\xe6i\xcb\xe9\xd9?'
p279
tp280
Rp281
tp282
a(S'probability current'
p283
g2
(g6
S'\xa6v\xbca\xa9\xc4\xd9?'
p284
tp285
Rp286
tp287
a(S'lists of statistics topics'
p288
g2
(g6
S'\xed\x85\xf6\xc4\x14\xb6\xd9?'
p289
tp290
Rp291
tp292
a(S'probability plot'
p293
g2
(g6
S'9\x17\xcfe\xe4\xa6\xd9?'
p294
tp295
Rp296
tp297
a(S'probability-generating function'
p298
g2
(g6
S'\xfb\x94\xc4\x96\xec\xa5\xd9?'
p299
tp300
Rp301
tp302
a(S'applied probability'
p303
g2
(g6
S'h\x11y\xfc\xb8\xa0\xd9?'
p304
tp305
Rp306
tp307
a(S'standard probability space'
p308
g2
(g6
S'&a\x0f_|\x97\xd9?'
p309
tp310
Rp311
tp312
a(S'birthday problem'
p313
g2
(g6
S'ew\xa3\xef\xdbp\xd9?'
p314
tp315
Rp316
tp317
a(S'probabilistic logic'
p318
g2
(g6
S'\xeb\tx\xcf\xf5_\xd9?'
p319
tp320
Rp321
tp322
a(S'contract bridge probabilities'
p323
g2
(g6
S'E\x94\xed\xa77Z\xd9?'
p324
tp325
Rp326
tp327
a(S'log probability'
p328
g2
(g6
S'\xd7\xa0G\x81\x11L\xd9?'
p329
tp330
Rp331
tp332
a(S'normalizing constant'
p333
g2
(g6
S'.\x9c>+M\x03\xd9?'
p334
tp335
Rp336
tp337
a(S'electronic journal of probability'
p338
g2
(g6
S'\x1fC.\x99\xab\xef\xd8?'
p339
tp340
Rp341
tp342
a(S'tree diagram (probability theory)'
p343
g2
(g6
S'A\x97F\xe8"\xed\xd8?'
p344
tp345
Rp346
tp347
a(S'timeline of probability and statistics'
p348
g2
(g6
S'\xb3yX\xc2\xd4\xe8\xd8?'
p349
tp350
Rp351
tp352
a(S'a priori probability'
p353
g2
(g6
S'0\x1f%\xa4\x1d\xe7\xd8?'
p354
tp355
Rp356
tp357
a(S'equiprobability'
p358
g2
(g6
S'\xf4H\x06f\xb6\xd4\xd8?'
p359
tp360
Rp361
tp362
a(S'pseudocount'
p363
g2
(g6
S'i\xbe\xc6\x97j\xc3\xd8?'
p364
tp365
Rp366
tp367
a(S'joint probability distribution'
p368
g2
(g6
S')\xd3}\x11\x10\xbe\xd8?'
p369
tp370
Rp371
tp372
a(S'joseph l. doob'
p373
g2
(g6
S'\x80\xbcb\xf1\xe1m\xd8?'
p374
tp375
Rp376
tp377
a(S'frequentist inference'
p378
g2
(g6
S'M0d\xe8\x97V\xd8?'
p379
tp380
Rp381
tp382
a(S'branching process'
p383
g2
(g6
S'}\xb9\xcb\xdb\xc1U\xd8?'
p384
tp385
Rp386
tp387
a(S'bayesian search theory'
p388
g2
(g6
S'\xf9\xf1\xac\xa7\x99C\xd8?'
p389
tp390
Rp391
tp392
a(S"bertrand's box paradox"
p393
g2
(g6
S'\xe4\x9d\x98\x98A8\xd8?'
p394
tp395
Rp396
tp397
a(S'multiplicative cascade'
p398
g2
(g6
S'\x1fk\x1b\x0b\xfe.\xd8?'
p399
tp400
Rp401
tp402
a(S'subadditivity effect'
p403
g2
(g6
S'\xac\x81\r!\xc8(\xd8?'
p404
tp405
Rp406
tp407
a(S'list of convolutions of probability distributions'
p408
g2
(g6
S'+\xe2W\x15\xe3!\xd8?'
p409
tp410
Rp411
tp412
a(S'credal network'
p413
g2
(g6
S'\xfe\x86\xed\xdc_\x15\xd8?'
p414
tp415
Rp416
tp417
a(S'rule of succession'
p418
g2
(g6
S'\xf1S\xd5}\x17\x12\xd8?'
p419
tp420
Rp421
tp422
a(S'dempster\xe2\x80\x93shafer theory'
p423
g2
(g6
S'\x02\xecc\xc9\xd5\n\xd8?'
p424
tp425
Rp426
tp427
a(S'total variation distance of probability measures'
p428
g2
(g6
S'V\xdc.\x9c\xa1\n\xd8?'
p429
tp430
Rp431
tp432
a(S'bayes linear statistics'
p433
g2
(g6
S'\x87}hA\x1e\t\xd8?'
p434
tp435
Rp436
tp437
a(S'algorithmic probability'
p438
g2
(g6
S'5q\xe7*k\xf7\xd7?'
p439
tp440
Rp441
tp442
a(S'pre- and post-test probability'
p443
g2
(g6
S'\xb8\x9f\xdf)\xf7\xc3\xd7?'
p444
tp445
Rp446
tp447
a(S'memorylessness'
p448
g2
(g6
S'-04? \xbe\xd7?'
p449
tp450
Rp451
tp452
a(S"cox's theorem"
p453
g2
(g6
S'dT\xa5\xfc\xec\x9c\xd7?'
p454
tp455
Rp456
tp457
a(S'institute of mathematical statistics'
p458
g2
(g6
S'\x8e\x06[\xa9\xf4\x8b\xd7?'
p459
tp460
Rp461
tp462
a(S'marginal distribution'
p463
g2
(g6
S'\xae#\x9cG\x83}\xd7?'
p464
tp465
Rp466
tp467
a(S'universality probability'
p468
g2
(g6
S'\xbcW\r\x121f\xd7?'
p469
tp470
Rp471
tp472
a(S'dutch book'
p473
g2
(g6
S'9\xddt,\xd3J\xd7?'
p474
tp475
Rp476
tp477
a(S'win probability'
p478
g2
(g6
S'\xc1*\x11)\x94J\xd7?'
p479
tp480
Rp481
tp482
a(S'coherence (statistics)'
p483
g2
(g6
S'\xd1\x9f\xfc,0\x07\xd7?'
p484
tp485
Rp486
tp487
a(S'reference class problem'
p488
g2
(g6
S'\xb7\xccN=R\xf0\xd6?'
p489
tp490
Rp491
tp492
a(S'eugene seneta'
p493
g2
(g6
S"Z'm\x8ck\xee\xd6?"
p494
tp495
Rp496
tp497
a(S'convolution of probability distributions'
p498
g2
(g6
S'\xa9\xc9~R\xd0\xca\xd6?'
p499
tp500
Rp501
tp502
a(S'equipossibility'
p503
g2
(g6
S'\xe9$0\xe9\xf5\xb7\xd6?'
p504
tp505
Rp506
tp507
a(S'foundations of statistics'
p508
g2
(g6
S'\x94\xf1Qw\xcd\x9a\xd6?'
p509
tp510
Rp511
tp512
a(S'group family'
p513
g2
(g6
S'f\x05Uty\x8f\xd6?'
p514
tp515
Rp516
tp517
a(S'electronic communications in probability'
p518
g2
(g6
S'\x02\x0f\x1d\x9e\xd9\x81\xd6?'
p519
tp520
Rp521
tp522
a(S'network probability matrix'
p523
g2
(g6
S'\xe2\xec.\xa8\x95w\xd6?'
p524
tp525
Rp526
tp527
a(S'an essay towards solving a problem in the doctrine of chances'
p528
g2
(g6
S'\xc4\x95w\xadfj\xd6?'
p529
tp530
Rp531
tp532
a(S'applied probability trust'
p533
g2
(g6
S'S?c\x17\xcb`\xd6?'
p534
tp535
Rp536
tp537
a(S'conditional independence'
p538
g2
(g6
S'\xee\xfcb\xc8\xa4I\xd6?'
p539
tp540
Rp541
tp542
a(S'probability box'
p543
g2
(g6
S'Op\x8ck\xcaD\xd6?'
p544
tp545
Rp546
tp547
a(S'perplexity'
p548
g2
(g6
S"P\xd2r?'C\xd6?"
p549
tp550
Rp551
tp552
a(S"boole's inequality"
p553
g2
(g6
S'7\xbf\xb5\x18y?\xd6?'
p554
tp555
Rp556
tp557
a(S'outline of statistics'
p558
g2
(g6
S'\xe7YE\xc8\xb16\xd6?'
p559
tp560
Rp561
tp562
a(S'ars conjectandi'
p563
g2
(g6
S'\x8b\xd8\x9fi~2\xd6?'
p564
tp565
Rp566
tp567
a(S'maintenance-free operating period'
p568
g2
(g6
S'\xd2&\xaa\xb5\xe6-\xd6?'
p569
tp570
Rp571
tp572
a(S'differential diagnosis'
p573
g2
(g6
S'\xdb\x10\xe1S,\x1c\xd6?'
p574
tp575
Rp576
tp577
a(S"bayes' theorem"
p578
g2
(g6
S'o\xa3\x89\t\x03\x1b\xd6?'
p579
tp580
Rp581
tp582
a(S'rick durrett'
p583
g2
(g6
S'R^CKi\x17\xd6?'
p584
tp585
Rp586
tp587
a(S"cromwell's rule"
p588
g2
(g6
S'Ra\xe9\xb2\x8c\x0f\xd6?'
p589
tp590
Rp591
tp592
a(S'fr\xc3\xa9chet inequalities'
p593
g2
(g6
S'\xbbr\x8f[\x94\x03\xd6?'
p594
tp595
Rp596
tp597
a(S'location parameter'
p598
g2
(g6
S'\xc4\x08\x90y\xa6\xf5\xd5?'
p599
tp600
Rp601
tp602
a(S'history of statistics'
p603
g2
(g6
S'rj~$\xa1\xd8\xd5?'
p604
tp605
Rp606
tp607
a(S'negative probability'
p608
g2
(g6
S'\xf8\x1d\x11\x8eT\xc4\xd5?'
p609
tp610
Rp611
tp612
a(S'return period'
p613
g2
(g6
S'\x9bE\xb3\x866\xb2\xd5?'
p614
tp615
Rp616
tp617
a(S'almost surely'
p618
g2
(g6
S'D\xc9*\xd4\x90\xb1\xd5?'
p619
tp620
Rp621
tp622
a(S'conditional probability distribution'
p623
g2
(g6
S'V4\xb7\xd4\xb2\xa3\xd5?'
p624
tp625
Rp626
tp627
a(S'sticking probability'
p628
g2
(g6
S'\xc0\x86OK\x93|\xd5?'
p629
tp630
Rp631
tp632
a(S'chinese restaurant process'
p633
g2
(g6
S'\xf2\xc2RG\x16w\xd5?'
p634
tp635
Rp636
tp637
a(S'bayesian inference in marketing'
p638
g2
(g6
S'\xd6\x90\x0f\x86\xdbt\xd5?'
p639
tp640
Rp641
tp642
a(S'hellinger distance'
p643
g2
(g6
S'\xf2\x9e%\xd9\xdbp\xd5?'
p644
tp645
Rp646
tp647
a(S'chain rule (probability)'
p648
g2
(g6
S'\xe8Q`\x8b"n\xd5?'
p649
tp650
Rp651
tp652
a(S'extended negative binomial distribution'
p653
g2
(g6
S'Yjh\xe55j\xd5?'
p654
tp655
Rp656
tp657
a(S'moran process'
p658
g2
(g6
S'+\x9d4Q\x19h\xd5?'
p659
tp660
Rp661
tp662
a(S'neglect of probability'
p663
g2
(g6
S'\x1fzW=\xb4G\xd5?'
p664
tp665
Rp666
tp667
a(S"popoviciu's inequality on variances"
p668
g2
(g6
S'\xc0ln\xceD5\xd5?'
p669
tp670
Rp671
tp672
a(S'postselection'
p673
g2
(g6
S'\x03G\xaeM\\$\xd5?'
p674
tp675
Rp676
tp677
a(S'rayleigh mixture distribution'
p678
g2
(g6
S'\xf9\xbdb%5#\xd5?'
p679
tp680
Rp681
tp682
a(S'event (probability theory)'
p683
g2
(g6
S'\xb8a\xf9\xc7s\xf0\xd4?'
p684
tp685
Rp686
tp687
a(S'vyacheslav vasilievich sazonov'
p688
g2
(g6
S"\t\xa7'p\n\xf0\xd4?"
p689
tp690
Rp691
tp692
a(S"wendel's theorem"
p693
g2
(g6
S'}N\xc7\xf2\xa7\xee\xd4?'
p694
tp695
Rp696
tp697
a(S'probability of success'
p698
g2
(g6
S'\x83/vK\x8b\xd9\xd4?'
p699
tp700
Rp701
tp702
a(S'language model'
p703
g2
(g6
S'A\xb7\x88\x1de\xae\xd4?'
p704
tp705
Rp706
tp707
a(S'normal probability plot'
p708
g2
(g6
S'e.c\x0b\x8e\xab\xd4?'
p709
tp710
Rp711
tp712
a(S'method of moments'
p713
g2
(g6
S'\x7fl\xb6E\x9d\x9e\xd4?'
p714
tp715
Rp716
tp717
a(S'principle of indifference'
p718
g2
(g6
S'\x17//\x9a\xbf\x96\xd4?'
p719
tp720
Rp721
tp722
a(S'dyadic distribution'
p723
g2
(g6
S'634i\x83\x85\xd4?'
p724
tp725
Rp726
tp727
a(S'singular distribution'
p728
g2
(g6
S'\x9d\x8d\x1f\xc4$~\xd4?'
p729
tp730
Rp731
tp732
a(S"kolmogorov's two-series theorem"
p733
g2
(g6
S'_\xe8\x8bO\xa5p\xd4?'
p734
tp735
Rp736
tp737
a(S'quantum probability'
p738
g2
(g6
S' \xc1\xa6|\xf9e\xd4?'
p739
tp740
Rp741
tp742
a(S'vysochanskij\xe2\x80\x93petunin inequality'
p743
g2
(g6
S'r\xb8-\xee\xa2V\xd4?'
p744
tp745
Rp746
tp747
a(S'self-consistent mean field (biology)'
p748
g2
(g6
S'\x16\xc0\xa6\x97KU\xd4?'
p749
tp750
Rp751
tp752
a(S'ellsberg paradox'
p753
g2
(g6
S'e\xf2\xbb+DQ\xd4?'
p754
tp755
Rp756
tp757
a(S'decision theory'
p758
g2
(g6
S'b~\xa3\x8fYP\xd4?'
p759
tp760
Rp761
tp762
a(S'standard normal table'
p763
g2
(g6
S'b\xffh\n,8\xd4?'
p764
tp765
Rp766
tp767
a(S'checking whether a coin is fair'
p768
g2
(g6
S'\x07\xe7\x1a\x9d\n6\xd4?'
p769
tp770
Rp771
tp772
a(S'imprecise dirichlet process'
p773
g2
(g6
S'\xa6\x1a\xc8_*-\xd4?'
p774
tp775
Rp776
tp777
a(S'high-probability request sequence'
p778
g2
(g6
S'\x7f\xdcv\xf4\xec"\xd4?'
p779
tp780
Rp781
tp782
a(S'common cause and special cause (statistics)'
p783
g2
(g6
S'_\xda\xf9\xb4:\x16\xd4?'
p784
tp785
Rp786
tp787
a(S'postbqp'
p788
g2
(g6
S'\xd5)\xd7\x82\xeb\x12\xd4?'
p789
tp790
Rp791
tp792
a(S'edward c. waymire'
p793
g2
(g6
S'\x817Y\xda\xb5\x06\xd4?'
p794
tp795
Rp796
tp797
a(S'error exponent'
p798
g2
(g6
S'\x96lP\xd6\x15\x01\xd4?'
p799
tp800
Rp801
tp802
a(S'conditional event algebra'
p803
g2
(g6
S']\x9e\xa8w\x00\xfd\xd3?'
p804
tp805
Rp806
tp807
a(S"prosecutor's fallacy"
p808
g2
(g6
S'\x85\x7f\x7f+\xe8\xfc\xd3?'
p809
tp810
Rp811
tp812
a(S'event tree analysis'
p813
g2
(g6
S'\xb6t\x87\xe0\x92\xf1\xd3?'
p814
tp815
Rp816
tp817
a(S'bernoulli society for mathematical statistics and probability'
p818
g2
(g6
S'\x9d8\x0c\xae\xb0\xd3\xd3?'
p819
tp820
Rp821
tp822
a(S'geometric distribution'
p823
g2
(g6
S'$h\xc9\xb6Y\xcc\xd3?'
p824
tp825
Rp826
tp827
a(S'boris vladimirovich gnedenko'
p828
g2
(g6
S'\xed\x16\xf2)c\xbc\xd3?'
p829
tp830
Rp831
tp832
a(S'trapezoidal distribution'
p833
g2
(g6
S'\x13I#\xbf=\xb9\xd3?'
p834
tp835
Rp836
tp837
a(S"segal's law"
p838
g2
(g6
S'|\xbdd\xfb\xe0\xb1\xd3?'
p839
tp840
Rp841
tp842
a(S"skorokhod's representation theorem"
p843
g2
(g6
S'\xb1\x11\x9b\xe4Q\xa8\xd3?'
p844
tp845
Rp846
tp847
a(S'boy or girl paradox'
p848
g2
(g6
S's\xb3\xab\xbf!\xa0\xd3?'
p849
tp850
Rp851
tp852
a(S'principle of transformation groups'
p853
g2
(g6
S'\xb9\xa9\xe1\xf8\x7f\x95\xd3?'
p854
tp855
Rp856
tp857
a(S'subjective expected utility'
p858
g2
(g6
S'\xe0I\xfe\xfe\x8c\x83\xd3?'
p859
tp860
Rp861
tp862
a(S'platt scaling'
p863
g2
(g6
S'P\x18\xa5\xcb\xc6\x82\xd3?'
p864
tp865
Rp866
tp867
a(S'risk aversion (psychology)'
p868
g2
(g6
S'\xde\xdeO\xa8\x92x\xd3?'
p869
tp870
Rp871
tp872
a(S'probability vector'
p873
g2
(g6
S'\x05F\x088]r\xd3?'
p874
tp875
Rp876
tp877
a(S'fast probability integration'
p878
g2
(g6
S'\xc7j\x80\x02\xc0h\xd3?'
p879
tp880
Rp881
tp882
a(S'probability distribution of extreme points of a wiener stochastic process'
p883
g2
(g6
S'6\x0b\xe3p\x1aa\xd3?'
p884
tp885
Rp886
tp887
a(S"anderson's theorem"
p888
g2
(g6
S'\xea\x89\xc4,r`\xd3?'
p889
tp890
Rp891
tp892
a(S'balls into bins'
p893
g2
(g6
S'\\\xcfhusI\xd3?'
p894
tp895
Rp896
tp897
a(S"sanov's theorem"
p898
g2
(g6
S'`d_\x19FG\xd3?'
p899
tp900
Rp901
tp902
a(S'information bottleneck method'
p903
g2
(g6
S'\xef\xec\x89=\x9bD\xd3?'
p904
tp905
Rp906
tp907
a(S'free probability'
p908
g2
(g6
S'\x9d\xd4[\xbc\xf0B\xd3?'
p909
tp910
Rp911
tp912
a(S'schr\xc3\xb6dinger method'
p913
g2
(g6
S'\xcd\xd2\xd9\xfc\x06<\xd3?'
p914
tp915
Rp916
tp917
a(S"poker probability (texas hold 'em)"
p918
g2
(g6
S't\xfd4t\x18(\xd3?'
p919
tp920
Rp921
tp922
a(S'random variable'
p923
g2
(g6
S'M[r\xf7!\x12\xd3?'
p924
tp925
Rp926
tp927
a(S'moran medal'
p928
g2
(g6
S'O\x14\xd1!\xea\x0b\xd3?'
p929
tp930
Rp931
tp932
a(S'bhattacharyya angle'
p933
g2
(g6
S'\xb4@\x18AG\xfb\xd2?'
p934
tp935
Rp936
tp937
a(S'propensity probability'
p938
g2
(g6
S'I0\xab\x1d\x86\xfa\xd2?'
p939
tp940
Rp941
tp942
a(S'fishburn\xe2\x80\x93shepp inequality'
p943
g2
(g6
S'\xb6\xca\xbb\x18\x02\xf7\xd2?'
p944
tp945
Rp946
tp947
a(S'chung\xe2\x80\x93erd\xc5\x91s inequality'
p948
g2
(g6
S'\xcch\x81\xe8\xc7\xf0\xd2?'
p949
tp950
Rp951
tp952
a(S'the emergence of probability'
p953
g2
(g6
S'\xde^\xa42-\xd7\xd2?'
p954
tp955
Rp956
tp957
a(S'context-adaptive binary arithmetic coding'
p958
g2
(g6
S'\xa9Lh\x93\x96\xd2\xd2?'
p959
tp960
Rp961
tp962
a(S'probability theory and related fields'
p963
g2
(g6
S'\x1c\xe8\xfe>\xa6\xcd\xd2?'
p964
tp965
Rp966
tp967
a(S'complementary event'
p968
g2
(g6
S'\x03\x17\x82\xca\xa0\xcc\xd2?'
p969
tp970
Rp971
tp972
a(S'quantum electrodynamics'
p973
g2
(g6
S'\xa4\x15\x10\xde]\xbd\xd2?'
p974
tp975
Rp976
tp977
a(S'federal funds probability'
p978
g2
(g6
S'YS\x92oc\xbb\xd2?'
p979
tp980
Rp981
tp982
a(S'arcsine distribution'
p983
g2
(g6
S'\x18\xe2\xb0\x92-\xb6\xd2?'
p984
tp985
Rp986
tp987
a(S'confusion of the inverse'
p988
g2
(g6
S'\xd6\xc9=\xb9\x9a\xb5\xd2?'
p989
tp990
Rp991
tp992
a(S'digital probabilistic physics'
p993
g2
(g6
S'Qq\r\xa1\xa3\xb0\xd2?'
p994
tp995
Rp996
tp997
a(S'inside\xe2\x80\x93outside algorithm'
p998
g2
(g6
S'\xd8^\xd5zW\xb0\xd2?'
p999
tp1000
Rp1001
tp1002
a(S'richard jeffrey'
p1003
g2
(g6
S'\xb1.x\xc0\x95\x99\xd2?'
p1004
tp1005
Rp1006
tp1007
a(S'binary symmetric channel'
p1008
g2
(g6
S'x\xba\xb4\x83\x94\x97\xd2?'
p1009
tp1010
Rp1011
tp1012
a(S'probabilistic ctl'
p1013
g2
(g6
S'\x0b\x86+\xac\x8e\x8c\xd2?'
p1014
tp1015
Rp1016
tp1017
a(S'stable process'
p1018
g2
(g6
S'\x1f\x19Y\xd1\x08~\xd2?'
p1019
tp1020
Rp1021
tp1022
a(S'statistical manifold'
p1023
g2
(g6
S'\xd8r\xf6\xd0\xe6{\xd2?'
p1024
tp1025
Rp1026
tp1027
a(S'coupling (probability)'
p1028
g2
(g6
S"\xa1\xf9\x0f\xe7'y\xd2?"
p1029
tp1030
Rp1031
tp1032
a(S'probability matching'
p1033
g2
(g6
S'\xd4\xaaG\x08\xb5x\xd2?'
p1034
tp1035
Rp1036
tp1037
a(S'kazimierz urbanik'
p1038
g2
(g6
S'\xee\xe0v)6t\xd2?'
p1039
tp1040
Rp1041
tp1042
a(S'borel\xe2\x80\x93cantelli lemma'
p1043
g2
(g6
S'R\xf4f\x00\x06t\xd2?'
p1044
tp1045
Rp1046
tp1047
a(S'vacant places'
p1048
g2
(g6
S'\xc3\x88\x06\x81Ls\xd2?'
p1049
tp1050
Rp1051
tp1052
a(S'howard raiffa'
p1053
g2
(g6
S'(\x0f%\xaaCp\xd2?'
p1054
tp1055
Rp1056
tp1057
a(S"rice's formula"
p1058
g2
(g6
S'\x9e\x83r43l\xd2?'
p1059
tp1060
Rp1061
tp1062
a(S'edwin thompson jaynes'
p1063
g2
(g6
S'\xaaC\x1d\x97\xc6e\xd2?'
p1064
tp1065
Rp1066
tp1067
a(S'cumulative prospect theory'
p1068
g2
(g6
S'\xd8\xba\x93#5b\xd2?'
p1069
tp1070
Rp1071
tp1072
a(S'zero-order process (statistics)'
p1073
g2
(g6
S'p\xf0}|:_\xd2?'
p1074
tp1075
Rp1076
tp1077
a(S'john craig (mathematician)'
p1078
g2
(g6
S'\x81\xe0Z\xd8\xbb\\\xd2?'
p1079
tp1080
Rp1081
tp1082
a(S'evolutionary graph theory'
p1083
g2
(g6
S'\x18S\x1e\xe6vN\xd2?'
p1084
tp1085
Rp1086
tp1087
a(S'big o in probability notation'
p1088
g2
(g6
S'K\x0b\x86\xe7\xfbL\xd2?'
p1089
tp1090
Rp1091
tp1092
a(S'possibility theory'
p1093
g2
(g6
S'\xe9mk\xe5\tE\xd2?'
p1094
tp1095
Rp1096
tp1097
a(S'law of the unconscious statistician'
p1098
g2
(g6
S'\xc5\x1d{h/9\xd2?'
p1099
tp1100
Rp1101
tp1102
a(S'lester dubins'
p1103
g2
(g6
S'\xb35\x12\xc5\x9b8\xd2?'
p1104
tp1105
Rp1106
tp1107
a(S'nonadiabatic transition state theory'
p1108
g2
(g6
S'!\xdf\x07\xb4\xc54\xd2?'
p1109
tp1110
Rp1111
tp1112
a(S'lov\xc3\xa1sz local lemma'
p1113
g2
(g6
S'.\xb6\x8f!\x150\xd2?'
p1114
tp1115
Rp1116
tp1117
a(S'mean-preserving spread'
p1118
g2
(g6
S';\xd8\xac%\x1e+\xd2?'
p1119
tp1120
Rp1121
tp1122
a(S'conditioning (probability)'
p1123
g2
(g6
S'K#\x106Y\x1f\xd2?'
p1124
tp1125
Rp1126
tp1127
a(S'bayesian hierarchical modeling'
p1128
g2
(g6
S'\x8e^\xde\xf5o\x1e\xd2?'
p1129
tp1130
Rp1131
tp1132
a(S'cls method (particle physics)'
p1133
g2
(g6
S'\x1c\xd5\x90\x0f%\x1d\xd2?'
p1134
tp1135
Rp1136
tp1137
a(S"chauvenet's criterion"
p1138
g2
(g6
S'\xbd\xc7\x0b;\xf0\x02\xd2?'
p1139
tp1140
Rp1141
tp1142
a(S'bapat\xe2\x80\x93beg theorem'
p1143
g2
(g6
S'PQ\xe8\xc4\x96\xfe\xd1?'
p1144
tp1145
Rp1146
tp1147
a(S'born rule'
p1148
g2
(g6
S'\xb4\xae\x0f|\xa1\xfd\xd1?'
p1149
tp1150
Rp1151
tp1152
a(S'cumulative frequency analysis'
p1153
g2
(g6
S'\x1c\x17\x9f\x9d\xa2\xfc\xd1?'
p1154
tp1155
Rp1156
tp1157
a(S'statistical proof'
p1158
g2
(g6
S'\xea\xf8~an\xf6\xd1?'
p1159
tp1160
Rp1161
tp1162
a(S'piling-up lemma'
p1163
g2
(g6
S'\xb9\xd0\x04\x96U\xf4\xd1?'
p1164
tp1165
Rp1166
tp1167
a(S'law of large numbers'
p1168
g2
(g6
S'V_B\xffw\xee\xd1?'
p1169
tp1170
Rp1171
tp1172
a(S'parametric family'
p1173
g2
(g6
S'\x15\xda+\xf7\xa6\xed\xd1?'
p1174
tp1175
Rp1176
tp1177
a(S'inverse probability weighting'
p1178
g2
(g6
S'\xc0*\x9dC\xa9\xdc\xd1?'
p1179
tp1180
Rp1181
tp1182
a(S'idempotent measure'
p1183
g2
(g6
S'H\xef=Sp\xd3\xd1?'
p1184
tp1185
Rp1186
tp1187
a(S'probabilistic causation'
p1188
g2
(g6
S"['\x89\xce=\xc8\xd1?"
p1189
tp1190
Rp1191
tp1192
a(S"berkson's paradox"
p1193
g2
(g6
S'0\xd7\x97\xf3z\xbd\xd1?'
p1194
tp1195
Rp1196
tp1197
a(S'bernoulli trial'
p1198
g2
(g6
S'[qo\x88\x14\xa6\xd1?'
p1199
tp1200
Rp1201
tp1202
a(S'minimal-entropy martingale measure'
p1203
g2
(g6
S'\x07\xbb.w/\xa3\xd1?'
p1204
tp1205
Rp1206
tp1207
a(S'outcome (probability)'
p1208
g2
(g6
S'])gE\x00\xa2\xd1?'
p1209
tp1210
Rp1211
tp1212
a(S'normal variance-mean mixture'
p1213
g2
(g6
S'/\xe4"\xee \x92\xd1?'
p1214
tp1215
Rp1216
tp1217
a(S'ambiguity effect'
p1218
g2
(g6
S'0\xb8\x8a8o\x8e\xd1?'
p1219
tp1220
Rp1221
tp1222
a(S'force of mortality'
p1223
g2
(g6
S'G\x0cq\xa0\x93\x8b\xd1?'
p1224
tp1225
Rp1226
tp1227
a(S'poker probability (omaha)'
p1228
g2
(g6
S'^=\x16\x9f\xee\x87\xd1?'
p1229
tp1230
Rp1231
tp1232
a(S'product of experts'
p1233
g2
(g6
S'c\xcc\xf6\xce\xe9\x85\xd1?'
p1234
tp1235
Rp1236
tp1237
a(S'choquet integral'
p1238
g2
(g6
S'\x16\xd90kbz\xd1?'
p1239
tp1240
Rp1241
tp1242
a(S'fiducial inference'
p1243
g2
(g6
S'\x91\x01\xcb?Ax\xd1?'
p1244
tp1245
Rp1246
tp1247
a(S'set function'
p1248
g2
(g6
S'\x02ih\x1d2v\xd1?'
p1249
tp1250
Rp1251
tp1252
a(S'wilfrid kendall'
p1253
g2
(g6
S'\x7f<\xa0O\xf7m\xd1?'
p1254
tp1255
Rp1256
tp1257
a(S'gambling mathematics'
p1258
g2
(g6
S'\xedp}J\xd9f\xd1?'
p1259
tp1260
Rp1261
tp1262
a(S'measurement uncertainty'
p1263
g2
(g6
S'9L&\x85\xd1T\xd1?'
p1264
tp1265
Rp1266
tp1267
a(S'probability distribution fitting'
p1268
g2
(g6
S'\xaf\xbe\xfd`\xdaK\xd1?'
p1269
tp1270
Rp1271
tp1272
a(S'studentized range distribution'
p1273
g2
(g6
S'M)\xc8\xe4yI\xd1?'
p1274
tp1275
Rp1276
tp1277
a(S'survey sampling'
p1278
g2
(g6
S'\xf2\xe3\x15so9\xd1?'
p1279
tp1280
Rp1281
tp1282
a(S'symmetric probability distribution'
p1283
g2
(g6
S'\x05\xd8kV\x199\xd1?'
p1284
tp1285
Rp1286
tp1287
a(S'calibrated probability assessment'
p1288
g2
(g6
S"\x1e)'J\x847\xd1?"
p1289
tp1290
Rp1291
tp1292
a(S'conditional probability table'
p1293
g2
(g6
S'\x02\xed\x93\x95\xd46\xd1?'
p1294
tp1295
Rp1296
tp1297
a(S'double counting (fallacy)'
p1298
g2
(g6
S'\xb1F\x87K\x084\xd1?'
p1299
tp1300
Rp1301
tp1302
a(S'van houtum distribution'
p1303
g2
(g6
S'\xeb\xc2\xee\x17\xd23\xd1?'
p1304
tp1305
Rp1306
tp1307
a(S'bayesian inference'
p1308
g2
(g6
S'\x0e\xe6\xf0\xe0/"\xd1?'
p1309
tp1310
Rp1311
tp1312
a(S'high probability instruction'
p1313
g2
(g6
S']m\x9b\xd9\xc3\x1d\xd1?'
p1314
tp1315
Rp1316
tp1317
a(S'query likelihood model'
p1318
g2
(g6
S'\x19-@%\xad\x1b\xd1?'
p1319
tp1320
Rp1321
tp1322
a(S'john edmund kerrich'
p1323
g2
(g6
S'\xe4\x93\x84\xed\xa0\x1b\xd1?'
p1324
tp1325
Rp1326
tp1327
a(S'normal-exponential-gamma distribution'
p1328
g2
(g6
S'\x9d\xb2\x90\xb4V\x08\xd1?'
p1329
tp1330
Rp1331
tp1332
a(S'people v. collins'
p1333
g2
(g6
S'6\xcb\x8d_o\xf7\xd0?'
p1334
tp1335
Rp1336
tp1337
a(S'stochastic block model'
p1338
g2
(g6
S'\xb5\xe9\xff\xfb\xeb\xf4\xd0?'
p1339
tp1340
Rp1341
tp1342
a(S"ewens's sampling formula"
p1343
g2
(g6
S'j2De=\xf3\xd0?'
p1344
tp1345
Rp1346
tp1347
a(S'transferable belief model'
p1348
g2
(g6
S'\xa5\x02\xcb*\xf3\xd5\xd0?'
p1349
tp1350
Rp1351
tp1352
a(S'evidence under bayes theorem'
p1353
g2
(g6
S'\xee\xcc \x90R\xd2\xd0?'
p1354
tp1355
Rp1356
tp1357
a(S'koml\xc3\xb3s\xe2\x80\x93major\xe2\x80\x93tusn\xc3\xa1dy approximation'
p1358
g2
(g6
S'Q{\xe8\xa2\x1d\xd0\xd0?'
p1359
tp1360
Rp1361
tp1362
a(S'expected utility hypothesis'
p1363
g2
(g6
S'k\x07\x03\xf2\x13\xcf\xd0?'
p1364
tp1365
Rp1366
tp1367
a(S'robust bayesian analysis'
p1368
g2
(g6
S'\xa6!Q\x99y\xc7\xd0?'
p1369
tp1370
Rp1371
tp1372
a(S'h\xc3\xa9lyette geman'
p1373
g2
(g6
S'Ej\xf45\x7f\xc3\xd0?'
p1374
tp1375
Rp1376
tp1377
a(S'mutual exclusivity'
p1378
g2
(g6
S'\xf3\xb4\xd0\xfd\x9d\xc2\xd0?'
p1379
tp1380
Rp1381
tp1382
a(S'harald cram\xc3\xa9r'
p1383
g2
(g6
S'H:$\x19\xe3\xc0\xd0?'
p1384
tp1385
Rp1386
tp1387
a(S'thomas m. liggett'
p1388
g2
(g6
S'\xe8M\x17\x02f\xac\xd0?'
p1389
tp1390
Rp1391
tp1392
a(S'bayesian inference in phylogeny'
p1393
g2
(g6
S'*M,$I\xa9\xd0?'
p1394
tp1395
Rp1396
tp1397
a(S'qualitative risk analysis'
p1398
g2
(g6
S'\xe2C\x9a\x06\xeb\xa5\xd0?'
p1399
tp1400
Rp1401
tp1402
a(S'chapman\xe2\x80\x93kolmogorov equation'
p1403
g2
(g6
S"'\x0f\xa8\xd8\x85\xa1\xd0?"
p1404
tp1405
Rp1406
tp1407
a(S'laurent saloff-coste'
p1408
g2
(g6
S'\xda\xb9\xd2x\xf7\x98\xd0?'
p1409
tp1410
Rp1411
tp1412
a(S'universal probability bound'
p1413
g2
(g6
S'\xaa\xc4?\xa7R\x93\xd0?'
p1414
tp1415
Rp1416
tp1417
a(S'georg bohlmann'
p1418
g2
(g6
S'\x0e9\x86\xc5\xb6\x91\xd0?'
p1419
tp1420
Rp1421
tp1422
a(S'stochastic context-free grammar'
p1423
g2
(g6
S'{y}\xebi\x91\xd0?'
p1424
tp1425
Rp1426
tp1427
a(S'scoring rule'
p1428
g2
(g6
S'\xce\xc4\x12\x8a$\x8c\xd0?'
p1429
tp1430
Rp1431
tp1432
a(S'free independence'
p1433
g2
(g6
S'a?\xb3J\x17\x7f\xd0?'
p1434
tp1435
Rp1436
tp1437
a(S"condorcet's jury theorem"
p1438
g2
(g6
S'IR\xfc\x02/~\xd0?'
p1439
tp1440
Rp1441
tp1442
a(S'disintegration theorem'
p1443
g2
(g6
S'{y\x0cGHz\xd0?'
p1444
tp1445
Rp1446
tp1447
a(S'arrival theorem'
p1448
g2
(g6
S'[\xd7\xa9>\xaek\xd0?'
p1449
tp1450
Rp1451
tp1452
a(S'infinite dimensional analysis, quantum probability and related topics'
p1453
g2
(g6
S'aV\x03"#e\xd0?'
p1454
tp1455
Rp1456
tp1457
a(S'wigner semicircle distribution'
p1458
g2
(g6
S'\xeb\xc3D*\xcbd\xd0?'
p1459
tp1460
Rp1461
tp1462
a(S'likelihood function'
p1463
g2
(g6
S'eJ8%\xd7b\xd0?'
p1464
tp1465
Rp1466
tp1467
a(S'binomial test'
p1468
g2
(g6
S'\xb7\xd8\x8d+r_\xd0?'
p1469
tp1470
Rp1471
tp1472
a(S'circular distribution'
p1473
g2
(g6
S'fM\x1d\x91\x02\\\xd0?'
p1474
tp1475
Rp1476
tp1477
a(S'probabilistic classification'
p1478
g2
(g6
S'dBJU\x12Q\xd0?'
p1479
tp1480
Rp1481
tp1482
a(S'probability of error'
p1483
g2
(g6
S'K\xe8\x93p\xeeH\xd0?'
p1484
tp1485
Rp1486
tp1487
a(S'randomized rounding'
p1488
g2
(g6
S'.\xbc\xe5k <\xd0?'
p1489
tp1490
Rp1491
tp1492
a(S'hyperexponential distribution'
p1493
g2
(g6
S'\xa3\xe1\x98Q\x139\xd0?'
p1494
tp1495
Rp1496
tp1497
a(S'mathematical statistics'
p1498
g2
(g6
S'1\xc0\xf4\x1f\xc93\xd0?'
p1499
tp1500
Rp1501
tp1502
a(S'type-2 gumbel distribution'
p1503
g2
(g6
S'(\xd4\xd1L\x11#\xd0?'
p1504
tp1505
Rp1506
tp1507
a(S'unimodality'
p1508
g2
(g6
S'\x8cP\xb7\xad~\x1a\xd0?'
p1509
tp1510
Rp1511
tp1512
a.