(lp0
(S'internet forum'
p1
cnumpy.core.multiarray
scalar
p2
(cnumpy
dtype
p3
(S'f8'
p4
I0
I1
tp5
Rp6
(I3
S'<'
p7
NNNI-1
I-1
I0
tp8
bS'\x03\x00\x00\x00\x00\x00\xf0?'
p9
tp10
Rp11
tp12
a(S'comparison of internet forum software'
p13
g2
(g6
S'\rO:\xfe/\x80\xe4?'
p14
tp15
Rp16
tp17
a(S'xrumer'
p18
g2
(g6
S'\xddb\x7fuP\x06\xe2?'
p19
tp20
Rp21
tp22
a(S'krwetatnt'
p23
g2
(g6
S'\x8aL\x9d\x9c\x9a<\xe1?'
p24
tp25
Rp26
tp27
a(S'forum (legal)'
p28
g2
(g6
S'T\xf9X\x9d5\r\xe1?'
p29
tp30
Rp31
tp32
a(S'forum (roman)'
p33
g2
(g6
S'\x9a\x9c\xa1d\xcf\xe6\xe0?'
p34
tp35
Rp36
tp37
a(S'royal insight forum'
p38
g2
(g6
S'\xa8,\xff\xe3\xaf\xb8\xdf?'
p39
tp40
Rp41
tp42
a(S'ubuntu forums'
p43
g2
(g6
S'\x98\x9b\x98u8\xf5\xde?'
p44
tp45
Rp46
tp47
a(S'proboards'
p48
g2
(g6
S'#|\xaa/\x8f\x83\xde?'
p49
tp50
Rp51
tp52
a(S'social forum'
p53
g2
(g6
S'\x1a\xf2e*|x\xde?'
p54
tp55
Rp56
tp57
a(S'new york forum'
p58
g2
(g6
S'\x96\xad)\xed>b\xde?'
p59
tp60
Rp61
tp62
a(S'forum civilium'
p63
g2
(g6
S'J\x89iE$H\xde?'
p64
tp65
Rp66
tp67
a(S'tapatalk'
p68
g2
(g6
S'\xd3\xb4\xf3\x05\x105\xde?'
p69
tp70
Rp71
tp72
a(S'list of internet forums'
p73
g2
(g6
S'\x88|d\xa8\xf8\x04\xde?'
p74
tp75
Rp76
tp77
a(S'forum'
p78
g2
(g6
S'\x85#\x0c\xaf\xf8\xdf\xdd?'
p79
tp80
Rp81
tp82
a(S'redflagdeals.com'
p83
g2
(g6
S'\xd1P\x03>\x87p\xdd?'
p84
tp85
Rp86
tp87
a(S'airdisaster.com'
p88
g2
(g6
S'"\xe9k<M8\xdd?'
p89
tp90
Rp91
tp92
a(S'montada'
p93
g2
(g6
S'H\xdf_\x1bY\xe7\xdb?'
p94
tp95
Rp96
tp97
a(S'forum spam'
p98
g2
(g6
S'\x90_WX(\xd2\xdb?'
p99
tp100
Rp101
tp102
a(S'forum venalium'
p103
g2
(g6
S'\xe7\xf5@{+\xc2\xdb?'
p104
tp105
Rp106
tp107
a(S'beyond.ca'
p108
g2
(g6
S'\x8d\x8e\xaf\x04G^\xdb?'
p109
tp110
Rp111
tp112
a(S'peerweb'
p113
g2
(g6
S'K\xd1\x99\xa63N\xdb?'
p114
tp115
Rp116
tp117
a(S'gamefront'
p118
g2
(g6
S'7\x1d\xaa\x9e\x81K\xdb?'
p119
tp120
Rp121
tp122
a(S'global child forum'
p123
g2
(g6
S' \xf4jP\xb1J\xdb?'
p124
tp125
Rp126
tp127
a(S'veggieboards'
p128
g2
(g6
S'\xed\x81\xa3\xd4\x96\xf8\xda?'
p129
tp130
Rp131
tp132
a(S'nexopia'
p133
g2
(g6
S'7\x03\xe9\xed\x04\xf7\xda?'
p134
tp135
Rp136
tp137
a(S'neowin'
p138
g2
(g6
S'\xd6\t\xbb\xb8S\xe3\xda?'
p139
tp140
Rp141
tp142
a(S'world social forum'
p143
g2
(g6
S'O\x17\xdfi\xaf\xe1\xda?'
p144
tp145
Rp146
tp147
a(S'syndie'
p148
g2
(g6
S'\xfe\xd7\xee\xe0P\xc4\xda?'
p149
tp150
Rp151
tp152
a(S'forum.hr'
p153
g2
(g6
S'\xe4\xd6\xa3\x0c\xdd\xa5\xda?'
p154
tp155
Rp156
tp157
a(S'textboard'
p158
g2
(g6
S'\x81\xc8\x06QaQ\xda?'
p159
tp160
Rp161
tp162
a(S'elakiri'
p163
g2
(g6
S'^\xfa\xc1\x1f\x86\x05\xda?'
p164
tp165
Rp166
tp167
a(S'vbulletin'
p168
g2
(g6
S'\x18\xe0\xb6L\x98\xd3\xd9?'
p169
tp170
Rp171
tp172
a(S'alienbabeltech'
p173
g2
(g6
S'`,\x87Y\xa7\xb9\xd9?'
p174
tp175
Rp176
tp177
a(S'hkgolden'
p178
g2
(g6
S'\x85.!\xee\xd0\xb7\xd9?'
p179
tp180
Rp181
tp182
a(S'comicforum'
p183
g2
(g6
S"\xc9Y\xb9'}\xab\xd9?"
p184
tp185
Rp186
tp187
a(S'skyscrapercity'
p188
g2
(g6
S'Q\xdc\xcb\xd0\x1d\x9b\xd9?'
p189
tp190
Rp191
tp192
a(S'delphi (online service)'
p193
g2
(g6
S'\xef\xf2V\xf0\xf6M\xd9?'
p194
tp195
Rp196
tp197
a(S'youthdebates'
p198
g2
(g6
S'v\xdb\rW\x8e(\xd9?'
p199
tp200
Rp201
tp202
a(S'fudforum'
p203
g2
(g6
S'\xad-\xddse\xfd\xd8?'
p204
tp205
Rp206
tp207
a(S'tbilisis forumi'
p208
g2
(g6
S'R\xbez\x85H\xab\xd8?'
p209
tp210
Rp211
tp212
a(S'conversation threading'
p213
g2
(g6
S'\xf2\xda\xdd\x9c\x1fm\xd8?'
p214
tp215
Rp216
tp217
a(S'next-generation network services'
p218
g2
(g6
S'\xa3\xb2t\x0e\xa0c\xd8?'
p219
tp220
Rp221
tp222
a(S'jeuxvideo.com'
p223
g2
(g6
S'\x8a\xf7\x9c6uM\xd8?'
p224
tp225
Rp226
tp227
a(S'i am lonely will anyone speak to me'
p228
g2
(g6
S'\xa0\xd6]\x1d*=\xd8?'
p229
tp230
Rp231
tp232
a(S'the student room'
p233
g2
(g6
S'\x11\x97V\x8b\x15#\xd8?'
p234
tp235
Rp236
tp237
a(S'datalounge'
p238
g2
(g6
S'n\xcb\x01\xc5~\x12\xd8?'
p239
tp240
Rp241
tp242
a(S'roman forum'
p243
g2
(g6
S'lV\xf8(\xcd\xff\xd7?'
p244
tp245
Rp246
tp247
a(S'midwest social forum'
p248
g2
(g6
S'I\xe5\xdf\x1d\x85\xee\xd7?'
p249
tp250
Rp251
tp252
a(S'television without pity'
p253
g2
(g6
S'\xccWd\xca\xa4\xed\xd7?'
p254
tp255
Rp256
tp257
a(S'maccentral'
p258
g2
(g6
S'\xde\xc5\x90\x94%\xad\xd7?'
p259
tp260
Rp261
tp262
a(S'national preservation'
p263
g2
(g6
S'|\x82\n\xb3\x02\x9e\xd7?'
p264
tp265
Rp266
tp267
a(S'something awful'
p268
g2
(g6
S'K\xa6m\xd4^\x9b\xd7?'
p269
tp270
Rp271
tp272
a(S'trinity forum'
p273
g2
(g6
S'\x80\xe4Q\xb7\x14\x9a\xd7?'
p274
tp275
Rp276
tp277
a(S'2004 universal forum of cultures'
p278
g2
(g6
S'\xc8\xcf\x11\xa6\xe9q\xd7?'
p279
tp280
Rp281
tp282
a(S'rllmuk'
p283
g2
(g6
S'\xf7R6%\rj\xd7?'
p284
tp285
Rp286
tp287
a(S'st. petersburg international economic forum'
p288
g2
(g6
S'\xbeU\xc9_\x02j\xd7?'
p289
tp290
Rp291
tp292
a(S'muslimvillage forums'
p293
g2
(g6
S'@\xe4j\x1dI^\xd7?'
p294
tp295
Rp296
tp297
a(S'kaskus'
p298
g2
(g6
S'O\x01B\x05\xb8M\xd7?'
p299
tp300
Rp301
tp302
a(S'dlm forum'
p303
g2
(g6
S's\xf7\xcb:\x7f,\xd7?'
p304
tp305
Rp306
tp307
a(S'csdn'
p308
g2
(g6
S'\xa2Qp0. \xd7?'
p309
tp310
Rp311
tp312
a(S'world strategic forum'
p313
g2
(g6
S'K\xf8vv\x85\xfb\xd6?'
p314
tp315
Rp316
tp317
a(S'allakhazam'
p318
g2
(g6
S'f`J\xaf\x16\xf5\xd6?'
p319
tp320
Rp321
tp322
a(S'united states social forum'
p323
g2
(g6
S'%\xe1J\x9e\x06\xf4\xd6?'
p324
tp325
Rp326
tp327
a(S'off topic'
p328
g2
(g6
S'F\xcd\xfaR2\xe8\xd6?'
p329
tp330
Rp331
tp332
a(S'web community'
p333
g2
(g6
S'\x14/\xc3=\x1f\xd5\xd6?'
p334
tp335
Rp336
tp337
a(S'boston social forum'
p338
g2
(g6
S'y\x16\xc28\xae\xcb\xd6?'
p339
tp340
Rp341
tp342
a(S'hong kong discuss forum'
p343
g2
(g6
S'\x9d\xac\xf1\xe6R\xc6\xd6?'
p344
tp345
Rp346
tp347
a(S'the forum, rome ga'
p348
g2
(g6
S'\xfb]\xc0\x1br\xc3\xd6?'
p349
tp350
Rp351
tp352
a(S'cross-strait peace forum'
p353
g2
(g6
S'\xde%\xfd\x07;\xa4\xd6?'
p354
tp355
Rp356
tp357
a(S'forum corporation'
p358
g2
(g6
S'\x17\x13dz\xa1T\xd6?'
p359
tp360
Rp361
tp362
a(S'forum piscarium'
p363
g2
(g6
S'1\xa6\x80yWS\xd6?'
p364
tp365
Rp366
tp367
a(S'world urban forum'
p368
g2
(g6
S'\xfd\x8b\xbb\xc6\x06\x1b\xd6?'
p369
tp370
Rp371
tp372
a(S'austrian cultural forum'
p373
g2
(g6
S'Z\x9f\x1d\xe1\xcd\x17\xd6?'
p374
tp375
Rp376
tp377
a(S'international economic forum of the americas'
p378
g2
(g6
S'n\xf8\\}j\x15\xd6?'
p379
tp380
Rp381
tp382
a(S'anandtech'
p383
g2
(g6
S'\r\xb0<\x9eo\x14\xd6?'
p384
tp385
Rp386
tp387
a(S'q&a website'
p388
g2
(g6
S'\xb6\xbca\x9e\xd4\n\xd6?'
p389
tp390
Rp391
tp392
a(S'tm forum'
p393
g2
(g6
S'By{\x98\xc1\xd2\xd5?'
p394
tp395
Rp396
tp397
a(S'esotalk'
p398
g2
(g6
S'\xd2\x08\x1ds\x91\xb6\xd5?'
p399
tp400
Rp401
tp402
a(S'wireless innovation forum'
p403
g2
(g6
S'\xa2<mf\xfc\xad\xd5?'
p404
tp405
Rp406
tp407
a(S'community of democratic choice youth forum'
p408
g2
(g6
S'v\x05\x05D,\xac\xd5?'
p409
tp410
Rp411
tp412
a(S'toronto global forum'
p413
g2
(g6
S'!\xb8\xd0_0\xa8\xd5?'
p414
tp415
Rp416
tp417
a(S'strengthening nation forum'
p418
g2
(g6
S',\xe9N\xc8X\x8f\xd5?'
p419
tp420
Rp421
tp422
a(S'beehive forum'
p423
g2
(g6
S'x~z\\b\x84\xd5?'
p424
tp425
Rp426
tp427
a(S'munchausen by internet'
p428
g2
(g6
S'Q\x81hN\xc9\x82\xd5?'
p429
tp430
Rp431
tp432
a(S'the forum (inglewood, california)'
p433
g2
(g6
S'\xf3\xb0c\x88\x1bc\xd5?'
p434
tp435
Rp436
tp437
a(S'internal forum'
p438
g2
(g6
S'\x9e\xb2@8\xb5\\\xd5?'
p439
tp440
Rp441
tp442
a(S'rpgnet'
p443
g2
(g6
S'\x82\x1e*\xee|L\xd5?'
p444
tp445
Rp446
tp447
a(S'forum snowboarding'
p448
g2
(g6
S'\x04\xa8R*\x98K\xd5?'
p449
tp450
Rp451
tp452
a(S'open innovations (event)'
p453
g2
(g6
S'\x9bH\xc2B\x8a\x12\xd5?'
p454
tp455
Rp456
tp457
a(S'renaissance executive forums'
p458
g2
(g6
S'\xed\xd0\xcd\xcc\x10\x10\xd5?'
p459
tp460
Rp461
tp462
a(S'association forum of chicagoland'
p463
g2
(g6
S';\x9e|\x0e\x01\x0e\xd5?'
p464
tp465
Rp466
tp467
a(S'bluejackq'
p468
g2
(g6
S'\xcc\x87\xcf\x97L\x00\xd5?'
p469
tp470
Rp471
tp472
a(S'group (online social networking)'
p473
g2
(g6
S'L\xcf9\x9dj\xe9\xd4?'
p474
tp475
Rp476
tp477
a(S'forumwarz'
p478
g2
(g6
S'O\x1f\xfa\xb4\xc5\xd1\xd4?'
p479
tp480
Rp481
tp482
a(S'the orange room'
p483
g2
(g6
S'\xfaX\tY\xce\xc5\xd4?'
p484
tp485
Rp486
tp487
a(S'play-by-post role-playing game'
p488
g2
(g6
S'<\xe3\xcc@\xac\xc5\xd4?'
p489
tp490
Rp491
tp492
a(S'fishingkaki'
p493
g2
(g6
S'\xd7\xd3\xecgc\xa6\xd4?'
p494
tp495
Rp496
tp497
a(S'nicholas r\xc3\xa9millard'
p498
g2
(g6
S'\x083\xb3\x94\xf1\x9f\xd4?'
p499
tp500
Rp501
tp502
a(S'2007 universal forum of cultures'
p503
g2
(g6
S'\xcc\xf4\xf51Z\x8a\xd4?'
p504
tp505
Rp506
tp507
a(S'the forum of fargo-moorhead'
p508
g2
(g6
S'L\xb9\x04\x1b*\x82\xd4?'
p509
tp510
Rp511
tp512
a(S'elftown'
p513
g2
(g6
S'\xdb\xe4\xd3Z\xe3}\xd4?'
p514
tp515
Rp516
tp517
a(S'45th pacific islands forum'
p518
g2
(g6
S"\xab'\xace\xfd|\xd4?"
p519
tp520
Rp521
tp522
a(S'google help forums'
p523
g2
(g6
S'@sW\x89\xd1r\xd4?'
p524
tp525
Rp526
tp527
a(S'international economic forum'
p528
g2
(g6
S'\r\x89\n\xb3-h\xd4?'
p529
tp530
Rp531
tp532
a(S'forum civic center'
p533
g2
(g6
S'\xa6\xddS-\xcf]\xd4?'
p534
tp535
Rp536
tp537
a(S'mybroadband'
p538
g2
(g6
S'\x13O\x0e\xfb\xf15\xd4?'
p539
tp540
Rp541
tp542
a(S'aviation special interest group'
p543
g2
(g6
S'K\xa8\x91q\r/\xd4?'
p544
tp545
Rp546
tp547
a(S'linux.org.ru'
p548
g2
(g6
S'\x92\xcc\xad|l#\xd4?'
p549
tp550
Rp551
tp552
a(S'texags'
p553
g2
(g6
S'\xaaM$\x8ed\x1f\xd4?'
p554
tp555
Rp556
tp557
a(S'national forum on europe'
p558
g2
(g6
S'\xeao\xaa\xd5X\x19\xd4?'
p559
tp560
Rp561
tp562
a(S'twing'
p563
g2
(g6
S'\x8f\xab~\x8e\xd2\xfa\xd3?'
p564
tp565
Rp566
tp567
a(S'platinnetz'
p568
g2
(g6
S'2\x95tca\xef\xd3?'
p569
tp570
Rp571
tp572
a(S'crime forum'
p573
g2
(g6
S'\xd1\xf4&f\xe2\xe7\xd3?'
p574
tp575
Rp576
tp577
a(S'innovation forum'
p578
g2
(g6
S'x\xc6\xbc"z\xe2\xd3?'
p579
tp580
Rp581
tp582
a(S'the forum, norwich'
p583
g2
(g6
S'.9\xea\x1e\xa4\xdd\xd3?'
p584
tp585
Rp586
tp587
a(S'the hub (forum)'
p588
g2
(g6
S'\xac\xe5})e\xd3\xd3?'
p589
tp590
Rp591
tp592
a(S'yuku'
p593
g2
(g6
S'\x12\x0c\xdfC\xf4\xd2\xd3?'
p594
tp595
Rp596
tp597
a(S'forum shopping'
p598
g2
(g6
S'\xd6Zg\x07:\xc6\xd3?'
p599
tp600
Rp601
tp602
a(S'world business forum'
p603
g2
(g6
S'q\xa0\x06\xdcV\xbe\xd3?'
p604
tp605
Rp606
tp607
a(S'incredibots'
p608
g2
(g6
S'ap\x14\xb1\x10\xbd\xd3?'
p609
tp610
Rp611
tp612
a(S'it leader forum'
p613
g2
(g6
S'3zF\xd2\xdf\xb7\xd3?'
p614
tp615
Rp616
tp617
a(S'boao forum for asia'
p618
g2
(g6
S'\xb4ba\xa6,\xb4\xd3?'
p619
tp620
Rp621
tp622
a(S'world justice forum'
p623
g2
(g6
S'\x9c\xc7\x0f\xf3\xad\xaf\xd3?'
p624
tp625
Rp626
tp627
a(S'new forum'
p628
g2
(g6
S'\xa1\xcfC\x93\xf3\xa0\xd3?'
p629
tp630
Rp631
tp632
a(S'dslreports'
p633
g2
(g6
S'P\x89\xde.\x9b\x9f\xd3?'
p634
tp635
Rp636
tp637
a(S'broadband forum'
p638
g2
(g6
S'\x8a\x04\xad\x7f\xc7\x9d\xd3?'
p639
tp640
Rp641
tp642
a(S'talkback classroom'
p643
g2
(g6
S'\xd0\xc0\xb0\x8c\xfb\x97\xd3?'
p644
tp645
Rp646
tp647
a(S'healthboards'
p648
g2
(g6
S'\x027\x10\xab\x97\x90\xd3?'
p649
tp650
Rp651
tp652
a(S'tor carding forum'
p653
g2
(g6
S'\x97\xb3\x81\xedSr\xd3?'
p654
tp655
Rp656
tp657
a(S'william c. marcil'
p658
g2
(g6
S'{17\x00\xa5`\xd3?'
p659
tp660
Rp661
tp662
a(S'neogaf'
p663
g2
(g6
S'`U\x12\xa0\x0cP\xd3?'
p664
tp665
Rp666
tp667
a(S'medhelp'
p668
g2
(g6
S'(y\xf4\xdf\xbeM\xd3?'
p669
tp670
Rp671
tp672
a(S'wordfilter'
p673
g2
(g6
S'\xb1+\xde\x0f4J\xd3?'
p674
tp675
Rp676
tp677
a(S'metafilter'
p678
g2
(g6
S'9\xdb\x81xZ7\xd3?'
p679
tp680
Rp681
tp682
a(S'whirlpool (website)'
p683
g2
(g6
S'G\xc2i`\xe66\xd3?'
p684
tp685
Rp686
tp687
a(S'forum minority research institute'
p688
g2
(g6
S'\rj\xa5\xd8D1\xd3?'
p689
tp690
Rp691
tp692
a(S'the new york forum'
p693
g2
(g6
S'\x8d\xcc\xcc\xe88\x1b\xd3?'
p694
tp695
Rp696
tp697
a(S'information security awareness forum'
p698
g2
(g6
S'i&f< \x0e\xd3?'
p699
tp700
Rp701
tp702
a(S'internet ungovernance forum'
p703
g2
(g6
S'\xd0\xfb\xd2\x02\xd9\xf4\xd2?'
p704
tp705
Rp706
tp707
a(S'linuxforums.org'
p708
g2
(g6
S'%\x82,S\xa9\xee\xd2?'
p709
tp710
Rp711
tp712
a(S'roman forum (thessaloniki)'
p713
g2
(g6
S'\xd0\xcd\xbd\x8d\x88\xd9\xd2?'
p714
tp715
Rp716
tp717
a(S'milnet.ca'
p718
g2
(g6
S'\x8f\xf1\xda\x86\xad\xd5\xd2?'
p719
tp720
Rp721
tp722
a(S"global mayors' forum"
p723
g2
(g6
S'\xd6\xf6\x9e\xb7\x9e\xd5\xd2?'
p724
tp725
Rp726
tp727
a(S'forum invest'
p728
g2
(g6
S'=\xf7\xc2d\x99\xcc\xd2?'
p729
tp730
Rp731
tp732
a(S'the tech report'
p733
g2
(g6
S'l\xf6\xef\xec\x0e\xc6\xd2?'
p734
tp735
Rp736
tp737
a(S'multiple sclerosis discovery forum'
p738
g2
(g6
S'{\x90\xff\xc3c\xb3\xd2?'
p739
tp740
Rp741
tp742
a(S'open forum (australia)'
p743
g2
(g6
S'\xaf^N\xd8k\xac\xd2?'
p744
tp745
Rp746
tp747
a(S'literotica'
p748
g2
(g6
S'n\xd5@~\xd1\xa6\xd2?'
p749
tp750
Rp751
tp752
a(S'doom9'
p753
g2
(g6
S'\x9a\xa8\xa1\x9a\xc4\xa5\xd2?'
p754
tp755
Rp756
tp757
a(S'forum selection clause'
p758
g2
(g6
S"'\xf5\xe4\x02\xa4\x98\xd2?"
p759
tp760
Rp761
tp762
a(S'forum for stable currencies'
p763
g2
(g6
S'U+\xd6\xa2\x97\x89\xd2?'
p764
tp765
Rp766
tp767
a(S'straits forum'
p768
g2
(g6
S't\xf8\x82\xcd\x12\x88\xd2?'
p769
tp770
Rp771
tp772
a(S'global forum for health research'
p773
g2
(g6
S'\xa1v\x94\xd0\xf0k\xd2?'
p774
tp775
Rp776
tp777
a(S'forum of constantine'
p778
g2
(g6
S'\x13\x16\x80\xd6\x81Y\xd2?'
p779
tp780
Rp781
tp782
a(S'inoforum'
p783
g2
(g6
S'\xd9~\xefOUV\xd2?'
p784
tp785
Rp786
tp787
a(S'lesser-known candidates forum'
p788
g2
(g6
S'd<\xa3\xcd>F\xd2?'
p789
tp790
Rp791
tp792
a(S'macminute'
p793
g2
(g6
S'\xb9y\xfc4HE\xd2?'
p794
tp795
Rp796
tp797
a(S'virtualtourist'
p798
g2
(g6
S'\xda"S\x90J9\xd2?'
p799
tp800
Rp801
tp802
a(S'halifax international security forum'
p803
g2
(g6
S'n4\x0f\x1d\xbd+\xd2?'
p804
tp805
Rp806
tp807
a(S'dogs on acid'
p808
g2
(g6
S'\x0c^\xc45\xa1%\xd2?'
p809
tp810
Rp811
tp812
a(S'taringa!'
p813
g2
(g6
S'p\x9f6=\x81\x1f\xd2?'
p814
tp815
Rp816
tp817
a(S'pacific islands forum'
p818
g2
(g6
S'oRM\x86E\xe9\xd1?'
p819
tp820
Rp821
tp822
a(S'realgm'
p823
g2
(g6
S'\x96\x87C\x00T\xd9\xd1?'
p824
tp825
Rp826
tp827
a(S'civil forum'
p828
g2
(g6
S'\xae\tu\xa6\xbc\xd7\xd1?'
p829
tp830
Rp831
tp832
a(S'roman forum (plovdiv)'
p833
g2
(g6
S'0\xd8\x89\xe7\xd4\xc9\xd1?'
p834
tp835
Rp836
tp837
a(S"women's forum for the economy and society"
p838
g2
(g6
S'_,\xce\x96\xc5\xc3\xd1?'
p839
tp840
Rp841
tp842
a(S'forum of nerva'
p843
g2
(g6
S'*\x05\xe6J\xa0\xba\xd1?'
p844
tp845
Rp846
tp847
a(S'serb democratic forum'
p848
g2
(g6
S'\xdb\x9f\xfa\xdc!\x9d\xd1?'
p849
tp850
Rp851
tp852
a(S'comment spam'
p853
g2
(g6
S'2|\xfb\x89\x0b\x9c\xd1?'
p854
tp855
Rp856
tp857
a(S'aelyria'
p858
g2
(g6
S'\xa1\xf2\xb0\x0f\xa4\x97\xd1?'
p859
tp860
Rp861
tp862
a(S'picospan'
p863
g2
(g6
S'\xd5\x1c\xb9\xbb\x88\x84\xd1?'
p864
tp865
Rp866
tp867
a(S'the forum, london'
p868
g2
(g6
S'sNr\x17\x90u\xd1?'
p869
tp870
Rp871
tp872
a(S'secretary general of the pacific islands forum secretariat'
p873
g2
(g6
S'\x8e\x05\xae\x17\xabj\xd1?'
p874
tp875
Rp876
tp877
a(S'economic forum in krynica'
p878
g2
(g6
S'\x90\xf2\x1e\xdbQa\xd1?'
p879
tp880
Rp881
tp882
a(S'europharm forum'
p883
g2
(g6
S'\xc2\x08(\xa9\xd8P\xd1?'
p884
tp885
Rp886
tp887
a(S'city forum'
p888
g2
(g6
S'\x03g\xd78vN\xd1?'
p889
tp890
Rp891
tp892
a(S'webtretho'
p893
g2
(g6
S'>\xf4\x1a\x1aiN\xd1?'
p894
tp895
Rp896
tp897
a(S'world forum for democracy'
p898
g2
(g6
S'\xf3\xb7\xe7\xf7\xb0M\xd1?'
p899
tp900
Rp901
tp902
a(S'ubb.threads'
p903
g2
(g6
S'si\x82N1J\xd1?'
p904
tp905
Rp906
tp907
a(S'the forum newsweekly'
p908
g2
(g6
S'8\x8a3\xb2{C\xd1?'
p909
tp910
Rp911
tp912
a(S'the forum at 343 east 74th street'
p913
g2
(g6
S'\xc8\xe9R;\x108\xd1?'
p914
tp915
Rp916
tp917
a(S'forum for young canadians'
p918
g2
(g6
S'\x90=[b 2\xd1?'
p919
tp920
Rp921
tp922
a(S'flaming (internet)'
p923
g2
(g6
S'<u\x9d=i(\xd1?'
p924
tp925
Rp926
tp927
a(S'gminsidenews'
p928
g2
(g6
S'\xc77y4\x96$\xd1?'
p929
tp930
Rp931
tp932
a(S'catholic\xe2\x80\x93muslim forum'
p933
g2
(g6
S"\x80l'\xebL!\xd1?"
p934
tp935
Rp936
tp937
a(S'north/south consultative forum'
p938
g2
(g6
S'\xbc\xa7\xa2D\xf3\x1a\xd1?'
p939
tp940
Rp941
tp942
a(S'writers forum'
p943
g2
(g6
S'\x14\xd1CA\xd7\x19\xd1?'
p944
tp945
Rp946
tp947
a(S'world innovation forum (new york)'
p948
g2
(g6
S'D]\x89]\xee\x18\xd1?'
p949
tp950
Rp951
tp952
a(S'therussiaforum'
p953
g2
(g6
S'!w\x0b\x1c3\x11\xd1?'
p954
tp955
Rp956
tp957
a(S'seliger (forum)'
p958
g2
(g6
S'\x19\xbe\xbaI\xf2\r\xd1?'
p959
tp960
Rp961
tp962
a(S'guanshui (irrigation)'
p963
g2
(g6
S'\x8fsK\xdd\xa6\x08\xd1?'
p964
tp965
Rp966
tp967
a(S'egypt urban forum'
p968
g2
(g6
S'\xbd\xb9$\xd8B\xf3\xd0?'
p969
tp970
Rp971
tp972
a(S'iowa brown and black forum'
p973
g2
(g6
S'\xa1>(>\xc3\xf2\xd0?'
p974
tp975
Rp976
tp977
a(S'forum for peace and reconciliation'
p978
g2
(g6
S'\xe9ZPM\xf1\xf1\xd0?'
p979
tp980
Rp981
tp982
a(S'simple machines forum'
p983
g2
(g6
S'\xd2\x9c\x83\xa0~\xf0\xd0?'
p984
tp985
Rp986
tp987
a(S'shacknews'
p988
g2
(g6
S'\xcd\xdcE\x8fU\xee\xd0?'
p989
tp990
Rp991
tp992
a(S'flyertalk'
p993
g2
(g6
S'V\x81\xf7I\xfb\xea\xd0?'
p994
tp995
Rp996
tp997
a(S'conference of montreal'
p998
g2
(g6
S'\x995\x87\xcbK\xe7\xd0?'
p999
tp1000
Rp1001
tp1002
a(S'forum for democracy'
p1003
g2
(g6
S'E$\x0c[\x12\xe6\xd0?'
p1004
tp1005
Rp1006
tp1007
a(S"national middle schools' forum"
p1008
g2
(g6
S'\xfcB\x0e\x17`\xd4\xd0?'
p1009
tp1010
Rp1011
tp1012
a(S'northern ireland youth forum'
p1013
g2
(g6
S'\xc89f\xb9\xdd\xc9\xd0?'
p1014
tp1015
Rp1016
tp1017
a(S'universal forum of cultures'
p1018
g2
(g6
S'\x12(S0x\xc6\xd0?'
p1019
tp1020
Rp1021
tp1022
a(S'jeju peace forum'
p1023
g2
(g6
S'o\x93\xae\x1d1\xb9\xd0?'
p1024
tp1025
Rp1026
tp1027
a(S'national issues forums'
p1028
g2
(g6
S'X\x91\xa6\x83\xd4\xb8\xd0?'
p1029
tp1030
Rp1031
tp1032
a(S'los angeles forum for architecture and urban design'
p1033
g2
(g6
S'\x95H\x14\xc0\x1b\xb6\xd0?'
p1034
tp1035
Rp1036
tp1037
a(S'asian social forum'
p1038
g2
(g6
S'\xe6I\x10\xcep\xb4\xd0?'
p1039
tp1040
Rp1041
tp1042
a(S'sharereactor'
p1043
g2
(g6
S'\xcc\\K\xd3\xb3\xb2\xd0?'
p1044
tp1045
Rp1046
tp1047
a(S'user (computing)'
p1048
g2
(g6
S'\xa5\xb3Q\xfb\xd8\xab\xd0?'
p1049
tp1050
Rp1051
tp1052
a(S'forum mleczarskie'
p1053
g2
(g6
S'@\x80H\xd8\x89\xa6\xd0?'
p1054
tp1055
Rp1056
tp1057
a(S'shoutbox'
p1058
g2
(g6
S'\xef\xab\xcf\xfbD\x9d\xd0?'
p1059
tp1060
Rp1061
tp1062
a(S'thread'
p1063
g2
(g6
S'xr\xedl\x89\x99\xd0?'
p1064
tp1065
Rp1066
tp1067
a(S'gameplanet'
p1068
g2
(g6
S'\xca\xa8\xee\x17b\x98\xd0?'
p1069
tp1070
Rp1071
tp1072
a(S'the world forum for proximity of islamic schools of thought'
p1073
g2
(g6
S'\t\xdc]I\x0c\x95\xd0?'
p1074
tp1075
Rp1076
tp1077
a(S'eagle forum'
p1078
g2
(g6
S'\xe9\x00\xcfoN\x92\xd0?'
p1079
tp1080
Rp1081
tp1082
a(S'montreal forum'
p1083
g2
(g6
S'\xd6o\xeb\xc9^\x8a\xd0?'
p1084
tp1085
Rp1086
tp1087
a(S'mese (constantinople)'
p1088
g2
(g6
S'\x85\xa4\xfd\xdb\x9c\x88\xd0?'
p1089
tp1090
Rp1091
tp1092
a(S'namepros'
p1093
g2
(g6
S'+A\xea\x199\x84\xd0?'
p1094
tp1095
Rp1096
tp1097
a(S'flashback media group'
p1098
g2
(g6
S'\x9e\n\xae\x9a\xab\x81\xd0?'
p1099
tp1100
Rp1101
tp1102
a(S'commission for patient and public involvement in health'
p1103
g2
(g6
S'4\x9aA\xf4\xb0\x80\xd0?'
p1104
tp1105
Rp1106
tp1107
a(S'sharelin'
p1108
g2
(g6
S'\x89\t\x82Y\xd6}\xd0?'
p1109
tp1110
Rp1111
tp1112
a(S'social software'
p1113
g2
(g6
S'r4\xe0\xd8\xcfv\xd0?'
p1114
tp1115
Rp1116
tp1117
a(S'hit-and-run posting'
p1118
g2
(g6
S'\xae\x1e{\xc6Rv\xd0?'
p1119
tp1120
Rp1121
tp1122
a(S'anonymous post'
p1123
g2
(g6
S'~Vs$>s\xd0?'
p1124
tp1125
Rp1126
tp1127
a(S'forum of arcadius'
p1128
g2
(g6
S'\x04\xac\x8e[\xfea\xd0?'
p1129
tp1130
Rp1131
tp1132
a(S'hackthissite'
p1133
g2
(g6
S'\xda\xd5;\x8e4a\xd0?'
p1134
tp1135
Rp1136
tp1137
a(S'shadowcrew'
p1138
g2
(g6
S'\xbe\r\xa7\xaebL\xd0?'
p1139
tp1140
Rp1141
tp1142
a(S'world water forum'
p1143
g2
(g6
S'I\xcd\xcd\x17HB\xd0?'
p1144
tp1145
Rp1146
tp1147
a(S'the forum barrow'
p1148
g2
(g6
S'\xd1z\xbfo\xbe9\xd0?'
p1149
tp1150
Rp1151
tp1152
a(S'forum on education abroad'
p1153
g2
(g6
S'\xa5\xa8\xa8\x99s4\xd0?'
p1154
tp1155
Rp1156
tp1157
a(S'dogster'
p1158
g2
(g6
S'\x1e\xe7\x8aTa-\xd0?'
p1159
tp1160
Rp1161
tp1162
a(S'castlefield forum'
p1163
g2
(g6
S')U\xb9\x93a,\xd0?'
p1164
tp1165
Rp1166
tp1167
a(S'forum of caesar'
p1168
g2
(g6
S'e\x89v\xb0\xc2$\xd0?'
p1169
tp1170
Rp1171
tp1172
a(S'tunbridge wells forum'
p1173
g2
(g6
S'D\x9e\xfc\xce*#\xd0?'
p1174
tp1175
Rp1176
tp1177
a(S'forum (kolkata)'
p1178
g2
(g6
S'\x18\xf4\x80\x89M!\xd0?'
p1179
tp1180
Rp1181
tp1182
a(S'virtualdubmod'
p1183
g2
(g6
S'\xf8\xac\xacg_\x1f\xd0?'
p1184
tp1185
Rp1186
tp1187
a(S'australian software innovation forum'
p1188
g2
(g6
S'N\xe7-\xcf\xb5\x1b\xd0?'
p1189
tp1190
Rp1191
tp1192
a(S'new ireland forum'
p1193
g2
(g6
S'\x92\xf7^q\xd0\x19\xd0?'
p1194
tp1195
Rp1196
tp1197
a(S'/r/science'
p1198
g2
(g6
S';~\x90vh\x12\xd0?'
p1199
tp1200
Rp1201
tp1202
a(S'd3.ru'
p1203
g2
(g6
S'\xf2\xe1\xc073\x10\xd0?'
p1204
tp1205
Rp1206
tp1207
a(S'thread (computing)'
p1208
g2
(g6
S'\x85\xb3\x93\x07\xa6\x0e\xd0?'
p1209
tp1210
Rp1211
tp1212
a(S'the lviv publishers\xe2\x80\x99 forum'
p1213
g2
(g6
S'c\xe2M\xdf\x84\x0c\xd0?'
p1214
tp1215
Rp1216
tp1217
a(S'forum park, houston'
p1218
g2
(g6
S'\xa0\xaa\x05\x11O\n\xd0?'
p1219
tp1220
Rp1221
tp1222
a(S'yatchy'
p1223
g2
(g6
S'\x16rt*,\n\xd0?'
p1224
tp1225
Rp1226
tp1227
a(S'world holocaust forum'
p1228
g2
(g6
S'F\xe3\xcbx\xd7\x07\xd0?'
p1229
tp1230
Rp1231
tp1232
a(S'libervis network'
p1233
g2
(g6
S'\xc8\x94\xe4\xb3\x8c\x05\xd0?'
p1234
tp1235
Rp1236
tp1237
a(S'vancouver forum'
p1238
g2
(g6
S'!\xe4\x86\xcfv\x05\xd0?'
p1239
tp1240
Rp1241
tp1242
a(S'eng-tips forums'
p1243
g2
(g6
S')\xfe\xc2Kc\x00\xd0?'
p1244
tp1245
Rp1246
tp1247
a(S'dotmusic'
p1248
g2
(g6
S'UB\x13&G\xf6\xcf?'
p1249
tp1250
Rp1251
tp1252
a(S'college confidential (company)'
p1253
g2
(g6
S'\xc7\x80g)\x1b\xf6\xcf?'
p1254
tp1255
Rp1256
tp1257
a(S'linuxquestions.org'
p1258
g2
(g6
S'\x82\xba=;\xc1\xe9\xcf?'
p1259
tp1260
Rp1261
tp1262
a(S'delhi metropark'
p1263
g2
(g6
S'\xb2\xc7\xa4\xda\xfc\xe4\xcf?'
p1264
tp1265
Rp1266
tp1267
a(S'futures forum'
p1268
g2
(g6
S'\xfc\xdf\x92H\xc3\xe3\xcf?'
p1269
tp1270
Rp1271
tp1272
a(S'mit bbs'
p1273
g2
(g6
S'\n\xad2\x93f\xd7\xcf?'
p1274
tp1275
Rp1276
tp1277
a(S'2channel'
p1278
g2
(g6
S'\\\x83\xa2\x13\xda\xd5\xcf?'
p1279
tp1280
Rp1281
tp1282
a(S'spiliada maritime corp v cansulex ltd'
p1283
g2
(g6
S'u\xc8\x0e+$\xcb\xcf?'
p1284
tp1285
Rp1286
tp1287
a(S'vn-zoom'
p1288
g2
(g6
S'5\x0b(\xb8=\xc9\xcf?'
p1289
tp1290
Rp1291
tp1292
a(S'livedaily'
p1293
g2
(g6
S'\x8d1?\x83\x8d\xb1\xcf?'
p1294
tp1295
Rp1296
tp1297
a(S'medays'
p1298
g2
(g6
S'k\xa8\xb1\x84T\xa8\xcf?'
p1299
tp1300
Rp1301
tp1302
a(S'bigblueball (website)'
p1303
g2
(g6
S'o\x80|y\xca\xa0\xcf?'
p1304
tp1305
Rp1306
tp1307
a(S'cix'
p1308
g2
(g6
S'\xb7w\x88w\x8a\x9c\xcf?'
p1309
tp1310
Rp1311
tp1312
a(S'forum group'
p1313
g2
(g6
S'3NJ\xf1\x03\x9b\xcf?'
p1314
tp1315
Rp1316
tp1317
a(S'grono.net'
p1318
g2
(g6
S'\xc3\xa2\xc5ww\x92\xcf?'
p1319
tp1320
Rp1321
tp1322
a(S'screw thread'
p1323
g2
(g6
S'\xc9\x1a\x1c\xd3\xab\x84\xcf?'
p1324
tp1325
Rp1326
tp1327
a(S'end user'
p1328
g2
(g6
S'\x19\x96"\xb2xy\xcf?'
p1329
tp1330
Rp1331
tp1332
a(S'tuwaa'
p1333
g2
(g6
S'\x16/\x1cKhw\xcf?'
p1334
tp1335
Rp1336
tp1337
a(S'multithreading (computer architecture)'
p1338
g2
(g6
S'\xb4\x18\x82\xa6[k\xcf?'
p1339
tp1340
Rp1341
tp1342
a(S'threading (manufacturing)'
p1343
g2
(g6
S'q\xf0\x87\xd5\x86A\xcf?'
p1344
tp1345
Rp1346
tp1347
a(S'tugatech'
p1348
g2
(g6
S'\x8d\x88\x15\xfaxA\xcf?'
p1349
tp1350
Rp1351
tp1352
a(S'the rugby forum'
p1353
g2
(g6
S'\xfax\xf1\xd3\xf98\xcf?'
p1354
tp1355
Rp1356
tp1357
a(S'pacifica forum'
p1358
g2
(g6
S'7\xf3\x1b\xe4\xc42\xcf?'
p1359
tp1360
Rp1361
tp1362
a(S'global humanitarian forum'
p1363
g2
(g6
S'\xbd\x83N\x84j*\xcf?'
p1364
tp1365
Rp1366
tp1367
a(S'discourse (software)'
p1368
g2
(g6
S'\xe5\xc5\xb9\x8bG\x08\xcf?'
p1369
tp1370
Rp1371
tp1372
a(S'national immigration forum'
p1373
g2
(g6
S'\xfarY>/\xe7\xce?'
p1374
tp1375
Rp1376
tp1377
a(S'malayan forum'
p1378
g2
(g6
S'\xca\xcc\xea\xadZ\xd8\xce?'
p1379
tp1380
Rp1381
tp1382
a(S'international forum design'
p1383
g2
(g6
S'\xa2\x80\xf0\xcb1\xd6\xce?'
p1384
tp1385
Rp1386
tp1387
a(S'katowice forum'
p1388
g2
(g6
S'\x80\x92\x91Y:\xc3\xce?'
p1389
tp1390
Rp1391
tp1392
a(S'nojoom al baazah'
p1393
g2
(g6
S'\rqX\x98E\xb0\xce?'
p1394
tp1395
Rp1396
tp1397
a(S'frit forum'
p1398
g2
(g6
S'q@H\xbc]\xa8\xce?'
p1399
tp1400
Rp1401
tp1402
a(S'national academies forum'
p1403
g2
(g6
S'?\x91\xf2\x13M\x90\xce?'
p1404
tp1405
Rp1406
tp1407
a(S'the enterprise forum'
p1408
g2
(g6
S'\xd8\xdcj\xbaQ\x80\xce?'
p1409
tp1410
Rp1411
tp1412
a(S'npf'
p1413
g2
(g6
S"z\x83'\xe6A|\xce?"
p1414
tp1415
Rp1416
tp1417
a(S'light-weight process'
p1418
g2
(g6
S'$\\{.\x16o\xce?'
p1419
tp1420
Rp1421
tp1422
a(S'forum 2000'
p1423
g2
(g6
S'uT\x8bpbg\xce?'
p1424
tp1425
Rp1426
tp1427
a(S'uk defence forum'
p1428
g2
(g6
S'\xd7)|Tvb\xce?'
p1429
tp1430
Rp1431
tp1432
a(S'the oslo forum'
p1433
g2
(g6
S'D[\xc9.\xf0_\xce?'
p1434
tp1435
Rp1436
tp1437
a(S'forum for the future (bahrain 2005)'
p1438
g2
(g6
S'\xad\xe9Y\x88%^\xce?'
p1439
tp1440
Rp1441
tp1442
a(S'mactalk australia'
p1443
g2
(g6
S'%\xf8X\xd5\x15X\xce?'
p1444
tp1445
Rp1446
tp1447
a(S'valeria, spain (roman city)'
p1448
g2
(g6
S'+!\x8c\xc1\xdbT\xce?'
p1449
tp1450
Rp1451
tp1452
a(S'asian forum for human rights and development'
p1453
g2
(g6
S'\x08\x06\xcaoYL\xce?'
p1454
tp1455
Rp1456
tp1457
a(S'likealittle'
p1458
g2
(g6
S'l\xa2Az\x86A\xce?'
p1459
tp1460
Rp1461
tp1462
a(S'astana economic forum'
p1463
g2
(g6
S'\xddxB\xed>5\xce?'
p1464
tp1465
Rp1466
tp1467
a(S'financial services forum'
p1468
g2
(g6
S'3\xdb\x90\xda\xbb\x0c\xce?'
p1469
tp1470
Rp1471
tp1472
a(S'african social forum'
p1473
g2
(g6
S'[\xe1Px\xea\x06\xce?'
p1474
tp1475
Rp1476
tp1477
a(S'richard attias'
p1478
g2
(g6
S'WM\xc9Ca\x06\xce?'
p1479
tp1480
Rp1481
tp1482
a(S'takana'
p1483
g2
(g6
S'Zo\xbd\xc3\xf0\x04\xce?'
p1484
tp1485
Rp1486
tp1487
a(S'forum of bible agencies international'
p1488
g2
(g6
S'\xcf\xfci\x97\xe5\x04\xce?'
p1489
tp1490
Rp1491
tp1492
a(S'newsvine'
p1493
g2
(g6
S'}\x9dA\x91e\x01\xce?'
p1494
tp1495
Rp1496
tp1497
a(S'envirolink network'
p1498
g2
(g6
S'\xa7\x93{.?\xfb\xcd?'
p1499
tp1500
Rp1501
tp1502
a(S'pakbugs'
p1503
g2
(g6
S'\xad\x19\x85\\\x1d\xe4\xcd?'
p1504
tp1505
Rp1506
tp1507
a(S'dyestat'
p1508
g2
(g6
S'\x12\x0e\xd8bP\xdd\xcd?'
p1509
tp1510
Rp1511
tp1512
a.