(lp0
(S'introduction to algorithms'
p1
cnumpy.core.multiarray
scalar
p2
(cnumpy
dtype
p3
(S'f8'
p4
I0
I1
tp5
Rp6
(I3
S'<'
p7
NNNI-1
I-1
I0
tp8
bS'\xff\xff\xff\xff\xff\xff\xef?'
p9
tp10
Rp11
tp12
a(S'algorithms unlocked'
p13
g2
(g6
S'& \xf6O\x8b\xfd\xe1?'
p14
tp15
Rp16
tp17
a(S'international psychopharmacology algorithm project'
p18
g2
(g6
S'9d"]\x1c*\xe0?'
p19
tp20
Rp21
tp22
a(S'algorithm (c++)'
p23
g2
(g6
S'\x15\xf4\x9a\x83@T\xde?'
p24
tp25
Rp26
tp27
a(S'yooreeka'
p28
g2
(g6
S'\x0b\n\xcfj\xe3\x81\xdd?'
p29
tp30
Rp31
tp32
a(S'dictionary of algorithms and data structures'
p33
g2
(g6
S'A\xf1\xca\x08UI\xdd?'
p34
tp35
Rp36
tp37
a(S'atlantic city algorithm'
p38
g2
(g6
S'\x84d)\xe3\xef3\xdd?'
p39
tp40
Rp41
tp42
a(S'lemon (c++ library)'
p43
g2
(g6
S'9\xc0\x1e\x03\x9b\x1a\xdc?'
p44
tp45
Rp46
tp47
a(S'parallel algorithm'
p48
g2
(g6
S'\x07J\xea\xe2$v\xdb?'
p49
tp50
Rp51
tp52
a(S'guy blelloch'
p53
g2
(g6
S'~R{\xed\xbft\xdb?'
p54
tp55
Rp56
tp57
a(S'how to solve it by computer'
p58
g2
(g6
S'\xd6\x8a\rc|\x82\xda?'
p59
tp60
Rp61
tp62
a(S'roberto tamassia'
p63
g2
(g6
S'\xeb\\%\x0b7X\xda?'
p64
tp65
Rp66
tp67
a(S'search algorithm'
p68
g2
(g6
S'G\x00\xb5Zw\x0f\xda?'
p69
tp70
Rp71
tp72
a(S'automate this'
p73
g2
(g6
S'\x82\xb2kpW\xd3\xd9?'
p74
tp75
Rp76
tp77
a(S'clifford stein'
p78
g2
(g6
S'\x92\xa5\xfe~A\xc6\xd9?'
p79
tp80
Rp81
tp82
a(S'medical algorithm'
p83
g2
(g6
S'\xb3}#\x1f\xfat\xd9?'
p84
tp85
Rp86
tp87
a(S'algorithm'
p88
g2
(g6
S'\xc0\xdd=\x10-W\xd9?'
p89
tp90
Rp91
tp92
a(S'elki'
p93
g2
(g6
S'&\xc9\xc1\xf9\xdeR\xd9?'
p94
tp95
Rp96
tp97
a(S'9 algorithms that changed the future'
p98
g2
(g6
S'\x83\xd03\xe7\x80\xe5\xd8?'
p99
tp100
Rp101
tp102
a(S'in-place algorithm'
p103
g2
(g6
S'\xfa\xb4\xf8\xa2b\xd2\xd8?'
p104
tp105
Rp106
tp107
a(S'rule induction'
p108
g2
(g6
S'rU\xfd\x90\xd1\xaa\xd8?'
p109
tp110
Rp111
tp112
a(S'hybrid algorithm'
p113
g2
(g6
S'\xf7n\xc4aX\xa7\xd8?'
p114
tp115
Rp116
tp117
a(S'wojciech rytter'
p118
g2
(g6
S'\xebP\x9f\xe2\xe6\x9e\xd8?'
p119
tp120
Rp121
tp122
a(S'xdais algorithms'
p123
g2
(g6
S'\x9d\xb6\xbb\xd6\xf1c\xd8?'
p124
tp125
Rp126
tp127
a(S'mikkel thorup'
p128
g2
(g6
S'kQ\xa83\xbec\xd8?'
p129
tp130
Rp131
tp132
a(S'algorithms + data structures = programs'
p133
g2
(g6
S'! \xc8\xfcmP\xd8?'
p134
tp135
Rp136
tp137
a(S'brigitte vall\xc3\xa9e'
p138
g2
(g6
S'\xac\x1b\x94\xf7\x98L\xd8?'
p139
tp140
Rp141
tp142
a(S'algorithmica'
p143
g2
(g6
S'N\x8dqt\x03\x14\xd8?'
p144
tp145
Rp146
tp147
a(S'heuristiclab'
p148
g2
(g6
S'\xde\xe4\xf7\xa6Y\xc7\xd7?'
p149
tp150
Rp151
tp152
a(S'list of books in computational geometry'
p153
g2
(g6
S'\x89G\x1f\x1c\r\xc4\xd7?'
p154
tp155
Rp156
tp157
a(S'mohammad hajiaghayi'
p158
g2
(g6
S'2\xaa\xc4\xf5\xba\xc1\xd7?'
p159
tp160
Rp161
tp162
a(S'david e. goldberg'
p163
g2
(g6
S'\x0f\xeb\n\x1b\x9e\xb8\xd7?'
p164
tp165
Rp166
tp167
a(S'adaptive dimensional search'
p168
g2
(g6
S'\x19\x01T\xe6\xb1\x82\xd7?'
p169
tp170
Rp171
tp172
a(S'dorit s. hochbaum'
p173
g2
(g6
S']\x00\xe2\xdf\xefw\xd7?'
p174
tp175
Rp176
tp177
a(S'algorithms (journal)'
p178
g2
(g6
S'\x01\xcc\xb6=kN\xd7?'
p179
tp180
Rp181
tp182
a(S'astronomical algorithm'
p183
g2
(g6
S'6\xae\x0c\xba\x1dM\xd7?'
p184
tp185
Rp186
tp187
a(S'ompl'
p188
g2
(g6
S"'Nt1]C\xd7?"
p189
tp190
Rp191
tp192
a(S'leslie ann goldberg'
p193
g2
(g6
S'v\x1d0\xf2\xef\xd4\xd6?'
p194
tp195
Rp196
tp197
a(S'graphlab'
p198
g2
(g6
S'\xd6\x94\xf3ea\x89\xd6?'
p199
tp200
Rp201
tp202
a(S'mark jerrum'
p203
g2
(g6
S'\xd2l\x89t\x1aq\xd6?'
p204
tp205
Rp206
tp207
a(S'ravindran kannan'
p208
g2
(g6
S'\xaf\xeb\x14\x18#;\xd6?'
p209
tp210
Rp211
tp212
a(S'algorithms-aided design (aad)'
p213
g2
(g6
S'\xc5[\xd7\xbb\xc35\xd6?'
p214
tp215
Rp216
tp217
a(S'the art of computer programming'
p218
g2
(g6
S'0h\xc7\xf6\xf6\xe0\xd5?'
p219
tp220
Rp221
tp222
a(S'weighted majority algorithm'
p223
g2
(g6
S'\x99\xa2\xef\xfb(\xb8\xd5?'
p224
tp225
Rp226
tp227
a(S'randomized algorithms as zero-sum games'
p228
g2
(g6
S'\xed\x9d\x12J[\x8e\xd5?'
p229
tp230
Rp231
tp232
a(S'feret (facial recognition technology)'
p233
g2
(g6
S'\x0c)\x8b%\xa1\x8d\xd5?'
p234
tp235
Rp236
tp237
a(S'memetic algorithm'
p238
g2
(g6
S'\xd0\xee}\xb5Ud\xd5?'
p239
tp240
Rp241
tp242
a(S'automatic label placement'
p243
g2
(g6
S'\xd1\x1b\xd5_F\x16\xd5?'
p244
tp245
Rp246
tp247
a(S'acm transactions on algorithms'
p248
g2
(g6
S'\x00\x91\xa7XZ\x0f\xd5?'
p249
tp250
Rp251
tp252
a(S'empirical algorithmics'
p253
g2
(g6
S'\xe9\xa6\x13\xa0\x08\x0f\xd5?'
p254
tp255
Rp256
tp257
a(S'pattern recognition'
p258
g2
(g6
S'\xb0!\xf8\xf0\x97\x90\xd4?'
p259
tp260
Rp261
tp262
a(S'outline of computer science'
p263
g2
(g6
S'w\x84\xb0\xe5\xb4\x8b\xd4?'
p264
tp265
Rp266
tp267
a(S'genetic algorithm'
p268
g2
(g6
S'#\xa0j6RV\xd4?'
p269
tp270
Rp271
tp272
a(S'incremental learning'
p273
g2
(g6
S'/\xc7\xe5n\x86-\xd4?'
p274
tp275
Rp276
tp277
a(S'string searching algorithm'
p278
g2
(g6
S':\xde\x03\x12\xb3+\xd4?'
p279
tp280
Rp281
tp282
a(S'phonetic algorithm'
p283
g2
(g6
S'\xed!\x98-L!\xd4?'
p284
tp285
Rp286
tp287
a(S'output-sensitive algorithm'
p288
g2
(g6
S'H\x88\xee\x97\x98\x11\xd4?'
p289
tp290
Rp291
tp292
a(S'ronitt rubinfeld'
p293
g2
(g6
S'\x02;\xa4\x9bR\x0b\xd4?'
p294
tp295
Rp296
tp297
a(S'anytime algorithm'
p298
g2
(g6
S'O\x96\x97\x14=\x0b\xd4?'
p299
tp300
Rp301
tp302
a(S'mikhail atallah'
p303
g2
(g6
S'\x81\x8b\xf9\xa5\xf3\x06\xd4?'
p304
tp305
Rp306
tp307
a(S'synchronizer (algorithm)'
p308
g2
(g6
S'\x82\xdd\xc4\xeev\xfa\xd3?'
p309
tp310
Rp311
tp312
a(S'charles e. leiserson'
p313
g2
(g6
S'r\xb5\x91N\xca\xec\xd3?'
p314
tp315
Rp316
tp317
a(S'takao nishizeki'
p318
g2
(g6
S'\xab\x9e\xa4\xfa\xfd\xe5\xd3?'
p319
tp320
Rp321
tp322
a(S'generalized iterative scaling'
p323
g2
(g6
S'@\x8c6m\xd7\xd5\xd3?'
p324
tp325
Rp326
tp327
a(S'streaming algorithm'
p328
g2
(g6
S'\x04v\xc7IR\xcd\xd3?'
p329
tp330
Rp331
tp332
a(S'sorting algorithm'
p333
g2
(g6
S'\xc5\x0b\x12D\xa5\xc2\xd3?'
p334
tp335
Rp336
tp337
a(S'nesting algorithm'
p338
g2
(g6
S'\x0c\xa6\xe43\xab\xa8\xd3?'
p339
tp340
Rp341
tp342
a(S'marek chrobak'
p343
g2
(g6
S'T\xa1%\x0b"\x98\xd3?'
p344
tp345
Rp346
tp347
a(S'timeline of numerical analysis after 1945'
p348
g2
(g6
S'Yb\xf8OB\x8c\xd3?'
p349
tp350
Rp351
tp352
a(S'journal of graph algorithms and applications'
p353
g2
(g6
S'\xe0\x00RRg\x88\xd3?'
p354
tp355
Rp356
tp357
a(S'timeline of scientific computing'
p358
g2
(g6
S'7\xdaI-\x93\x7f\xd3?'
p359
tp360
Rp361
tp362
a(S'mathieu blanchette (computational biologist)'
p363
g2
(g6
S'\xfe\xe3\xa3\xa7%\x7f\xd3?'
p364
tp365
Rp366
tp367
a(S'dynamic problem (algorithms)'
p368
g2
(g6
S'\xfe\xd2/\xa0pY\xd3?'
p369
tp370
Rp371
tp372
a(S'alistair sinclair'
p373
g2
(g6
S'\x04\x1e\x96>\xdeO\xd3?'
p374
tp375
Rp376
tp377
a(S'master theorem'
p378
g2
(g6
S'w\xaa\xea\x10\\C\xd3?'
p379
tp380
Rp381
tp382
a(S'gad landau'
p383
g2
(g6
S'q.\xacK\xe5\x1d\xd3?'
p384
tp385
Rp386
tp387
a(S'quality control and genetic algorithms'
p388
g2
(g6
S'\x84\xddb;\xe6\x1c\xd3?'
p389
tp390
Rp391
tp392
a(S'lzrw'
p393
g2
(g6
S'*.\x1b {\x0f\xd3?'
p394
tp395
Rp396
tp397
a(S'las vegas algorithm'
p398
g2
(g6
S'\xa0\xea\xcdM\x0b\x0f\xd3?'
p399
tp400
Rp401
tp402
a(S'key wrap'
p403
g2
(g6
S'\xb7?8\x9d\x12\xf6\xd2?'
p404
tp405
Rp406
tp407
a(S'jung'
p408
g2
(g6
S'Kg\x97\xe6i\xef\xd2?'
p409
tp410
Rp411
tp412
a(S'claire mathieu'
p413
g2
(g6
S'\xac\xcd\x85\xf4\x1c\xe8\xd2?'
p414
tp415
Rp416
tp417
a(S'church (programming language)'
p418
g2
(g6
S'\xc6\x80\x16j\x07\xe8\xd2?'
p419
tp420
Rp421
tp422
a(S'santosh vempala'
p423
g2
(g6
S'o\xe1\xf6\xbe\xaf\xe3\xd2?'
p424
tp425
Rp426
tp427
a(S'image and object order rendering'
p428
g2
(g6
S'\x94\xe7M\x8d\xd5\xde\xd2?'
p429
tp430
Rp431
tp432
a(S'robert sedgewick (computer scientist)'
p433
g2
(g6
S'\xaa\x10\x13\x7f\xbe\xc1\xd2?'
p434
tp435
Rp436
tp437
a(S's. rao kosaraju'
p438
g2
(g6
S'N0\x92k\xb0\xbc\xd2?'
p439
tp440
Rp441
tp442
a(S'michael griebel'
p443
g2
(g6
S'\xdbh[\x03W\xa9\xd2?'
p444
tp445
Rp446
tp447
a(S'explicit multi-threading'
p448
g2
(g6
S'\xc1\xe5\x9e\x19\x86\xa6\xd2?'
p449
tp450
Rp451
tp452
a(S'martin farach-colton'
p453
g2
(g6
S'\r\xd5;\x83\xa9\xa2\xd2?'
p454
tp455
Rp456
tp457
a(S'integer sorting'
p458
g2
(g6
S'\x8b\xff\x00\x89\xbc\xa0\xd2?'
p459
tp460
Rp461
tp462
a(S'step detection'
p463
g2
(g6
S'n\x01-\xef\xcb\x99\xd2?'
p464
tp465
Rp466
tp467
a(S'david s. johnson'
p468
g2
(g6
S'.4#TK\x92\xd2?'
p469
tp470
Rp471
tp472
a(S'michael garey'
p473
g2
(g6
S'\xa8CG\xfd\xb7\x8f\xd2?'
p474
tp475
Rp476
tp477
a(S'approximation algorithm'
p478
g2
(g6
S',G\xc4\x08\x85\x8a\xd2?'
p479
tp480
Rp481
tp482
a(S'melanie mitchell'
p483
g2
(g6
S'O\xce;:\xee\x86\xd2?'
p484
tp485
Rp486
tp487
a(S'concurrent algorithm'
p488
g2
(g6
S'\x92\xcd\x17O\x19y\xd2?'
p489
tp490
Rp491
tp492
a(S'exact algorithm'
p493
g2
(g6
S'lP\xef\t\xf8l\xd2?'
p494
tp495
Rp496
tp497
a(S'paris kanellakis award'
p498
g2
(g6
S'\xb5\x99\x18l0R\xd2?'
p499
tp500
Rp501
tp502
a(S'precomputation'
p503
g2
(g6
S'\x0c\xb6)m\x89?\xd2?'
p504
tp505
Rp506
tp507
a(S'ernst mayr (computer scientist)'
p508
g2
(g6
S'A\xf1\xfd[\xa1.\xd2?'
p509
tp510
Rp511
tp512
a(S'line segment intersection'
p513
g2
(g6
S'\xdd;zP\xec"\xd2?'
p514
tp515
Rp516
tp517
a(S'algorithmic complexity'
p518
g2
(g6
S'\x8d\xfe+\xee_"\xd2?'
p519
tp520
Rp521
tp522
a(S'location-allocation'
p523
g2
(g6
S'\x0e\xd7\xfd\x97Q\x0f\xd2?'
p524
tp525
Rp526
tp527
a(S'kazuo iwama (computer scientist)'
p528
g2
(g6
S'\x03v\x0bK\xa0\xec\xd1?'
p529
tp530
Rp531
tp532
a(S'zvi galil'
p533
g2
(g6
S'J\xbaDZ\xfd\xe2\xd1?'
p534
tp535
Rp536
tp537
a(S'symposium on discrete algorithms'
p538
g2
(g6
S'x\xf0\xd7\xea\xe6\xd5\xd1?'
p539
tp540
Rp541
tp542
a(S'force-directed graph drawing'
p543
g2
(g6
S'\x17\x87\x19\xfbI\xd2\xd1?'
p544
tp545
Rp546
tp547
a(S'provably fair'
p548
g2
(g6
S'\x9cm\xc5\x08\xde\xce\xd1?'
p549
tp550
Rp551
tp552
a(S'ian munro (computer scientist)'
p553
g2
(g6
S'Z\xb1\xee\x0b\xe5\xc7\xd1?'
p554
tp555
Rp556
tp557
a(S'mbrace'
p558
g2
(g6
S'\x8dH\x8a\x9a\x9d\xbb\xd1?'
p559
tp560
Rp561
tp562
a(S'sweep line algorithm'
p563
g2
(g6
S'\xcd\xde\x05;,\xb3\xd1?'
p564
tp565
Rp566
tp567
a(S'hans l. bodlaender'
p568
g2
(g6
S'\xe0\xabI\xc7\x9f\xb1\xd1?'
p569
tp570
Rp571
tp572
a(S'evolutionary computation'
p573
g2
(g6
S'\x1cp\xe5\xcc\xc5\xa4\xd1?'
p574
tp575
Rp576
tp577
a(S'andrew v. goldberg'
p578
g2
(g6
S'\x8d\x03\xee7#\xa3\xd1?'
p579
tp580
Rp581
tp582
a(S'john pollard (mathematician)'
p583
g2
(g6
S'\x12\x04\x80\x00#\x99\xd1?'
p584
tp585
Rp586
tp587
a(S'kurt mehlhorn'
p588
g2
(g6
S'\xc9\x9bj\t\x03k\xd1?'
p589
tp590
Rp591
tp592
a(S'list of important publications in theoretical computer science'
p593
g2
(g6
S'@fz\x11\xb1g\xd1?'
p594
tp595
Rp596
tp597
a(S'guess value'
p598
g2
(g6
S'\x96\x07\xdd\xab\xbae\xd1?'
p599
tp600
Rp601
tp602
a(S'algorithmic composition'
p603
g2
(g6
S'\x16\xda\xe2F\xf8Z\xd1?'
p604
tp605
Rp606
tp607
a(S'european symposium on algorithms'
p608
g2
(g6
S'\x1ebt\xb7\xf8?\xd1?'
p609
tp610
Rp611
tp612
a(S'probabilistic analysis of algorithms'
p613
g2
(g6
S'\xfb:\xc3\xbb\xec?\xd1?'
p614
tp615
Rp616
tp617
a(S'carla savage'
p618
g2
(g6
S'\x1e\x84\x8d\xed\x19?\xd1?'
p619
tp620
Rp621
tp622
a(S'xin-she yang'
p623
g2
(g6
S'\xb1\xe3\x02\x1f\xb5;\xd1?'
p624
tp625
Rp626
tp627
a(S'group method of data handling'
p628
g2
(g6
S'\xc0\xbe\xba\x16\xa8-\xd1?'
p629
tp630
Rp631
tp632
a(S'asymptotic computational complexity'
p633
g2
(g6
S'\x9b\xc8<\x85]$\xd1?'
p634
tp635
Rp636
tp637
a(S'the algorithm auction'
p638
g2
(g6
S'\xe1>\xb08\xcd\x0e\xd1?'
p639
tp640
Rp641
tp642
a(S'emo welzl'
p643
g2
(g6
S'\xb7\x1b\xf6\xc3\xe5\x02\xd1?'
p644
tp645
Rp646
tp647
a(S'greedy algorithm'
p648
g2
(g6
S'\x1d\xe0\x87\xd2\\\xff\xd0?'
p649
tp650
Rp651
tp652
a(S'metaheuristic'
p653
g2
(g6
S'\xf3\xe7\x06\x00\x1f\xf3\xd0?'
p654
tp655
Rp656
tp657
a(S'giorgio ausiello'
p658
g2
(g6
S'I\xa8,\x94\xc0\xe2\xd0?'
p659
tp660
Rp661
tp662
a(S'any-angle path planning'
p663
g2
(g6
S'\x1cAg{\xa3\xe1\xd0?'
p664
tp665
Rp666
tp667
a(S'john hershberger'
p668
g2
(g6
S'&,\xf2\xaa*\xda\xd0?'
p669
tp670
Rp671
tp672
a(S'dan hirschberg'
p673
g2
(g6
S'\xa7\xb9\x84\xc2\x9d\xbd\xd0?'
p674
tp675
Rp676
tp677
a(S'lars arge'
p678
g2
(g6
S'l\x0f\x1cs\xcb\xa9\xd0?'
p679
tp680
Rp681
tp682
a(S'david eppstein'
p683
g2
(g6
S'g\xe9\xc6y\x8a\xa3\xd0?'
p684
tp685
Rp686
tp687
a(S'valerie king'
p688
g2
(g6
S'\x00G}\x1b0\xa3\xd0?'
p689
tp690
Rp691
tp692
a(S'moea framework'
p693
g2
(g6
S'\xa4\x93\x04 /\x99\xd0?'
p694
tp695
Rp696
tp697
a(S'peter eades'
p698
g2
(g6
S'\xa5[\x01\x85\x1f\x99\xd0?'
p699
tp700
Rp701
tp702
a(S'ricardo baeza-yates'
p703
g2
(g6
S'\xc47\xe5X\xda\x98\xd0?'
p704
tp705
Rp706
tp707
a(S'theoretical computer science'
p708
g2
(g6
S'\x9e\xa60\x01\x1e\x93\xd0?'
p709
tp710
Rp711
tp712
a(S'timeline of modern scientific computing'
p713
g2
(g6
S'\xf9\xc4\xda\x15\xf4\x8d\xd0?'
p714
tp715
Rp716
tp717
a(S'ivan stojmenovi\xc4\x87'
p718
g2
(g6
S'\x0c\xc2\x18\xa0B\x86\xd0?'
p719
tp720
Rp721
tp722
a(S'l-notation'
p723
g2
(g6
S'+E\x8f0%|\xd0?'
p724
tp725
Rp726
tp727
a(S'data structure'
p728
g2
(g6
S'k\xe0o\xea\x95v\xd0?'
p729
tp730
Rp731
tp732
a(S'athanasios tsakalidis'
p733
g2
(g6
S'\xab\x05\x10\xcb\x00v\xd0?'
p734
tp735
Rp736
tp737
a(S'jubatus'
p738
g2
(g6
S'\x9by\xce\xb6\xf0r\xd0?'
p739
tp740
Rp741
tp742
a(S'nesl'
p743
g2
(g6
S'\x86\x12\t\xb4hq\xd0?'
p744
tp745
Rp746
tp747
a(S'john hopcroft'
p748
g2
(g6
S'\xa1\x12\x84\x1d\x02p\xd0?'
p749
tp750
Rp751
tp752
a(S'algorithm engineering'
p753
g2
(g6
S'\xae\x13\x8c#El\xd0?'
p754
tp755
Rp756
tp757
a(S'marek karpinski'
p758
g2
(g6
S'\x9e\x86\xb8\xff\xaaj\xd0?'
p759
tp760
Rp761
tp762
a(S'cladogram'
p763
g2
(g6
S'O4\xcf~\xff`\xd0?'
p764
tp765
Rp766
tp767
a(S'robert tarjan'
p768
g2
(g6
S']\xb6\xaaSGU\xd0?'
p769
tp770
Rp771
tp772
a(S'uzi vishkin'
p773
g2
(g6
S'\x89\x95~s\xeaO\xd0?'
p774
tp775
Rp776
tp777
a(S'sartaj sahni'
p778
g2
(g6
S'\xe7F0\xec\xedH\xd0?'
p779
tp780
Rp781
tp782
a(S'stefan szeider'
p783
g2
(g6
S'\xc1\xc2\xec\x02\xfeF\xd0?'
p784
tp785
Rp786
tp787
a(S'chris umans'
p788
g2
(g6
S'\xab\xc4R\x01\x13>\xd0?'
p789
tp790
Rp791
tp792
a(S'cultural algorithm'
p793
g2
(g6
S'\x11c\xd8~U8\xd0?'
p794
tp795
Rp796
tp797
a(S'pexq'
p798
g2
(g6
S'\x1a\x8fj\xd1N1\xd0?'
p799
tp800
Rp801
tp802
a(S'australian research council centre of excellence for robotic vision'
p803
g2
(g6
S'\xcf\xdc\xe5a\xb6.\xd0?'
p804
tp805
Rp806
tp807
a(S'cosic'
p808
g2
(g6
S'\xe0|\xf0\xe3\xde-\xd0?'
p809
tp810
Rp811
tp812
a(S'motion planning'
p813
g2
(g6
S'Y\xf5Zf\x1c\x1e\xd0?'
p814
tp815
Rp816
tp817
a(S'quantopian'
p818
g2
(g6
S'\xcf\xe6x|X\x1d\xd0?'
p819
tp820
Rp821
tp822
a(S'library of efficient data types and algorithms'
p823
g2
(g6
S'\xc2\x19\xbeI\xe6\x13\xd0?'
p824
tp825
Rp826
tp827
a(S'stemming'
p828
g2
(g6
S'&q\xf4\x95\x08\xe6\xcf?'
p829
tp830
Rp831
tp832
a(S'with high probability'
p833
g2
(g6
S'\xe7\x00\xdf\x83\xe5\xe1\xcf?'
p834
tp835
Rp836
tp837
a(S'element distinctness problem'
p838
g2
(g6
S'r@\xa3\xef\xa4\xdc\xcf?'
p839
tp840
Rp841
tp842
a(S'randomized algorithm'
p843
g2
(g6
S'\x9f\xa7=\xfd<\xd4\xcf?'
p844
tp845
Rp846
tp847
a(S'shimon even'
p848
g2
(g6
S'\xf9\xa7\x92`\xf6\xbb\xcf?'
p849
tp850
Rp851
tp852
a(S'james mercer (mathematician)'
p853
g2
(g6
S'\x92\xd2h\xa0,\xa3\xcf?'
p854
tp855
Rp856
tp857
a(S'selection algorithm'
p858
g2
(g6
S'\x00\xae-\xa3\xf0\xa0\xcf?'
p859
tp860
Rp861
tp862
a(S'biclustering'
p863
g2
(g6
S'\xf0\xf4N\x10\x8f\xa0\xcf?'
p864
tp865
Rp866
tp867
a(S'parallel metaheuristic'
p868
g2
(g6
S'\xba7m\xc40\x8e\xcf?'
p869
tp870
Rp871
tp872
a(S'michael l. scott'
p873
g2
(g6
S'\xfc\xc3\x99\xc9\xd7\x84\xcf?'
p874
tp875
Rp876
tp877
a(S'map matching'
p878
g2
(g6
S'\xa1\x83\x13\x15{l\xcf?'
p879
tp880
Rp881
tp882
a(S'context of computational complexity'
p883
g2
(g6
S'+u\xc8\xa4JE\xcf?'
p884
tp885
Rp886
tp887
a(S'divide and conquer algorithm'
p888
g2
(g6
S'\xcbd\x9e5?<\xcf?'
p889
tp890
Rp891
tp892
a(S'robert van de geijn'
p893
g2
(g6
S'\xb2+\xc53\x83"\xcf?'
p894
tp895
Rp896
tp897
a(S'quantum algorithm'
p898
g2
(g6
S'\x19;\x04K\x82\x16\xcf?'
p899
tp900
Rp901
tp902
a(S'yebol'
p903
g2
(g6
S'\xbf\xa7\xa9\xad\x82\xe5\xce?'
p904
tp905
Rp906
tp907
a(S'hendrik lenstra'
p908
g2
(g6
S'r^\xad\xb1/\xd5\xce?'
p909
tp910
Rp911
tp912
a(S'ahmed sameh'
p913
g2
(g6
S'g\xda\xa5\x1e\x00\xca\xce?'
p914
tp915
Rp916
tp917
a(S'john iacono'
p918
g2
(g6
S'R\xdc\xde\xef]\xb9\xce?'
p919
tp920
Rp921
tp922
a(S'michael langston'
p923
g2
(g6
S'5\xd0\xfe3d\xaf\xce?'
p924
tp925
Rp926
tp927
a(S'william lawrence kocay'
p928
g2
(g6
S'~\x80\xbe\n\xd5\xa0\xce?'
p929
tp930
Rp931
tp932
a(S'weka (machine learning)'
p933
g2
(g6
S'Py\x8f\xd6i\x9f\xce?'
p934
tp935
Rp936
tp937
a(S'face recognition vendor test'
p938
g2
(g6
S'x\xf9\x97\xc4\xdc\x8f\xce?'
p939
tp940
Rp941
tp942
a(S'simulation algorithms for coupled devs'
p943
g2
(g6
S'\xd3{\xb7n\xb6\x8b\xce?'
p944
tp945
Rp946
tp947
a(S'fundamentum astronomiae'
p948
g2
(g6
S'\xd3i\xa9v\x94\x8a\xce?'
p949
tp950
Rp951
tp952
a(S'fast fourier transform'
p953
g2
(g6
S'F\x92`I\xa2\x87\xce?'
p954
tp955
Rp956
tp957
a(S'string-to-string correction problem'
p958
g2
(g6
S'\xc4\x93\x16\xe4U~\xce?'
p959
tp960
Rp961
tp962
a(S'stability (learning theory)'
p963
g2
(g6
S'e\xa6\xcf\x1cS~\xce?'
p964
tp965
Rp966
tp967
a(S'overwriting (computer science)'
p968
g2
(g6
S'\x08\xbf3:<|\xce?'
p969
tp970
Rp971
tp972
a(S'gensim'
p973
g2
(g6
S'\x8e{\xc1\xfa\xd5l\xce?'
p974
tp975
Rp976
tp977
a(S'out-of-core algorithm'
p978
g2
(g6
S'M\xec\x92\x1ea\\\xce?'
p979
tp980
Rp981
tp982
a(S'cfop method'
p983
g2
(g6
S'\xbfHY&\x97O\xce?'
p984
tp985
Rp986
tp987
a(S'timeline of computational mathematics'
p988
g2
(g6
S'\x80\xfc\x9f\xf4\x126\xce?'
p989
tp990
Rp991
tp992
a(S'urban traffic modeling and analysis'
p993
g2
(g6
S"S(\x81U'-\xce?"
p994
tp995
Rp996
tp997
a(S'dmitry shkarin'
p998
g2
(g6
S'\x96N:\xd0\xcb%\xce?'
p999
tp1000
Rp1001
tp1002
a(S'herbert edelsbrunner'
p1003
g2
(g6
S'\xc7\xa3\x07\xcf\x8c \xce?'
p1004
tp1005
Rp1006
tp1007
a(S'joel tropp'
p1008
g2
(g6
S'U\xb6\x84\xb0\x82\x1f\xce?'
p1009
tp1010
Rp1011
tp1012
a(S'anna karlin'
p1013
g2
(g6
S'\x18\x14\xc2&\xfc\x1a\xce?'
p1014
tp1015
Rp1016
tp1017
a(S'communication-avoiding algorithms'
p1018
g2
(g6
S'$\xe1\xd7z\xb2\x12\xce?'
p1019
tp1020
Rp1021
tp1022
a(S'programming collective intelligence'
p1023
g2
(g6
S'\x9e0gz\x13\xf5\xcd?'
p1024
tp1025
Rp1026
tp1027
a(S'setiquest'
p1028
g2
(g6
S'\xb3k9\x9e\xd8\xf3\xcd?'
p1029
tp1030
Rp1031
tp1032
a(S'ron rivest'
p1033
g2
(g6
S'Stj\xa8C\xe6\xcd?'
p1034
tp1035
Rp1036
tp1037
a(S'ecrypt'
p1038
g2
(g6
S'\r\x17+\xe8\x8f\xdc\xcd?'
p1039
tp1040
Rp1041
tp1042
a(S'incremental heuristic search'
p1043
g2
(g6
S'M{\xd9\xc0g\xd3\xcd?'
p1044
tp1045
Rp1046
tp1047
a(S'grammar induction'
p1048
g2
(g6
S'\x7f\x8d\x18C\x8c\xb1\xcd?'
p1049
tp1050
Rp1051
tp1052
a(S'pathfinding'
p1053
g2
(g6
S'IYT\x81[\x91\xcd?'
p1054
tp1055
Rp1056
tp1057
a(S'daniel spielman'
p1058
g2
(g6
S'\x12\xafkZ\x04\x80\xcd?'
p1059
tp1060
Rp1061
tp1062
a(S'range segmentation'
p1063
g2
(g6
S'?\x93c\x9a\xc1q\xcd?'
p1064
tp1065
Rp1066
tp1067
a(S'algorithmic efficiency'
p1068
g2
(g6
S'\xcf\xe8\xfc\x17id\xcd?'
p1069
tp1070
Rp1071
tp1072
a(S'pierluigi crescenzi'
p1073
g2
(g6
S"\xbeC<'\xaaa\xcd?"
p1074
tp1075
Rp1076
tp1077
a(S'machtey award'
p1078
g2
(g6
S'_\x95#\x03fD\xcd?'
p1079
tp1080
Rp1081
tp1082
a(S'quantum sort'
p1083
g2
(g6
S'[\xf8D\x17~B\xcd?'
p1084
tp1085
Rp1086
tp1087
a(S'j\xc3\xb6rg-r\xc3\xbcdiger sack'
p1088
g2
(g6
S'\xde\xa1\xd9p\x858\xcd?'
p1089
tp1090
Rp1091
tp1092
a(S'trajectory inc.'
p1093
g2
(g6
S'\xeb\xae\xd4D\t4\xcd?'
p1094
tp1095
Rp1096
tp1097
a(S"yao's principle"
p1098
g2
(g6
S'~\xdd\xc5>%-\xcd?'
p1099
tp1100
Rp1101
tp1102
a(S'hans-peter kriegel'
p1103
g2
(g6
S'^\x0e\x9d\x8d\xf6,\xcd?'
p1104
tp1105
Rp1106
tp1107
a(S'sequential access'
p1108
g2
(g6
S"\xdb\xa5CF\x1c'\xcd?"
p1109
tp1110
Rp1111
tp1112
a(S'bruce donald'
p1113
g2
(g6
S'.\x80\xf1\x0f&$\xcd?'
p1114
tp1115
Rp1116
tp1117
a(S'equioscillation theorem'
p1118
g2
(g6
S'\x12\xa59qx"\xcd?'
p1119
tp1120
Rp1121
tp1122
a(S'cgal'
p1123
g2
(g6
S'\x0eD$=\x84\x06\xcd?'
p1124
tp1125
Rp1126
tp1127
a(S'time complexity'
p1128
g2
(g6
S'6*\xe4u\x88\xfc\xcc?'
p1129
tp1130
Rp1131
tp1132
a(S'key generation'
p1133
g2
(g6
S'\x19\xae\xe4\xd8\x02\xee\xcc?'
p1134
tp1135
Rp1136
tp1137
a(S'rectilinear minimum spanning tree'
p1138
g2
(g6
S'/w8\tH\xd4\xcc?'
p1139
tp1140
Rp1141
tp1142
a(S'approximate string matching'
p1143
g2
(g6
S'\xaf\x81\xde\xfcV\xce\xcc?'
p1144
tp1145
Rp1146
tp1147
a(S'adversarial machine learning'
p1148
g2
(g6
S'`3-\xa08\xce\xcc?'
p1149
tp1150
Rp1151
tp1152
a(S'hashlife'
p1153
g2
(g6
S'n\xb2]\xf5\xa6\xb7\xcc?'
p1154
tp1155
Rp1156
tp1157
a(S'flooding algorithm'
p1158
g2
(g6
S'\xccZ\x9b\xce\xb8\xa4\xcc?'
p1159
tp1160
Rp1161
tp1162
a(S'acm transactions on mathematical software'
p1163
g2
(g6
S'%\x01\xdb`\xff\x9d\xcc?'
p1164
tp1165
Rp1166
tp1167
a(S'alglib'
p1168
g2
(g6
S'\x8c/f\x8bf\x99\xcc?'
p1169
tp1170
Rp1171
tp1172
a(S'peter j. fleming'
p1173
g2
(g6
S'5\xd3\xbc\x15\xa8\x82\xcc?'
p1174
tp1175
Rp1176
tp1177
a(S'black box group'
p1178
g2
(g6
S'\xd6\x91\x13\xeb\xc0\x81\xcc?'
p1179
tp1180
Rp1181
tp1182
a(S'steven skiena'
p1183
g2
(g6
S'\xce\rVj v\xcc?'
p1184
tp1185
Rp1186
tp1187
a(S'volker strassen'
p1188
g2
(g6
S'W@\xe6y\xd5j\xcc?'
p1189
tp1190
Rp1191
tp1192
a(S'swat and wads conferences'
p1193
g2
(g6
S'\xe9\xee\xc6\x8bjh\xcc?'
p1194
tp1195
Rp1196
tp1197
a(S'discrete hartley transform'
p1198
g2
(g6
S'E\xd9}!\xb9e\xcc?'
p1199
tp1200
Rp1201
tp1202
a(S'pankaj k. agarwal'
p1203
g2
(g6
S'\xaf\x1f\x8e\xd0\xc9c\xcc?'
p1204
tp1205
Rp1206
tp1207
a(S'piotr indyk'
p1208
g2
(g6
S'\xe8I\x896iP\xcc?'
p1209
tp1210
Rp1211
tp1212
a(S'peter richtarik'
p1213
g2
(g6
S'\xd0\xd9\xd7\xc2\xb4D\xcc?'
p1214
tp1215
Rp1216
tp1217
a(S'mperience'
p1218
g2
(g6
S'\x1d\xc9\x05\xd9\xb2:\xcc?'
p1219
tp1220
Rp1221
tp1222
a(S'graph-tool'
p1223
g2
(g6
S'\xce\xdf&\xf4\x8b\x1a\xcc?'
p1224
tp1225
Rp1226
tp1227
a(S'avrim blum'
p1228
g2
(g6
S'\xf9\x10\x80\xd2\r\x0f\xcc?'
p1229
tp1230
Rp1231
tp1232
a(S'vijay vazirani'
p1233
g2
(g6
S'\xd4\x8f\xba(\xcc\t\xcc?'
p1234
tp1235
Rp1236
tp1237
a(S'no free lunch in search and optimization'
p1238
g2
(g6
S'O:o\x9b\x90\xfb\xcb?'
p1239
tp1240
Rp1241
tp1242
a(S'gerhard j. woeginger'
p1243
g2
(g6
S'\xd4\xa7\xef\xe8\x0b\xf7\xcb?'
p1244
tp1245
Rp1246
tp1247
a(S'paradiseo'
p1248
g2
(g6
S'\xcd0m\xe6t\xf3\xcb?'
p1249
tp1250
Rp1251
tp1252
a(S'mcrypt'
p1253
g2
(g6
S'\x8fO\x12\xaf:\xec\xcb?'
p1254
tp1255
Rp1256
tp1257
a(S'susanne albers'
p1258
g2
(g6
S'#\xe3\x8f1=\xce\xcb?'
p1259
tp1260
Rp1261
tp1262
a(S'nancy lynch'
p1263
g2
(g6
S'\xa9\x9e\xff\xd1\xad\xcc\xcb?'
p1264
tp1265
Rp1266
tp1267
a(S'communications of the acm'
p1268
g2
(g6
S'j\xec#\xa3\xa0\xc5\xcb?'
p1269
tp1270
Rp1271
tp1272
a(S'stathis zachos'
p1273
g2
(g6
S'\xea\xc1\xf1A-\xb6\xcb?'
p1274
tp1275
Rp1276
tp1277
a(S'giuseppe f. italiano'
p1278
g2
(g6
S'\x05&\xb6v7\xb1\xcb?'
p1279
tp1280
Rp1281
tp1282
a(S'k-way merge algorithms'
p1283
g2
(g6
S'q0\x17;Z\xae\xcb?'
p1284
tp1285
Rp1286
tp1287
a(S'patrice ossona de mendez'
p1288
g2
(g6
S'\x0b\xb6I\x936\xad\xcb?'
p1289
tp1290
Rp1291
tp1292
a(S'super-recursive algorithm'
p1293
g2
(g6
S'g\xba\x1b.\x82\xac\xcb?'
p1294
tp1295
Rp1296
tp1297
a(S'evolutionary data mining'
p1298
g2
(g6
S'\x06\xed\x10\x8c}\xa3\xcb?'
p1299
tp1300
Rp1301
tp1302
a(S'statistical classification'
p1303
g2
(g6
S'\xc5\xd6\x99\x9e\xeb\x93\xcb?'
p1304
tp1305
Rp1306
tp1307
a(S'factor base'
p1308
g2
(g6
S'N\x9e\xac\x9a\x96\x91\xcb?'
p1309
tp1310
Rp1311
tp1312
a(S'michael mitzenmacher'
p1313
g2
(g6
S'\x99\x9c\xdc\xcd\xe2\x8d\xcb?'
p1314
tp1315
Rp1316
tp1317
a(S'geometric set cover problem'
p1318
g2
(g6
S'\xd6\xce\xb6/\x15v\xcb?'
p1319
tp1320
Rp1321
tp1322
a(S'cryptol'
p1323
g2
(g6
S'\xedFv\xf1=h\xcb?'
p1324
tp1325
Rp1326
tp1327
a(S'structure mining'
p1328
g2
(g6
S'\xdb\xc0Wn\x89I\xcb?'
p1329
tp1330
Rp1331
tp1332
a(S'teofilo f. gonzalez'
p1333
g2
(g6
S'>[\x82\x9a\xbaH\xcb?'
p1334
tp1335
Rp1336
tp1337
a(S'cypris (microchip)'
p1338
g2
(g6
S'}\xc4?b\xf1-\xcb?'
p1339
tp1340
Rp1341
tp1342
a(S'algorithmic paradigm'
p1343
g2
(g6
S'O?$u\x0c+\xcb?'
p1344
tp1345
Rp1346
tp1347
a(S'the harmful effects of algorithms in grades 1\xe2\x80\x934'
p1348
g2
(g6
S'tv!_\x16\x10\xcb?'
p1349
tp1350
Rp1351
tp1352
a(S'decorrelation'
p1353
g2
(g6
S'e\x94\x0b\x98P\xf6\xca?'
p1354
tp1355
Rp1356
tp1357
a(S'apache mahout'
p1358
g2
(g6
S'M\xa47\xa1\xf1\xf1\xca?'
p1359
tp1360
Rp1361
tp1362
a(S'olof b. widlund'
p1363
g2
(g6
S'\xe4\xd1\x02\xc9\xc8\xee\xca?'
p1364
tp1365
Rp1366
tp1367
a(S'fortmp'
p1368
g2
(g6
S'eK\xf9\x17\xf5\xea\xca?'
p1369
tp1370
Rp1371
tp1372
a(S'analysis of algorithms'
p1373
g2
(g6
S'\x9d/\xf6\x0be\xe5\xca?'
p1374
tp1375
Rp1376
tp1377
a(S'in-place matrix transposition'
p1378
g2
(g6
S'\x95k)\xfd\x89\xdd\xca?'
p1379
tp1380
Rp1381
tp1382
a(S'philippe flajolet'
p1383
g2
(g6
S'V\x8d\x9e\x086\xd7\xca?'
p1384
tp1385
Rp1386
tp1387
a(S"hacker's delight"
p1388
g2
(g6
S'\x11\x02\xa8\xa0\t\xd1\xca?'
p1389
tp1390
Rp1391
tp1392
a(S'anna c. gilbert'
p1393
g2
(g6
S'2\xce\x1fl`\xc4\xca?'
p1394
tp1395
Rp1396
tp1397
a(S'reconstruction algorithm'
p1398
g2
(g6
S'&\x0b\x9a\x1e6\xba\xca?'
p1399
tp1400
Rp1401
tp1402
a(S'simulation algorithms for atomic devs'
p1403
g2
(g6
S'\x10\xa1t\xb3\x86\xb4\xca?'
p1404
tp1405
Rp1406
tp1407
a(S'alfred aho'
p1408
g2
(g6
S'@<C\x87-\x88\xca?'
p1409
tp1410
Rp1411
tp1412
a(S'video copy detection'
p1413
g2
(g6
S'\x02h\x0b\xc3\xdd\x82\xca?'
p1414
tp1415
Rp1416
tp1417
a(S'modular audio recognition framework'
p1418
g2
(g6
S'\xda\x19\xff[f\x80\xca?'
p1419
tp1420
Rp1421
tp1422
a(S'minimum spanning tree'
p1423
g2
(g6
S')e\xc8\x0c\x00\x80\xca?'
p1424
tp1425
Rp1426
tp1427
a(S'online algorithm'
p1428
g2
(g6
S'\xb8VYp\xc8x\xca?'
p1429
tp1430
Rp1431
tp1432
a(S'moses charikar'
p1433
g2
(g6
S'\x14\x93\r\x08/x\xca?'
p1434
tp1435
Rp1436
tp1437
a(S'ipo underpricing algorithm'
p1438
g2
(g6
S'\xd9-\xd7UTq\xca?'
p1439
tp1440
Rp1441
tp1442
a(S'klam value'
p1443
g2
(g6
S'?\x92\x91\x92nk\xca?'
p1444
tp1445
Rp1446
tp1447
a(S'adaptive sort'
p1448
g2
(g6
S':k\xe7e+[\xca?'
p1449
tp1450
Rp1451
tp1452
a(S'computational visualistics'
p1453
g2
(g6
S'\xd0nC\xe6bW\xca?'
p1454
tp1455
Rp1456
tp1457
a(S'john black (cryptographer)'
p1458
g2
(g6
S':~\x83K\xd8N\xca?'
p1459
tp1460
Rp1461
tp1462
a(S'slowsort'
p1463
g2
(g6
S'\xd6\xe8\xd5\x81\xa9C\xca?'
p1464
tp1465
Rp1466
tp1467
a(S'jyrki alakuijala'
p1468
g2
(g6
S'\x88\x83LO\x13B\xca?'
p1469
tp1470
Rp1471
tp1472
a(S'angelika steger'
p1473
g2
(g6
S'\xd3\x03O\xc1\x03B\xca?'
p1474
tp1475
Rp1476
tp1477
a(S'robert r. korfhage'
p1478
g2
(g6
S'\x92\x87\x83\x12\xe8=\xca?'
p1479
tp1480
Rp1481
tp1482
a(S'binning (metagenomics)'
p1483
g2
(g6
S'\xe5\x85=\x99\xfd:\xca?'
p1484
tp1485
Rp1486
tp1487
a(S'srinidhi varadarajan'
p1488
g2
(g6
S'\x9c\xe1\xc2|\xf25\xca?'
p1489
tp1490
Rp1491
tp1492
a(S'thomas h. cormen'
p1493
g2
(g6
S'n\xd1\xc5\xeeW5\xca?'
p1494
tp1495
Rp1496
tp1497
a(S'wilmascope'
p1498
g2
(g6
S'\xab\x8f\xa75\x964\xca?'
p1499
tp1500
Rp1501
tp1502
a(S'computational number theory'
p1503
g2
(g6
S'\x86\xb5%\x98\x8a\x1c\xca?'
p1504
tp1505
Rp1506
tp1507
a(S'boosting (machine learning)'
p1508
g2
(g6
S'\xb9\x81?\x0e9\x1c\xca?'
p1509
tp1510
Rp1511
tp1512
a.