(lp0
(S'inverse kinematics'
p1
cnumpy.core.multiarray
scalar
p2
(cnumpy
dtype
p3
(S'f8'
p4
I0
I1
tp5
Rp6
(I3
S'<'
p7
NNNI-1
I-1
I0
tp8
bS'\xfc\xff\xff\xff\xff\xff\xef?'
p9
tp10
Rp11
tp12
a(S'robot kinematics'
p13
g2
(g6
S'\x88\xe8C\x00\xa6\xea\xe7?'
p14
tp15
Rp16
tp17
a(S'forward kinematics'
p18
g2
(g6
S'\x98\\\xd9\xc0@\xf8\xe6?'
p19
tp20
Rp21
tp22
a(S'kinematics equations'
p23
g2
(g6
S'\xafi7!\xbb\xdc\xe2?'
p24
tp25
Rp26
tp27
a(S'inverse dynamics'
p28
g2
(g6
S'\xcc\xf90\xd9\xb61\xe0?'
p29
tp30
Rp31
tp32
a(S'321 kinematic structure'
p33
g2
(g6
S'\xf9a|\x9d{}\xdd?'
p34
tp35
Rp36
tp37
a(S'gerard of brussels'
p38
g2
(g6
S'h\xf78ni\xdf\xdc?'
p39
tp40
Rp41
tp42
a(S'inverse (mathematics)'
p43
g2
(g6
S'\x06\xfe\x15\x83>b\xdc?'
p44
tp45
Rp46
tp47
a(S'kinematic chain'
p48
g2
(g6
S'R\x07{\xdf\xee\x12\xdb?'
p49
tp50
Rp51
tp52
a(S'inverse semigroup'
p53
g2
(g6
S'was\x1a\x8d[\xd9?'
p54
tp55
Rp56
tp57
a(S'openrave'
p58
g2
(g6
S'f*\xf8\x7f\x1f\x10\xd9?'
p59
tp60
Rp61
tp62
a(S'inverse problem'
p63
g2
(g6
S'T\xc7\x0c\x96\xd9r\xd8?'
p64
tp65
Rp66
tp67
a(S'drazin inverse'
p68
g2
(g6
S'7\xef\x9e&el\xd8?'
p69
tp70
Rp71
tp72
a(S'local inverse'
p73
g2
(g6
S"\x80\xb0'\x84Z\xec\xd7?"
p74
tp75
Rp76
tp77
a(S'inverse element'
p78
g2
(g6
S'\xe4#lI2\x98\xd7?'
p79
tp80
Rp81
tp82
a(S'visual3d'
p83
g2
(g6
S'\xdcH$l9V\xd7?'
p84
tp85
Rp86
tp87
a(S'generalized inverse'
p88
g2
(g6
S'\xa3\xf2\x82\x80w1\xd7?'
p89
tp90
Rp91
tp92
a(S'inverse function'
p93
g2
(g6
S'+"\xe8L7\x01\xd7?'
p94
tp95
Rp96
tp97
a(S'franz reuleaux'
p98
g2
(g6
S')S6\x93\xf7\xa5\xd6?'
p99
tp100
Rp101
tp102
a(S'sensory-motor map'
p103
g2
(g6
S'\x8a\x1dQ\xdfo\xc4\xd4?'
p104
tp105
Rp106
tp107
a(S'direct\xe2\x80\x93inverse language'
p108
g2
(g6
S'\x13\xc6\xdb\xc1\x83}\xd4?'
p109
tp110
Rp111
tp112
a(S'arm solution'
p113
g2
(g6
S'\xd4\x16\x16\xa3\x08\xfd\xd3?'
p114
tp115
Rp116
tp117
a(S'inverse functions and differentiation'
p118
g2
(g6
S'\xe02\xa1\xef\x97\xf0\xd3?'
p119
tp120
Rp121
tp122
a(S'revolute joint'
p123
g2
(g6
S'w0H\xe2K\x95\xd3?'
p124
tp125
Rp126
tp127
a(S'serial manipulator'
p128
g2
(g6
S',\x96\xf7\xf4\xadr\xd3?'
p129
tp130
Rp131
tp132
a(S'bionickangaroo'
p133
g2
(g6
S'\x19\x9b\xfc\x05v\x07\xd3?'
p134
tp135
Rp136
tp137
a(S'inverse multiplexer'
p138
g2
(g6
S'B\x8a\x13&\x80\xe3\xd2?'
p139
tp140
Rp141
tp142
a(S'armature (computer animation)'
p143
g2
(g6
S'\x93+\xdc\xca\xe1\xc1\xd2?'
p144
tp145
Rp146
tp147
a(S'weak inverse'
p148
g2
(g6
S'\xeaC"K\x9b\x9e\xd2?'
p149
tp150
Rp151
tp152
a(S'inverse relation'
p153
g2
(g6
S'j2\n\x84\x86O\xd2?'
p154
tp155
Rp156
tp157
a(S'pose to pose animation'
p158
g2
(g6
S'\x90\xbd\x94F\xb3\x10\xd2?'
p159
tp160
Rp161
tp162
a(S'kinematics'
p163
g2
(g6
S'\x0c\xf0\xd2ev\t\xd2?'
p164
tp165
Rp166
tp167
a(S'inverse trigonometric functions'
p168
g2
(g6
S')\xebkS\x14\x02\xd2?'
p169
tp170
Rp171
tp172
a(S'inverse limit'
p173
g2
(g6
S's\x8b\x97<\x14\x02\xd2?'
p174
tp175
Rp176
tp177
a(S'cylindrical joint'
p178
g2
(g6
S'\xd3\xd2+4\xab\xf9\xd1?'
p179
tp180
Rp181
tp182
a(S'lassi p\xc3\xa4iv\xc3\xa4rinta'
p183
g2
(g6
S'Xv~\x146\xf7\xd1?'
p184
tp185
Rp186
tp187
a(S'denavit\xe2\x80\x93hartenberg parameters'
p188
g2
(g6
S'\xfa\xa2\xd1p\xa4\xd5\xd1?'
p189
tp190
Rp191
tp192
a(S'inverse (logic)'
p193
g2
(g6
S'\xed\xb6\xe1\x96\x03\xcc\xd1?'
p194
tp195
Rp196
tp197
a(S'skeletal animation'
p198
g2
(g6
S'\xfb\x86\x0f\xc2\xf9\xbb\xd1?'
p199
tp200
Rp201
tp202
a(S'ludwig burmester'
p203
g2
(g6
S'=\xfa\xdd1d\xa9\xd1?'
p204
tp205
Rp206
tp207
a(S'inverse consequences'
p208
g2
(g6
S'\xc2\x82I\xcf\xd8\x96\xd1?'
p209
tp210
Rp211
tp212
a(S'inverse'
p213
g2
(g6
S'\xce\xf8\xb0\x13*{\xd1?'
p214
tp215
Rp216
tp217
a(S'regular semigroup'
p218
g2
(g6
S'\xd1ld\xa5Uj\xd1?'
p219
tp220
Rp221
tp222
a(S'kinemation'
p223
g2
(g6
S'`\x12\x1apNa\xd1?'
p224
tp225
Rp226
tp227
a(S'inverse scattering problem'
p228
g2
(g6
S'\x04\x0f\x0f\x84b^\xd1?'
p229
tp230
Rp231
tp232
a(S'symmetric inverse semigroup'
p233
g2
(g6
S'\xd7\xd8\x98\xfb49\xd1?'
p234
tp235
Rp236
tp237
a(S'kinematic diagram'
p238
g2
(g6
S'X\x13y0\x8a8\xd1?'
p239
tp240
Rp241
tp242
a(S'victor isakov'
p243
g2
(g6
S'\x1a\xe3\xf3\xbd*\xff\xd0?'
p244
tp245
Rp246
tp247
a(S'inversion in a sphere'
p248
g2
(g6
S'H\xb2\x0b\xb0\xe2\x95\xd0?'
p249
tp250
Rp251
tp252
a(S'multiplicative inverse'
p253
g2
(g6
S'\xc1\xe5\xb1\x9cZ@\xd0?'
p254
tp255
Rp256
tp257
a(S'pierre sabatier'
p258
g2
(g6
S'\xdc\x80d\x8f\xf7,\xd0?'
p259
tp260
Rp261
tp262
a(S'analytical dynamics'
p263
g2
(g6
S'<U!\xb9\xf3}\xcf?'
p264
tp265
Rp266
tp267
a(S'inverse search'
p268
g2
(g6
S'\xca\xe8\xf9\xff\x0bh\xcf?'
p269
tp270
Rp271
tp272
a(S'additive inverse'
p273
g2
(g6
S'y\xbc\xc7\x01PO\xcf?'
p274
tp275
Rp276
tp277
a(S'scaled inverse chi-squared distribution'
p278
g2
(g6
S':s\x89\xb2\x7f)\xcf?'
p279
tp280
Rp281
tp282
a(S'inverse demand function'
p283
g2
(g6
S'\x82\xe0/\xbe2\x1a\xcf?'
p284
tp285
Rp286
tp287
a(S'screw joint'
p288
g2
(g6
S' \xc2\x00\x89\xc9\xb0\xce?'
p289
tp290
Rp291
tp292
a(S'bruce harding'
p293
g2
(g6
S"\xd4\xa3'\xff&\x84\xce?"
p294
tp295
Rp296
tp297
a(S'constrained generalized inverse'
p298
g2
(g6
S'?\xeb.\xceSb\xce?'
p299
tp300
Rp301
tp302
a(S'invertible matrix'
p303
g2
(g6
S'\xd8\xa5\xf0\xd1\x851\xce?'
p304
tp305
Rp306
tp307
a(S'motion interpolation (computer graphics)'
p308
g2
(g6
S'\xb7y\x1c/\xa7\x11\xce?'
p309
tp310
Rp311
tp312
a(S'ragdoll physics'
p313
g2
(g6
S'\xa3\x1a\xf2\x1a\xfc\n\xce?'
p314
tp315
Rp316
tp317
a(S'inverse laplace transform'
p318
g2
(g6
S'\x96\xbf\xef\xaa\xb1\xd8\xcd?'
p319
tp320
Rp321
tp322
a(S'aleksandr kotelnikov'
p323
g2
(g6
S'V\x0e\x1e\xfb\xfe\xd1\xcd?'
p324
tp325
Rp326
tp327
a(S'jacobian matrix and determinant'
p328
g2
(g6
S"\x05\x91'\xa8\xa2\xc8\xcd?"
p329
tp330
Rp331
tp332
a(S'joint constraints'
p333
g2
(g6
S'\x05J\t\x97`\xc4\xcd?'
p334
tp335
Rp336
tp337
a(S'precision mechanics'
p338
g2
(g6
S'\xc5c\x01/\x98\xbc\xcd?'
p339
tp340
Rp341
tp342
a(S'inverse floating rate note'
p343
g2
(g6
S'\x031\xc4\x1c\xc3\xa1\xcd?'
p344
tp345
Rp346
tp347
a(S'inverse curve'
p348
g2
(g6
S'-j\xbf\x0c\x18k\xcd?'
p349
tp350
Rp351
tp352
a(S'inverse-wishart distribution'
p353
g2
(g6
S'\xe0\xf4\xc3\xa9\xda2\xcd?'
p354
tp355
Rp356
tp357
a(S'moore\xe2\x80\x93penrose pseudoinverse'
p358
g2
(g6
S'8e\xcc\xa0\x87\x0b\xcd?'
p359
tp360
Rp361
tp362
a(S'inverse function theorem'
p363
g2
(g6
S'\xa1\xc8\x06\x9dr\x03\xcd?'
p364
tp365
Rp366
tp367
a(S'robotics conventions'
p368
g2
(g6
S'\x02t\xd1\x1f\x81\xe1\xcc?'
p369
tp370
Rp371
tp372
a(S'scara'
p373
g2
(g6
S'Ll\xa9i\x9b\xa1\xcc?'
p374
tp375
Rp376
tp377
a(S'industrial robot'
p378
g2
(g6
S'\xd8/\x8e\x9b#v\xcc?'
p379
tp380
Rp381
tp382
a(S'equation solving'
p383
g2
(g6
S'E\xd4Q\xdc.W\xcc?'
p384
tp385
Rp386
tp387
a(S'inverse hyperbolic function'
p388
g2
(g6
S'\x18\x99\x1e\xab\x80*\xcc?'
p389
tp390
Rp391
tp392
a(S'list of integrals of inverse hyperbolic functions'
p393
g2
(g6
S'\xd9\x03\x01\x15\xa9\x1a\xcc?'
p394
tp395
Rp396
tp397
a(S'inverse care law'
p398
g2
(g6
S'\xb6\xc4\xe0\x18c\x1a\xcc?'
p399
tp400
Rp401
tp402
a(S'robot calibration'
p403
g2
(g6
S'<x&Z \x15\xcc?'
p404
tp405
Rp406
tp407
a(S"vincenty's formulae"
p408
g2
(g6
S'\xe1#q\x16T\xfe\xcb?'
p409
tp410
Rp411
tp412
a(S'inverse distribution'
p413
g2
(g6
S'p\x9a\xa6\xa3\x9d\xee\xcb?'
p414
tp415
Rp416
tp417
a(S'rijndael s-box'
p418
g2
(g6
S'$T\x90r\xd7\xec\xcb?'
p419
tp420
Rp421
tp422
a(S'jacobian conjecture'
p423
g2
(g6
S'6\x17\xf0{\xf9\x9d\xcb?'
p424
tp425
Rp426
tp427
a(S'quasi-newton inverse least squares method'
p428
g2
(g6
S'l\xc8\xa6\xdc\xe9\x8d\xcb?'
p429
tp430
Rp431
tp432
a(S'inverse-square law'
p433
g2
(g6
S'\xa1\xae\x8d#\x944\xcb?'
p434
tp435
Rp436
tp437
a(S'ferdinand freudenstein'
p438
g2
(g6
S'\xd1\xb2\x91\xae5*\xcb?'
p439
tp440
Rp441
tp442
a(S'2mass 0532+8246'
p443
g2
(g6
S'\xceU^P\xac\x03\xcb?'
p444
tp445
Rp446
tp447
a(S'cybermotion 3d'
p448
g2
(g6
S'\xb5\xbd\r:\xd4\x9d\xca?'
p449
tp450
Rp451
tp452
a(S'bibliography of popular physics concepts'
p453
g2
(g6
S'\x8c\xef\xf8o\x94\x91\xca?'
p454
tp455
Rp456
tp457
a(S'prismatic joint'
p458
g2
(g6
S'\x84\x08\x13\xefNw\xca?'
p459
tp460
Rp461
tp462
a(S'automotive suspension design'
p463
g2
(g6
S'RQ\x08%\xe8Q\xca?'
p464
tp465
Rp466
tp467
a(S'inverse gaussian distribution'
p468
g2
(g6
S'|\x9dA\x11%5\xca?'
p469
tp470
Rp471
tp472
a(S'index of robotics articles'
p473
g2
(g6
S'\x10C\r\x10C\x05\xca?'
p474
tp475
Rp476
tp477
a(S'automationml'
p478
g2
(g6
S'\x15mN\x92(\xd6\xc9?'
p479
tp480
Rp481
tp482
a(S'inverse mills ratio'
p483
g2
(g6
S'\xa4\xdd\xae\x12\x17\xcc\xc9?'
p484
tp485
Rp486
tp487
a(S'binomial inverse theorem'
p488
g2
(g6
S'\x03/%Ul\xb6\xc9?'
p489
tp490
Rp491
tp492
a(S"broyden's method"
p493
g2
(g6
S'.\xfc\x84&\xa3\xad\xc9?'
p494
tp495
Rp496
tp497
a(S'inverse filter'
p498
g2
(g6
S'\xaf\xed\xf7w\x14\xac\xc9?'
p499
tp500
Rp501
tp502
a(S'inverse quadratic interpolation'
p503
g2
(g6
S'H\x1e\xef\xd4$\xa2\xc9?'
p504
tp505
Rp506
tp507
a(S'normal-inverse-gamma distribution'
p508
g2
(g6
S'\xb3oH\xa1\xf3y\xc9?'
p509
tp510
Rp511
tp512
a(S'common normal (robotics)'
p513
g2
(g6
S'V\x12\xfet\x02q\xc9?'
p514
tp515
Rp516
tp517
a(S'kinematic self-replicating machines'
p518
g2
(g6
S'B\xa7oH\x9de\xc9?'
p519
tp520
Rp521
tp522
a(S'inverse matrix gamma distribution'
p523
g2
(g6
S':\xb7S0<b\xc9?'
p524
tp525
Rp526
tp527
a(S'fast inverse square root'
p528
g2
(g6
S'\xb7\xda\xe6\xae\x95]\xc9?'
p529
tp530
Rp531
tp532
a(S'rational motion'
p533
g2
(g6
S'\xdci\xf5\xab\xfbM\xc9?'
p534
tp535
Rp536
tp537
a(S'actin (software)'
p538
g2
(g6
S'\xdeI+\xda\xa1I\xc9?'
p539
tp540
Rp541
tp542
a(S'internal model (motor control)'
p543
g2
(g6
S'\xf1q\x1dW\xb73\xc9?'
p544
tp545
Rp546
tp547
a(S'seismic inverse q filtering'
p548
g2
(g6
S'\x01\xfcJ(0%\xc9?'
p549
tp550
Rp551
tp552
a(S'limited-memory bfgs'
p553
g2
(g6
S'\xd2F\x1c\n\x8f\x1f\xc9?'
p554
tp555
Rp556
tp557
a(S'normal-inverse-wishart distribution'
p558
g2
(g6
S'\xb7b\xd5\xc3\xd2\xdb\xc8?'
p559
tp560
Rp561
tp562
a(S'sherman\xe2\x80\x93morrison formula'
p563
g2
(g6
S'\x1e\x94\xbc\xa2\t\xc4\xc8?'
p564
tp565
Rp566
tp567
a(S'pocketdelta robot'
p568
g2
(g6
S'V9\x0f\xf6g\xc0\xc8?'
p569
tp570
Rp571
tp572
a(S'gudermannian function'
p573
g2
(g6
S'l[J??\xbd\xc8?'
p574
tp575
Rp576
tp577
a(S'glossary of robotics'
p578
g2
(g6
S'\\\xe2\xac\xab\x01\x82\xc8?'
p579
tp580
Rp581
tp582
a(S'mikko kaasalainen'
p583
g2
(g6
S'\x0fj\xc3\x81,`\xc8?'
p584
tp585
Rp586
tp587
a(S'stellar drift'
p588
g2
(g6
S'\xa5:\xd9\xb7SO\xc8?'
p589
tp590
Rp591
tp592
a(S'inverse transform sampling'
p593
g2
(g6
S'$\x9b\xec\xfa\x82=\xc8?'
p594
tp595
Rp596
tp597
a(S'inverse scattering transform'
p598
g2
(g6
S':\xb1=\xe0j.\xc8?'
p599
tp600
Rp601
tp602
a(S'inverse-variance weighting'
p603
g2
(g6
S'\xa1\xf4\xb6H\x92)\xc8?'
p604
tp605
Rp606
tp607
a(S'machine (mechanical)'
p608
g2
(g6
S'g\x8d\xa0E\x07\x13\xc8?'
p609
tp610
Rp611
tp612
a(S'kinematic pair'
p613
g2
(g6
S'\xccsY\x02}\x0b\xc8?'
p614
tp615
Rp616
tp617
a(S'normal-inverse gaussian distribution'
p618
g2
(g6
S'-\xc3\xf1c\xdb\xe6\xc7?'
p619
tp620
Rp621
tp622
a(S'chiplust'
p623
g2
(g6
S'\xe55\xabu\xc1\xdb\xc7?'
p624
tp625
Rp626
tp627
a(S'emma vyssotsky'
p628
g2
(g6
S'\x12\x8f\xc4/3\xd8\xc7?'
p629
tp630
Rp631
tp632
a(S'jack (human modeling)'
p633
g2
(g6
S'A\xef.m\xc7\xd0\xc7?'
p634
tp635
Rp636
tp637
a(S'generalized inverse gaussian distribution'
p638
g2
(g6
S'\x87\xdc;XE\xcf\xc7?'
p639
tp640
Rp641
tp642
a(S'inverse condemnation'
p643
g2
(g6
S'jUe\xed\xc6\x8d\xc7?'
p644
tp645
Rp646
tp647
a(S'opensim (simulation toolkit)'
p648
g2
(g6
S'\x1c\xba"9U\x8a\xc7?'
p649
tp650
Rp651
tp652
a(S'brandt semigroup'
p653
g2
(g6
S'^\x16\xa7\xcb\x93v\xc7?'
p654
tp655
Rp656
tp657
a(S'\xe2\x88\x921'
p658
g2
(g6
S',6\xb9T%8\xc7?'
p659
tp660
Rp661
tp662
a(S'robot software'
p663
g2
(g6
S'\xff\xe7o\xf3\x8e2\xc7?'
p664
tp665
Rp666
tp667
a(S'quick return mechanism'
p668
g2
(g6
S'=\xb6[\x19\x95\x1d\xc7?'
p669
tp670
Rp671
tp672
a(S'kenneth h. hunt'
p673
g2
(g6
S'\xdeZr\x96,\x0e\xc7?'
p674
tp675
Rp676
tp677
a(S'john suppe'
p678
g2
(g6
S'\xd3\x02\xbfN\xf5\xf9\xc6?'
p679
tp680
Rp681
tp682
a(S'inverse agonist'
p683
g2
(g6
S'\xad\xa71\\\xbf\xf7\xc6?'
p684
tp685
Rp686
tp687
a(S'inhour'
p688
g2
(g6
S'C\xec\x15\xf9\xa1\xef\xc6?'
p689
tp690
Rp691
tp692
a(S'inverse-chi-squared distribution'
p693
g2
(g6
S'\xf5\xd2\xa3@.\xe6\xc6?'
p694
tp695
Rp696
tp697
a(S'system of linear equations'
p698
g2
(g6
S'\r\x14\xbc\x0f8\xe1\xc6?'
p699
tp700
Rp701
tp702
a(S'general motion control'
p703
g2
(g6
S'T\xdc\x1bX\xb5\xe0\xc6?'
p704
tp705
Rp706
tp707
a(S'atlas 3d survey'
p708
g2
(g6
S'X?\xa6G\xda\xdb\xc6?'
p709
tp710
Rp711
tp712
a(S'sliced inverse regression'
p713
g2
(g6
S'\xdc\xb3*8O\xc0\xc6?'
p714
tp715
Rp716
tp717
a(S'taarlab'
p718
g2
(g6
S'\xdaq2\xcc!\xc0\xc6?'
p719
tp720
Rp721
tp722
a(S'the international journal of robotics research'
p723
g2
(g6
S'\xe2uu|\xe9\xbd\xc6?'
p724
tp725
Rp726
tp727
a(S"newton's theorem of revolving orbits"
p728
g2
(g6
S'~\xb7\xbc\x84\xee\xa8\xc6?'
p729
tp730
Rp731
tp732
a(S'inverse-gamma distribution'
p733
g2
(g6
S'~5\xfd\x05|\x9e\xc6?'
p734
tp735
Rp736
tp737
a(S'inverse bundle'
p738
g2
(g6
S'\x18\x99=\xf4\x82\x8d\xc6?'
p739
tp740
Rp741
tp742
a(S'inverse probability'
p743
g2
(g6
S'\xad\x99\x0b\x0b\xdd\x8a\xc6?'
p744
tp745
Rp746
tp747
a(S'matrix-free methods'
p748
g2
(g6
S'\x81S\xb0NB\x81\xc6?'
p749
tp750
Rp751
tp752
a(S'inverse iteration'
p753
g2
(g6
S'\x129\xc6\xa7\x1ea\xc6?'
p754
tp755
Rp756
tp757
a(S'fk'
p758
g2
(g6
S'\xc0\xb4\xee\xb6[Z\xc6?'
p759
tp760
Rp761
tp762
a(S'autodesk motionbuilder'
p763
g2
(g6
S'\xca\xaa+40I\xc6?'
p764
tp765
Rp766
tp767
a(S'fragmotion'
p768
g2
(g6
S"v-_\xa3\xda'\xc6?"
p769
tp770
Rp771
tp772
a(S'lrk'
p773
g2
(g6
S'\xe4\xaeD\xd2r"\xc6?'
p774
tp775
Rp776
tp777
a(S'image (mathematics)'
p778
g2
(g6
S'\x9fsL\xa9[\x1a\xc6?'
p779
tp780
Rp781
tp782
a(S'probit'
p783
g2
(g6
S'\xce\xc8\x08\x99\xce\x15\xc6?'
p784
tp785
Rp786
tp787
a(S'robologix'
p788
g2
(g6
S'h\xeffn1\xee\xc5?'
p789
tp790
Rp791
tp792
a(S'kinematic wave'
p793
g2
(g6
S'\xb6*\xb4\xb6]\xed\xc5?'
p794
tp795
Rp796
tp797
a(S'l-655,708'
p798
g2
(g6
S'\xc6\xa1\xaa\n\xdf\xe5\xc5?'
p799
tp800
Rp801
tp802
a(S'motion planning'
p803
g2
(g6
S'\x8eK+\xf8F\xde\xc5?'
p804
tp805
Rp806
tp807
a(S'kinetic theory'
p808
g2
(g6
S'=>j\x80\xdb\xd9\xc5?'
p809
tp810
Rp811
tp812
a(S'nikolai bernstein'
p813
g2
(g6
S'\x86\xde\x97\xd8\xe6\xd2\xc5?'
p814
tp815
Rp816
tp817
a(S'stabilized inverse q filtering'
p818
g2
(g6
S'\xad_\rN\xbe\xba\xc5?'
p819
tp820
Rp821
tp822
a(S'woodbury matrix identity'
p823
g2
(g6
S'\x86\nU\xc39\xb8\xc5?'
p824
tp825
Rp826
tp827
a(S'alexander ramm'
p828
g2
(g6
S'B\xfe\xc7\xa7\xdf\xaf\xc5?'
p829
tp830
Rp831
tp832
a(S'inverse exchange-traded fund'
p833
g2
(g6
S'\xd4\x03\xe8R\xdd\xaa\xc5?'
p834
tp835
Rp836
tp837
a(S'robotic arm'
p838
g2
(g6
S'-\xd9A\r\x9ew\xc5?'
p839
tp840
Rp841
tp842
a(S'kinematic coupling'
p843
g2
(g6
S'L~Y!\xbbl\xc5?'
p844
tp845
Rp846
tp847
a(S'jacobian'
p848
g2
(g6
S"\xc9\xa9\xae'\x8ah\xc5?"
p849
tp850
Rp851
tp852
a(S'inverse problem in optics'
p853
g2
(g6
S'6\xe3x(\xe4`\xc5?'
p854
tp855
Rp856
tp857
a(S'list of greek and latin roots in english/k'
p858
g2
(g6
S'\x030J\xc3rW\xc5?'
p859
tp860
Rp861
tp862
a(S'robotics'
p863
g2
(g6
S'#\x98p\x9c:1\xc5?'
p864
tp865
Rp866
tp867
a(S'softimage 3d'
p868
g2
(g6
S'\xedu#\xcf\xeb0\xc5?'
p869
tp870
Rp871
tp872
a(S'reymond clavel'
p873
g2
(g6
S'\n\x14O\x012)\xc5?'
p874
tp875
Rp876
tp877
a(S'list of integrals of inverse trigonometric functions'
p878
g2
(g6
S'\x9bA\xea\x92}"\xc5?'
p879
tp880
Rp881
tp882
a(S'suritozole'
p883
g2
(g6
S'\xd5#\xf2_\x1f!\xc5?'
p884
tp885
Rp886
tp887
a(S'eduard study'
p888
g2
(g6
S'N\x9cv\x00\x1f\x0f\xc5?'
p889
tp890
Rp891
tp892
a(S'delta robot'
p893
g2
(g6
S'\xe7\xbf\x03\x89\xdc\x0e\xc5?'
p894
tp895
Rp896
tp897
a(S'change of variables'
p898
g2
(g6
S'u\xfd\xd8F\t\n\xc5?'
p899
tp900
Rp901
tp902
a(S'eugene trubowitz'
p903
g2
(g6
S'_\xb7T\xd2\x01\xfb\xc4?'
p904
tp905
Rp906
tp907
a(S'robotics simulator'
p908
g2
(g6
S'Y\xf6\xcb2\x01\xf6\xc4?'
p909
tp910
Rp911
tp912
a(S'equations of motion'
p913
g2
(g6
S'"_\x8e\x91\x16\xf3\xc4?'
p914
tp915
Rp916
tp917
a(S'john j. uicker'
p918
g2
(g6
S'\t\xa0\x90\xbc\xde\xd2\xc4?'
p919
tp920
Rp921
tp922
a(S'rayleigh quotient iteration'
p923
g2
(g6
S'/N\x94"]\xcc\xc4?'
p924
tp925
Rp926
tp927
a(S'e-dense semigroup'
p928
g2
(g6
S'\xfe\xe6\xb2\xdc\xa5\xc1\xc4?'
p929
tp930
Rp931
tp932
a(S'numerical continuation'
p933
g2
(g6
S'\x90\x01\xb05L\xb4\xc4?'
p934
tp935
Rp936
tp937
a(S'outline of robotics'
p938
g2
(g6
S';\xe1\xc1\x93\x96u\xc4?'
p939
tp940
Rp941
tp942
a(S'off-line programming (robotics)'
p943
g2
(g6
S">'\xa9\x1a\xd2r\xc4?"
p944
tp945
Rp946
tp947
a(S'articulated robot'
p948
g2
(g6
S'9ch\xe0\xd1b\xc4?'
p949
tp950
Rp951
tp952
a(S'monodromy matrix'
p953
g2
(g6
S'\x8d\xae>~k_\xc4?'
p954
tp955
Rp956
tp957
a(S'international journal of humanoid robotics'
p958
g2
(g6
S'8\xe7\xc1E\xc4W\xc4?'
p959
tp960
Rp961
tp962
a(S'intermediate-field region'
p963
g2
(g6
S'3A\xf8\x12+V\xc4?'
p964
tp965
Rp966
tp967
a(S'inverse system'
p968
g2
(g6
S'\x94\xa0\x7f\xf1\xe8P\xc4?'
p969
tp970
Rp971
tp972
a(S'salvius'
p973
g2
(g6
S'u\x05\xab\xd3fK\xc4?'
p974
tp975
Rp976
tp977
a(S'degrees of freedom (mechanics)'
p978
g2
(g6
S'\x1b\xf8\xd8\x15LJ\xc4?'
p979
tp980
Rp981
tp982
a(S'fiber (mathematics)'
p983
g2
(g6
S'`\x1a/\xdfg9\xc4?'
p984
tp985
Rp986
tp987
a(S'dispersive body waves'
p988
g2
(g6
S'FNk|#4\xc4?'
p989
tp990
Rp991
tp992
a(S'inverse problems'
p993
g2
(g6
S')\xbe\x17\xcf\xad/\xc4?'
p994
tp995
Rp996
tp997
a(S'inverse probability weighting'
p998
g2
(g6
S'2\xd6\x12\xd3\xa7)\xc4?'
p999
tp1000
Rp1001
tp1002
a(S'quasiregular element'
p1003
g2
(g6
S'\xf2\xa1d\xbe:\xf5\xc3?'
p1004
tp1005
Rp1006
tp1007
a(S'parallel manipulator'
p1008
g2
(g6
S'a\x95R\xabl\xea\xc3?'
p1009
tp1010
Rp1011
tp1012
a(S'list of mathematical abbreviations'
p1013
g2
(g6
S'\xcd\x9f$\x92\x0b\xe3\xc3?'
p1014
tp1015
Rp1016
tp1017
a(S'configuration space'
p1018
g2
(g6
S'y\r\x94[\xac\xe0\xc3?'
p1019
tp1020
Rp1021
tp1022
a(S'quantum inverse scattering method'
p1023
g2
(g6
S'[\xeb\xc2\x85\xa9\xde\xc3?'
p1024
tp1025
Rp1026
tp1027
a(S'multibody system'
p1028
g2
(g6
S'9\xcb\xb8\xc6\x85\xcc\xc3?'
p1029
tp1030
Rp1031
tp1032
a(S'central-force problem'
p1033
g2
(g6
S'\xbc\xa0\x8e\xdc\xdc\xbe\xc3?'
p1034
tp1035
Rp1036
tp1037
a(S'robot (disambiguation)'
p1038
g2
(g6
S'\xf5$\xa1#\xde\xb9\xc3?'
p1039
tp1040
Rp1041
tp1042
a(S'alexander kennedy'
p1043
g2
(g6
S'\xc6E\x10\x95\xb7\xa7\xc3?'
p1044
tp1045
Rp1046
tp1047
a(S'binet equation'
p1048
g2
(g6
S't\xa2o$]\xa7\xc3?'
p1049
tp1050
Rp1051
tp1052
a(S'ngc 428'
p1053
g2
(g6
S'\xc4\xa4m\xec\xfd\x92\xc3?'
p1054
tp1055
Rp1056
tp1057
a(S'reza n. jazar'
p1058
g2
(g6
S' \x06\x17%\xd4w\xc3?'
p1059
tp1060
Rp1061
tp1062
a(S'alexander boichuk'
p1063
g2
(g6
S'\xd8\x07\xfd\xdf\xb4u\xc3?'
p1064
tp1065
Rp1066
tp1067
a(S'condition number'
p1068
g2
(g6
S'\xe3m\xcdn}l\xc3?'
p1069
tp1070
Rp1071
tp1072
a(S'quasigroup'
p1073
g2
(g6
S'Uu|>:_\xc3?'
p1074
tp1075
Rp1076
tp1077
a(S'tectonophysics (journal)'
p1078
g2
(g6
S'\x9c\xc3\xa8\xe5\x823\xc3?'
p1079
tp1080
Rp1081
tp1082
a(S'jacket matrix'
p1083
g2
(g6
S'\x8d\xf7N7\xe4(\xc3?'
p1084
tp1085
Rp1086
tp1087
a(S'ik'
p1088
g2
(g6
S"V%7\xe8e'\xc3?"
p1089
tp1090
Rp1091
tp1092
a(S'augmented matrix'
p1093
g2
(g6
S'\x16\x83\x04\x1d,\x12\xc3?'
p1094
tp1095
Rp1096
tp1097
a(S'bounded inverse theorem'
p1098
g2
(g6
S'.6\xa4\\\xbd\x00\xc3?'
p1099
tp1100
Rp1101
tp1102
a(S'bml-190'
p1103
g2
(g6
S',z\xeb\xdc;\xfb\xc2?'
p1104
tp1105
Rp1106
tp1107
a(S'labor intensity'
p1108
g2
(g6
S'r3\xd9\xec\xec\xfa\xc2?'
p1109
tp1110
Rp1111
tp1112
a(S'quasi-newton least squares method'
p1113
g2
(g6
S'P)\x06a\xbd\xf5\xc2?'
p1114
tp1115
Rp1116
tp1117
a(S'modal analysis using fem'
p1118
g2
(g6
S'\xaa\xd1\x07Q\xa9\xe9\xc2?'
p1119
tp1120
Rp1121
tp1122
a(S'inverse benefit law'
p1123
g2
(g6
S'\xa3\xa3\xf8{\xd0\xe8\xc2?'
p1124
tp1125
Rp1126
tp1127
a(S'mousetext'
p1128
g2
(g6
S'\x04\xec1\x17~\xe3\xc2?'
p1129
tp1130
Rp1131
tp1132
a(S'paul nemenyi'
p1133
g2
(g6
S'\x07\xef\xa2\xc6\xc7\xdf\xc2?'
p1134
tp1135
Rp1136
tp1137
a(S'coupon leverage'
p1138
g2
(g6
S'y\xc6\x0c\x03\xfb\xd9\xc2?'
p1139
tp1140
Rp1141
tp1142
a(S'human\xe2\x80\x93robot interaction'
p1143
g2
(g6
S'S\xa5zd\x0c\xa8\xc2?'
p1144
tp1145
Rp1146
tp1147
a(S'softimage (company)'
p1148
g2
(g6
S'\xcc\xdfLm\xa5\x9b\xc2?'
p1149
tp1150
Rp1151
tp1152
a(S'abt-239'
p1153
g2
(g6
S'\xcdW\x90\x7fm\x90\xc2?'
p1154
tp1155
Rp1156
tp1157
a(S'atmospheric sounding'
p1158
g2
(g6
S'\xc2\xe3;\x8c\xa0\x85\xc2?'
p1159
tp1160
Rp1161
tp1162
a(S'kinematic (band)'
p1163
g2
(g6
S'\xe7\x7f\x8f\xe6P\x81\xc2?'
p1164
tp1165
Rp1166
tp1167
a(S'constraint algorithm'
p1168
g2
(g6
S'\x00\\xtWu\xc2?'
p1169
tp1170
Rp1171
tp1172
a(S'\xce\x915ia'
p1173
g2
(g6
S'\xb2@\xf6\x1eBs\xc2?'
p1174
tp1175
Rp1176
tp1177
a(S'hidden field equations'
p1178
g2
(g6
S'\xde<K\x85\x19o\xc2?'
p1179
tp1180
Rp1181
tp1182
a(S'minpack'
p1183
g2
(g6
S'\xf7K\xc4\xdb\x81l\xc2?'
p1184
tp1185
Rp1186
tp1187
a(S'prosthaphaeresis'
p1188
g2
(g6
S'\x94!\xb2\xfbKg\xc2?'
p1189
tp1190
Rp1191
tp1192
a(S'mobile robot'
p1193
g2
(g6
S"\x17\xf4'\xa3\x11U\xc2?"
p1194
tp1195
Rp1196
tp1197
a(S'kinematic determinacy'
p1198
g2
(g6
S'\x9d4\x94\xce]S\xc2?'
p1199
tp1200
Rp1201
tp1202
a(S'little lost robot'
p1203
g2
(g6
S',U\xd2\xf7\x1eQ\xc2?'
p1204
tp1205
Rp1206
tp1207
a(S'sample matrix inversion'
p1208
g2
(g6
S'Fk\xe9\x95\xf1H\xc2?'
p1209
tp1210
Rp1211
tp1212
a(S'wake-up robot problem'
p1213
g2
(g6
S'\xa7\x0cJ7\xdeE\xc2?'
p1214
tp1215
Rp1216
tp1217
a(S'combots'
p1218
g2
(g6
S'\x95\xcc{\xdb\xc1C\xc2?'
p1219
tp1220
Rp1221
tp1222
a(S'linear equation over a ring'
p1223
g2
(g6
S'\xedIj\xf7\xab?\xc2?'
p1224
tp1225
Rp1226
tp1227
a(S'ordinary differential equation'
p1228
g2
(g6
S'\xaa\x90\x9e\xe04?\xc2?'
p1229
tp1230
Rp1231
tp1232
a(S'ift'
p1233
g2
(g6
S'\xe9YwT8=\xc2?'
p1234
tp1235
Rp1236
tp1237
a(S'constraint counting'
p1238
g2
(g6
S'\xf8\xa0z\x06\x9d1\xc2?'
p1239
tp1240
Rp1241
tp1242
a(S'list of fictional robots and androids'
p1243
g2
(g6
S'e\xc6x\xd7\xe50\xc2?'
p1244
tp1245
Rp1246
tp1247
a(S'inverse warburg effect'
p1248
g2
(g6
S'/\x9a\xfa59.\xc2?'
p1249
tp1250
Rp1251
tp1252
a(S'eduardo bayo'
p1253
g2
(g6
S'9\xc2\xf0k{"\xc2?'
p1254
tp1255
Rp1256
tp1257
a(S'non-linear least squares'
p1258
g2
(g6
S'\xbf.\x06\xb0\x0f\x0c\xc2?'
p1259
tp1260
Rp1261
tp1262
a(S'cholo (video game)'
p1263
g2
(g6
S'"\x19\x90\xa8a\t\xc2?'
p1264
tp1265
Rp1266
tp1267
a(S'simultaneous localization and mapping'
p1268
g2
(g6
S'\x01G\xd6k\xca\x00\xc2?'
p1269
tp1270
Rp1271
tp1272
a(S'orthodox semigroup'
p1273
g2
(g6
S"\xc8'\xf3\x12\xe8\xf9\xc1?"
p1274
tp1275
Rp1276
tp1277
a(S'visual servoing'
p1278
g2
(g6
S'J\xa4\xc9\x08\xb6\xf8\xc1?'
p1279
tp1280
Rp1281
tp1282
a(S'holonomic (robotics)'
p1283
g2
(g6
S'\xedB0\xa9v\xf7\xc1?'
p1284
tp1285
Rp1286
tp1287
a(S'robot combat'
p1288
g2
(g6
S'\x8f\xca@n\x94\xf6\xc1?'
p1289
tp1290
Rp1291
tp1292
a(S'completely regular semigroup'
p1293
g2
(g6
S'\xe8\x0fr\xea\x15\xf0\xc1?'
p1294
tp1295
Rp1296
tp1297
a(S'surface robotics laboratory-cmeri'
p1298
g2
(g6
S'\x06\x12\x00ie\xee\xc1?'
p1299
tp1300
Rp1301
tp1302
a(S'stephanie snedden'
p1303
g2
(g6
S'\x06\x91;G=\xe6\xc1?'
p1304
tp1305
Rp1306
tp1307
a(S'robot (comics)'
p1308
g2
(g6
S'\xa0\xe0\x16\xfbW\xe1\xc1?'
p1309
tp1310
Rp1311
tp1312
a(S'overdetermined system'
p1313
g2
(g6
S'\x1337O\xd1\xdc\xc1?'
p1314
tp1315
Rp1316
tp1317
a(S'vaimos'
p1318
g2
(g6
S'\xd7\xa7\x98\xcce\xd5\xc1?'
p1319
tp1320
Rp1321
tp1322
a(S'robot battle'
p1323
g2
(g6
S'\xce\xd2\xf8\xe8\xb1\xd2\xc1?'
p1324
tp1325
Rp1326
tp1327
a(S'optoelectronic plethysmography'
p1328
g2
(g6
S'\x8b\x07\x03X\xe4\xcc\xc1?'
p1329
tp1330
Rp1331
tp1332
a(S'matrix determinant lemma'
p1333
g2
(g6
S'R\x96J[e\xc6\xc1?'
p1334
tp1335
Rp1336
tp1337
a(S'fredholm solvability'
p1338
g2
(g6
S'v\x01Z3*\xc5\xc1?'
p1339
tp1340
Rp1341
tp1342
a(S'richard john durley'
p1343
g2
(g6
S'\xc5j\x1e\xd0\xe4\xc2\xc1?'
p1344
tp1345
Rp1346
tp1347
a(S'underdetermined system'
p1348
g2
(g6
S'\xf9\xad.\xb1\xac\xc1\xc1?'
p1349
tp1350
Rp1351
tp1352
a(S'cartesian coordinate robot'
p1353
g2
(g6
S'o\xedX|M\xbf\xc1?'
p1354
tp1355
Rp1356
tp1357
a(S'udwadia\xe2\x80\x93kalaba equation'
p1358
g2
(g6
S'|\xa9Ss\xaf\xb5\xc1?'
p1359
tp1360
Rp1361
tp1362
a(S'pitolisant'
p1363
g2
(g6
S'\t\xc9(\x87:\xb3\xc1?'
p1364
tp1365
Rp1366
tp1367
a(S'sin-1'
p1368
g2
(g6
S'\x06\xa4\xb8\xce\xc7\xa1\xc1?'
p1369
tp1370
Rp1371
tp1372
a(S'ap physics c: mechanics'
p1373
g2
(g6
S'\x82\xd3\xdc\xabM\x9d\xc1?'
p1374
tp1375
Rp1376
tp1377
a(S"kepler's equation"
p1378
g2
(g6
S'N\xff{\x1bs\x94\xc1?'
p1379
tp1380
Rp1381
tp1382
a(S'irobot'
p1383
g2
(g6
S'o/\xed.\n\x81\xc1?'
p1384
tp1385
Rp1386
tp1387
a(S'orbital mechanics for engineering students'
p1388
g2
(g6
S'\xa7\x84\xed\n\xa1~\xc1?'
p1389
tp1390
Rp1391
tp1392
a(S'residual power series method'
p1393
g2
(g6
S'\x8d\x98bn\xb2}\xc1?'
p1394
tp1395
Rp1396
tp1397
a(S'simultaneous equations'
p1398
g2
(g6
S'{>b\xa2+x\xc1?'
p1399
tp1400
Rp1401
tp1402
a(S"cramer's rule"
p1403
g2
(g6
S'\xbcM\x02\xef\xd7w\xc1?'
p1404
tp1405
Rp1406
tp1407
a(S'wakamaru'
p1408
g2
(g6
S'|[\x05\xbf\x0ev\xc1?'
p1409
tp1410
Rp1411
tp1412
a(S'equation'
p1413
g2
(g6
S'Y{\xdb.\xf0l\xc1?'
p1414
tp1415
Rp1416
tp1417
a(S'nonlinear partial differential equation'
p1418
g2
(g6
S'g\xa4d\xa1ej\xc1?'
p1419
tp1420
Rp1421
tp1422
a(S'mathlab'
p1423
g2
(g6
S'\xc6\xe5SM(j\xc1?'
p1424
tp1425
Rp1426
tp1427
a(S'quasi-newton method'
p1428
g2
(g6
S'\x956\x82u\xa4h\xc1?'
p1429
tp1430
Rp1431
tp1432
a(S'novikov\xe2\x80\x93veselov equation'
p1433
g2
(g6
S'\xbe|\xea0\x80e\xc1?'
p1434
tp1435
Rp1436
tp1437
a(S'robot (dance)'
p1438
g2
(g6
S'\xd0\x01r\x95\xa7c\xc1?'
p1439
tp1440
Rp1441
tp1442
a(S't-52 enryu'
p1443
g2
(g6
S'\xd7\xe9p\x07\xfeb\xc1?'
p1444
tp1445
Rp1446
tp1447
a(S'k\xc3\xa4ll\xc3\xa9n function'
p1448
g2
(g6
S'\x13\xcc\xba\xb3~^\xc1?'
p1449
tp1450
Rp1451
tp1452
a(S'linear seismic inversion'
p1453
g2
(g6
S'\xeb\xc3\x98lHR\xc1?'
p1454
tp1455
Rp1456
tp1457
a(S'chebychev\xe2\x80\x93gr\xc3\xbcbler\xe2\x80\x93kutzbach criterion'
p1458
g2
(g6
S'r\xe0\xb5>1R\xc1?'
p1459
tp1460
Rp1461
tp1462
a(S'inverse parser'
p1463
g2
(g6
S'\xc6\xa5]K\xe1@\xc1?'
p1464
tp1465
Rp1466
tp1467
a(S'institut de rob\xc3\xb2tica i inform\xc3\xa0tica industrial'
p1468
g2
(g6
S'o\x18v\x07\x189\xc1?'
p1469
tp1470
Rp1471
tp1472
a(S'hunting oscillation'
p1473
g2
(g6
S'\x9e\xac\x8f\xcd\xd67\xc1?'
p1474
tp1475
Rp1476
tp1477
a(S'japan robot association'
p1478
g2
(g6
S'l\xd8-=\xe65\xc1?'
p1479
tp1480
Rp1481
tp1482
a(S'shallow water equations'
p1483
g2
(g6
S'J\xf2\x15\xcb\xa72\xc1?'
p1484
tp1485
Rp1486
tp1487
a(S'e-semigroup'
p1488
g2
(g6
S'o\x072\x9601\xc1?'
p1489
tp1490
Rp1491
tp1492
a(S'tikhonov regularization'
p1493
g2
(g6
S'\x9e\xe1\xb9\xc3\x1e-\xc1?'
p1494
tp1495
Rp1496
tp1497
a(S'tan-1'
p1498
g2
(g6
S'\x82\x8aPt\xaa&\xc1?'
p1499
tp1500
Rp1501
tp1502
a(S'robot taekwon v'
p1503
g2
(g6
S'15\xc4\x9e\x13$\xc1?'
p1504
tp1505
Rp1506
tp1507
a(S'nambooripad order'
p1508
g2
(g6
S'N\xe2\x12.p\x15\xc1?'
p1509
tp1510
Rp1511
tp1512
a.