(lp0
(S'irobot'
p1
cnumpy.core.multiarray
scalar
p2
(cnumpy
dtype
p3
(S'f8'
p4
I0
I1
tp5
Rp6
(I3
S'<'
p7
NNNI-1
I-1
I0
tp8
bS'\x00\x00\x00\x00\x00\x00\xf0?'
p9
tp10
Rp11
tp12
a(S'robot (disambiguation)'
p13
g2
(g6
S'\xe2\x89\xc8\xcfu\x05\xe6?'
p14
tp15
Rp16
tp17
a(S'mobile robot'
p18
g2
(g6
S'*5\xa8c\x85\xfe\xe5?'
p19
tp20
Rp21
tp22
a(S'industrial robot'
p23
g2
(g6
S'a\xc5\x18\x8e\x94\x13\xe5?'
p24
tp25
Rp26
tp27
a(S'robotics'
p28
g2
(g6
S'-\xfe&\xb4\xf9\x04\xe5?'
p29
tp30
Rp31
tp32
a(S'index of robotics articles'
p33
g2
(g6
S'e\x8e\xcdb\xd3\xf5\xe4?'
p34
tp35
Rp36
tp37
a(S'list of fictional robots and androids'
p38
g2
(g6
S'\x7fN\xab\xd6\xa8\x8b\xe4?'
p39
tp40
Rp41
tp42
a(S'domestic robot'
p43
g2
(g6
S'\xc2\x1a"\xb0G\x88\xe4?'
p44
tp45
Rp46
tp47
a(S'salvius'
p48
g2
(g6
S'I\xea\xf5\x0e\xcd}\xe4?'
p49
tp50
Rp51
tp52
a(S'robot'
p53
g2
(g6
S'k-\xfbD\x0bv\xe4?'
p54
tp55
Rp56
tp57
a(S'glossary of robotics'
p58
g2
(g6
S'\xd5>vE\xedt\xe4?'
p59
tp60
Rp61
tp62
a(S'robot combat'
p63
g2
(g6
S'\xce\xf6>\xe88-\xe4?'
p64
tp65
Rp66
tp67
a(S'outline of robotics'
p68
g2
(g6
S'\xa5lM7\xd8\xee\xe3?'
p69
tp70
Rp71
tp72
a(S'robot battle'
p73
g2
(g6
S'\xaeX\tK[\xcc\xe3?'
p74
tp75
Rp76
tp77
a(S'little lost robot'
p78
g2
(g6
S'\x8f\x00z\xac\xca\xc4\xe3?'
p79
tp80
Rp81
tp82
a(S'combots'
p83
g2
(g6
S'h7\xd3\x0b\xf0\x96\xe3?'
p84
tp85
Rp86
tp87
a(S'robotix (competition)'
p88
g2
(g6
S'\x82\xefC\\\x91j\xe3?'
p89
tp90
Rp91
tp92
a(S'off-line programming (robotics)'
p93
g2
(g6
S'_\x88\x8a\x1d\xaf.\xe3?'
p94
tp95
Rp96
tp97
a(S'surface robotics laboratory-cmeri'
p98
g2
(g6
S'\xa1_\xf3\xd7\xfe+\xe3?'
p99
tp100
Rp101
tp102
a(S'japan robot association'
p103
g2
(g6
S'\xbaoP\xbe;\x0c\xe3?'
p104
tp105
Rp106
tp107
a(S'robot software'
p108
g2
(g6
S'\xc9\xc5\x16\xcbo\xfc\xe2?'
p109
tp110
Rp111
tp112
a(S'cholo (video game)'
p113
g2
(g6
S'!0\xdb\x80\x87\xea\xe2?'
p114
tp115
Rp116
tp117
a(S'wakamaru'
p118
g2
(g6
S'\xbfk+"\x1a\xb2\xe2?'
p119
tp120
Rp121
tp122
a(S'human\xe2\x80\x93robot interaction'
p123
g2
(g6
S'8\x97os\x12\x8c\xe2?'
p124
tp125
Rp126
tp127
a(S'humanoid robot'
p128
g2
(g6
S'\xbev\x11+X\x80\xe2?'
p129
tp130
Rp131
tp132
a(S'japanese robotics'
p133
g2
(g6
S'A>\xc4\xc0k]\xe2?'
p134
tp135
Rp136
tp137
a(S'patrolbot'
p138
g2
(g6
S'W\xd3\xceN\xf3K\xe2?'
p139
tp140
Rp141
tp142
a(S'history of robots'
p143
g2
(g6
S'\xfd\xc0\xae\xe0\xedJ\xe2?'
p144
tp145
Rp146
tp147
a(S'social robot'
p148
g2
(g6
S'%\x9d\x1f).D\xe2?'
p149
tp150
Rp151
tp152
a(S'robot (comics)'
p153
g2
(g6
S'+\x0cw\xaf\x7f\xfb\xe1?'
p154
tp155
Rp156
tp157
a(S'robot locomotion'
p158
g2
(g6
S'ix\xd3\xdc\t\xf0\xe1?'
p159
tp160
Rp161
tp162
a(S'taarlab'
p163
g2
(g6
S'8J\xdbX_\xe9\xe1?'
p164
tp165
Rp166
tp167
a(S'open-source robotics'
p168
g2
(g6
S'w\xcf\x1cb\x99\xad\xe1?'
p169
tp170
Rp171
tp172
a(S'entertainment robot'
p173
g2
(g6
S'\x8b\xcb\xb4\x7f\x8a\xa2\xe1?'
p174
tp175
Rp176
tp177
a(S'autonomous robot'
p178
g2
(g6
S'\x97\x99;\x13\xdf\x95\xe1?'
p179
tp180
Rp181
tp182
a(S'robot competition'
p183
g2
(g6
S'\xea3\x01gBa\xe1?'
p184
tp185
Rp186
tp187
a(S'robot economics'
p188
g2
(g6
S'I\xac\x9bl&^\xe1?'
p189
tp190
Rp191
tp192
a(S'robot award'
p193
g2
(g6
S'1\xbcK\xe1m[\xe1?'
p194
tp195
Rp196
tp197
a(S't-52 enryu'
p198
g2
(g6
S'g\xbf\xe0\x0c%S\xe1?'
p199
tp200
Rp201
tp202
a(S'robot arena'
p203
g2
(g6
S'\xf1S\\6\xe3C\xe1?'
p204
tp205
Rp206
tp207
a(S'ecovacs robotics'
p208
g2
(g6
S'\xfcJ\xaeL\x9d:\xe1?'
p209
tp210
Rp211
tp212
a(S'robot wars (tv series)'
p213
g2
(g6
S'\x8a5`\xd9\xff*\xe1?'
p214
tp215
Rp216
tp217
a(S'robot arena 2: design and destroy'
p218
g2
(g6
S'\xf1\x15B\xa5\xc4"\xe1?'
p219
tp220
Rp221
tp222
a(S"isaac asimov's robot city: cyborg"
p223
g2
(g6
S'\x8es\x008\xce\x19\xe1?'
p224
tp225
Rp226
tp227
a(S'wake-up robot problem'
p228
g2
(g6
S'-v3\xfa\xf2\xf7\xe0?'
p229
tp230
Rp231
tp232
a(S'tosy'
p233
g2
(g6
S'r~f\x9b\x1c\xf6\xe0?'
p234
tp235
Rp236
tp237
a(S'international robot exhibition'
p238
g2
(g6
S'\x95G\xa8N\xb2\xf0\xe0?'
p239
tp240
Rp241
tp242
a(S'robot (dance)'
p243
g2
(g6
S'\x915\x9e\x8a{\xe6\xe0?'
p244
tp245
Rp246
tp247
a(S'robot taekwon v'
p248
g2
(g6
S'\x968|\x8e\xbf\xe5\xe0?'
p249
tp250
Rp251
tp252
a(S"isaac asimov's robot city"
p253
g2
(g6
S'\xb3E\xd6\xdb\xe3\xe1\xe0?'
p254
tp255
Rp256
tp257
a(S'the complete robot'
p258
g2
(g6
S'\x07{\x0cV\xd8\xde\xe0?'
p259
tp260
Rp261
tp262
a(S'robot football'
p263
g2
(g6
S'\xa5M\xdbeO\xd8\xe0?'
p264
tp265
Rp266
tp267
a(S'robot kit'
p268
g2
(g6
S'<X\xb6\xb3_\xd4\xe0?'
p269
tp270
Rp271
tp272
a(S'active robots'
p273
g2
(g6
S"^'\x11v\xe4\xc3\xe0?"
p274
tp275
Rp276
tp277
a(S'military robot'
p278
g2
(g6
S'\x8d\xfa\xec_?\xb8\xe0?'
p279
tp280
Rp281
tp282
a(S'robot magazine'
p283
g2
(g6
S'\x97\x8a)\xc6\x1d\xae\xe0?'
p284
tp285
Rp286
tp287
a(S'robot wars'
p288
g2
(g6
S'\x97\xa84MQ\xa6\xe0?'
p289
tp290
Rp291
tp292
a(S'night stalker (video game)'
p293
g2
(g6
S'\xa2\xa2K\xb04\x9f\xe0?'
p294
tp295
Rp296
tp297
a(S'leonardo (robot)'
p298
g2
(g6
S'C\xb4E\xe4\x8f\x97\xe0?'
p299
tp300
Rp301
tp302
a(S'asimo'
p303
g2
(g6
S'4\xa1\xafo\xa1y\xe0?'
p304
tp305
Rp306
tp307
a(S'american robotics'
p308
g2
(g6
S'\xbd\x89o\xf1\x92r\xe0?'
p309
tp310
Rp311
tp312
a(S'robot wars: advanced destruction'
p313
g2
(g6
S'P\xf7\x84\x99(q\xe0?'
p314
tp315
Rp316
tp317
a(S'robot b-9'
p318
g2
(g6
S')-C19b\xe0?'
p319
tp320
Rp321
tp322
a(S'mr. robot'
p323
g2
(g6
S'W1\x072\xe4G\xe0?'
p324
tp325
Rp326
tp327
a(S'alexandru robot'
p328
g2
(g6
S'\xb5(o_u?\xe0?'
p329
tp330
Rp331
tp332
a(S'scara'
p333
g2
(g6
S'\xdbz\xd7|h:\xe0?'
p334
tp335
Rp336
tp337
a(S'activmedia robotics'
p338
g2
(g6
S'-F\xdfS83\xe0?'
p339
tp340
Rp341
tp342
a(S'robot hall of fame'
p343
g2
(g6
S'M\xb2=\xda\xb9)\xe0?'
p344
tp345
Rp346
tp347
a(S'rescue robot'
p348
g2
(g6
S'\x87]\xb2\x7f\xd6"\xe0?'
p349
tp350
Rp351
tp352
a(S'personal robot'
p353
g2
(g6
S'\xe8\xb4U$h"\xe0?'
p354
tp355
Rp356
tp357
a(S'pocketdelta robot'
p358
g2
(g6
S'\xd2M\xfa\xb8\xd7 \xe0?'
p359
tp360
Rp361
tp362
a(S'razer (robot)'
p363
g2
(g6
S"\x1e\x16'\xa8\xa9\x1b\xe0?"
p364
tp365
Rp366
tp367
a(S'telerobotics'
p368
g2
(g6
S'{\x1c\xb7\xa5\xde\x16\xe0?'
p369
tp370
Rp371
tp372
a(S'rocketship 2010'
p373
g2
(g6
S'\xca\xbb\x1a\xb4\x88\x10\xe0?'
p374
tp375
Rp376
tp377
a(S'player project'
p378
g2
(g6
S'z\xf0U\x90\x99\x0e\xe0?'
p379
tp380
Rp381
tp382
a(S'robot learning'
p383
g2
(g6
S'6\x99\x1c\xfd\xdf\n\xe0?'
p384
tp385
Rp386
tp387
a(S'robert williams (robot fatality)'
p388
g2
(g6
S'K\xc78\xb8(\x05\xe0?'
p389
tp390
Rp391
tp392
a(S'robot galaxy'
p393
g2
(g6
S'e\n\xa3\xc00\x03\xe0?'
p394
tp395
Rp396
tp397
a(S'i, robot (disambiguation)'
p398
g2
(g6
S'_\xab\x10\xf3`\xf4\xdf?'
p399
tp400
Rp401
tp402
a(S'real robot'
p403
g2
(g6
S'\x17\xdf\xe2@\xe4\xdb\xdf?'
p404
tp405
Rp406
tp407
a(S'super robot (disambiguation)'
p408
g2
(g6
S'9\xaa\xb3\xb5l\xc7\xdf?'
p409
tp410
Rp411
tp412
a(S'blendo'
p413
g2
(g6
S'\n\x89$\xf8\xcd\xc4\xdf?'
p414
tp415
Rp416
tp417
a(S'robotic arm'
p418
g2
(g6
S'\xde\xa0L\xb6\xa6\xb8\xdf?'
p419
tp420
Rp421
tp422
a(S'cubix'
p423
g2
(g6
S'\xab{\x9a%W\xb0\xdf?'
p424
tp425
Rp426
tp427
a(S'robot series (asimov)'
p428
g2
(g6
S'\x89\x8a\xb0^\x0f\xb0\xdf?'
p429
tp430
Rp431
tp432
a(S'robot wars: metal mayhem'
p433
g2
(g6
S'w\xbf\xfaa\xbd\x90\xdf?'
p434
tp435
Rp436
tp437
a(S'articulated robot'
p438
g2
(g6
S'$\xc7\xa8\xf3\xd0\x88\xdf?'
p439
tp440
Rp441
tp442
a(S'soccer robot'
p443
g2
(g6
S'2[\x7f0wu\xdf?'
p444
tp445
Rp446
tp447
a(S'kilobot'
p448
g2
(g6
S'\x96 \xe3A\x92g\xdf?'
p449
tp450
Rp451
tp452
a(S'uji online robot'
p453
g2
(g6
S":'F\xb1\xa7S\xdf?"
p454
tp455
Rp456
tp457
a(S'surena (robot)'
p458
g2
(g6
S'i_z\xfb\x97S\xdf?'
p459
tp460
Rp461
tp462
a(S'tilr'
p463
g2
(g6
S'\xaf\x13\x80\xf4\xb7\x01\xdf?'
p464
tp465
Rp466
tp467
a(S'raposa'
p468
g2
(g6
S'g\x88\xf6&\xaf\x01\xdf?'
p469
tp470
Rp471
tp472
a(S'roboy'
p473
g2
(g6
S'\x0e\x91\x1f\x16\xc3\xf6\xde?'
p474
tp475
Rp476
tp477
a(S'robotshop'
p478
g2
(g6
S'ze~[\xca\xe5\xde?'
p479
tp480
Rp481
tp482
a(S'artbots'
p483
g2
(g6
S">'\xe5\xb6\x0c\xe4\xde?"
p484
tp485
Rp486
tp487
a(S'robot warriors'
p488
g2
(g6
S'y\xde\x00\x18}\xe3\xde?'
p489
tp490
Rp491
tp492
a(S'kidnapped robot problem'
p493
g2
(g6
S'\xa3\x7f\x98\x03\x98\xd5\xde?'
p494
tp495
Rp496
tp497
a(S'robogames'
p498
g2
(g6
S"\xc2D'\x1b\xaa\xca\xde?"
p499
tp500
Rp501
tp502
a(S'meister (robot)'
p503
g2
(g6
S'H\x91\xd6h\x1d\xc9\xde?'
p504
tp505
Rp506
tp507
a(S'crx10'
p508
g2
(g6
S'.@\xeb`\x8a\xb6\xde?'
p509
tp510
Rp511
tp512
a(S'nasa robots'
p513
g2
(g6
S'\xfb=C\xc0\xb1\xb3\xde?'
p514
tp515
Rp516
tp517
a(S'tomotaka takahashi'
p518
g2
(g6
S'\xb1\xd4\x16\x0cA\xa2\xde?'
p519
tp520
Rp521
tp522
a(S'robot lawyer'
p523
g2
(g6
S'P;\xc7\x8e\x00\x9b\xde?'
p524
tp525
Rp526
tp527
a(S'robotica'
p528
g2
(g6
S'\xd3\xd8\xe8\xfd\xe0\x91\xde?'
p529
tp530
Rp531
tp532
a(S'boston dynamics'
p533
g2
(g6
S'0g0D\xcf}\xde?'
p534
tp535
Rp536
tp537
a(S'robo story'
p538
g2
(g6
S'\xd2u\x1fN\xaf{\xde?'
p539
tp540
Rp541
tp542
a(S'a princesa e o rob\xc3\xb4'
p543
g2
(g6
S'\x05\xba\x97\xe9\x0ej\xde?'
p544
tp545
Rp546
tp547
a(S'three laws of robotics'
p548
g2
(g6
S'qo\xf9\xbf\xd8^\xde?'
p549
tp550
Rp551
tp552
a(S'stiquito'
p553
g2
(g6
S'\xd0 H\x80\x16T\xde?'
p554
tp555
Rp556
tp557
a(S'pars robot'
p558
g2
(g6
S'\xefm\x084>M\xde?'
p559
tp560
Rp561
tp562
a(S"isaac asimov's robot city: odyssey"
p563
g2
(g6
S'\xd8\xef\x94\xc2\x02D\xde?'
p564
tp565
Rp566
tp567
a(S'world robot olympiad'
p568
g2
(g6
S'\x14\xea\xbb#qA\xde?'
p569
tp570
Rp571
tp572
a(S'almost human: making robots think'
p573
g2
(g6
S'(u|\xc6\xb32\xde?'
p574
tp575
Rp576
tp577
a(S'crayon shin-chan: serious battle! robot dad strikes back'
p578
g2
(g6
S'P\x8b\x90\xa3\xad\x11\xde?'
p579
tp580
Rp581
tp582
a(S'list of robotic dogs'
p583
g2
(g6
S'\xb2\x92)\xa7\xef\x0c\xde?'
p584
tp585
Rp586
tp587
a(S'kenji urada'
p588
g2
(g6
S'\x8a\xf5-\x1f\x15\xfe\xdd?'
p589
tp590
Rp591
tp592
a(S'differential wheeled robot'
p593
g2
(g6
S'#\xbeg\x15\x90\xfd\xdd?'
p594
tp595
Rp596
tp597
a(S'robot dreams (short story)'
p598
g2
(g6
S'\x86\x89\xe6S2\xfb\xdd?'
p599
tp600
Rp601
tp602
a(S'color robot battle'
p603
g2
(g6
S'0h\x9f\xb1q\xf5\xdd?'
p604
tp605
Rp606
tp607
a(S'cynthia breazeal'
p608
g2
(g6
S')\xc3\xe4\x9f\x8d\xed\xdd?'
p609
tp610
Rp611
tp612
a(S'large workspace robot'
p613
g2
(g6
S'\xb55*\xad\x90\xd1\xdd?'
p614
tp615
Rp616
tp617
a(S'chicago engineering design team'
p618
g2
(g6
S'f\xae\xb5\xe1D\xd1\xdd?'
p619
tp620
Rp621
tp622
a(S'robotis bioloid'
p623
g2
(g6
S'\r\x8e\xd2\xe8*\xce\xdd?'
p624
tp625
Rp626
tp627
a(S'robot zonda'
p628
g2
(g6
S'\xa8\x8e\xca&o\xca\xdd?'
p629
tp630
Rp631
tp632
a(S'i, robot (video game)'
p633
g2
(g6
S'\x99\x97\xc8\x0f7\xc5\xdd?'
p634
tp635
Rp636
tp637
a(S'i, robot (short story)'
p638
g2
(g6
S'\x0epI\xa6\xf6\xc1\xdd?'
p639
tp640
Rp641
tp642
a(S'marcbot'
p643
g2
(g6
S'\x88E\xd4\xffE\xad\xdd?'
p644
tp645
Rp646
tp647
a(S'gay robot'
p648
g2
(g6
S'\xfb\xaf<\xa3\xad\xa4\xdd?'
p649
tp650
Rp651
tp652
a(S'actroid'
p653
g2
(g6
S'\x17\xa19|\xa7\x99\xdd?'
p654
tp655
Rp656
tp657
a(S'omnibot'
p658
g2
(g6
S'\xf0\xca]\xfe\x07\x97\xdd?'
p659
tp660
Rp661
tp662
a(S"isaac asimov's caliban"
p663
g2
(g6
S'\x95\x10\xe5S\xe6~\xdd?'
p664
tp665
Rp666
tp667
a(S'invincible robo trider g7'
p668
g2
(g6
S'\xafh\x9d\xa7Z|\xdd?'
p669
tp670
Rp671
tp672
a(S'them, robot'
p673
g2
(g6
S'\xff\xeb<\xc3\x8el\xdd?'
p674
tp675
Rp676
tp677
a(S'delta robot'
p678
g2
(g6
S'\x12I K\x93h\xdd?'
p679
tp680
Rp681
tp682
a(S'giant robot project'
p683
g2
(g6
S'\x9c&\x80\x98c_\xdd?'
p684
tp685
Rp686
tp687
a(S'picabot'
p688
g2
(g6
S'\x18G\xe9p_X\xdd?'
p689
tp690
Rp691
tp692
a(S'catch that rabbit'
p693
g2
(g6
S'\xc4\xc8\xf7\x1a\xafI\xdd?'
p694
tp695
Rp696
tp697
a(S'whatever happened to... robot jones?'
p698
g2
(g6
S'\x8c.\xfa\xc1,F\xdd?'
p699
tp700
Rp701
tp702
a(S'mobile industrial robots'
p703
g2
(g6
S'l]\xe1w\xe3B\xdd?'
p704
tp705
Rp706
tp707
a(S'robot city (video game)'
p708
g2
(g6
S'\xef\xc3|\xc6\xbcB\xdd?'
p709
tp710
Rp711
tp712
a(S'ubiquitous robot'
p713
g2
(g6
S'j\xbf\x90S\xe37\xdd?'
p714
tp715
Rp716
tp717
a(S'vaimos'
p718
g2
(g6
S'`\x95\xfdV\x985\xdd?'
p719
tp720
Rp721
tp722
a(S'zektor'
p723
g2
(g6
S'\xb0\xed\xf4\x04\xd54\xdd?'
p724
tp725
Rp726
tp727
a(S'risk (short story)'
p728
g2
(g6
S'EfV\xba\xb7"\xdd?'
p729
tp730
Rp731
tp732
a(S'universal robots'
p733
g2
(g6
S'x\x13\xa92\xe3!\xdd?'
p734
tp735
Rp736
tp737
a(S'sex life of robots'
p738
g2
(g6
S'z\xc7+\xf9\xa7!\xdd?'
p739
tp740
Rp741
tp742
a(S'i am not a robot'
p743
g2
(g6
S'k\xc7k\xcd\xb6\x10\xdd?'
p744
tp745
Rp746
tp747
a(S'robotics suite'
p748
g2
(g6
S'T4$a\xf4\xfc\xdc?'
p749
tp750
Rp751
tp752
a(S'khr-1'
p753
g2
(g6
S'\xd9K\x8bt\xf7\xe3\xdc?'
p754
tp755
Rp756
tp757
a(S'robot and monster'
p758
g2
(g6
S'\x0cj\xfe\xe6.\xcb\xdc?'
p759
tp760
Rp761
tp762
a(S'crash and burn (film)'
p763
g2
(g6
S'\x85\x91\xb5A\xab\xc9\xdc?'
p764
tp765
Rp766
tp767
a(S'looj'
p768
g2
(g6
S'\x03\xfby\xcf\xc1\xc6\xdc?'
p769
tp770
Rp771
tp772
a(S'list of robot series characters'
p773
g2
(g6
S'\x89\xd9\xb1\x91\x14\xbc\xdc?'
p774
tp775
Rp776
tp777
a(S'the rest of the robots'
p778
g2
(g6
S'\x80/W\x81{\xba\xdc?'
p779
tp780
Rp781
tp782
a(S'snakebot'
p783
g2
(g6
S'\xfb\xdf\xc3W\x98\xb4\xdc?'
p784
tp785
Rp786
tp787
a(S'inmoov'
p788
g2
(g6
S'\xfa\xf8\t\xa4E\x9b\xdc?'
p789
tp790
Rp791
tp792
a(S'atlas (robot)'
p793
g2
(g6
S'\xe0\xd2\xcf<\xbb\x8d\xdc?'
p794
tp795
Rp796
tp797
a(S'ibn sina robot'
p798
g2
(g6
S'\xc4\xaf\x8c\x14\xf5\x83\xdc?'
p799
tp800
Rp801
tp802
a(S'kim jong-hwan'
p803
g2
(g6
S'0x>\xbf\xaby\xdc?'
p804
tp805
Rp806
tp807
a(S'liar! (short story)'
p808
g2
(g6
S'\xfc\xaf\x0e\xcfcm\xdc?'
p809
tp810
Rp811
tp812
a(S'robosapien v2'
p813
g2
(g6
S'\xb3\xe5\x8c\xcf\xa4f\xdc?'
p814
tp815
Rp816
tp817
a(S'evidence (short story)'
p818
g2
(g6
S'\xca\xea\xc5\xe4\xe3d\xdc?'
p819
tp820
Rp821
tp822
a(S'autonomous research robot'
p823
g2
(g6
S'ua"\xc1\x0bI\xdc?'
p824
tp825
Rp826
tp827
a(S'arm solution'
p828
g2
(g6
S'YK\x16T\xdf<\xdc?'
p829
tp830
Rp831
tp832
a(S'eternally yours (album)'
p833
g2
(g6
S'\xe3k\x86\xa0\xb7:\xdc?'
p834
tp835
Rp836
tp837
a(S'packbot'
p838
g2
(g6
S'\x0fw\xd2\x90\x91&\xdc?'
p839
tp840
Rp841
tp842
a(S'mirror image (short story)'
p843
g2
(g6
S'\x9d6\xcbd\x1e"\xdc?'
p844
tp845
Rp846
tp847
a(S'hexapod (robotics)'
p848
g2
(g6
S'5Q"\xde\xf2\x1f\xdc?'
p849
tp850
Rp851
tp852
a(S'g.i. robot'
p853
g2
(g6
S'\xb8\xb8d7\xd5\x1c\xdc?'
p854
tp855
Rp856
tp857
a(S'cartesian coordinate robot'
p858
g2
(g6
S':_7%\x9c\x1c\xdc?'
p859
tp860
Rp861
tp862
a(S'super robot taisen: original generation 2'
p863
g2
(g6
S'\x9bd*\xc4c\x14\xdc?'
p864
tp865
Rp866
tp867
a(S'webots'
p868
g2
(g6
S'\xc3\xcd\xfdAt\n\xdc?'
p869
tp870
Rp871
tp872
a(S'bionickangaroo'
p873
g2
(g6
S'5V\xa2*+\x08\xdc?'
p874
tp875
Rp876
tp877
a(S"isaac asimov's robots and aliens"
p878
g2
(g6
S'h$I\x8az\xf9\xdb?'
p879
tp880
Rp881
tp882
a(S'robot odyssey'
p883
g2
(g6
S'yl\xfd\xd8_\xf4\xdb?'
p884
tp885
Rp886
tp887
a(S'family party (song)'
p888
g2
(g6
S'\xba7\x9c$,\xe5\xdb?'
p889
tp890
Rp891
tp892
a(S'nickelodeon robot wars'
p893
g2
(g6
S'}_[\xf1|\xdf\xdb?'
p894
tp895
Rp896
tp897
a(S'robot research initiative'
p898
g2
(g6
S'\x15\x96\xd8\x0b6\xd2\xdb?'
p899
tp900
Rp901
tp902
a(S'ivananywhere'
p903
g2
(g6
S'\x88>\xa1\xce\xef\xd1\xdb?'
p904
tp905
Rp906
tp907
a(S'robot fish'
p908
g2
(g6
S'\xdb\x1d\xe0F\xf0\xc7\xdb?'
p909
tp910
Rp911
tp912
a(S'r. daneel olivaw'
p913
g2
(g6
S'\xd1v\x90\xac\xdf\xc3\xdb?'
p914
tp915
Rp916
tp917
a(S'baseball robot'
p918
g2
(g6
S'\xdem~R\xb8\xc2\xdb?'
p919
tp920
Rp921
tp922
a(S'joseph engelberger'
p923
g2
(g6
S'\xbe\x9504\xda\xbf\xdb?'
p924
tp925
Rp926
tp927
a(S'robot (camera)'
p928
g2
(g6
S'\x1f\xb0\xcc\x90\xba\xb3\xdb?'
p929
tp930
Rp931
tp932
a(S'programming by demonstration'
p933
g2
(g6
S'\xf2},!\xbc\xb0\xdb?'
p934
tp935
Rp936
tp937
a(S'cobot'
p938
g2
(g6
S'\x0b\x85H_K\xa9\xdb?'
p939
tp940
Rp941
tp942
a(S'xianxingzhe'
p943
g2
(g6
S'\xb2\xb7r\xb7\x02\x92\xdb?'
p944
tp945
Rp946
tp947
a(S'list of doctor who robots'
p948
g2
(g6
S'[\x8e\xbd\xc7_y\xdb?'
p949
tp950
Rp951
tp952
a(S"isaac asimov's robot city: perihelion"
p953
g2
(g6
S'|\xf2\t\xfd"u\xdb?'
p954
tp955
Rp956
tp957
a(S'cloud robotics'
p958
g2
(g6
S'R\x15\xfd\xd5\xd9p\xdb?'
p959
tp960
Rp961
tp962
a(S'laws of robotics'
p963
g2
(g6
S'c\xd5\xb4{\xf1o\xdb?'
p964
tp965
Rp966
tp967
a(S'unmanned ground vehicle'
p968
g2
(g6
S'\xfd\xa9\xd4\x05)d\xdb?'
p969
tp970
Rp971
tp972
a(S'the three laws of robotics in popular culture'
p973
g2
(g6
S'\xfc\x86\x96\xe6\xecc\xdb?'
p974
tp975
Rp976
tp977
a(S'institute for personal robots in education'
p978
g2
(g6
S'\xabr&\xd8\x96c\xdb?'
p979
tp980
Rp981
tp982
a(S'robot rescue'
p983
g2
(g6
S'\xe7Fp\x87\x9f_\xdb?'
p984
tp985
Rp986
tp987
a(S'robot overlords'
p988
g2
(g6
S'!\xca\xe3\xfe\xa1[\xdb?'
p989
tp990
Rp991
tp992
a(S'phobot'
p993
g2
(g6
S'k\x04\x12\xae\xd6S\xdb?'
p994
tp995
Rp996
tp997
a(S'first law'
p998
g2
(g6
S"$\x17'\x07TS\xdb?"
p999
tp1000
Rp1001
tp1002
a(S'robot (bosna i hercegovina)'
p1003
g2
(g6
S'\xff}\x90\x13oM\xdb?'
p1004
tp1005
Rp1006
tp1007
a(S'first lego league'
p1008
g2
(g6
S'h\xf4\xb1\xd5\xa0I\xdb?'
p1009
tp1010
Rp1011
tp1012
a(S'service robot'
p1013
g2
(g6
S'\x8fz\xae=lF\xdb?'
p1014
tp1015
Rp1016
tp1017
a(S'robot & frank'
p1018
g2
(g6
S'\x95\x84*E+D\xdb?'
p1019
tp1020
Rp1021
tp1022
a(S'i, robot (film)'
p1023
g2
(g6
S'\xbc\x9f*\x12x9\xdb?'
p1024
tp1025
Rp1026
tp1027
a(S'the positronic man'
p1028
g2
(g6
S'\xd3m_\x9e)6\xdb?'
p1029
tp1030
Rp1031
tp1032
a(S'bozo the iron man'
p1033
g2
(g6
S'\xc3\xf8\x81e\xdb.\xdb?'
p1034
tp1035
Rp1036
tp1037
a(S'botball'
p1038
g2
(g6
S'\xa6\xca~*\xc1\x1f\xdb?'
p1039
tp1040
Rp1041
tp1042
a(S'the girl and the robot'
p1043
g2
(g6
S'8w\xfb\x1f\xd5\x08\xdb?'
p1044
tp1045
Rp1046
tp1047
a(S'roboforge'
p1048
g2
(g6
S'\xc6(\x1f\xbe\x0f\x07\xdb?'
p1049
tp1050
Rp1051
tp1052
a(S'rehabilitation robotics'
p1053
g2
(g6
S'U\xe0\xc8c\xa1\x04\xdb?'
p1054
tp1055
Rp1056
tp1057
a(S'hitchbot'
p1058
g2
(g6
S'G\x1fC~\xe0\x02\xdb?'
p1059
tp1060
Rp1061
tp1062
a(S'robot ethics'
p1063
g2
(g6
S"\xb8\x8a'\xd9\x05\xfc\xda?"
p1064
tp1065
Rp1066
tp1067
a(S'robot wars: arenas of destruction'
p1068
g2
(g6
S'\x83\xe9\x8b\xaao\xfb\xda?'
p1069
tp1070
Rp1071
tp1072
a(S'robot calibration'
p1073
g2
(g6
S'\x82z\n\xd4\x85\xf8\xda?'
p1074
tp1075
Rp1076
tp1077
a(S'geography of robotics'
p1078
g2
(g6
S'q\xcbJ\xbe\xbd\xeb\xda?'
p1079
tp1080
Rp1081
tp1082
a(S'2nd super robot wars original generation'
p1083
g2
(g6
S'g\xe7\xff(?\xea\xda?'
p1084
tp1085
Rp1086
tp1087
a(S'r.u.r.'
p1088
g2
(g6
S'\x00\xfc\t{I\xdc\xda?'
p1089
tp1090
Rp1091
tp1092
a(S'beam robotics'
p1093
g2
(g6
S'\xf2g\x1d\x93\x92\xd0\xda?'
p1094
tp1095
Rp1096
tp1097
a(S'susan calvin'
p1098
g2
(g6
S'\x84UnK \xc1\xda?'
p1099
tp1100
Rp1101
tp1102
a(S'robot rock (song)'
p1103
g2
(g6
S'\x96_f\x93\xfa\xb1\xda?'
p1104
tp1105
Rp1106
tp1107
a(S'obsoletely fabulous'
p1108
g2
(g6
S'.\x05Y\xb2\x8b\xb1\xda?'
p1109
tp1110
Rp1111
tp1112
a(S'giant robot'
p1113
g2
(g6
S'RF;\xa7\xb7\xa0\xda?'
p1114
tp1115
Rp1116
tp1117
a(S'swedish robotics society'
p1118
g2
(g6
S'"a_,Y\x9a\xda?'
p1119
tp1120
Rp1121
tp1122
a(S'battlebots'
p1123
g2
(g6
S'\xaeH\xef\xc2\xc2\x94\xda?'
p1124
tp1125
Rp1126
tp1127
a(S'ropid'
p1128
g2
(g6
S'\xc5\xed\xe2\x81(\x91\xda?'
p1129
tp1130
Rp1131
tp1132
a(S'irobot create'
p1133
g2
(g6
S' ;F\x89\x14\x85\xda?'
p1134
tp1135
Rp1136
tp1137
a(S'dustbot'
p1138
g2
(g6
S',\x04\xb0\x7f2\x82\xda?'
p1139
tp1140
Rp1141
tp1142
a(S'robotic mapping'
p1143
g2
(g6
S'\x9a\xf7\xdd\xec\xf2\x80\xda?'
p1144
tp1145
Rp1146
tp1147
a(S'super robot wars gaiden: mas\xc5\x8d kishin \xe2\x80\x93 the lord of elemental'
p1148
g2
(g6
S'u\x8b\xae\\\xcb|\xda?'
p1149
tp1150
Rp1151
tp1152
a(S'lenny (short story)'
p1153
g2
(g6
S'\x0c\xc5\x1a\x97\xb9y\xda?'
p1154
tp1155
Rp1156
tp1157
a(S'legged robot'
p1158
g2
(g6
S'+0\xbdk\xb7y\xda?'
p1159
tp1160
Rp1161
tp1162
a(S'ricochet robot'
p1163
g2
(g6
S'wWcP1r\xda?'
p1164
tp1165
Rp1166
tp1167
a(S'u.s. robots and mechanical men'
p1168
g2
(g6
S'I\x97\x05+\xc4k\xda?'
p1169
tp1170
Rp1171
tp1172
a(S'robot battle (macintosh game)'
p1173
g2
(g6
S'\x99r\xb8\xce\xabh\xda?'
p1174
tp1175
Rp1176
tp1177
a(S'rise 2: resurrection'
p1178
g2
(g6
S'\r\x12\xf73\x0fh\xda?'
p1179
tp1180
Rp1181
tp1182
a(S'do it like a robot'
p1183
g2
(g6
S'\xb2\x0f\xe6~\xa6c\xda?'
p1184
tp1185
Rp1186
tp1187
a(S'analog robot'
p1188
g2
(g6
S'\xb5\xeb\x9a\xa3\xc5b\xda?'
p1189
tp1190
Rp1191
tp1192
a(S'super robot taisen: original generation'
p1193
g2
(g6
S'3\x8d\xee\x9a!a\xda?'
p1194
tp1195
Rp1196
tp1197
a(S'mr. robot and his robot factory'
p1198
g2
(g6
S'\xd2\xedY\x0e\xf1H\xda?'
p1199
tp1200
Rp1201
tp1202
a(S'bang-bang robot'
p1203
g2
(g6
S"\x05\x00\x07\xa6'B\xda?"
p1204
tp1205
Rp1206
tp1207
a(S'android (robot)'
p1208
g2
(g6
S'Y\xe6T\xc7\x10>\xda?'
p1209
tp1210
Rp1211
tp1212
a(S'medical robot'
p1213
g2
(g6
S'q\x7f\x1b9\xe78\xda?'
p1214
tp1215
Rp1216
tp1217
a(S'hero (robot)'
p1218
g2
(g6
S'\xc1\xe9$\xa3++\xda?'
p1219
tp1220
Rp1221
tp1222
a(S'uwa telerobot'
p1223
g2
(g6
S'_\xdf\xae\x80\x12 \xda?'
p1224
tp1225
Rp1226
tp1227
a(S't.r.a.c.i.e.'
p1228
g2
(g6
S'\x97{ei\xc2\x1d\xda?'
p1229
tp1230
Rp1231
tp1232
a(S'rb5x'
p1233
g2
(g6
S'\xda\x94\xf8\x87\xb9\x19\xda?'
p1234
tp1235
Rp1236
tp1237
a(S'riot runners'
p1238
g2
(g6
S'\xae\xf1_$\x01\x11\xda?'
p1239
tp1240
Rp1241
tp1242
a(S'robotwar'
p1243
g2
(g6
S'\xaf,_\xe3\xa1\x0f\xda?'
p1244
tp1245
Rp1246
tp1247
a(S'flower robot'
p1248
g2
(g6
S'l\x1e\x19X\xe4\xfe\xd9?'
p1249
tp1250
Rp1251
tp1252
a(S'bio-inspired robotics'
p1253
g2
(g6
S'a\x89\x95\xc7\x7f\xf9\xd9?'
p1254
tp1255
Rp1256
tp1257
a(S'robotic vacuum cleaner'
p1258
g2
(g6
S'\x16d\xe1\\\xca\xdf\xd9?'
p1259
tp1260
Rp1261
tp1262
a(S'robot app store'
p1263
g2
(g6
S'\x98\x03\x82\xe3\x81\xd0\xd9?'
p1264
tp1265
Rp1266
tp1267
a(S'eric nakamura'
p1268
g2
(g6
S'\xcc\x9c#G\x8c\xc9\xd9?'
p1269
tp1270
Rp1271
tp1272
a(S'sociorobotics'
p1273
g2
(g6
S'\xfc\xa8"n\xad\xc2\xd9?'
p1274
tp1275
Rp1276
tp1277
a(S'atrias'
p1278
g2
(g6
S'\xa7{\xc5q[\xc1\xd9?'
p1279
tp1280
Rp1281
tp1282
a(S'robocup middle size league'
p1283
g2
(g6
S'\x84\xf8n\x88\xc8\xc0\xd9?'
p1284
tp1285
Rp1286
tp1287
a(S'robot stories'
p1288
g2
(g6
S'\xf1\x85\xb2\x902\xc0\xd9?'
p1289
tp1290
Rp1291
tp1292
a(S'lauron'
p1293
g2
(g6
S'gD\x10fv\xb5\xd9?'
p1294
tp1295
Rp1296
tp1297
a(S'icub'
p1298
g2
(g6
S')i\xfa\xa1\x19\xad\xd9?'
p1299
tp1300
Rp1301
tp1302
a(S'mobile robotics laboratory at iisc'
p1303
g2
(g6
S'f\xe9\xf1?@\xaa\xd9?'
p1304
tp1305
Rp1306
tp1307
a(S'st robotics'
p1308
g2
(g6
S'\xa9\x9a\x05\x16|\x9e\xd9?'
p1309
tp1310
Rp1311
tp1312
a(S'nonterraqueous'
p1313
g2
(g6
S'6\xabTB*\x97\xd9?'
p1314
tp1315
Rp1316
tp1317
a(S'robologix'
p1318
g2
(g6
S'.\xc7\x07\xeb\xf9\x96\xd9?'
p1319
tp1320
Rp1321
tp1322
a(S'fembot'
p1323
g2
(g6
S"\x1f3'?9\x96\xd9?"
p1324
tp1325
Rp1326
tp1327
a(S'robot ii'
p1328
g2
(g6
S'\x83\xd0\xc6\x8e_\x89\xd9?'
p1329
tp1330
Rp1331
tp1332
a(S'transforming robots'
p1333
g2
(g6
S'\xe5.\x0b\xc9\xa6\x84\xd9?'
p1334
tp1335
Rp1336
tp1337
a(S'super robot wars original generation gaiden'
p1338
g2
(g6
S'\xb2\x93>|\xc8\x81\xd9?'
p1339
tp1340
Rp1341
tp1342
a(S'k\xc3\xa4rcher rc3000'
p1343
g2
(g6
S'\xbc\xb7\xcb\xda\x11\x80\xd9?'
p1344
tp1345
Rp1346
tp1347
a(S'autonomous shipboard humanoid'
p1348
g2
(g6
S'\n\xef\xb5\x94\xc0\x7f\xd9?'
p1349
tp1350
Rp1351
tp1352
a(S'maschinenmensch'
p1353
g2
(g6
S'=\xb3\xcey\xa5j\xd9?'
p1354
tp1355
Rp1356
tp1357
a(S'cubestormer 3'
p1358
g2
(g6
S'\xcbx\x97\x82\xe6i\xd9?'
p1359
tp1360
Rp1361
tp1362
a(S'i, robot'
p1363
g2
(g6
S'Q\xed^p\xe8g\xd9?'
p1364
tp1365
Rp1366
tp1367
a(S'reconrobotics, inc.'
p1368
g2
(g6
S'=n\x0f\xc7>f\xd9?'
p1369
tp1370
Rp1371
tp1372
a(S'holonomic (robotics)'
p1373
g2
(g6
S'"\xb0\xe9P.e\xd9?'
p1374
tp1375
Rp1376
tp1377
a(S'battlefield extraction-assist robot'
p1378
g2
(g6
S'U\x83\x8a\x81\x0be\xd9?'
p1379
tp1380
Rp1381
tp1382
a(S'robot wants kitty'
p1383
g2
(g6
S'\xab\xde\xf5sdb\xd9?'
p1384
tp1385
Rp1386
tp1387
a(S'ronald c. arkin'
p1388
g2
(g6
S'xqc\xdc\xfb_\xd9?'
p1389
tp1390
Rp1391
tp1392
a(S'automatika'
p1393
g2
(g6
S'\xc9n\xbc\xcb\xb3]\xd9?'
p1394
tp1395
Rp1396
tp1397
a(S'rob the robot'
p1398
g2
(g6
S'\xb8\x83GE F\xd9?'
p1399
tp1400
Rp1401
tp1402
a(S'wonderborg'
p1403
g2
(g6
S'9\x8f\x0c\xdb\xfc*\xd9?'
p1404
tp1405
Rp1406
tp1407
a(S'robot (the goodies)'
p1408
g2
(g6
S'Ms4Y\x9f(\xd9?'
p1409
tp1410
Rp1411
tp1412
a(S'bob may (actor)'
p1413
g2
(g6
S'\xd4E\xa53\xeb#\xd9?'
p1414
tp1415
Rp1416
tp1417
a(S'war robots'
p1418
g2
(g6
S'c6X\xfd\xe8\x10\xd9?'
p1419
tp1420
Rp1421
tp1422
a(S'richmond robottin'
p1423
g2
(g6
S'\x12\x9c\xab\xa9a\x0f\xd9?'
p1424
tp1425
Rp1426
tp1427
a(S'don cuco el guapo'
p1428
g2
(g6
S'\x9e\xd9\xaf\xd3\xdc\n\xd9?'
p1429
tp1430
Rp1431
tp1432
a(S'puck collect'
p1433
g2
(g6
S'\xcfi\x9b\x99~\x05\xd9?'
p1434
tp1435
Rp1436
tp1437
a(S'32 years of robot rebel'
p1438
g2
(g6
S'\n\x80\x1fU\xf6\x00\xd9?'
p1439
tp1440
Rp1441
tp1442
a(S'actin (software)'
p1443
g2
(g6
S'<\xa2\x88T\xd1\xfd\xd8?'
p1444
tp1445
Rp1446
tp1447
a(S'fear of a bot planet'
p1448
g2
(g6
S'\xc0\x9e\xe1\xcf\x83\xf8\xd8?'
p1449
tp1450
Rp1451
tp1452
a(S'robot wars: extreme destruction'
p1453
g2
(g6
S'\x94uLa.\xf3\xd8?'
p1454
tp1455
Rp1456
tp1457
a(S'air-cobot'
p1458
g2
(g6
S'!\xf5\xcd\xb8\xcb\xf2\xd8?'
p1459
tp1460
Rp1461
tp1462
a(S'slim john'
p1463
g2
(g6
S'\x0b\xda\x1frd\xf1\xd8?'
p1464
tp1465
Rp1466
tp1467
a(S'robai'
p1468
g2
(g6
S'-\xc3\xdd\x80"\xf0\xd8?'
p1469
tp1470
Rp1471
tp1472
a(S'crs robotics'
p1473
g2
(g6
S'(\x8c\xdf\xc7\xc1\xeb\xd8?'
p1474
tp1475
Rp1476
tp1477
a(S'national robotics challenge'
p1478
g2
(g6
S'\xb6\xc5\xef\xba\x92\xe6\xd8?'
p1479
tp1480
Rp1481
tp1482
a(S'evolution robotics'
p1483
g2
(g6
S'\x1b\x9a\xab\xca\x81\xdd\xd8?'
p1484
tp1485
Rp1486
tp1487
a(S'robbie (short story)'
p1488
g2
(g6
S'\x03w\xd7S\x1c\xdc\xd8?'
p1489
tp1490
Rp1491
tp1492
a(S'toyota partner robot'
p1493
g2
(g6
S')\x88\xac`c\xd2\xd8?'
p1494
tp1495
Rp1496
tp1497
a(S"rock 'em sock 'em robots"
p1498
g2
(g6
S'\xc4\xf5\x1c\xe5L\xcd\xd8?'
p1499
tp1500
Rp1501
tp1502
a(S'real robots'
p1503
g2
(g6
S'v\xb7\xa8\x1e\x16\xc6\xd8?'
p1504
tp1505
Rp1506
tp1507
a(S'the last mission (video game)'
p1508
g2
(g6
S'\xa5\xf4F\xb2|\xc4\xd8?'
p1509
tp1510
Rp1511
tp1512
a.