(lp0
(S'java (programming language)'
p1
cnumpy.core.multiarray
scalar
p2
(cnumpy
dtype
p3
(S'f8'
p4
I0
I1
tp5
Rp6
(I3
S'<'
p7
NNNI-1
I-1
I0
tp8
bS'\xfc\xff\xff\xff\xff\xff\xef?'
p9
tp10
Rp11
tp12
a(S'java (software platform)'
p13
g2
(g6
S')\xa2\xaf\xb4\xe2f\xec?'
p14
tp15
Rp16
tp17
a(S'java (disambiguation)'
p18
g2
(g6
S'\x99s\x00z$L\xea?'
p19
tp20
Rp21
tp22
a(S'java development kit'
p23
g2
(g6
S'\xee\x8e\x0e\xed\x86\x17\xea?'
p24
tp25
Rp26
tp27
a(S'java performance'
p28
g2
(g6
S'\x0b\\\xc5\x01.\xdf\xe9?'
p29
tp30
Rp31
tp32
a(S'criticism of java'
p33
g2
(g6
S'\x0b\x98\xca1(M\xe9?'
p34
tp35
Rp36
tp37
a(S'retrotranslator'
p38
g2
(g6
S'{\x01\xb8Oz\xfb\xe8?'
p39
tp40
Rp41
tp42
a(S'leptopanorpa'
p43
g2
(g6
S'C[~<\xab\xac\xe8?'
p44
tp45
Rp46
tp47
a(S'javac'
p48
g2
(g6
S'\x86\xb37Vzf\xe8?'
p49
tp50
Rp51
tp52
a(S'java 3d'
p53
g2
(g6
S'\xday\xf3}\xd2[\xe8?'
p54
tp55
Rp56
tp57
a(S'service provider interface'
p58
g2
(g6
S'\x95\x83\x0c\xefMB\xe8?'
p59
tp60
Rp61
tp62
a(S'pnuts'
p63
g2
(g6
S'\xd0;\xc1\xa1])\xe8?'
p64
tp65
Rp66
tp67
a(S'java community process'
p68
g2
(g6
S'\xda\xd3*\r\xf4\x0b\xe8?'
p69
tp70
Rp71
tp72
a(S'java backporting tools'
p73
g2
(g6
S'\xdb\xd2\x02+\xfe\xe9\xe7?'
p74
tp75
Rp76
tp77
a(S'java'
p78
g2
(g6
S'^\xdb~*\x1bj\xe7?'
p79
tp80
Rp81
tp82
a(S'sablevm'
p83
g2
(g6
S'O\xdf\xb3\xff\x9f^\xe7?'
p84
tp85
Rp86
tp87
a(S'java compiler'
p88
g2
(g6
S'\x0f\x0b\xddK\x05>\xe7?'
p89
tp90
Rp91
tp92
a(S'java card'
p93
g2
(g6
S'%N"\xd1\xcb7\xe7?'
p94
tp95
Rp96
tp97
a(S'java class library'
p98
g2
(g6
S'\xe2\x9bU\x0c}6\xe7?'
p99
tp100
Rp101
tp102
a(S'java bytecode'
p103
g2
(g6
S'\xf2;\x14\xff\xf94\xe7?'
p104
tp105
Rp106
tp107
a(S'java platform, standard edition'
p108
g2
(g6
S'/\xbcT\xb0\x11+\xe7?'
p109
tp110
Rp111
tp112
a(S'comparison of geographic information systems software'
p113
g2
(g6
S'g\xfc\xe5\xd8\xca%\xe7?'
p114
tp115
Rp116
tp117
a(S'comparison of java and c++'
p118
g2
(g6
S'\x8e\xe7\xd9\x08W\x04\xe7?'
p119
tp120
Rp121
tp122
a(S'java champions'
p123
g2
(g6
S'd\xa4+\xd0D\xff\xe6?'
p124
tp125
Rp126
tp127
a(S'java (cigarette)'
p128
g2
(g6
S'\x10B\xd1?\xa6\xf7\xe6?'
p129
tp130
Rp131
tp132
a(S'jsr 94'
p133
g2
(g6
S'*\xb0L*\x7f\xee\xe6?'
p134
tp135
Rp136
tp137
a(S'java virtual machine'
p138
g2
(g6
S'\x0e-\xa0i^\xd6\xe6?'
p139
tp140
Rp141
tp142
a(S'list of java apis'
p143
g2
(g6
S'\x0f\xdaoG&\xb7\xe6?'
p144
tp145
Rp146
tp147
a(S'java native interface'
p148
g2
(g6
S'\x9d\x1c\x80\n\xe2\xa7\xe6?'
p149
tp150
Rp151
tp152
a(S'jconsole'
p153
g2
(g6
S'W)S\x86\x90\x9a\xe6?'
p154
tp155
Rp156
tp157
a(S'java cryptography extension'
p158
g2
(g6
S'@\xbe}Z\xbcR\xe6?'
p159
tp160
Rp161
tp162
a(S'gluegen'
p163
g2
(g6
S'\x8a\xf0\xae\xae\xbfO\xe6?'
p164
tp165
Rp166
tp167
a(S'list of java virtual machines'
p168
g2
(g6
S'\xc5\xfe\x07Z\x199\xe6?'
p169
tp170
Rp171
tp172
a(S'java security'
p173
g2
(g6
S'\xe5\xc1\x13*\x9a\xe7\xe5?'
p174
tp175
Rp176
tp177
a(S'apache jmeter'
p178
g2
(g6
S'\x8b\x8e\x9c\x13}\xd3\xe5?'
p179
tp180
Rp181
tp182
a(S'java ee version history'
p183
g2
(g6
S'\n\xaal;\xc8\xbc\xe5?'
p184
tp185
Rp186
tp187
a(S'openjdk'
p188
g2
(g6
S'\xa3\xf7\xf2\x8f|\xb9\xe5?'
p189
tp190
Rp191
tp192
a(S'java caps'
p193
g2
(g6
S'\xf3n\xe8`\xce\xb6\xe5?'
p194
tp195
Rp196
tp197
a(S'java access bridge'
p198
g2
(g6
S'\xff\xec\xd9\x85\xf9\xb1\xe5?'
p199
tp200
Rp201
tp202
a(S'real time java'
p203
g2
(g6
S'*\xf5\x9e-\xbb\xb1\xe5?'
p204
tp205
Rp206
tp207
a(S'embedded java'
p208
g2
(g6
S'1\xa6\xac\x98\xe8\xa2\xe5?'
p209
tp210
Rp211
tp212
a(S'java version history'
p213
g2
(g6
S'\x8d~\xf2y\xdc\x92\xe5?'
p214
tp215
Rp216
tp217
a(S'wildfly'
p218
g2
(g6
S'\xcf\x03\xbd+\xc4\x83\xe5?'
p219
tp220
Rp221
tp222
a(S'jnaerator'
p223
g2
(g6
S'/i\xa3r\xc0|\xe5?'
p224
tp225
Rp226
tp227
a(S'list of subject-predicate-object databases'
p228
g2
(g6
S'\x8f\xc6\x96\\Tm\xe5?'
p229
tp230
Rp231
tp232
a(S'comparison of c sharp and java'
p233
g2
(g6
S'\xe2\x12\x0eN\xc0c\xe5?'
p234
tp235
Rp236
tp237
a(S'scripting for the java platform'
p238
g2
(g6
S'\xb0\x953\x15\xfcL\xe5?'
p239
tp240
Rp241
tp242
a(S'java interface definition language'
p243
g2
(g6
S'\xf2\x13\xe2>\xd1*\xe5?'
p244
tp245
Rp246
tp247
a(S'gnu compiler for java'
p248
g2
(g6
S'\x12\xc8\x8cS\xc0\x0e\xe5?'
p249
tp250
Rp251
tp252
a(S'java platform, micro edition'
p253
g2
(g6
S'\xc1_\x99M\t\xfb\xe4?'
p254
tp255
Rp256
tp257
a(S'tanjung layar'
p258
g2
(g6
S'GYsB\x88\xf5\xe4?'
p259
tp260
Rp261
tp262
a(S'soujava'
p263
g2
(g6
S'\xbf\xd2?\xec\x14\xea\xe4?'
p264
tp265
Rp266
tp267
a(S'jasmin (software)'
p268
g2
(g6
S'H\xc6\x0b\x10.\xd7\xe4?'
p269
tp270
Rp271
tp272
a(S'free java implementations'
p273
g2
(g6
S'f8\xc6\xfaw\xd4\xe4?'
p274
tp275
Rp276
tp277
a(S'java web start'
p278
g2
(g6
S'\xf3\xb0o\x02-\xcb\xe4?'
p279
tp280
Rp281
tp282
a(S'oak (programming language)'
p283
g2
(g6
S'\xba\x0f\x9a\xba\x81\xa6\xe4?'
p284
tp285
Rp286
tp287
a(S'java platform debugger architecture'
p288
g2
(g6
S'#\xca\x1a#\xa6\x8f\xe4?'
p289
tp290
Rp291
tp292
a(S'java user group'
p293
g2
(g6
S'\xb5\xbd}\xdfs\x8d\xe4?'
p294
tp295
Rp296
tp297
a(S'java, new york'
p298
g2
(g6
S'>\x94\xa5\x81\xfb~\xe4?'
p299
tp300
Rp301
tp302
a(S'xtend'
p303
g2
(g6
S'k\x92\x84\x02\xb4y\xe4?'
p304
tp305
Rp306
tp307
a(S'java platform, enterprise edition'
p308
g2
(g6
S'W\xd4\x03^\xb6x\xe4?'
p309
tp310
Rp311
tp312
a(S'mac os runtime for java'
p313
g2
(g6
S'H!\xfc]\xbak\xe4?'
p314
tp315
Rp316
tp317
a(S'java openal'
p318
g2
(g6
S'P\xab6\x8f\x91^\xe4?'
p319
tp320
Rp321
tp322
a(S'java blueprints'
p323
g2
(g6
S'<\xfaV\xad:Z\xe4?'
p324
tp325
Rp326
tp327
a(S'java classloader'
p328
g2
(g6
S'T\xa9)akK\xe4?'
p329
tp330
Rp331
tp332
a(S'java.net'
p333
g2
(g6
S'\xed\xfd$\x19"E\xe4?'
p334
tp335
Rp336
tp337
a(S'sun java system'
p338
g2
(g6
S'P0\xb01\xec4\xe4?'
p339
tp340
Rp341
tp342
a(S'java processor'
p343
g2
(g6
S'\xf1r\x98\xda\xdf4\xe4?'
p344
tp345
Rp346
tp347
a(S'chrysler java'
p348
g2
(g6
S'B2D\xa8\xe5\n\xe4?'
p349
tp350
Rp351
tp352
a(S'j/direct'
p353
g2
(g6
S'tz\xda\t\xba\xfa\xe3?'
p354
tp355
Rp356
tp357
a(S'gnu classpath'
p358
g2
(g6
S'\xb6\x9e\xf6\xe5}\xf0\xe3?'
p359
tp360
Rp361
tp362
a(S'comparison of the java and .net platforms'
p363
g2
(g6
S'3\xe6\xae\xcb\x1e\xe8\xe3?'
p364
tp365
Rp366
tp367
a(S'java school no. 1'
p368
g2
(g6
S'\x8d\xa6 *V\xdc\xe3?'
p369
tp370
Rp371
tp372
a(S'java media framework'
p373
g2
(g6
S'\xa0|d\x05s\xd5\xe3?'
p374
tp375
Rp376
tp377
a(S'list of unified modeling language tools'
p378
g2
(g6
S'\xd5>\x16\xc9\xcc\xce\xe3?'
p379
tp380
Rp381
tp382
a(S'superwaba'
p383
g2
(g6
S'\x84L\xc0\xad\xdc\xbe\xe3?'
p384
tp385
Rp386
tp387
a(S'jdk enhancement proposal'
p388
g2
(g6
S'\xdc\xdd/\xd2@\x8b\xe3?'
p389
tp390
Rp391
tp392
a(S'jsbml'
p393
g2
(g6
S'\xfe\xa5\xf71\x8d\x83\xe3?'
p394
tp395
Rp396
tp397
a(S'java foundation classes'
p398
g2
(g6
S'a\xf7\xc1!G|\xe3?'
p399
tp400
Rp401
tp402
a(S'jaskell'
p403
g2
(g6
S'\x8aoX\xb0\xaap\xe3?'
p404
tp405
Rp406
tp407
a(S'visual j++'
p408
g2
(g6
S'\x8a^\x19\xbf\xa5L\xe3?'
p409
tp410
Rp411
tp412
a(S'java tv'
p413
g2
(g6
S'\xe8\xe0\x86\x03fA\xe3?'
p414
tp415
Rp416
tp417
a(S'kaffe'
p418
g2
(g6
S'n.\xde\xae\x0f8\xe3?'
p419
tp420
Rp421
tp422
a(S'list of apache software foundation projects'
p423
g2
(g6
S'@\xc7\xf7{\x8f\x10\xe3?'
p424
tp425
Rp426
tp427
a(S'veriflux'
p428
g2
(g6
S'\x92\xc0\xafU\x1a\x0b\xe3?'
p429
tp430
Rp431
tp432
a(S'judoscript'
p433
g2
(g6
S's\xcb\x1c\xa2\x1b\xf5\xe2?'
p434
tp435
Rp436
tp437
a(S'dewadaru airport'
p438
g2
(g6
S'\x81\x18A\xab\xdf\xe9\xe2?'
p439
tp440
Rp441
tp442
a(S'swinglabs'
p443
g2
(g6
S'\xf3\x07\xc2\xf7\x9d\xdc\xe2?'
p444
tp445
Rp446
tp447
a(S'comparison of java and android api'
p448
g2
(g6
S'F\x02\xec\xb8\x97\xca\xe2?'
p449
tp450
Rp451
tp452
a(S'joshua bloch'
p453
g2
(g6
S'\x8e\x06W\xe4\x9e\xbb\xe2?'
p454
tp455
Rp456
tp457
a(S'escreeningz'
p458
g2
(g6
S'6\x9b\xbe\xe1\xcc\xb4\xe2?'
p459
tp460
Rp461
tp462
a(S'abstract window toolkit'
p463
g2
(g6
S'\x04\x81\xe5\x97\x9a\xad\xe2?'
p464
tp465
Rp466
tp467
a(S'webobjects'
p468
g2
(g6
S'Z\xe1\x03L>\xad\xe2?'
p469
tp470
Rp471
tp472
a(S'bean scripting framework'
p473
g2
(g6
S'\xd6\xa31\xda\xa2\xab\xe2?'
p474
tp475
Rp476
tp477
a(S'list of jvm languages'
p478
g2
(g6
S'\xc3\x07W)\xd0\xa9\xe2?'
p479
tp480
Rp481
tp482
a(S'indicthreads'
p483
g2
(g6
S' k\xb6s\x13\xa1\xe2?'
p484
tp485
Rp486
tp487
a(S'java web services development pack'
p488
g2
(g6
S'\xa5y\xd3\x16\xc9\x9f\xe2?'
p489
tp490
Rp491
tp492
a(S'preparatory committee for indonesian independence'
p493
g2
(g6
S'\x17\x02\x08i\xe5\x8f\xe2?'
p494
tp495
Rp496
tp497
a(S'savaje'
p498
g2
(g6
S'\xb8Ha\xff\xd1\x8f\xe2?'
p499
tp500
Rp501
tp502
a(S'java dynamic management kit'
p503
g2
(g6
S'<9s\x89\x1f\x80\xe2?'
p504
tp505
Rp506
tp507
a(S'excelsior jet'
p508
g2
(g6
S'd\x0f\xad\x15\x9b{\xe2?'
p509
tp510
Rp511
tp512
a(S'javafx'
p513
g2
(g6
S'B\xf01A1s\xe2?'
p514
tp515
Rp516
tp517
a(S'jstik'
p518
g2
(g6
S'\xce\xd3\xd05Zm\xe2?'
p519
tp520
Rp521
tp522
a(S'technology compatibility kit'
p523
g2
(g6
S'%L"\x8d\xc6i\xe2?'
p524
tp525
Rp526
tp527
a(S'javaos'
p528
g2
(g6
S'\x1e\xe9\r\x11\xe1c\xe2?'
p529
tp530
Rp531
tp532
a(S'jamvm'
p533
g2
(g6
S'\x8b\x9dB\xcca]\xe2?'
p534
tp535
Rp536
tp537
a(S'java (comics)'
p538
g2
(g6
S'\xe6\x19Q1\xc5I\xe2?'
p539
tp540
Rp541
tp542
a(S'microsoft java virtual machine'
p543
g2
(g6
S'N\x913\x1e\n*\xe2?'
p544
tp545
Rp546
tp547
a(S'bruce tate'
p548
g2
(g6
S'M\xd0\x10\x0f\xac)\xe2?'
p549
tp550
Rp551
tp552
a(S'java remote method protocol'
p553
g2
(g6
S'\x18\xd9r\xbb|\x1d\xe2?'
p554
tp555
Rp556
tp557
a(S'java applet'
p558
g2
(g6
S'!\xc4\x08\xadT\x17\xe2?'
p559
tp560
Rp561
tp562
a(S'tantu pagelaran'
p563
g2
(g6
S'o\xc3\xe9\xeen\x13\xe2?'
p564
tp565
Rp566
tp567
a(S'north coast road (java)'
p568
g2
(g6
S'\xf2\xa4\\0K\x0f\xe2?'
p569
tp570
Rp571
tp572
a(S'sun java system access manager'
p573
g2
(g6
S'>\x9c\xee`\xe7\r\xe2?'
p574
tp575
Rp576
tp577
a(S'hotjava'
p578
g2
(g6
S'\xb1\x0b\xd7>1\xf7\xe1?'
p579
tp580
Rp581
tp582
a(S'2005 java\xe2\x80\x93bali blackout'
p583
g2
(g6
S'S\x1b\xa9t5\xef\xe1?'
p584
tp585
Rp586
tp587
a(S'la nyalla matalitti'
p588
g2
(g6
S'V\xe1\xaaB[\xdd\xe1?'
p589
tp590
Rp591
tp592
a(S'kawa (scheme implementation)'
p593
g2
(g6
S'\xb7\x92\x93\x80\xcd\xd7\xe1?'
p594
tp595
Rp596
tp597
a(S'toplink'
p598
g2
(g6
S'\x90\xb8N\x08\x0c\xc5\xe1?'
p599
tp600
Rp601
tp602
a(S'java package'
p603
g2
(g6
S'\xa5\xd0\xd6\xdb\xdd\xc4\xe1?'
p604
tp605
Rp606
tp607
a(S'christian churches of java'
p608
g2
(g6
S'\x9e\xfb\x1di\xdc\xc3\xe1?'
p609
tp610
Rp611
tp612
a(S'strange brew (computer virus)'
p613
g2
(g6
S'\xb5.<\xf3\x95\xb9\xe1?'
p614
tp615
Rp616
tp617
a(S'siliwangi'
p618
g2
(g6
S'\xc2\x9e\x9d\x0ej\xae\xe1?'
p619
tp620
Rp621
tp622
a(S'cjan'
p623
g2
(g6
S'\xcac\xe4\xfb\xdb\xa9\xe1?'
p624
tp625
Rp626
tp627
a(S'list of city nicknames in indonesia'
p628
g2
(g6
S'coN\xcb\xb5\xa3\xe1?'
p629
tp630
Rp631
tp632
a(S'connected limited device configuration'
p633
g2
(g6
S'/\x92\x82\xd7\x9b\x9e\xe1?'
p634
tp635
Rp636
tp637
a(S'datamelt'
p638
g2
(g6
S'\xdd\xaf\x9d\xcbf\x9a\xe1?'
p639
tp640
Rp641
tp642
a(S'write once, run anywhere'
p643
g2
(g6
S'\x8b{2\x07\xd1\x99\xe1?'
p644
tp645
Rp646
tp647
a(S'ibatis'
p648
g2
(g6
S'O\xd5\xa3\x89J\x95\xe1?'
p649
tp650
Rp651
tp652
a(S'hms java'
p653
g2
(g6
S'\xca\x9a\x9e\xb8\xae\x88\xe1?'
p654
tp655
Rp656
tp657
a(S'java portlet specification'
p658
g2
(g6
S'\x1f\xfd\xd7\x1c\xde\x87\xe1?'
p659
tp660
Rp661
tp662
a(S'central java'
p663
g2
(g6
S'\xe7uEU\xf4\x85\xe1?'
p664
tp665
Rp666
tp667
a(S'javolution'
p668
g2
(g6
S'j+x\xb9\xa8\x85\xe1?'
p669
tp670
Rp671
tp672
a(S'j sharp'
p673
g2
(g6
S"[\xa0\xd3'K\x7f\xe1?"
p674
tp675
Rp676
tp677
a(S'jato vm'
p678
g2
(g6
S'\xa1%\xfe\x8a\x90|\xe1?'
p679
tp680
Rp681
tp682
a(S'aspectj'
p683
g2
(g6
S'\xdc6Z\xac\xa6{\xe1?'
p684
tp685
Rp686
tp687
a(S'ontong java atoll'
p688
g2
(g6
S'\x86\xfat\x1b\x19y\xe1?'
p689
tp690
Rp691
tp692
a(S'metadata facility for java'
p693
g2
(g6
S'\xb2\xc1\x13k\x1ft\xe1?'
p694
tp695
Rp696
tp697
a(S'java memory model'
p698
g2
(g6
S'\x17\x9cH,\xdfj\xe1?'
p699
tp700
Rp701
tp702
a(S'application foundation classes'
p703
g2
(g6
S'\n]\xb2*\xb7X\xe1?'
p704
tp705
Rp706
tp707
a(S'charles l. perkins'
p708
g2
(g6
S'\xaf\xe4\xca\x13\x9bX\xe1?'
p709
tp710
Rp711
tp712
a(S'jsr 250'
p713
g2
(g6
S'\xb5K\xe3\xa5\xb2V\xe1?'
p714
tp715
Rp716
tp717
a(S'jnbridge'
p718
g2
(g6
S'H\xea\xf0\x16\xeeG\xe1?'
p719
tp720
Rp721
tp722
a(S'blackdown java'
p723
g2
(g6
S'\xd5\x86\x19\x9b3E\xe1?'
p724
tp725
Rp726
tp727
a(S'aicas'
p728
g2
(g6
S'%\xe3=\x14=1\xe1?'
p729
tp730
Rp731
tp732
a(S'great post road'
p733
g2
(g6
S'C\x1d\t\xe1\xcb#\xe1?'
p734
tp735
Rp736
tp737
a(S'java management extensions'
p738
g2
(g6
S's/~\xaer#\xe1?'
p739
tp740
Rp741
tp742
a(S'jsr 168 portlet catalog'
p743
g2
(g6
S'\x8e\xb8|\xdf\x8f \xe1?'
p744
tp745
Rp746
tp747
a(S'java module system'
p748
g2
(g6
S'8\x85\x06\x032\x1e\xe1?'
p749
tp750
Rp751
tp752
a(S'jabaco'
p753
g2
(g6
S'\x85\x90D\x9b\xae\x11\xe1?'
p754
tp755
Rp756
tp757
a(S'thinking in java'
p758
g2
(g6
S',\xc0 \xbc3\x0b\xe1?'
p759
tp760
Rp761
tp762
a(S'php/java bridge'
p763
g2
(g6
S'"\xd6\xc5\x1d\xb4\x07\xe1?'
p764
tp765
Rp766
tp767
a(S'ikvm.net'
p768
g2
(g6
S'\xbc\xe7\x16\xe8\x84\x02\xe1?'
p769
tp770
Rp771
tp772
a(S'information module profile'
p773
g2
(g6
S'^5\x83\x17\xf1\xf1\xe0?'
p774
tp775
Rp776
tp777
a(S'jspx-bay'
p778
g2
(g6
S'\xa0\t\xef\xac\xfd\xef\xe0?'
p779
tp780
Rp781
tp782
a(S'java modeling language'
p783
g2
(g6
S'0Y"\x89\x8d\xdf\xe0?'
p784
tp785
Rp786
tp787
a(S'hms java (1811)'
p788
g2
(g6
S'\r\xf4\xc8\x1a\x94\xdd\xe0?'
p789
tp790
Rp791
tp792
a(S'east java'
p793
g2
(g6
S'[\x84N\xdfk\xda\xe0?'
p794
tp795
Rp796
tp797
a(S'lomboz'
p798
g2
(g6
S"'|\xa8\xd4\xe9\xbc\xe0?"
p799
tp800
Rp801
tp802
a(S'indonesia soccer championship b 2016'
p803
g2
(g6
S'\xa0\x16\x89mW\xa7\xe0?'
p804
tp805
Rp806
tp807
a(S'javassist'
p808
g2
(g6
S'_0\x8e\xbd\xd4\x9f\xe0?'
p809
tp810
Rp811
tp812
a(S'tea (programming language)'
p813
g2
(g6
S'\x02\xf7p\xbb\xf6\x9d\xe0?'
p814
tp815
Rp816
tp817
a(S'javapoly'
p818
g2
(g6
S'\x89Q!\xb8\xa3\x9c\xe0?'
p819
tp820
Rp821
tp822
a(S'java (dance)'
p823
g2
(g6
S'\x07\xb0\x81\xdaA\x92\xe0?'
p824
tp825
Rp826
tp827
a(S'java architecture for xml binding'
p828
g2
(g6
S'\xdf\x91\x9e=\xdd\x8d\xe0?'
p829
tp830
Rp831
tp832
a(S'classpath (java)'
p833
g2
(g6
S'\r\xa4\xcfq\xa6\x8d\xe0?'
p834
tp835
Rp836
tp837
a(S'dzau district'
p838
g2
(g6
S'\xd8\xa9\xa6R>\x8a\xe0?'
p839
tp840
Rp841
tp842
a(S'list of sacred places in java'
p843
g2
(g6
S'I\xa5\x95\x88\xf9\x85\xe0?'
p844
tp845
Rp846
tp847
a(S'doug lea'
p848
g2
(g6
S's4\xac\x92\x05\x82\xe0?'
p849
tp850
Rp851
tp852
a(S'java barn'
p853
g2
(g6
S'\x11\xbdU\xc5?\x81\xe0?'
p854
tp855
Rp856
tp857
a(S'java-class cruiser'
p858
g2
(g6
S'y\x8ek\xf5-q\xe0?'
p859
tp860
Rp861
tp862
a(S'manuk river'
p863
g2
(g6
S'\x803\xcb\x93\x0co\xe0?'
p864
tp865
Rp866
tp867
a(S'2016 indonesia soccer championship b'
p868
g2
(g6
S'\xdd\xb4\x0b#\xb3l\xe0?'
p869
tp870
Rp871
tp872
a(S'jshell'
p873
g2
(g6
S'.nc\x0e\x8af\xe0?'
p874
tp875
Rp876
tp877
a(S'security and trust services api for j2me'
p878
g2
(g6
S'@\x99A\xa9\x9fZ\xe0?'
p879
tp880
Rp881
tp882
a(S'java war (disambiguation)'
p883
g2
(g6
S'pr\xb7\xfc/Z\xe0?'
p884
tp885
Rp886
tp887
a(S'jboss enterprise application platform'
p888
g2
(g6
S'\xc6\x81\xca=\xd4X\xe0?'
p889
tp890
Rp891
tp892
a(S'javabin'
p893
g2
(g6
S'\xdcU\x12\x95\x9aV\xe0?'
p894
tp895
Rp896
tp897
a(S'the history of java'
p898
g2
(g6
S'\xf9\x81\x96G\x08N\xe0?'
p899
tp900
Rp901
tp902
a(S'java awt native interface'
p903
g2
(g6
S'\xfa\x17CT\xf7;\xe0?'
p904
tp905
Rp906
tp907
a(S'esc/java'
p908
g2
(g6
S'\xb9\x98g\xfe46\xe0?'
p909
tp910
Rp911
tp912
a(S'jamiga'
p913
g2
(g6
S'\x0b\xa6\xb5\x08S3\xe0?'
p914
tp915
Rp916
tp917
a(S'swingworker'
p918
g2
(g6
S'\xc7\\x~\xcf0\xe0?'
p919
tp920
Rp921
tp922
a(S'comparison of upnp av media servers'
p923
g2
(g6
S'\xafl\x16\x1a\xde,\xe0?'
p924
tp925
Rp926
tp927
a(S'jruby'
p928
g2
(g6
S'\x01"\x1a\xa8u,\xe0?'
p929
tp930
Rp931
tp932
a(S'hnlms java (1921)'
p933
g2
(g6
S'\x16=\xf0\xee\xfc$\xe0?'
p934
tp935
Rp936
tp937
a(S'dalvik (software)'
p938
g2
(g6
S'\x8f,\xe4\xd8\xe9#\xe0?'
p939
tp940
Rp941
tp942
a(S'apache commons'
p943
g2
(g6
S'\xef\x86\xff\x04\x95"\xe0?'
p944
tp945
Rp946
tp947
a(S'tugu'
p948
g2
(g6
S'\xcf\xaa\xa3\x8e\xa5!\xe0?'
p949
tp950
Rp951
tp952
a(S'jikes'
p953
g2
(g6
S'\x1bq\xb4\xe5\xb1\x1f\xe0?'
p954
tp955
Rp956
tp957
a(S"swimming at the 2016 pekan olahraga nasional \xe2\x80\x93 women's 200 metre individual medley"
p958
g2
(g6
S'\xd4\xb7\x8fF\x9f\x17\xe0?'
p959
tp960
Rp961
tp962
a(S'phoneme'
p963
g2
(g6
S'\x11\x1cN\xb4\xef\x15\xe0?'
p964
tp965
Rp966
tp967
a(S'java sparrow'
p968
g2
(g6
S'*\x9d\x84 \xbf\x11\xe0?'
p969
tp970
Rp971
tp972
a(S'xml interface for network services'
p973
g2
(g6
S'\x1et=z\xa9\x11\xe0?'
p974
tp975
Rp976
tp977
a(S'kotlin (programming language)'
p978
g2
(g6
S'\xc5\x1b#\xa2\xc9\x10\xe0?'
p979
tp980
Rp981
tp982
a(S'oracle certification program'
p983
g2
(g6
S'FfH\xb2\xb6\x0f\xe0?'
p984
tp985
Rp986
tp987
a(S'comparison of agent-based modeling software'
p988
g2
(g6
S'\xaca\xef,\xd6\x0e\xe0?'
p989
tp990
Rp991
tp992
a(S'java syntax'
p993
g2
(g6
S'\x1dK.j{\xed\xdf?'
p994
tp995
Rp996
tp997
a(S'apache attic'
p998
g2
(g6
S"'\x05nXN\xed\xdf?"
p999
tp1000
Rp1001
tp1002
a(S'elliotte rusty harold'
p1003
g2
(g6
S'\x98\xdd\xec\x0c\xfc\xdf\xdf?'
p1004
tp1005
Rp1006
tp1007
a(S'sragen regency'
p1008
g2
(g6
S'\x8b\x00e\xee[\xc4\xdf?'
p1009
tp1010
Rp1011
tp1012
a(S'apache harmony'
p1013
g2
(g6
S'\x853M\x1cn\xc0\xdf?'
p1014
tp1015
Rp1016
tp1017
a(S'picojava'
p1018
g2
(g6
S'\xb7w0I\x91\xbe\xdf?'
p1019
tp1020
Rp1021
tp1022
a(S'openjava'
p1023
g2
(g6
S'\xb1q&\x921\x99\xdf?'
p1024
tp1025
Rp1026
tp1027
a(S'java data mining'
p1028
g2
(g6
S'eD\x03_\xb6\x96\xdf?'
p1029
tp1030
Rp1031
tp1032
a(S'javafx script'
p1033
g2
(g6
S'a\xcf\xe6\x16\xe9\x80\xdf?'
p1034
tp1035
Rp1036
tp1037
a(S'java virtual machine tools interface'
p1038
g2
(g6
S'<\x01o:\xbcw\xdf?'
p1039
tp1040
Rp1041
tp1042
a(S'xobotos'
p1043
g2
(g6
S'$7\x16\x82yu\xdf?'
p1044
tp1045
Rp1046
tp1047
a(S'prova'
p1048
g2
(g6
S'\xc6\xe3%v\x16k\xdf?'
p1049
tp1050
Rp1051
tp1052
a(S'java pathfinder'
p1053
g2
(g6
S'R \xd3\xde\xd1U\xdf?'
p1054
tp1055
Rp1056
tp1057
a(S"associaci\xc3\xb3 d'usuaris de java de catalunya"
p1058
g2
(g6
S'\x90\x9d\xa5\x0b+T\xdf?'
p1059
tp1060
Rp1061
tp1062
a(S'iaik-jce'
p1063
g2
(g6
S'\xfa\x8f\xcf\x95<L\xdf?'
p1064
tp1065
Rp1066
tp1067
a(S'list of jboss software'
p1068
g2
(g6
S'5\xe5\xe3\xe0\xcd0\xdf?'
p1069
tp1070
Rp1071
tp1072
a(S'jcp executive committee'
p1073
g2
(g6
S'Fn\x18\xf9\x8e"\xdf?'
p1074
tp1075
Rp1076
tp1077
a(S'java desktop integration components'
p1078
g2
(g6
S'\xa3\xcf\x7fy["\xdf?'
p1079
tp1080
Rp1081
tp1082
a(S'icedtea'
p1083
g2
(g6
S'dOQ\x1c*\r\xdf?'
p1084
tp1085
Rp1086
tp1087
a(S'jibx'
p1088
g2
(g6
S'\x1e\x02.\xb4}\x07\xdf?'
p1089
tp1090
Rp1091
tp1092
a(S'avian java'
p1093
g2
(g6
S'\xde\xbf\xd4\x16o\x07\xdf?'
p1094
tp1095
Rp1096
tp1097
a(S'jbnd'
p1098
g2
(g6
S'\x98\x17\x06\xd5\xa0\xf4\xde?'
p1099
tp1100
Rp1101
tp1102
a(S'java advanced imaging'
p1103
g2
(g6
S'-=\xbb`\x9f\xed\xde?'
p1104
tp1105
Rp1106
tp1107
a(S'motion tracking using java'
p1108
g2
(g6
S'\x03W\xc4\xf6u\xdc\xde?'
p1109
tp1110
Rp1111
tp1112
a(S'ufo sightings in indonesia'
p1113
g2
(g6
S'\xd4\x92\xe7\xbb\xfe\xd7\xde?'
p1114
tp1115
Rp1116
tp1117
a(S'jengine'
p1118
g2
(g6
S'w0/a\xea\xd4\xde?'
p1119
tp1120
Rp1121
tp1122
a(S'nsicom cre-me'
p1123
g2
(g6
S"\xdc7L'\x02\xd2\xde?"
p1124
tp1125
Rp1126
tp1127
a(S'imageapp'
p1128
g2
(g6
S'%p\xc4\xdd\x8d\xd0\xde?'
p1129
tp1130
Rp1131
tp1132
a(S'java persistence api'
p1133
g2
(g6
S'~\xe7\x07\x90\xcf\xca\xde?'
p1134
tp1135
Rp1136
tp1137
a(S'java database connectivity'
p1138
g2
(g6
S'm\xad\x86\xfa\xa2\xc7\xde?'
p1139
tp1140
Rp1141
tp1142
a(S'wbem services specification'
p1143
g2
(g6
S'\x91\xcc7\xec\xb0\xbd\xde?'
p1144
tp1145
Rp1146
tp1147
a(S'national sports week (indonesia)'
p1148
g2
(g6
S'/\x9b\xa3:Y\xa6\xde?'
p1149
tp1150
Rp1151
tp1152
a(S'list of enterprise portal vendors'
p1153
g2
(g6
S'\x01\x1e\xad\xdc;\x97\xde?'
p1154
tp1155
Rp1156
tp1157
a(S'nanohttpd'
p1158
g2
(g6
S'\xd5\x18\x81Z3\x80\xde?'
p1159
tp1160
Rp1161
tp1162
a(S'da vinci machine'
p1163
g2
(g6
S' \xa1\xd3\xc5||\xde?'
p1164
tp1165
Rp1166
tp1167
a(S'franz wilhelm junghuhn'
p1168
g2
(g6
S'\xb5~\xfb\x9f\xcfy\xde?'
p1169
tp1170
Rp1171
tp1172
a(S'list of indonesian cities by population'
p1173
g2
(g6
S'5wOO[e\xde?'
p1174
tp1175
Rp1176
tp1177
a(S'easy java simulations'
p1178
g2
(g6
S'6\xe5A#hd\xde?'
p1179
tp1180
Rp1181
tp1182
a(S'generic java'
p1183
g2
(g6
S'\xcf\x82f\x07^>\xde?'
p1184
tp1185
Rp1186
tp1187
a(S'1943 central java earthquake'
p1188
g2
(g6
S'\xbf\xaa<\xe56<\xde?'
p1189
tp1190
Rp1191
tp1192
a(S'connected device configuration'
p1193
g2
(g6
S'\x8606fa"\xde?'
p1194
tp1195
Rp1196
tp1197
a(S'java xml'
p1198
g2
(g6
S'*\xf9\x06\xb3G\x11\xde?'
p1199
tp1200
Rp1201
tp1202
a(S'java sea'
p1203
g2
(g6
S'\xa4\xc2\x17\x8d\x8b\x10\xde?'
p1204
tp1205
Rp1206
tp1207
a(S'java joel'
p1208
g2
(g6
S'o\xc8\x8e\xc0v\x04\xde?'
p1209
tp1210
Rp1211
tp1212
a(S'google web toolkit'
p1213
g2
(g6
S'g\xa4t\x9b\x1e\xfe\xdd?'
p1214
tp1215
Rp1216
tp1217
a(S'java 2d'
p1218
g2
(g6
S'\x01\xa0iv\xf2\xf4\xdd?'
p1219
tp1220
Rp1221
tp1222
a(S'java (town)'
p1223
g2
(g6
S'\xb3\x0bJ\x00\xf5\xc5\xdd?'
p1224
tp1225
Rp1226
tp1227
a(S'web services metadata for java'
p1228
g2
(g6
S'm\xcdY9B\xa6\xdd?'
p1229
tp1230
Rp1231
tp1232
a(S'mvel'
p1233
g2
(g6
S'n\x1e\x86L\xd2{\xdd?'
p1234
tp1235
Rp1236
tp1237
a(S'karimunjava'
p1238
g2
(g6
S'O\x0b\ru\xeas\xdd?'
p1239
tp1240
Rp1241
tp1242
a(S'french and british interludes in the dutch east indies'
p1243
g2
(g6
S'\xc0\xa4\xc0\xcdle\xdd?'
p1244
tp1245
Rp1246
tp1247
a(S'jamaicavm'
p1248
g2
(g6
S'\x921L\xa5\xe0U\xdd?'
p1249
tp1250
Rp1251
tp1252
a(S'ibrahim tunggul wulung'
p1253
g2
(g6
S'\x92\x1e\xd4\xd9\x9fL\xdd?'
p1254
tp1255
Rp1256
tp1257
a(S'mobile information device profile'
p1258
g2
(g6
S'\xd2\x06\xe2\xf9\xabB\xdd?'
p1259
tp1260
Rp1261
tp1262
a(S'java annotation'
p1263
g2
(g6
S'\x84\xae\xda\x01T@\xdd?'
p1264
tp1265
Rp1266
tp1267
a(S'jave la grande'
p1268
g2
(g6
S'\xdf!ME\r4\xdd?'
p1269
tp1270
Rp1271
tp1272
a(S'licin'
p1273
g2
(g6
S'\xe4\xdd\xe9\x1e\xd6-\xdd?'
p1274
tp1275
Rp1276
tp1277
a(S'java road'
p1278
g2
(g6
S'k\n@\xef3)\xdd?'
p1279
tp1280
Rp1281
tp1282
a(S'service implementation bean'
p1283
g2
(g6
S'\xad\xa6h\xa3\xe7"\xdd?'
p1284
tp1285
Rp1286
tp1287
a(S'list of bpmn 2.0 engines'
p1288
g2
(g6
S'\xf2d\x17\xec\xdd\x1f\xdd?'
p1289
tp1290
Rp1291
tp1292
a(S'tour de east java'
p1293
g2
(g6
S'\x96AAT\x19\x15\xdd?'
p1294
tp1295
Rp1296
tp1297
a(S'pasisir'
p1298
g2
(g6
S'\xcb\xc1n\xee\xff\x0f\xdd?'
p1299
tp1300
Rp1301
tp1302
a(S'java mouse-deer'
p1303
g2
(g6
S'\xcf\xe7i\x81\xfa\x0c\xdd?'
p1304
tp1305
Rp1306
tp1307
a(S'michael morrison (author)'
p1308
g2
(g6
S'8\x17\xe7n\x9d\x04\xdd?'
p1309
tp1310
Rp1311
tp1312
a(S'visibroker'
p1313
g2
(g6
S'\xd4\xf8\xc16D\xe9\xdc?'
p1314
tp1315
Rp1316
tp1317
a(S'bruno souza (programmer)'
p1318
g2
(g6
S'"\xe4\x88\n\xcb\xdf\xdc?'
p1319
tp1320
Rp1321
tp1322
a(S'judo (computer programming environment)'
p1323
g2
(g6
S'\xc7\xb7\xcf\xe4\xab\xd7\xdc?'
p1324
tp1325
Rp1326
tp1327
a(S'kaleida labs'
p1328
g2
(g6
S'\xfa\xae:\x13)\xd2\xdc?'
p1329
tp1330
Rp1331
tp1332
a(S'lejos'
p1333
g2
(g6
S'\x8f\xd9\x9c\x1f\x9b\xc2\xdc?'
p1334
tp1335
Rp1336
tp1337
a(S'tuprolog'
p1338
g2
(g6
S"\xee\x81\xb9'>\xc0\xdc?"
p1339
tp1340
Rp1341
tp1342
a(S'mobile service architecture'
p1343
g2
(g6
S'\x1a\xf2sWn\xb8\xdc?'
p1344
tp1345
Rp1346
tp1347
a(S'west java'
p1348
g2
(g6
S'\xf5`\xe6\xcd\x12\xb8\xdc?'
p1349
tp1350
Rp1351
tp1352
a(S'comparison of code generation tools'
p1353
g2
(g6
S'\x96\xd8\x8e\xa4\x0c\xa2\xdc?'
p1354
tp1355
Rp1356
tp1357
a(S'graal (compiler)'
p1358
g2
(g6
S'X7E\x8d\xb3\x98\xdc?'
p1359
tp1360
Rp1361
tp1362
a(S'static import'
p1363
g2
(g6
S'\xd0o\xcd\xc5\xe8\x92\xdc?'
p1364
tp1365
Rp1366
tp1367
a(S'hotspot'
p1368
g2
(g6
S'\x0cus\x0b\x89\x89\xdc?'
p1369
tp1370
Rp1371
tp1372
a(S'quark framework'
p1373
g2
(g6
S',4\xfb\xa0\xf5\x88\xdc?'
p1374
tp1375
Rp1376
tp1377
a(S'ontong'
p1378
g2
(g6
S'_\xdd`\xcf\r\x83\xdc?'
p1379
tp1380
Rp1381
tp1382
a(S'todd greanier'
p1383
g2
(g6
S'\xd1q\x01(\x18\x82\xdc?'
p1384
tp1385
Rp1386
tp1387
a(S'apache tomee'
p1388
g2
(g6
S'm\x7f\xb7v\xa2`\xdc?'
p1389
tp1390
Rp1391
tp1392
a(S'mike milinkovich'
p1393
g2
(g6
S'\xdb\xdc\x8b~\x8cY\xdc?'
p1394
tp1395
Rp1396
tp1397
a(S'sun java system calendar server'
p1398
g2
(g6
S'3>/\x1e:P\xdc?'
p1399
tp1400
Rp1401
tp1402
a(S'javatest harness'
p1403
g2
(g6
S'E\x10\x0bt\x7fK\xdc?'
p1404
tp1405
Rp1406
tp1407
a(S'join java'
p1408
g2
(g6
S'\x93q\xde0\x0fJ\xdc?'
p1409
tp1410
Rp1411
tp1412
a(S'uss java (1815)'
p1413
g2
(g6
S'%\xac\xa8\xd1\n1\xdc?'
p1414
tp1415
Rp1416
tp1417
a(S'jhtml'
p1418
g2
(g6
S'\xe3p\xa2x\x97,\xdc?'
p1419
tp1420
Rp1421
tp1422
a(S'pointbase'
p1423
g2
(g6
S'\xff5\x89.\xaf(\xdc?'
p1424
tp1425
Rp1426
tp1427
a(S'reactive blocks'
p1428
g2
(g6
S'\x8aOjc\xe5\x17\xdc?'
p1429
tp1430
Rp1431
tp1432
a(S'glassfish'
p1433
g2
(g6
S'\xf2\xcc\x92\xa6:\x16\xdc?'
p1434
tp1435
Rp1436
tp1437
a(S'ognl'
p1438
g2
(g6
S'H7\x84S\xda\x08\xdc?'
p1439
tp1440
Rp1441
tp1442
a(S'xdoclet'
p1443
g2
(g6
S'\x0e\t\x90\x08w\x04\xdc?'
p1444
tp1445
Rp1446
tp1447
a(S"swimming at the 2016 pekan olahraga nasional \xe2\x80\x93 women's 50 metre breaststroke"
p1448
g2
(g6
S'G\xc7\x93O\x02\xf0\xdb?'
p1449
tp1450
Rp1451
tp1452
a(S'apache aries'
p1453
g2
(g6
S'\xc5\xf8g\xf2\xd7\xe8\xdb?'
p1454
tp1455
Rp1456
tp1457
a(S'sharpen'
p1458
g2
(g6
S'\xf9\xb0)x\x8d\xb7\xdb?'
p1459
tp1460
Rp1461
tp1462
a(S'saccolabium'
p1463
g2
(g6
S'\x1fH\x00&<\xaf\xdb?'
p1464
tp1465
Rp1466
tp1467
a(S'java remote method invocation'
p1468
g2
(g6
S'H\xa8\xdd\xc2\xb9\xaa\xdb?'
p1469
tp1470
Rp1471
tp1472
a(S'kingdom of blambangan'
p1473
g2
(g6
S'\x1d\xdbI\x86\x08\xa6\xdb?'
p1474
tp1475
Rp1476
tp1477
a(S'dead store'
p1478
g2
(g6
S'[2\xc4:\xcc\xa4\xdb?'
p1479
tp1480
Rp1481
tp1482
a(S'patrick peter chan'
p1483
g2
(g6
S'Q|\xf5\xf3F\xa1\xdb?'
p1484
tp1485
Rp1486
tp1487
a(S'tuban regency'
p1488
g2
(g6
S'\xe0L\x84\xb4x\x8d\xdb?'
p1489
tp1490
Rp1491
tp1492
a(S'java metadata interface'
p1493
g2
(g6
S'\x1eV!}\x80\x8b\xdb?'
p1494
tp1495
Rp1496
tp1497
a(S'java code coverage tools'
p1498
g2
(g6
S'T\xb2\xa70\xc6\x89\xdb?'
p1499
tp1500
Rp1501
tp1502
a(S'squawk virtual machine'
p1503
g2
(g6
S'S\xb4}\x8c\x8c\x85\xdb?'
p1504
tp1505
Rp1506
tp1507
a(S'pasundan'
p1508
g2
(g6
S"\x89'\x1cB\x9dh\xdb?"
p1509
tp1510
Rp1511
tp1512
a.