(lp0
(S'javascript engine'
p1
cnumpy.core.multiarray
scalar
p2
(cnumpy
dtype
p3
(S'f8'
p4
I0
I1
tp5
Rp6
(I3
S'<'
p7
NNNI-1
I-1
I0
tp8
bS'\xfc\xff\xff\xff\xff\xff\xef?'
p9
tp10
Rp11
tp12
a(S'javascript'
p13
g2
(g6
S'D\xf95\xb8A~\xea?'
p14
tp15
Rp16
tp17
a(S'list of ecmascript engines'
p18
g2
(g6
S'\x8a\xb4?+\xa6!\xe9?'
p19
tp20
Rp21
tp22
a(S'kjs (software)'
p23
g2
(g6
S'\x94\xea\xad\xdef\xbf\xe5?'
p24
tp25
Rp26
tp27
a(S'javascript library'
p28
g2
(g6
S'Z\x9e\xabG\xac\xba\xe5?'
p29
tp30
Rp31
tp32
a(S'list of webgl frameworks'
p33
g2
(g6
S'\xb2)(\x04\xa2d\xe5?'
p34
tp35
Rp36
tp37
a(S'spidermonkey'
p38
g2
(g6
S'\xf2;\x9fH\x9f&\xe5?'
p39
tp40
Rp41
tp42
a(S'wmlscript'
p43
g2
(g6
S'\xf3\x9e\xa0\xa2\xa9\x1e\xe4?'
p44
tp45
Rp46
tp47
a(S'narcissus (javascript engine)'
p48
g2
(g6
S'/\xa719\xcb\x13\xe4?'
p49
tp50
Rp51
tp52
a(S'unobtrusive javascript'
p53
g2
(g6
S'\xed\xb0E[\xbf\xf5\xe3?'
p54
tp55
Rp56
tp57
a(S'nashorn (javascript engine)'
p58
g2
(g6
S'%\xb0\xc5F%\xc2\xe3?'
p59
tp60
Rp61
tp62
a(S'lightbox (javascript)'
p63
g2
(g6
S'\x9b\xccv\xf8\x0bg\xe3?'
p64
tp65
Rp66
tp67
a(S'comparison of server-side javascript solutions'
p68
g2
(g6
S'mo\xc0\x02\xd0;\xe3?'
p69
tp70
Rp71
tp72
a(S'list of rich internet application frameworks'
p73
g2
(g6
S'\xff\xf0\x8cd\xbc2\xe3?'
p74
tp75
Rp76
tp77
a(S'firebug (software)'
p78
g2
(g6
S'\xf0\xeer?P\x01\xe3?'
p79
tp80
Rp81
tp82
a(S'comparison of javascript frameworks'
p83
g2
(g6
S'\x04.\xc3\x13H\xda\xe2?'
p84
tp85
Rp86
tp87
a(S'funcjs'
p88
g2
(g6
S'BN\x16^\x83\xa6\xe2?'
p89
tp90
Rp91
tp92
a(S'river trail (javascript engine)'
p93
g2
(g6
S'=0)\x81\x96+\xe2?'
p94
tp95
Rp96
tp97
a(S'google closure tools'
p98
g2
(g6
S'a\xee\x98Qr*\xe2?'
p99
tp100
Rp101
tp102
a(S'rhino (javascript engine)'
p103
g2
(g6
S'\xaa$\x13\xcc\xf6\xff\xe1?'
p104
tp105
Rp106
tp107
a(S'venkman'
p108
g2
(g6
S'IH\xe6\x11\xa8\x83\xe1?'
p109
tp110
Rp111
tp112
a(S'jsfuck'
p113
g2
(g6
S'`~\x81\x03f\xf1\xe0?'
p114
tp115
Rp116
tp117
a(S'ecmascript'
p118
g2
(g6
S'\xa1\xae\x85:\x1f\xa9\xe0?'
p119
tp120
Rp121
tp122
a(S'google chrome experiments'
p123
g2
(g6
S'D\xd7\x84\x1a\xc1\x97\xe0?'
p124
tp125
Rp126
tp127
a(S'source-to-source compiler'
p128
g2
(g6
S'\xd3\tD"\xfc\x8c\xe0?'
p129
tp130
Rp131
tp132
a(S'javascript framework'
p133
g2
(g6
S'\x03\xa7a8\xf5\x83\xe0?'
p134
tp135
Rp136
tp137
a(S'form faces'
p138
g2
(g6
S'=#%&\xe9q\xe0?'
p139
tp140
Rp141
tp142
a(S'codemirror'
p143
g2
(g6
S'!\x90\xed:S,\xe0?'
p144
tp145
Rp146
tp147
a(S'winjs'
p148
g2
(g6
S'}\xfc\x02\xad\x95\x14\xe0?'
p149
tp150
Rp151
tp152
a(S'apache shindig'
p153
g2
(g6
S'.\x91\x87\xfbw\x14\xe0?'
p154
tp155
Rp156
tp157
a(S'dhtmlx'
p158
g2
(g6
S'\xe9:\xc5\n\xa5\xd5\xdf?'
p159
tp160
Rp161
tp162
a(S'bookmarklet'
p163
g2
(g6
S'\xddU\x833\x03\xba\xdf?'
p164
tp165
Rp166
tp167
a(S'javascript osa'
p168
g2
(g6
S'5\x0b\xfc\xb8\xbb\xa5\xdf?'
p169
tp170
Rp171
tp172
a(S'hotruby'
p173
g2
(g6
S'3\xae\x03<2\xa2\xdf?'
p174
tp175
Rp176
tp177
a(S'rightjs'
p178
g2
(g6
S'\xf1[\xd4\xd4\x87F\xdf?'
p179
tp180
Rp181
tp182
a(S'contenttools'
p183
g2
(g6
S',\xe5\xb7,\xe9\xe7\xde?'
p184
tp185
Rp186
tp187
a(S'commonjs'
p188
g2
(g6
S'\xa6v\x8d\x85\xb8\x87\xde?'
p189
tp190
Rp191
tp192
a(S'v8 (javascript engine)'
p193
g2
(g6
S'\xff\xbc\xb0\xff\x9dM\xde?'
p194
tp195
Rp196
tp197
a(S'browser speed test'
p198
g2
(g6
S'\xb2Q<\xe4\xc06\xde?'
p199
tp200
Rp201
tp202
a(S'phantomjs'
p203
g2
(g6
S'\x83\x15\xff|L2\xde?'
p204
tp205
Rp206
tp207
a(S'list of web analytics software'
p208
g2
(g6
S'\xc7\x87X<\x9e\x95\xdd?'
p209
tp210
Rp211
tp212
a(S'pretty diff'
p213
g2
(g6
S',\x8d/\x1d\xc7b\xdd?'
p214
tp215
Rp216
tp217
a(S'minification (programming)'
p218
g2
(g6
S'\xfb\xb9C\xa52\x14\xdd?'
p219
tp220
Rp221
tp222
a(S'sputnik (javascript conformance test)'
p223
g2
(g6
S'\xa0#\x93L\xae[\xdc?'
p224
tp225
Rp226
tp227
a(S'ecmascript for xml'
p228
g2
(g6
S'\x9c\xed|.\x1cN\xdc?'
p229
tp230
Rp231
tp232
a(S'google web toolkit'
p233
g2
(g6
S'_\xeb^;\xb3E\xdc?'
p234
tp235
Rp236
tp237
a(S'gnu librejs'
p238
g2
(g6
S'\tm\xb5F\x04\x15\xdc?'
p239
tp240
Rp241
tp242
a(S'coffeescript'
p243
g2
(g6
S'\xe4\x17\xb6\xbey\xdd\xdb?'
p244
tp245
Rp246
tp247
a(S'mootools'
p248
g2
(g6
S'09\xa0\x8d\xbc\xb3\xdb?'
p249
tp250
Rp251
tp252
a(S'playcanvas'
p253
g2
(g6
S'\xf6n\xd4\xe6e\xac\xdb?'
p254
tp255
Rp256
tp257
a(S'jquery'
p258
g2
(g6
S'\x86\xf4Bh\xa6\xa2\xdb?'
p259
tp260
Rp261
tp262
a(S'libscore'
p263
g2
(g6
S"\x91\x8b'q\xe9\xa0\xdb?"
p264
tp265
Rp266
tp267
a(S'chakra (jscript engine)'
p268
g2
(g6
S')\x08\xf6\x12\x11Z\xdb?'
p269
tp270
Rp271
tp272
a(S'chakra (javascript engine)'
p273
g2
(g6
S'/\x02U\xd6\x15\x8a\xda?'
p274
tp275
Rp276
tp277
a(S'framekiller'
p278
g2
(g6
S"'k3&\xc4y\xda?"
p279
tp280
Rp281
tp282
a(S'layer element'
p283
g2
(g6
S'\xde\x97\x1b\xd2\x82S\xda?'
p284
tp285
Rp286
tp287
a(S'swfobject'
p288
g2
(g6
S'\xfdn\xb1\xd4\xf5%\xda?'
p289
tp290
Rp291
tp292
a(S'morfik'
p293
g2
(g6
S'e\xbfc\xf8\x84$\xda?'
p294
tp295
Rp296
tp297
a(S'javascript templating'
p298
g2
(g6
S':F\x1f{z\x1f\xda?'
p299
tp300
Rp301
tp302
a(S'real-time communication'
p303
g2
(g6
S'3\xc1\xbc\xa3\xc4\x1e\xda?'
p304
tp305
Rp306
tp307
a(S'javascript style sheets'
p308
g2
(g6
S'\xc8\xa0\x91\x99\xca\x04\xda?'
p309
tp310
Rp311
tp312
a(S'modernizr'
p313
g2
(g6
S'\xb5?\xdf\xb8v\xbe\xd9?'
p314
tp315
Rp316
tp317
a(S'headless browser'
p318
g2
(g6
S'JVO6\xd7\x99\xd9?'
p319
tp320
Rp321
tp322
a(S'jsphp'
p323
g2
(g6
S'-\x18\xa0\xd4r\x85\xd9?'
p324
tp325
Rp326
tp327
a(S'morphic (software)'
p328
g2
(g6
S'\xae\xb9P}\xdb\x82\xd9?'
p329
tp330
Rp331
tp332
a(S'o3d'
p333
g2
(g6
S'}\xed\xfb\x134r\xd9?'
p334
tp335
Rp336
tp337
a(S'joose (framework)'
p338
g2
(g6
S'\x1b*\x9e\xd2\xd1P\xd9?'
p339
tp340
Rp341
tp342
a(S'objective-j'
p343
g2
(g6
S'\xc0\x10\xa4>\x82>\xd9?'
p344
tp345
Rp346
tp347
a(S'web desktop'
p348
g2
(g6
S'\xc8r.\xfe\xa6;\xd9?'
p349
tp350
Rp351
tp352
a(S'webgl'
p353
g2
(g6
S'\xed\xab\x83\xe8\x085\xd9?'
p354
tp355
Rp356
tp357
a(S'programming languages used in most popular websites'
p358
g2
(g6
S'\x9d\x9c\xec\x90\x17$\xd9?'
p359
tp360
Rp361
tp362
a(S'cloud9 ide'
p363
g2
(g6
S'w\x85&\xe3i\x15\xd9?'
p364
tp365
Rp366
tp367
a(S'list of ajax frameworks'
p368
g2
(g6
S'\x8c\xf1\x02\x80y\xf9\xd8?'
p369
tp370
Rp371
tp372
a(S'jscript'
p373
g2
(g6
S'\x9ax\x9b\xd7\xb9\xe6\xd8?'
p374
tp375
Rp376
tp377
a(S'cfscript'
p378
g2
(g6
S'\xd1\xfb\x14\xe2\xff\xe3\xd8?'
p379
tp380
Rp381
tp382
a(S'htmlunit'
p383
g2
(g6
S'\x1d\x19wRn\xdd\xd8?'
p384
tp385
Rp386
tp387
a(S'odysseys'
p388
g2
(g6
S'xG\xaa&\xbd\x7f\xd8?'
p389
tp390
Rp391
tp392
a(S'feature detection (web development)'
p393
g2
(g6
S'\xea*\xa9]EF\xd8?'
p394
tp395
Rp396
tp397
a(S'pyjs'
p398
g2
(g6
S'6\xf6o\xcb\xdc3\xd8?'
p399
tp400
Rp401
tp402
a(S'multiple phone web-based application framework'
p403
g2
(g6
S'0W\x03\xbd\xfc\x1d\xd8?'
p404
tp405
Rp406
tp407
a(S'glge (programming library)'
p408
g2
(g6
S'\x8al\xd1\xd9:\x00\xd8?'
p409
tp410
Rp411
tp412
a(S'fuel (firefox user extension library)'
p413
g2
(g6
S'\xb2\xb8\xde\xc2\x96\xee\xd7?'
p414
tp415
Rp416
tp417
a(S'npapi'
p418
g2
(g6
S'tt.\x8f\xa6\xde\xd7?'
p419
tp420
Rp421
tp422
a(S'document object model'
p423
g2
(g6
S'\xfd\xc2\xa2"I\x9c\xd7?'
p424
tp425
Rp426
tp427
a(S'javapoly'
p428
g2
(g6
S'+j)\xa2/v\xd7?'
p429
tp430
Rp431
tp432
a(S'comparison of websocket implementations'
p433
g2
(g6
S'\xc5lZ\x18ke\xd7?'
p434
tp435
Rp436
tp437
a(S'jmaki'
p438
g2
(g6
S'\x8c\x81v\xa6\xbf_\xd7?'
p439
tp440
Rp441
tp442
a(S'web development tools'
p443
g2
(g6
S'\x93\xda\x98\x93\xc9R\xd7?'
p444
tp445
Rp446
tp447
a(S'dwr (java)'
p448
g2
(g6
S'\x04\xe2\x83\n.(\xd7?'
p449
tp450
Rp451
tp452
a(S'crypton (framework)'
p453
g2
(g6
S'\x83\x1f|[\x1e$\xd7?'
p454
tp455
Rp456
tp457
a(S'frak (engine)'
p458
g2
(g6
S'\x15O)\x19]\x1f\xd7?'
p459
tp460
Rp461
tp462
a(S'list of augmented browsing software'
p463
g2
(g6
S'\x01\xf2\xd2\x15\xe3\x0f\xd7?'
p464
tp465
Rp466
tp467
a(S'hyperedit'
p468
g2
(g6
S'\x17\xb8$l{\n\xd7?'
p469
tp470
Rp471
tp472
a(S'cappuccino (application development framework)'
p473
g2
(g6
S'\xfb\xc9T\x96{\xfd\xd6?'
p474
tp475
Rp476
tp477
a(S'list of mozilla products'
p478
g2
(g6
S'\xf4\n\xef\xfbN\xd5\xd6?'
p479
tp480
Rp481
tp482
a(S'noscript'
p483
g2
(g6
S'y\xb0$ \xb0\xa4\xd6?'
p484
tp485
Rp486
tp487
a(S'rich internet application'
p488
g2
(g6
S"'@\xab\xeb#\x83\xd6?"
p489
tp490
Rp491
tp492
a(S'google pagespeed tools'
p493
g2
(g6
S'bvV\xe4<|\xd6?'
p494
tp495
Rp496
tp497
a(S'document update markup language'
p498
g2
(g6
S'(\x01\xac\xcc\x89H\xd6?'
p499
tp500
Rp501
tp502
a(S'aptana'
p503
g2
(g6
S'\xf0\x82q>(\x1e\xd6?'
p504
tp505
Rp506
tp507
a(S'swfaddress'
p508
g2
(g6
S'}\xc7\xa5\xe7}\x10\xd6?'
p509
tp510
Rp511
tp512
a(S'comparison of split testing tools'
p513
g2
(g6
S'\xc5W\r\xde\x16\xf7\xd5?'
p514
tp515
Rp516
tp517
a(S'mouseover'
p518
g2
(g6
S'\xc2\x8d\x07kE\xe4\xd5?'
p519
tp520
Rp521
tp522
a(S'mithril (disambiguation)'
p523
g2
(g6
S'\x1aMQ\x1a\xf9\xe0\xd5?'
p524
tp525
Rp526
tp527
a(S'qooxdoo'
p528
g2
(g6
S'[\x8e\x0eN^\xdb\xd5?'
p529
tp530
Rp531
tp532
a(S'comparison of javascript charting frameworks'
p533
g2
(g6
S'v\xc3\xf0U\x94\xc5\xd5?'
p534
tp535
Rp536
tp537
a(S'notscripts'
p538
g2
(g6
S'O\x19\xc9\x8a\xa8\xc3\xd5?'
p539
tp540
Rp541
tp542
a(S'inscript (javascript engine)'
p543
g2
(g6
S'mfz\xd76\xba\xd5?'
p544
tp545
Rp546
tp547
a(S'imacros'
p548
g2
(g6
S'\xfd\xf8\xda\x8d\x8c\xaf\xd5?'
p549
tp550
Rp551
tp552
a(S'echo (framework)'
p553
g2
(g6
S'\x0e\\\xc7\xbap\xa7\xd5?'
p554
tp555
Rp556
tp557
a(S'paul irish'
p558
g2
(g6
S'\x1c\n\xc9\xc4\xcel\xd5?'
p559
tp560
Rp561
tp562
a(S'amber smalltalk'
p563
g2
(g6
S'\x12\x1d\xadH7d\xd5?'
p564
tp565
Rp566
tp567
a(S'browser wars'
p568
g2
(g6
S'\xcc\xbe\\9\x94O\xd5?'
p569
tp570
Rp571
tp572
a(S'wymeditor'
p573
g2
(g6
S'<Ji\x17]F\xd5?'
p574
tp575
Rp576
tp577
a(S'quicknet'
p578
g2
(g6
S'v\x95\x9d\x96\x14\x1d\xd5?'
p579
tp580
Rp581
tp582
a(S'ecma'
p583
g2
(g6
S'T\x074Mv\x0c\xd5?'
p584
tp585
Rp586
tp587
a(S'cocoonjs'
p588
g2
(g6
S'\x05K\xdeW\x05\xff\xd4?'
p589
tp590
Rp591
tp592
a(S'cross-browser'
p593
g2
(g6
S';O\x80\x1f{\xe0\xd4?'
p594
tp595
Rp596
tp597
a(S'jsonp'
p598
g2
(g6
S'\x0e\x9d\x8b\xcc\x84\xce\xd4?'
p599
tp600
Rp601
tp602
a(S'browser toolbar'
p603
g2
(g6
S'\xf1"\x11\xe2\xc6\xb3\xd4?'
p604
tp605
Rp606
tp607
a(S'content security policy'
p608
g2
(g6
S'& u\x19R\xa3\xd4?'
p609
tp610
Rp611
tp612
a(S'ample sdk'
p613
g2
(g6
S'\x84\xb13\xa37\x98\xd4?'
p614
tp615
Rp616
tp617
a(S'list of firefox extensions'
p618
g2
(g6
S'\x02\xc0\xbdc\xbe\x94\xd4?'
p619
tp620
Rp621
tp622
a(S'voyager (web browser)'
p623
g2
(g6
S'\x93N\xcf\xb4\xb6\x89\xd4?'
p624
tp625
Rp626
tp627
a(S'peppermint (editor)'
p628
g2
(g6
S'Av?\x1c\xf2\x87\xd4?'
p629
tp630
Rp631
tp632
a(S'view-source uri scheme'
p633
g2
(g6
S'\x9f&:\x1d\xae\x87\xd4?'
p634
tp635
Rp636
tp637
a(S'usage share of web browsers'
p638
g2
(g6
S'8\xc6\xdf\xa1\xc9k\xd4?'
p639
tp640
Rp641
tp642
a(S'remote scripting'
p643
g2
(g6
S'~v\xa2&Xd\xd4?'
p644
tp645
Rp646
tp647
a(S'openlayers'
p648
g2
(g6
S'\xb4\xc9"\x15\xf5W\xd4?'
p649
tp650
Rp651
tp652
a(S'turbulenz'
p653
g2
(g6
S"\xf9C\x1e\x08'L\xd4?"
p654
tp655
Rp656
tp657
a(S'highsoft'
p658
g2
(g6
S'\x18\x96\x88jB5\xd4?'
p659
tp660
Rp661
tp662
a(S'paperpile'
p663
g2
(g6
S'\x06\xeajo75\xd4?'
p664
tp665
Rp666
tp667
a(S'comparison of user interface markup languages'
p668
g2
(g6
S'\x05,\xb4.F.\xd4?'
p669
tp670
Rp671
tp672
a(S'webix'
p673
g2
(g6
S'\xf2\x0eD\x1dg+\xd4?'
p674
tp675
Rp676
tp677
a(S'anychart'
p678
g2
(g6
S'L\x9d\x88\x035\x04\xd4?'
p679
tp680
Rp681
tp682
a(S'front-end web development'
p683
g2
(g6
S"'\xa5\x15\xda\x1a\xf4\xd3?"
p684
tp685
Rp686
tp687
a(S'css hack'
p688
g2
(g6
S'_o#\xb0K\xf0\xd3?'
p689
tp690
Rp691
tp692
a(S'xul'
p693
g2
(g6
S'\x10\xad\x04\xbc\x0c\xe5\xd3?'
p694
tp695
Rp696
tp697
a(S'asm.js'
p698
g2
(g6
S'\xc4\xab\xa5\x0f\x85\xcd\xd3?'
p699
tp700
Rp701
tp702
a(S'lightbox (disambiguation)'
p703
g2
(g6
S'\xa6\x85>\x1d\xd3\xc3\xd3?'
p704
tp705
Rp706
tp707
a(S'id (software)'
p708
g2
(g6
S'\xe4<\x14%\xe3\xbf\xd3?'
p709
tp710
Rp711
tp712
a(S'exhibit (web editing tool)'
p713
g2
(g6
S'9\xc6\x8ev\x01\xbb\xd3?'
p714
tp715
Rp716
tp717
a(S'webkit'
p718
g2
(g6
S'Pe\xad\xe1\x90\xa6\xd3?'
p719
tp720
Rp721
tp722
a(S'asynchronous module definition'
p723
g2
(g6
S'\xcc"k"\x8c\x96\xd3?'
p724
tp725
Rp726
tp727
a(S'radrails'
p728
g2
(g6
S'\xd5\xb1\xaf&\xafw\xd3?'
p729
tp730
Rp731
tp732
a(S'ajax (programming)'
p733
g2
(g6
S'\xa9\x18IV\x0fl\xd3?'
p734
tp735
Rp736
tp737
a(S'v8 engine (disambiguation)'
p738
g2
(g6
S'\xbb\xfc\x15\x02Pd\xd3?'
p739
tp740
Rp741
tp742
a(S'carmetal'
p743
g2
(g6
S']\xfa\x1c\x0f\xe8c\xd3?'
p744
tp745
Rp746
tp747
a(S'recursive transcompiling'
p748
g2
(g6
S'\xcej]\xc2\xfaX\xd3?'
p749
tp750
Rp751
tp752
a(S'google apis'
p753
g2
(g6
S'\xe2^\xd3e\x9cV\xd3?'
p754
tp755
Rp756
tp757
a(S'caja project'
p758
g2
(g6
S'\xfe\x90\xd2\xa7\x1aU\xd3?'
p759
tp760
Rp761
tp762
a(S'list of web browsers'
p763
g2
(g6
S'\xd3O\xa6\xeb\tB\xd3?'
p764
tp765
Rp766
tp767
a(S'khtml'
p768
g2
(g6
S'\xd4q\xe4\x90\x98.\xd3?'
p769
tp770
Rp771
tp772
a(S'comet (programming)'
p773
g2
(g6
S'\xd9\xbc\xc7\xe7\xad-\xd3?'
p774
tp775
Rp776
tp777
a(S'google chrome'
p778
g2
(g6
S'\xf0<\x1b\x80\xaf\x15\xd3?'
p779
tp780
Rp781
tp782
a(S'icab'
p783
g2
(g6
S'\x17Y:y\x1e\x14\xd3?'
p784
tp785
Rp786
tp787
a(S'single-page application'
p788
g2
(g6
S'\xdd\xeeB\xa5\xf2\x11\xd3?'
p789
tp790
Rp791
tp792
a(S'xuljet'
p793
g2
(g6
S'\x12\xf2P\xe2\xe2\x06\xd3?'
p794
tp795
Rp796
tp797
a(S'onsen ui'
p798
g2
(g6
S'\xb1\x07\xaf\xb9<\xfc\xd2?'
p799
tp800
Rp801
tp802
a(S'v8 (disambiguation)'
p803
g2
(g6
S'\xf7C\x1cv\x18\xfc\xd2?'
p804
tp805
Rp806
tp807
a(S'list of web testing tools'
p808
g2
(g6
S'3#\x91[\xeb\xf8\xd2?'
p809
tp810
Rp811
tp812
a(S'firefox'
p813
g2
(g6
S'\xde\xa94\xfa\xe3\xf7\xd2?'
p814
tp815
Rp816
tp817
a(S'edgehtml'
p818
g2
(g6
S'\xc5\x83~\x89\x86\xe4\xd2?'
p819
tp820
Rp821
tp822
a(S'emscripten'
p823
g2
(g6
S'\xac\x86\xc4\xb2b\xd5\xd2?'
p824
tp825
Rp826
tp827
a(S'amsd ariadna'
p828
g2
(g6
S'\x8b\x01\rb\xe1\xc8\xd2?'
p829
tp830
Rp831
tp832
a(S'omnis studio'
p833
g2
(g6
S'\x05\rL#\x88\xbf\xd2?'
p834
tp835
Rp836
tp837
a(S'rexsee'
p838
g2
(g6
S'b\x803yH\xba\xd2?'
p839
tp840
Rp841
tp842
a(S'ocsigen'
p843
g2
(g6
S'\xba$\xaf+u\xb7\xd2?'
p844
tp845
Rp846
tp847
a(S'web browser'
p848
g2
(g6
S'\xdd\x0f^3\x98\xb5\xd2?'
p849
tp850
Rp851
tp852
a(S'windows runtime'
p853
g2
(g6
S'\xc6\x89\xa6\x19\xd5\xaa\xd2?'
p854
tp855
Rp856
tp857
a(S'internet explorer 9'
p858
g2
(g6
S'\xed\xa3\xba\xc5\x02\x8c\xd2?'
p859
tp860
Rp861
tp862
a(S'progressive enhancement'
p863
g2
(g6
S'\xa9\xd2\x1c\xecS\x87\xd2?'
p864
tp865
Rp866
tp867
a(S'dart (programming language)'
p868
g2
(g6
S'\x13<7*V\x83\xd2?'
p869
tp870
Rp871
tp872
a(S'firefox 3.5'
p873
g2
(g6
S"\x98\xe9^y'\x81\xd2?"
p874
tp875
Rp876
tp877
a(S'andreas gal'
p878
g2
(g6
S'\r\xfa:\x11\xbaw\xd2?'
p879
tp880
Rp881
tp882
a(S'typescript'
p883
g2
(g6
S'\xd9rA\x1fNl\xd2?'
p884
tp885
Rp886
tp887
a(S'protogrid'
p888
g2
(g6
S'\xc9*4\xc2Jh\xd2?'
p889
tp890
Rp891
tp892
a(S'vladimir vuki\xc4\x87evi\xc4\x87'
p893
g2
(g6
S'\xdcTdt`?\xd2?'
p894
tp895
Rp896
tp897
a(S'webcl'
p898
g2
(g6
S'n\x98s\x0c\xfa2\xd2?'
p899
tp900
Rp901
tp902
a(S'meta refresh'
p903
g2
(g6
S'\x1e\xc4\xf0\xc3\xce2\xd2?'
p904
tp905
Rp906
tp907
a(S'etherpad'
p908
g2
(g6
S'-\xaf\xf3\xbb\x022\xd2?'
p909
tp910
Rp911
tp912
a(S'xpcom'
p913
g2
(g6
S'\x0f3\x96\xb67-\xd2?'
p914
tp915
Rp916
tp917
a(S'yui library'
p918
g2
(g6
S'\xc7\x01\xb7\xa7\xbf%\xd2?'
p919
tp920
Rp921
tp922
a(S'verbosus'
p923
g2
(g6
S'/\x0e ,\xcf\x1e\xd2?'
p924
tp925
Rp926
tp927
a(S'jsdoc'
p928
g2
(g6
S'\xec\xe8dL\xd0\x1d\xd2?'
p929
tp930
Rp931
tp932
a(S'version targeting'
p933
g2
(g6
S'c<\xd6S\x16\x19\xd2?'
p934
tp935
Rp936
tp937
a(S'scriptish'
p938
g2
(g6
S'\xf8k\xa4\xca\xca\x12\xd2?'
p939
tp940
Rp941
tp942
a(S'collada'
p943
g2
(g6
S'\xd2y\xe9\x11\xd2\x0f\xd2?'
p944
tp945
Rp946
tp947
a(S'tenfourfox'
p948
g2
(g6
S'\r\xc7+@r\x0b\xd2?'
p949
tp950
Rp951
tp952
a(S'safari (web browser)'
p953
g2
(g6
S'\xa1\xf3\x0e9\xc3\n\xd2?'
p954
tp955
Rp956
tp957
a(S'jerryscript'
p958
g2
(g6
S'\xa5\xe4+\xe4\xc4\xfd\xd1?'
p959
tp960
Rp961
tp962
a(S'edbrowse'
p963
g2
(g6
S'\xd1F\xa4\x87\xe9\xea\xd1?'
p964
tp965
Rp966
tp967
a(S'jsgi'
p968
g2
(g6
S'\xd8M\xbd\xfc\xa7\xcd\xd1?'
p969
tp970
Rp971
tp972
a(S'hover ad'
p973
g2
(g6
S']\xfdK\xb7g\xc4\xd1?'
p974
tp975
Rp976
tp977
a(S'atscript'
p978
g2
(g6
S'\x9d\xaaV\x80Y\xc3\xd1?'
p979
tp980
Rp981
tp982
a(S'crankshaft (disambiguation)'
p983
g2
(g6
S'\xe4\x12Q\xed6\xc0\xd1?'
p984
tp985
Rp986
tp987
a(S'appjet'
p988
g2
(g6
S'\x88\xb0a\xe4\xe5\xb7\xd1?'
p989
tp990
Rp991
tp992
a(S'prototype javascript framework'
p993
g2
(g6
S'5\xd4\xb2\xdc\xd2\xb4\xd1?'
p994
tp995
Rp996
tp997
a(S'browserchoice.eu'
p998
g2
(g6
S'\xb7.\xdd\x1f{\xb1\xd1?'
p999
tp1000
Rp1001
tp1002
a(S'vaadin'
p1003
g2
(g6
S'_\xddP\xe3\xfc\xae\xd1?'
p1004
tp1005
Rp1006
tp1007
a(S'jeremy ashkenas'
p1008
g2
(g6
S'\xca\xe3D\xee\x93\xaa\xd1?'
p1009
tp1010
Rp1011
tp1012
a(S'project phobos'
p1013
g2
(g6
S'\x8d#\xe4\xfb^\x96\xd1?'
p1014
tp1015
Rp1016
tp1017
a(S'f* (programming language)'
p1018
g2
(g6
S'\xe7\xaa\xbe\xcb\xda\x89\xd1?'
p1019
tp1020
Rp1021
tp1022
a(S'firefox 4'
p1023
g2
(g6
S'\xc2c\xea\xe4\xb1\x85\xd1?'
p1024
tp1025
Rp1026
tp1027
a(S'hijax'
p1028
g2
(g6
S'\xe3G\x12)\xfa\x80\xd1?'
p1029
tp1030
Rp1031
tp1032
a(S'history of the web browser'
p1033
g2
(g6
S'\xa9\x8cY\x94Cu\xd1?'
p1034
tp1035
Rp1036
tp1037
a(S'comparison of javascript-based source code editors'
p1038
g2
(g6
S'\xb6\x93\xb6\x94Yt\xd1?'
p1039
tp1040
Rp1041
tp1042
a(S'goanna (software)'
p1043
g2
(g6
S'\x06\xd4\xc8W)d\xd1?'
p1044
tp1045
Rp1046
tp1047
a(S'colt (software)'
p1048
g2
(g6
S'\xbd\x06\xff]:b\xd1?'
p1049
tp1050
Rp1051
tp1052
a(S'dynamic html'
p1053
g2
(g6
S'\x07\x0f\xca@\xf8W\xd1?'
p1054
tp1055
Rp1056
tp1057
a(S'rapha\xc3\xabl (javascript library)'
p1058
g2
(g6
S'm\xa8\xee\xd0\xb2S\xd1?'
p1059
tp1060
Rp1061
tp1062
a(S'konqueror'
p1063
g2
(g6
S'\x109@\xfaxS\xd1?'
p1064
tp1065
Rp1066
tp1067
a(S'npm (software)'
p1068
g2
(g6
S'\xc5V\x10\x83$Q\xd1?'
p1069
tp1070
Rp1071
tp1072
a(S'google chrome extension'
p1073
g2
(g6
S'\x01\xd7\x91\xf9@N\xd1?'
p1074
tp1075
Rp1076
tp1077
a(S'jss'
p1078
g2
(g6
S'F\xa1kr\xf9.\xd1?'
p1079
tp1080
Rp1081
tp1082
a(S'mean (software bundle)'
p1083
g2
(g6
S'#\xb82y=-\xd1?'
p1084
tp1085
Rp1086
tp1087
a(S'midori javascript framework'
p1088
g2
(g6
S'A\x98\xe3\xee&-\xd1?'
p1089
tp1090
Rp1091
tp1092
a(S'brendan eich'
p1093
g2
(g6
S'\xbbX\x86\xdcq,\xd1?'
p1094
tp1095
Rp1096
tp1097
a(S'douglas crockford'
p1098
g2
(g6
S'\n;PY\xb0\x08\xd1?'
p1099
tp1100
Rp1101
tp1102
a(S'xajax'
p1103
g2
(g6
S'\x07+\xdfJ\xf6\xf9\xd0?'
p1104
tp1105
Rp1106
tp1107
a(S'jsreport'
p1108
g2
(g6
S'\n\x1e~\xdf]\xf7\xd0?'
p1109
tp1110
Rp1111
tp1112
a(S'glow (javascript library)'
p1113
g2
(g6
S'~\x98A\x02\x01\xeb\xd0?'
p1114
tp1115
Rp1116
tp1117
a(S'firefox 2'
p1118
g2
(g6
S'O3}\xe2\xf2\xea\xd0?'
p1119
tp1120
Rp1121
tp1122
a(S'gyp (software)'
p1123
g2
(g6
S"\xbb\xe2\xf2'\xbb\xe4\xd0?"
p1124
tp1125
Rp1126
tp1127
a(S'mozilla'
p1128
g2
(g6
S'\n\x00LI\xf6\xd8\xd0?'
p1129
tp1130
Rp1131
tp1132
a(S'link prefetching'
p1133
g2
(g6
S'\xff\x0fw\xa6h\xc8\xd0?'
p1134
tp1135
Rp1136
tp1137
a(S'browser exploit'
p1138
g2
(g6
S'\xabr=`\t\xc2\xd0?'
p1139
tp1140
Rp1141
tp1142
a(S'web worker'
p1143
g2
(g6
S'\x1d\xec\\\x13\x91\xbc\xd0?'
p1144
tp1145
Rp1146
tp1147
a(S'browser extension'
p1148
g2
(g6
S"\x93.'\xd8\x02\xbb\xd0?"
p1149
tp1150
Rp1151
tp1152
a(S'frozen mountain'
p1153
g2
(g6
S'Z\x08s\x84\t\xba\xd0?'
p1154
tp1155
Rp1156
tp1157
a(S'google chrome frame'
p1158
g2
(g6
S"'AA\xcc\xb3\xb5\xd0?"
p1159
tp1160
Rp1161
tp1162
a(S'convex software library'
p1163
g2
(g6
S'\x80t\xc9\xc7\xa8\xb0\xd0?'
p1164
tp1165
Rp1166
tp1167
a(S'foundation (framework)'
p1168
g2
(g6
S'\xb6=\xc1f\xe9\xad\xd0?'
p1169
tp1170
Rp1171
tp1172
a(S'pdf.js'
p1173
g2
(g6
S'X\x0e\x14\x0f\xdf\xaa\xd0?'
p1174
tp1175
Rp1176
tp1177
a(S'knockout (web framework)'
p1178
g2
(g6
S'\x9b\x1d\xef\xaf\xa9\x9e\xd0?'
p1179
tp1180
Rp1181
tp1182
a(S'interactive data visualization'
p1183
g2
(g6
S"\xbeu\x80'\xa0\x99\xd0?"
p1184
tp1185
Rp1186
tp1187
a(S'windmill (testing framework)'
p1188
g2
(g6
S'\x93\x1b\x18fL\x91\xd0?'
p1189
tp1190
Rp1191
tp1192
a(S'flash of unstyled content'
p1193
g2
(g6
S'FGeq\xee\x89\xd0?'
p1194
tp1195
Rp1196
tp1197
a(S'mochikit'
p1198
g2
(g6
S'\xca\xd1\xf9=\xaa\x87\xd0?'
p1199
tp1200
Rp1201
tp1202
a(S'mobile application development'
p1203
g2
(g6
S'H\x9a\x87\x85\xe8~\xd0?'
p1204
tp1205
Rp1206
tp1207
a(S'mozilla application framework'
p1208
g2
(g6
S'8\xf9\xe1s:}\xd0?'
p1209
tp1210
Rp1211
tp1212
a(S'image zoom'
p1213
g2
(g6
S'K\x15\xb0\x03\xd2x\xd0?'
p1214
tp1215
Rp1216
tp1217
a(S'site-specific browser'
p1218
g2
(g6
S'];\xb5\x1c%w\xd0?'
p1219
tp1220
Rp1221
tp1222
a(S'lively kernel'
p1223
g2
(g6
S'\x17$\x1d\x11>t\xd0?'
p1224
tp1225
Rp1226
tp1227
a(S'comparison of web browsers'
p1228
g2
(g6
S'N\xc2k\xd8\xedn\xd0?'
p1229
tp1230
Rp1231
tp1232
a(S'webrtc'
p1233
g2
(g6
S'8j\xa4oP_\xd0?'
p1234
tp1235
Rp1236
tp1237
a(S'web browser engine'
p1238
g2
(g6
S'T=\x9e6\xee[\xd0?'
p1239
tp1240
Rp1241
tp1242
a(S'seed (programming)'
p1243
g2
(g6
S'\xc2\xdeRG\xdcT\xd0?'
p1244
tp1245
Rp1246
tp1247
a(S'maciej stachowiak'
p1248
g2
(g6
S'`*8\x04\xc6R\xd0?'
p1249
tp1250
Rp1251
tp1252
a(S'sajax'
p1253
g2
(g6
S'\xbb\xcbg\x82{R\xd0?'
p1254
tp1255
Rp1256
tp1257
a(S'bookmark (world wide web)'
p1258
g2
(g6
S'}\x8b\xa1\x06\x94N\xd0?'
p1259
tp1260
Rp1261
tp1262
a(S'google swiffy'
p1263
g2
(g6
S'\xe4\x0f<\xbf\xf7L\xd0?'
p1264
tp1265
Rp1266
tp1267
a(S'aerogear'
p1268
g2
(g6
S'"\x89\xa8\xf8\xe7G\xd0?'
p1269
tp1270
Rp1271
tp1272
a(S'cross-site scripting'
p1273
g2
(g6
S'\xde\xbf%|<C\xd0?'
p1274
tp1275
Rp1276
tp1277
a(S'jshint'
p1278
g2
(g6
S'f\xe9oE35\xd0?'
p1279
tp1280
Rp1281
tp1282
a(S'list of javascript libraries'
p1283
g2
(g6
S'\x94\x8b\\\xd8[1\xd0?'
p1284
tp1285
Rp1286
tp1287
a(S'openui5'
p1288
g2
(g6
S'\x92\xb5\x9b\x86\xf4*\xd0?'
p1289
tp1290
Rp1291
tp1292
a(S'nitro (software)'
p1293
g2
(g6
S'\xe9\x96\x8d8\x00)\xd0?'
p1294
tp1295
Rp1296
tp1297
a(S'kuma (software)'
p1298
g2
(g6
S"\xa3\xb8c?\xc2'\xd0?"
p1299
tp1300
Rp1301
tp1302
a(S'self-xss'
p1303
g2
(g6
S'\x02\x7fby\xbe\x1d\xd0?'
p1304
tp1305
Rp1306
tp1307
a(S'biojs'
p1308
g2
(g6
S'\t\xf0\t]j\x17\xd0?'
p1309
tp1310
Rp1311
tp1312
a(S'polyfill'
p1313
g2
(g6
S'\xff \x85\xd4\x0e\x15\xd0?'
p1314
tp1315
Rp1316
tp1317
a(S'mindmup'
p1318
g2
(g6
S'\xad\xacm\x1a\xa1\x14\xd0?'
p1319
tp1320
Rp1321
tp1322
a(S'presto (layout engine)'
p1323
g2
(g6
S'#\x9a\xdf(\x94\x10\xd0?'
p1324
tp1325
Rp1326
tp1327
a(S'max editor'
p1328
g2
(g6
S'\xb9J\r?F\t\xd0?'
p1329
tp1330
Rp1331
tp1332
a(S'appcelerator titanium'
p1333
g2
(g6
S'\xff~:\xda"\t\xd0?'
p1334
tp1335
Rp1336
tp1337
a(S'history of firefox'
p1338
g2
(g6
S'\xcf\xfd8\xe4\xbd\x07\xd0?'
p1339
tp1340
Rp1341
tp1342
a(S'pm2 (software)'
p1343
g2
(g6
S'\xbb\x13\x95\x8d\r\x02\xd0?'
p1344
tp1345
Rp1346
tp1347
a(S'safari version history'
p1348
g2
(g6
S'@+I\x00\x8a\xf4\xcf?'
p1349
tp1350
Rp1351
tp1352
a(S'wescheme'
p1353
g2
(g6
S'\xd6\xea\xbdT0\xeb\xcf?'
p1354
tp1355
Rp1356
tp1357
a(S'nevow'
p1358
g2
(g6
S'j\x8d\x1c\x02\xe8\xe5\xcf?'
p1359
tp1360
Rp1361
tp1362
a(S'servoy'
p1363
g2
(g6
S'\xb6\xb9\xf1\x81\xea\xde\xcf?'
p1364
tp1365
Rp1366
tp1367
a(S'280 north, inc.'
p1368
g2
(g6
S"}'\x8f)\xdd\xcc\xcf?"
p1369
tp1370
Rp1371
tp1372
a(S'ajax.oop'
p1373
g2
(g6
S'\x1aaD\x99\xfa\xab\xcf?'
p1374
tp1375
Rp1376
tp1377
a(S'html5 audio'
p1378
g2
(g6
S'f7\x02\xdaF\xa5\xcf?'
p1379
tp1380
Rp1381
tp1382
a(S'list of charting software'
p1383
g2
(g6
S'P\xe3\xe2\x15\x8e\x9d\xcf?'
p1384
tp1385
Rp1386
tp1387
a(S'comparison of webmail providers'
p1388
g2
(g6
S'`y\xb1\xa1\xb4\x9b\xcf?'
p1389
tp1390
Rp1391
tp1392
a(S'x3d'
p1393
g2
(g6
S'i\xa8eBp\x99\xcf?'
p1394
tp1395
Rp1396
tp1397
a(S'dom inspector'
p1398
g2
(g6
S'7\xad\x19\xa7a\x97\xcf?'
p1399
tp1400
Rp1401
tp1402
a(S'mathjax'
p1403
g2
(g6
S'\xbd\xfb<2f\x89\xcf?'
p1404
tp1405
Rp1406
tp1407
a(S'jasmine (javascript testing framework)'
p1408
g2
(g6
S'z=^\xa90\x80\xcf?'
p1409
tp1410
Rp1411
tp1412
a(S'mirabyte web architect'
p1413
g2
(g6
S'\xeb+?"Jm\xcf?'
p1414
tp1415
Rp1416
tp1417
a(S'brackets (text editor)'
p1418
g2
(g6
S'\xd3\xfa\x01KX5\xcf?'
p1419
tp1420
Rp1421
tp1422
a(S'comparison of web browser engines'
p1423
g2
(g6
S'\xe78\xa1\x1b\x0f,\xcf?'
p1424
tp1425
Rp1426
tp1427
a(S'browser security'
p1428
g2
(g6
S'\xfe^O\x95\x0c\xf8\xce?'
p1429
tp1430
Rp1431
tp1432
a(S'json'
p1433
g2
(g6
S'\xd0\x19y\x88}\xf2\xce?'
p1434
tp1435
Rp1436
tp1437
a(S'ebase xi'
p1438
g2
(g6
S'\x1c\xe5\x8a\x81.\xee\xce?'
p1439
tp1440
Rp1441
tp1442
a(S'googlebot'
p1443
g2
(g6
S'b1}g\xe8\xec\xce?'
p1444
tp1445
Rp1446
tp1447
a(S'jeremy keith (web developer)'
p1448
g2
(g6
S'z\xc2\x93T\xae\xe8\xce?'
p1449
tp1450
Rp1451
tp1452
a(S'phpstorm'
p1453
g2
(g6
S'\xaf\xab\xc88M\xe2\xce?'
p1454
tp1455
Rp1456
tp1457
a(S'comparison of geographic information systems software'
p1458
g2
(g6
S'@\xd3\xa0\xba\xb4\xcf\xce?'
p1459
tp1460
Rp1461
tp1462
a(S'javascript infovis toolkit'
p1463
g2
(g6
S'\r\xdf\xd0\xc3\xe5\xce\xce?'
p1464
tp1465
Rp1466
tp1467
a(S'fullstack academy'
p1468
g2
(g6
S'n\xd2\xb0\xdb\xf8\xc9\xce?'
p1469
tp1470
Rp1471
tp1472
a(S'sencha touch'
p1473
g2
(g6
S'qt\x93\x1aH\xc8\xce?'
p1474
tp1475
Rp1476
tp1477
a(S'dimensionex multiplayer engine'
p1478
g2
(g6
S'\xe3\xe6fV\xb2\xc4\xce?'
p1479
tp1480
Rp1481
tp1482
a(S'xombrero'
p1483
g2
(g6
S'\xd7\xa4\x89\x1c\xda\x9d\xce?'
p1484
tp1485
Rp1486
tp1487
a(S'javascript data components'
p1488
g2
(g6
S'\x15k"\x99\x1b\x87\xce?'
p1489
tp1490
Rp1491
tp1492
a(S'scalable inman flash replacement'
p1493
g2
(g6
S'\xfd*\xe3\xba}\x84\xce?'
p1494
tp1495
Rp1496
tp1497
a(S'ecma international'
p1498
g2
(g6
S'A7\xdc=6}\xce?'
p1499
tp1500
Rp1501
tp1502
a(S'jsonml'
p1503
g2
(g6
S'\x90k\xbc\x10Kt\xce?'
p1504
tp1505
Rp1506
tp1507
a(S'allpeers'
p1508
g2
(g6
S'\xfe\xa8@m\x08q\xce?'
p1509
tp1510
Rp1511
tp1512
a.