(lp0
(S'kaggle'
p1
cnumpy.core.multiarray
scalar
p2
(cnumpy
dtype
p3
(S'f8'
p4
I0
I1
tp5
Rp6
(I3
S'<'
p7
NNNI-1
I-1
I0
tp8
bS'\xfa\xff\xff\xff\xff\xff\xef?'
p9
tp10
Rp11
tp12
a(S'student competitions ab'
p13
g2
(g6
S'5X\xdc9\x92B\xd7?'
p14
tp15
Rp16
tp17
a(S'student competition'
p18
g2
(g6
S'\x0f\x9asI\x07\xa1\xd6?'
p19
tp20
Rp21
tp22
a(S'data science'
p23
g2
(g6
S'\x85\xab\xcf|\xa8\xa0\xd5?'
p24
tp25
Rp26
tp27
a(S'data publishing'
p28
g2
(g6
S'\x8a\xca2>f\xe9\xd3?'
p29
tp30
Rp31
tp32
a(S'deep feature synthesis'
p33
g2
(g6
S'\xd3\xf1\x86G\xe8r\xd3?'
p34
tp35
Rp36
tp37
a(S'big data'
p38
g2
(g6
S'\x02\x06\xc8\t\x05m\xd3?'
p39
tp40
Rp41
tp42
a(S'architectural design competition'
p43
g2
(g6
S'\x9a\x9aJ\x93\xe3j\xd3?'
p44
tp45
Rp46
tp47
a(S'research data archiving'
p48
g2
(g6
S'\xc0\xfc\xc2\xbfZC\xd2?'
p49
tp50
Rp51
tp52
a(S'metropolitan areas in poland'
p53
g2
(g6
S'+\x81\x9a\xad\xbf;\xd2?'
p54
tp55
Rp56
tp57
a(S'open data'
p58
g2
(g6
S'\xb0J\x06M0\x16\xd2?'
p59
tp60
Rp61
tp62
a(S'nerc data centres'
p63
g2
(g6
S'\xd3h\x9b\xe1J\xf5\xd1?'
p64
tp65
Rp66
tp67
a(S'atomic radii of the elements (data page)'
p68
g2
(g6
S'[\x83g3\xdb\xef\xd1?'
p69
tp70
Rp71
tp72
a(S'list of elements by atomic properties'
p73
g2
(g6
S'\x80\xfc}>\x11\xde\xd1?'
p74
tp75
Rp76
tp77
a(S'data library'
p78
g2
(g6
S'\xf4\x81\x88\xeb\xcf\xd4\xd1?'
p79
tp80
Rp81
tp82
a(S'data management plan'
p83
g2
(g6
S'\x04d\xd9\x0f\\\xc3\xd1?'
p84
tp85
Rp86
tp87
a(S'open science data'
p88
g2
(g6
S'\xa3\xa3\x8eDi\x97\xd1?'
p89
tp90
Rp91
tp92
a(S'data set'
p93
g2
(g6
S'b\xe0w\xc7B\x85\xd1?'
p94
tp95
Rp96
tp97
a(S'data sharing'
p98
g2
(g6
S'\xd0\x8d\x99T\x15{\xd1?'
p99
tp100
Rp101
tp102
a(S'landscape architecture design competitions'
p103
g2
(g6
S'\x98\xef\xeaU\x1aq\xd1?'
p104
tp105
Rp106
tp107
a(S'international classical guitar competitions'
p108
g2
(g6
S"\x9f\x8d\xf4\xc0'k\xd1?"
p109
tp110
Rp111
tp112
a(S'music competition'
p113
g2
(g6
S'\x0e\\@\xbd\xa9O\xd1?'
p114
tp115
Rp116
tp117
a(S'topcoder'
p118
g2
(g6
S'3\xf9\xc4\xcdB5\xd1?'
p119
tp120
Rp121
tp122
a(S'data scientists'
p123
g2
(g6
S')"\xa4\t\xbb(\xd1?'
p124
tp125
Rp126
tp127
a(S'uk data service'
p128
g2
(g6
S'\xeb9z8\xb9!\xd1?'
p129
tp130
Rp131
tp132
a(S'data'
p133
g2
(g6
S'N\x8c\x17\xac\t\xe7\xd0?'
p134
tp135
Rp136
tp137
a(S'uk data archive'
p138
g2
(g6
S'\xec\x87\x1fb"\xe5\xd0?'
p139
tp140
Rp141
tp142
a(S'data philanthropy'
p143
g2
(g6
S'\xddc\x0c#P\xdc\xd0?'
p144
tp145
Rp146
tp147
a(S'administration data'
p148
g2
(g6
S'#]\xe2^\xf6\xd5\xd0?'
p149
tp150
Rp151
tp152
a(S'economics of open data'
p153
g2
(g6
S'&\x19\xdbvq\xd5\xd0?'
p154
tp155
Rp156
tp157
a(S'dataiku'
p158
g2
(g6
S'@\x9fVB\xcf\xc8\xd0?'
p159
tp160
Rp161
tp162
a(S'data (computing)'
p163
g2
(g6
S'L\x80 {\x05\xc6\xd0?'
p164
tp165
Rp166
tp167
a(S'list of woking f.c. seasons'
p168
g2
(g6
S'\xd6\xbfhC\xb2\x9c\xd0?'
p169
tp170
Rp171
tp172
a(S'open energy system databases'
p173
g2
(g6
S'y\x14\xc7\x8a\xe3\x8e\xd0?'
p174
tp175
Rp176
tp177
a(S'data.gov.uk'
p178
g2
(g6
S'6\x0f\xd4}o\x8b\xd0?'
p179
tp180
Rp181
tp182
a(S'google public data explorer'
p183
g2
(g6
S'\xeb3Rm\xc8v\xd0?'
p184
tp185
Rp186
tp187
a(S'small data'
p188
g2
(g6
S'\xba\xc3#c\x7ft\xd0?'
p189
tp190
Rp191
tp192
a(S'technical data management system'
p193
g2
(g6
S'\x89\xd9\xc0\xdd|U\xd0?'
p194
tp195
Rp196
tp197
a(S'data mining'
p198
g2
(g6
S'\xfb\xd3\xcc\x16\xa4P\xd0?'
p199
tp200
Rp201
tp202
a(S'seadatanet'
p203
g2
(g6
S'\xf2\x97\xd1\xdd\x93N\xd0?'
p204
tp205
Rp206
tp207
a(S'5 ways of conceptualizing data'
p208
g2
(g6
S'\xe9y`\x1e\xd1M\xd0?'
p209
tp210
Rp211
tp212
a(S'data quality'
p213
g2
(g6
S'\xdc\xe5$\x86\xabL\xd0?'
p214
tp215
Rp216
tp217
a(S'data warehouse'
p218
g2
(g6
S'\x90?u\x9e\xf7?\xd0?'
p219
tp220
Rp221
tp222
a(S'industrial big data'
p223
g2
(g6
S'D\xb8,s\xd39\xd0?'
p224
tp225
Rp226
tp227
a(S'data model'
p228
g2
(g6
S'\x8a\x80\x83\xa6M/\xd0?'
p229
tp230
Rp231
tp232
a(S'usama fayyad'
p233
g2
(g6
S'9\xea\xad\x8f\x9e)\xd0?'
p234
tp235
Rp236
tp237
a(S'open data indicies'
p238
g2
(g6
S'\xd4sC\x9a\xdd\x19\xd0?'
p239
tp240
Rp241
tp242
a(S'student design competition'
p243
g2
(g6
S'\x06\xcb\xe4\xb9\x87\x16\xd0?'
p244
tp245
Rp246
tp247
a(S'open data in canada'
p248
g2
(g6
S'\xe92r\xb5*\x12\xd0?'
p249
tp250
Rp251
tp252
a(S'dataone'
p253
g2
(g6
S':t\xb8\x9f\x05\x0c\xd0?'
p254
tp255
Rp256
tp257
a(S'data monetization'
p258
g2
(g6
S"x\n\xb9*'\x0b\xd0?"
p259
tp260
Rp261
tp262
a(S'data-driven journalism'
p263
g2
(g6
S'W\xc3\x0e\x1fN\xff\xcf?'
p264
tp265
Rp266
tp267
a(S'eosdis'
p268
g2
(g6
S'G\xa1\xb8\xa2w\xec\xcf?'
p269
tp270
Rp271
tp272
a(S'juried (competition)'
p273
g2
(g6
S'z\xb5|\x82\xf7\xdd\xcf?'
p274
tp275
Rp276
tp277
a(S'data analysis'
p278
g2
(g6
S'\xd7\x8a |\xb8\xcb\xcf?'
p279
tp280
Rp281
tp282
a(S'data as a service'
p283
g2
(g6
S'Kq\xb2\xf4\xfa\xbf\xcf?'
p284
tp285
Rp286
tp287
a(S'data field'
p288
g2
(g6
S'\x97om\n\xb6\xb7\xcf?'
p289
tp290
Rp291
tp292
a(S'data architecture'
p293
g2
(g6
S'\x9a\xba>\xe3\x85\xb7\xcf?'
p294
tp295
Rp296
tp297
a(S'multiway data analysis'
p298
g2
(g6
S'\\\x97w\x82n\x97\xcf?'
p299
tp300
Rp301
tp302
a(S'list of gis data sources'
p303
g2
(g6
S'\x1ff\xd8\xf9~\x91\xcf?'
p304
tp305
Rp306
tp307
a(S'data wrangling'
p308
g2
(g6
S'\xba\xe8\x997\xa1\x8b\xcf?'
p309
tp310
Rp311
tp312
a(S'makridakis competitions'
p313
g2
(g6
S"\xd0'\x0fFm\x82\xcf?"
p314
tp315
Rp316
tp317
a(S'data at rest'
p318
g2
(g6
S'\x07\xb9\xa7\x12\x9fd\xcf?'
p319
tp320
Rp321
tp322
a(S'icsu world data system'
p323
g2
(g6
S'\xf9\x1f\xaf\xcb%T\xcf?'
p324
tp325
Rp326
tp327
a(S'dark data'
p328
g2
(g6
S'\x1e\x1c\xb7\xd4\xb2K\xcf?'
p329
tp330
Rp331
tp332
a(S'extract, transform, load'
p333
g2
(g6
S'W\x88\xa6\xd2\x970\xcf?'
p334
tp335
Rp336
tp337
a(S'datanet'
p338
g2
(g6
S'&h\xa9rp.\xcf?'
p339
tp340
Rp341
tp342
a(S'the cancer imaging archive (tcia)'
p343
g2
(g6
S'\x9b\x7f\x97\xf3\xcf\x15\xcf?'
p344
tp345
Rp346
tp347
a(S'master data management'
p348
g2
(g6
S'\xd1\r\x7f\xf2W\x15\xcf?'
p349
tp350
Rp351
tp352
a(S"rexer's annual data miner survey"
p353
g2
(g6
S'+\xb5\xe8"\x01\x15\xcf?'
p354
tp355
Rp356
tp357
a(S'data cleansing'
p358
g2
(g6
S'3\x0b\x80\xf1\xad\n\xcf?'
p359
tp360
Rp361
tp362
a(S'first data'
p363
g2
(g6
S'G\xa0\x86-c\xef\xce?'
p364
tp365
Rp366
tp367
a(S'riba competitions'
p368
g2
(g6
S'\x80X\xef\xb3t\xe9\xce?'
p369
tp370
Rp371
tp372
a(S'data architect'
p373
g2
(g6
S'\xe8\xb1\xd3\x17$\xe9\xce?'
p374
tp375
Rp376
tp377
a(S'social data revolution'
p378
g2
(g6
S'i\xbfm\x14\x96\xa8\xce?'
p379
tp380
Rp381
tp382
a(S'ayasdi'
p383
g2
(g6
S'\x92\x1du\x90i\xa7\xce?'
p384
tp385
Rp386
tp387
a(S'data lake'
p388
g2
(g6
S'\x0e\x83\x8f\xea9\xa2\xce?'
p389
tp390
Rp391
tp392
a(S'talend open studio for data integration'
p393
g2
(g6
S'\xa3\x9ce\xben\x8b\xce?'
p394
tp395
Rp396
tp397
a(S'critical data studies'
p398
g2
(g6
S'\x9e\xe0\x04\xebY\x84\xce?'
p399
tp400
Rp401
tp402
a(S'reality mining'
p403
g2
(g6
S'\xaai\x15\xb2st\xce?'
p404
tp405
Rp406
tp407
a(S'data management'
p408
g2
(g6
S'\x16\x05N(\x19r\xce?'
p409
tp410
Rp411
tp412
a(S'romonet'
p413
g2
(g6
S'\x88K\x8233o\xce?'
p414
tp415
Rp416
tp417
a(S'national geophysical data center'
p418
g2
(g6
S'\xf0y\xa7\x83F_\xce?'
p419
tp420
Rp421
tp422
a(S'pravega'
p423
g2
(g6
S'\xea\xe7J\x11\x84]\xce?'
p424
tp425
Rp426
tp427
a(S'raw data'
p428
g2
(g6
S'G4]u\x86T\xce?'
p429
tp430
Rp431
tp432
a(S'data custodian'
p433
g2
(g6
S'm?\xbcv\x1b(\xce?'
p434
tp435
Rp436
tp437
a(S'bluetalon'
p438
g2
(g6
S'\xaf\x00^\x19\x03$\xce?'
p439
tp440
Rp441
tp442
a(S'open science'
p443
g2
(g6
S'\\\x02\x87\x10\\\r\xce?'
p444
tp445
Rp446
tp447
a(S'data modeling'
p448
g2
(g6
S'\xd7a_+\x81\x02\xce?'
p449
tp450
Rp451
tp452
a(S'data pre-processing'
p453
g2
(g6
S':+H\xa2\x03\xf5\xcd?'
p454
tp455
Rp456
tp457
a(S'european union of music competitions for youth'
p458
g2
(g6
S'A\xfa\xc3\xcdn\xf0\xcd?'
p459
tp460
Rp461
tp462
a(S'open data in the united kingdom'
p463
g2
(g6
S'\xdf\xf5(\xe7c\xe4\xcd?'
p464
tp465
Rp466
tp467
a(S'quandl'
p468
g2
(g6
S'z\x95W/\xa1\xdf\xcd?'
p469
tp470
Rp471
tp472
a(S'data protection act, 2012'
p473
g2
(g6
S'\x1a\x85\x90;\x02\xd7\xcd?'
p474
tp475
Rp476
tp477
a(S'socrata'
p478
g2
(g6
S'\x18\xba\\\x9d\x99\xa2\xcd?'
p479
tp480
Rp481
tp482
a(S'data administration'
p483
g2
(g6
S'\xcc\xa9[\xb7\xd6\x9d\xcd?'
p484
tp485
Rp486
tp487
a(S'national database for autism research'
p488
g2
(g6
S'\xfa\x16D\xf5A\x96\xcd?'
p489
tp490
Rp491
tp492
a(S'yash daryanani'
p493
g2
(g6
S'J\x81U b\x81\xcd?'
p494
tp495
Rp496
tp497
a(S'data virtualization'
p498
g2
(g6
S'\xae\x872%Pq\xcd?'
p499
tp500
Rp501
tp502
a(S'collaboratory'
p503
g2
(g6
S'\x1f\xce>\xf6\xd3p\xcd?'
p504
tp505
Rp506
tp507
a(S'master data'
p508
g2
(g6
S'\x8c\x97\xfc\xd6\x9bj\xcd?'
p509
tp510
Rp511
tp512
a(S'teradata'
p513
g2
(g6
S'>F\x8e\x08\x0bi\xcd?'
p514
tp515
Rp516
tp517
a(S'dataspaces'
p518
g2
(g6
S'a\xe3Noq[\xcd?'
p519
tp520
Rp521
tp522
a(S'financial data vendor'
p523
g2
(g6
S'`\x8dgj\x8cQ\xcd?'
p524
tp525
Rp526
tp527
a(S'economic and social data service'
p528
g2
(g6
S't\xd9\x98\xdd\xe8O\xcd?'
p529
tp530
Rp531
tp532
a(S'european data portal'
p533
g2
(g6
S'\xd5\xb1\xa8<\\D\xcd?'
p534
tp535
Rp536
tp537
a(S'ukrainian football league system'
p538
g2
(g6
S'\xf7\xee0\xb9\xae2\xcd?'
p539
tp540
Rp541
tp542
a(S'data (disambiguation)'
p543
g2
(g6
S'\x18MF\xcf\x9b0\xcd?'
p544
tp545
Rp546
tp547
a(S'data hub'
p548
g2
(g6
S'\xe3\xc1HI\xef+\xcd?'
p549
tp550
Rp551
tp552
a(S'data quality campaign'
p553
g2
(g6
S'\x8du}\xf0\xe0+\xcd?'
p554
tp555
Rp556
tp557
a(S'robert lee grossman'
p558
g2
(g6
S'\xef\x8cf\x7f\xf2*\xcd?'
p559
tp560
Rp561
tp562
a(S'toronto open data'
p563
g2
(g6
S'h\xdc?Tt$\xcd?'
p564
tp565
Rp566
tp567
a(S'social data analysis'
p568
g2
(g6
S'\xa3\xa2\x8f*\x05\x16\xcd?'
p569
tp570
Rp571
tp572
a(S'linked data'
p573
g2
(g6
S'Z\xff\xac\t;\x12\xcd?'
p574
tp575
Rp576
tp577
a(S'data (moth)'
p578
g2
(g6
S'\xd4i\xd3\xfa\xdd\x0e\xcd?'
p579
tp580
Rp581
tp582
a(S'data mart'
p583
g2
(g6
S'\x86\x0f\x0ec\xa4\r\xcd?'
p584
tp585
Rp586
tp587
a(S'figshare'
p588
g2
(g6
S'\xbct\xa4#\x10\x05\xcd?'
p589
tp590
Rp591
tp592
a(S'over-the-counter data'
p593
g2
(g6
S'\xfeT\x96\x98\xa8\x04\xcd?'
p594
tp595
Rp596
tp597
a(S'united states of america computing olympiad'
p598
g2
(g6
S'\xf4\x84\xee\xcb\xc7\x02\xcd?'
p599
tp600
Rp601
tp602
a(S'examples of data mining'
p603
g2
(g6
S'~v?;\xd5\xfe\xcc?'
p604
tp605
Rp606
tp607
a(S'attunity'
p608
g2
(g6
S'\x1c\x13uV8\xfd\xcc?'
p609
tp610
Rp611
tp612
a(S'competitive programming'
p613
g2
(g6
S'\xac\x96\x98A\x8f\xfc\xcc?'
p614
tp615
Rp616
tp617
a(S'list of metropolitan areas in europe'
p618
g2
(g6
S'\x08$\xd9-"\xf0\xcc?'
p619
tp620
Rp621
tp622
a(S'sc kakhovka'
p623
g2
(g6
S'\x97\x10\xb0\xa8#\xda\xcc?'
p624
tp625
Rp626
tp627
a(S'secondary data'
p628
g2
(g6
S"b\x15\x8e'8\xc3\xcc?"
p629
tp630
Rp631
tp632
a(S'data steward'
p633
g2
(g6
S'\xf2p\xb4\x8c4\xbf\xcc?'
p634
tp635
Rp636
tp637
a(S'clinical data management'
p638
g2
(g6
S'\xa7\xe3\x1b\xf5\x92\xb3\xcc?'
p639
tp640
Rp641
tp642
a(S'armed conflict location and event data project'
p643
g2
(g6
S'K\xda\xc7\x1a\xf7\x9d\xcc?'
p644
tp645
Rp646
tp647
a(S'data loss'
p648
g2
(g6
S'\xc0A\xa3\x95J\x9d\xcc?'
p649
tp650
Rp651
tp652
a(S'personal, inc.'
p653
g2
(g6
S'I\xaf\xfeqc\x9b\xcc?'
p654
tp655
Rp656
tp657
a(S'express scripts'
p658
g2
(g6
S'\x15\x19\xb4O\xaa\x96\xcc?'
p659
tp660
Rp661
tp662
a(S'data deduplication'
p663
g2
(g6
S'\x14\x1b\n\x1a\xa5\x96\xcc?'
p664
tp665
Rp666
tp667
a(S'open data now'
p668
g2
(g6
S'\xcc\x1f\xdehF\x94\xcc?'
p669
tp670
Rp671
tp672
a(S'metpetdb'
p673
g2
(g6
S'\xcdK2i\xd5\x85\xcc?'
p674
tp675
Rp676
tp677
a(S'inter-university consortium for political and social research'
p678
g2
(g6
S'\xd31L\x80M\x82\xcc?'
p679
tp680
Rp681
tp682
a(S'the govlab'
p683
g2
(g6
S'\\\x93\xec\x00#\x82\xcc?'
p684
tp685
Rp686
tp687
a(S'holistic data management'
p688
g2
(g6
S'\xd5\xdb\xd7Q\xe8\x7f\xcc?'
p689
tp690
Rp691
tp692
a(S'dataveillance'
p693
g2
(g6
S'OD\xcd3\xc2|\xcc?'
p694
tp695
Rp696
tp697
a(S'data governance'
p698
g2
(g6
S'd\xb9\x06\xc8sh\xcc?'
p699
tp700
Rp701
tp702
a(S'opendatasoft'
p703
g2
(g6
S':t\x1fh\xb0c\xcc?'
p704
tp705
Rp706
tp707
a(S'data grid'
p708
g2
(g6
S'\xf4\xe9\xbf\xc6~U\xcc?'
p709
tp710
Rp711
tp712
a(S'competitive dance'
p713
g2
(g6
S'\xf1\xc3\x1b]\xf4I\xcc?'
p714
tp715
Rp716
tp717
a(S'source data'
p718
g2
(g6
S'\xd5\xd5\x1b\xe5\x1eC\xcc?'
p719
tp720
Rp721
tp722
a(S'registry of research data repositories'
p723
g2
(g6
S'x\x13\xaa\xe3hA\xcc?'
p724
tp725
Rp726
tp727
a(S'astroinformatics'
p728
g2
(g6
S'9\x12\xc51\xa1:\xcc?'
p729
tp730
Rp731
tp732
a(S'data literacy'
p733
g2
(g6
S'\xa8~\x127\xb3\x12\xcc?'
p734
tp735
Rp736
tp737
a(S'data center'
p738
g2
(g6
S'\xe8\xf9\x04\x81\x99\x12\xcc?'
p739
tp740
Rp741
tp742
a(S'rcd espanyol in european football'
p743
g2
(g6
S"\xa4\xe6'\n\x9f\r\xcc?"
p744
tp745
Rp746
tp747
a(S'data structure'
p748
g2
(g6
S'\xf6\xa6J\xc1\x8f\xef\xcb?'
p749
tp750
Rp751
tp752
a(S'northern meeting'
p753
g2
(g6
S'\x16\x8a\xad\xee\xe5\xee\xcb?'
p754
tp755
Rp756
tp757
a(S'privacy for research participants'
p758
g2
(g6
S'\xff#0\x19\xd3\xe7\xcb?'
p759
tp760
Rp761
tp762
a(S'datascope analytics'
p763
g2
(g6
S'\x9e5X\x83!\xe7\xcb?'
p764
tp765
Rp766
tp767
a(S'data based decision making'
p768
g2
(g6
S'\xbb\x14R:A\xe3\xcb?'
p769
tp770
Rp771
tp772
a(S'thematic analysis'
p773
g2
(g6
S'\x92\xdc\xcc\x1d\x19\xe3\xcb?'
p774
tp775
Rp776
tp777
a(S'gesis \xe2\x80\x93 leibniz institute for the social sciences'
p778
g2
(g6
S'8\x15\xc81O\xdd\xcb?'
p779
tp780
Rp781
tp782
a(S'market data'
p783
g2
(g6
S'\xf3\x15\xaek\x81\xd5\xcb?'
p784
tp785
Rp786
tp787
a(S'crowdsensing'
p788
g2
(g6
S')b\x8a-N\xd2\xcb?'
p789
tp790
Rp791
tp792
a(S'synthetic data'
p793
g2
(g6
S'B\xab\xe2.~\xd0\xcb?'
p794
tp795
Rp796
tp797
a(S'open data in france'
p798
g2
(g6
S'\x13\xa0\xf0\xfe\x91\xb8\xcb?'
p799
tp800
Rp801
tp802
a(S'rapidminer'
p803
g2
(g6
S'\xcc\xbeH\x01\xf8\xb4\xcb?'
p804
tp805
Rp806
tp807
a(S'open data in the united states'
p808
g2
(g6
S'\x1f\x84\xb6X\x89\x99\xcb?'
p809
tp810
Rp811
tp812
a(S'first step to nobel prize in physics'
p813
g2
(g6
S'\xb2\xdd-4\xea\x97\xcb?'
p814
tp815
Rp816
tp817
a(S'dataversenl'
p818
g2
(g6
S'\x0b\xa3\x0b\x06\x1a\x8a\xcb?'
p819
tp820
Rp821
tp822
a(S'data-centric security'
p823
g2
(g6
S'\xe47\xbeRM\x80\xcb?'
p824
tp825
Rp826
tp827
a(S'national addiction and hiv data archive program'
p828
g2
(g6
S'\xd3\xf8M8|}\xcb?'
p829
tp830
Rp831
tp832
a(S'bundesdatenschutzgesetz'
p833
g2
(g6
S'\x01\xedA\xa9Qw\xcb?'
p834
tp835
Rp836
tp837
a(S'reference data'
p838
g2
(g6
S'\r\xee\xee5Lf\xcb?'
p839
tp840
Rp841
tp842
a(S'world international piano competition'
p843
g2
(g6
S'N2\x12\x7f\xa0a\xcb?'
p844
tp845
Rp846
tp847
a(S'paxata'
p848
g2
(g6
S'Sx|\xa5f^\xcb?'
p849
tp850
Rp851
tp852
a(S'competition'
p853
g2
(g6
S'\x90\xa7\xf2\xe8T\\\xcb?'
p854
tp855
Rp856
tp857
a(S'data protection directive'
p858
g2
(g6
S'N\xe7\x8a\xb2:\\\xcb?'
p859
tp860
Rp861
tp862
a(S'data curation'
p863
g2
(g6
S'\xa3\xf4\xebh\x84U\xcb?'
p864
tp865
Rp866
tp867
a(S'ncsa brown dog'
p868
g2
(g6
S'~\xbc?;\xdaH\xcb?'
p869
tp870
Rp871
tp872
a(S'data profiling'
p873
g2
(g6
S'\xa2\x9c\x1f\xcdHH\xcb?'
p874
tp875
Rp876
tp877
a(S'data lineage'
p878
g2
(g6
S'\x1b[r\xe2QA\xcb?'
p879
tp880
Rp881
tp882
a(S'renaissance computing institute'
p883
g2
(g6
S'H\xa9.\x99;9\xcb?'
p884
tp885
Rp886
tp887
a(S'data loss prevention software'
p888
g2
(g6
S'\x810O/\x824\xcb?'
p889
tp890
Rp891
tp892
a(S'dataadapter'
p893
g2
(g6
S't\x9dH4=1\xcb?'
p894
tp895
Rp896
tp897
a(S'worldmap'
p898
g2
(g6
S'\x93]\xf3\xfaA.\xcb?'
p899
tp900
Rp901
tp902
a(S'structure mining'
p903
g2
(g6
S'\x0b\x98\xf5T\xb1)\xcb?'
p904
tp905
Rp906
tp907
a(S'data verification'
p908
g2
(g6
S'\xff\x0f7\xe1Z%\xcb?'
p909
tp910
Rp911
tp912
a(S'microsoft sql server master data services'
p913
g2
(g6
S'K!Os\xb1!\xcb?'
p914
tp915
Rp916
tp917
a(S'rainstor'
p918
g2
(g6
S'\x85\xd1\x01/\x8f!\xcb?'
p919
tp920
Rp921
tp922
a(S'angoss'
p923
g2
(g6
S'-K\xe0\xd1\x94 \xcb?'
p924
tp925
Rp926
tp927
a(S'indian space science data centre'
p928
g2
(g6
S'0\xefL\xaeO\x1e\xcb?'
p929
tp930
Rp931
tp932
a(S'data-informed decision-making'
p933
g2
(g6
S'\xb8\xff\xde\xc0\x9b\x17\xcb?'
p934
tp935
Rp936
tp937
a(S'esdat'
p938
g2
(g6
S'\xbdq\x11\x91$\x10\xcb?'
p939
tp940
Rp941
tp942
a(S'data portability'
p943
g2
(g6
S'\xc4\xda[\xa8\x06\x0e\xcb?'
p944
tp945
Rp946
tp947
a(S'list of big data companies'
p948
g2
(g6
S'92%\x94\xd2\x0b\xcb?'
p949
tp950
Rp951
tp952
a(S'list of crowdsourcing projects'
p953
g2
(g6
S'\x7fc\x83\xe5\xbd\x07\xcb?'
p954
tp955
Rp956
tp957
a(S'national oceanographic data center'
p958
g2
(g6
S')\xe07\xfa\xa4\x07\xcb?'
p959
tp960
Rp961
tp962
a(S'spss'
p963
g2
(g6
S'F\xb8\x14y/\x07\xcb?'
p964
tp965
Rp966
tp967
a(S'sageworks'
p968
g2
(g6
S'\xe6\x18\xb5L\x97\xfc\xca?'
p969
tp970
Rp971
tp972
a(S'data classification (data management)'
p973
g2
(g6
S'\x9e\xf5\xf3\xb6\r\xf7\xca?'
p974
tp975
Rp976
tp977
a(S'guavus'
p978
g2
(g6
S'f$\xae\x1e\x97\xee\xca?'
p979
tp980
Rp981
tp982
a(S'cisl research data archive'
p983
g2
(g6
S'\x13\x95\x02\xbb\xf6\xec\xca?'
p984
tp985
Rp986
tp987
a(S'professional petroleum data management association'
p988
g2
(g6
S'x\xa3L\x87\xa6\xe8\xca?'
p989
tp990
Rp991
tp992
a(S'ebird'
p993
g2
(g6
S'\xd2A\xe3\x03\xf9\xe1\xca?'
p994
tp995
Rp996
tp997
a(S'global database of events, language, and tone'
p998
g2
(g6
S'0w\x15\xa43\xdd\xca?'
p999
tp1000
Rp1001
tp1002
a(S'predictive analytics'
p1003
g2
(g6
S'\xc4\xb8\xb5\xbel\xdc\xca?'
p1004
tp1005
Rp1006
tp1007
a(S'transducerml'
p1008
g2
(g6
S'{\xd9\xa1\xafS\xcf\xca?'
p1009
tp1010
Rp1011
tp1012
a(S'jane hunter (scientist)'
p1013
g2
(g6
S'K\xca\xb0\xb3\x86\xce\xca?'
p1014
tp1015
Rp1016
tp1017
a(S'clinical data management system'
p1018
g2
(g6
S'\xa1\x93\xda\xf7\xc4\xcb\xca?'
p1019
tp1020
Rp1021
tp1022
a(S'netcdf'
p1023
g2
(g6
S'\x8c\x0f\x86\x8c\xbb\xc8\xca?'
p1024
tp1025
Rp1026
tp1027
a(S'data-intensive computing'
p1028
g2
(g6
S'\x86\x8c\xac\x1e\xfd\xc4\xca?'
p1029
tp1030
Rp1031
tp1032
a(S'data sharing for demographic research'
p1033
g2
(g6
S',\xe3\xcci\xa4\xc4\xca?'
p1034
tp1035
Rp1036
tp1037
a(S'ckan'
p1038
g2
(g6
S'\x91\x9e\x80`\x1e\xc1\xca?'
p1039
tp1040
Rp1041
tp1042
a(S'circalit'
p1043
g2
(g6
S'\x99J\xf9\xe3\x9d\xb2\xca?'
p1044
tp1045
Rp1046
tp1047
a(S'data protection act 1998'
p1048
g2
(g6
S's\xaawgq\xac\xca?'
p1049
tp1050
Rp1051
tp1052
a(S'dataverse'
p1053
g2
(g6
S'n\xdc \xbb\x0b\xa3\xca?'
p1054
tp1055
Rp1056
tp1057
a(S'social media analytics'
p1058
g2
(g6
S'\xe6\xb7ScT\xa0\xca?'
p1059
tp1060
Rp1061
tp1062
a(S'socialcops'
p1063
g2
(g6
S'\xe9\x97\x89\xb9\xa2\x92\xca?'
p1064
tp1065
Rp1066
tp1067
a(S'data redundancy'
p1068
g2
(g6
S'\x0e\x9a\xfe%\xb4\x8e\xca?'
p1069
tp1070
Rp1071
tp1072
a(S'pseudonymization'
p1073
g2
(g6
S'O{\xe6\x17\xee\x80\xca?'
p1074
tp1075
Rp1076
tp1077
a(S'omg standard'
p1078
g2
(g6
S'WMj\xe0F\x7f\xca?'
p1079
tp1080
Rp1081
tp1082
a(S'data in transit'
p1083
g2
(g6
S'\x10\xd77\xb4z~\xca?'
p1084
tp1085
Rp1086
tp1087
a(S'data system'
p1088
g2
(g6
S'\r#\xc66H|\xca?'
p1089
tp1090
Rp1091
tp1092
a(S'aimstor'
p1093
g2
(g6
S'\x90@\xc4\x94\xccy\xca?'
p1094
tp1095
Rp1096
tp1097
a(S'economic data'
p1098
g2
(g6
S'\xad\xe7\x92\xc5,o\xca?'
p1099
tp1100
Rp1101
tp1102
a(S'data forwarder'
p1103
g2
(g6
S'\x00\x87{\xcdJa\xca?'
p1104
tp1105
Rp1106
tp1107
a(S'population informatics'
p1108
g2
(g6
S'\x99\x83\xd9k\tY\xca?'
p1109
tp1110
Rp1111
tp1112
a(S'standard data model'
p1113
g2
(g6
S'E\xc2\xc9\xc2*V\xca?'
p1114
tp1115
Rp1116
tp1117
a(S'data (star trek)'
p1118
g2
(g6
S'*\xa7j\x9e\x99D\xca?'
p1119
tp1120
Rp1121
tp1122
a(S'arcmap'
p1123
g2
(g6
S'\x99\xc9o\x9e\xe1B\xca?'
p1124
tp1125
Rp1126
tp1127
a(S'data janitor'
p1128
g2
(g6
S'FE\x84. =\xca?'
p1129
tp1130
Rp1131
tp1132
a(S'data activism'
p1133
g2
(g6
S'4nP\xc8-\x1d\xca?'
p1134
tp1135
Rp1136
tp1137
a(S'data-driven instruction'
p1138
g2
(g6
S'X\xb14d#\x1d\xca?'
p1139
tp1140
Rp1141
tp1142
a(S'master of science in business analytics'
p1143
g2
(g6
S'\x97\xa9\xa8M\x03\x1a\xca?'
p1144
tp1145
Rp1146
tp1147
a(S'the data incubator'
p1148
g2
(g6
S'\xd8q\xb0\\\xd6\x16\xca?'
p1149
tp1150
Rp1151
tp1152
a(S'datawatch corporation'
p1153
g2
(g6
S'\xc8i\xda\xe0>\x0f\xca?'
p1154
tp1155
Rp1156
tp1157
a(S'out-of-band data'
p1158
g2
(g6
S'X\x99\x9b\x15\x93\n\xca?'
p1159
tp1160
Rp1161
tp1162
a(S'oak ridge national laboratory daac'
p1163
g2
(g6
S'\xe4s\x92bW\x03\xca?'
p1164
tp1165
Rp1166
tp1167
a(S'data pack'
p1168
g2
(g6
S'\xdf\x0f+Nx\x01\xca?'
p1169
tp1170
Rp1171
tp1172
a(S'aggregate data'
p1173
g2
(g6
S',\x04{9\xfd\xff\xc9?'
p1174
tp1175
Rp1176
tp1177
a(S'little flower school, mudinepalli'
p1178
g2
(g6
S'\xaa\xf9\xc4\xcf\xa4\xf8\xc9?'
p1179
tp1180
Rp1181
tp1182
a(S'optimist brain bowl'
p1183
g2
(g6
S'\x8e\x97]i\x0f\xde\xc9?'
p1184
tp1185
Rp1186
tp1187
a(S'educational data mining'
p1188
g2
(g6
S'`\xa7\xd1\x9d\x0e\xd7\xc9?'
p1189
tp1190
Rp1191
tp1192
a(S'songwriting competition'
p1193
g2
(g6
S'O\x17\xdc\xc6\xf2\xcd\xc9?'
p1194
tp1195
Rp1196
tp1197
a(S'medical data breach'
p1198
g2
(g6
S'\xcbO\xe3}\xd0\xcb\xc9?'
p1199
tp1200
Rp1201
tp1202
a(S'data visualization'
p1203
g2
(g6
S'\x9e\xd0b\xdc;\xc7\xc9?'
p1204
tp1205
Rp1206
tp1207
a(S'australian economics and business studies competition'
p1208
g2
(g6
S'\x81\x81\x1a\xe5\xa7\xc5\xc9?'
p1209
tp1210
Rp1211
tp1212
a(S'anna cervantes'
p1213
g2
(g6
S'\x12U\xe3\x98J\xc2\xc9?'
p1214
tp1215
Rp1216
tp1217
a(S'health data consortium'
p1218
g2
(g6
S'\xa6\xfa\\dj\xb8\xc9?'
p1219
tp1220
Rp1221
tp1222
a(S'knime'
p1223
g2
(g6
S'\x83\xf6\x9d\xc4/\xb8\xc9?'
p1224
tp1225
Rp1226
tp1227
a(S'biomedical informatics research network'
p1228
g2
(g6
S'*j\xaa\xdc\xa5\xb7\xc9?'
p1229
tp1230
Rp1231
tp1232
a(S'e-science librarianship'
p1233
g2
(g6
S'\xd8\x15\x08\x08\xb0\xb1\xc9?'
p1234
tp1235
Rp1236
tp1237
a(S'data masking'
p1238
g2
(g6
S'$)!.\xf0\xaf\xc9?'
p1239
tp1240
Rp1241
tp1242
a(S'data remanence'
p1243
g2
(g6
S'\xc3\x99H\x9b\xab\xaa\xc9?'
p1244
tp1245
Rp1246
tp1247
a(S'intelligent maintenance system'
p1248
g2
(g6
S'\xcc\xe9o\xe7\xcb\xa7\xc9?'
p1249
tp1250
Rp1251
tp1252
a(S'pandas (software)'
p1253
g2
(g6
S'qKpu\x8a\xa6\xc9?'
p1254
tp1255
Rp1256
tp1257
a(S'evolutionary data mining'
p1258
g2
(g6
S'!:d8\x93\x96\xc9?'
p1259
tp1260
Rp1261
tp1262
a(S'data east'
p1263
g2
(g6
S'3\xdenT\xd6\x94\xc9?'
p1264
tp1265
Rp1266
tp1267
a(S'data definition specification'
p1268
g2
(g6
S'\xc6\x9bX\x8av\x8e\xc9?'
p1269
tp1270
Rp1271
tp1272
a(S'sunopsis'
p1273
g2
(g6
S'\xba\xa4]\xd1M\x8c\xc9?'
p1274
tp1275
Rp1276
tp1277
a(S'public data group'
p1278
g2
(g6
S'v1\xc3U\x91\x8a\xc9?'
p1279
tp1280
Rp1281
tp1282
a(S'st thomas school, kalyan'
p1283
g2
(g6
S'\xfb\xbeE\xbe\xca\x83\xc9?'
p1284
tp1285
Rp1286
tp1287
a(S'eu open data portal'
p1288
g2
(g6
S'\xbb(\x90zB\x83\xc9?'
p1289
tp1290
Rp1291
tp1292
a(S'data.gov.in'
p1293
g2
(g6
S'\x7f9\x85\x11\r\x80\xc9?'
p1294
tp1295
Rp1296
tp1297
a(S'machine-generated data'
p1298
g2
(g6
S'~b\xa7\xfb\rz\xc9?'
p1299
tp1300
Rp1301
tp1302
a(S'data.gov'
p1303
g2
(g6
S';<\x97\xefew\xc9?'
p1304
tp1305
Rp1306
tp1307
a(S'weka (machine learning)'
p1308
g2
(g6
S'9\xd4X@\x01v\xc9?'
p1309
tp1310
Rp1311
tp1312
a(S'hierarchical data format'
p1313
g2
(g6
S'\xd2hG+\xb9u\xc9?'
p1314
tp1315
Rp1316
tp1317
a(S'eureqa'
p1318
g2
(g6
S'\x0f\x9d8\xdd\xfcm\xc9?'
p1319
tp1320
Rp1321
tp1322
a(S'integrative bioinformatics'
p1323
g2
(g6
S'$\xc53\x9f\xf0l\xc9?'
p1324
tp1325
Rp1326
tp1327
a(S'platfora'
p1328
g2
(g6
S'\x11\xaeA\xbb\x8fk\xc9?'
p1329
tp1330
Rp1331
tp1332
a(S'pidba: the paleoindian database of the americas'
p1333
g2
(g6
S'\xc4\xd4N\x92\xd6g\xc9?'
p1334
tp1335
Rp1336
tp1337
a(S'list of financial data feeds'
p1338
g2
(g6
S'\xc6Z\xa2\xe4 f\xc9?'
p1339
tp1340
Rp1341
tp1342
a(S'infobright'
p1343
g2
(g6
S'f2\x16C\x80d\xc9?'
p1344
tp1345
Rp1346
tp1347
a(S'behavioral script'
p1348
g2
(g6
S'\x0c\x8cY?\xe1c\xc9?'
p1349
tp1350
Rp1351
tp1352
a(S'comotion'
p1353
g2
(g6
S'\xc55\x8b9R^\xc9?'
p1354
tp1355
Rp1356
tp1357
a(S'1916 new zealand rugby league season'
p1358
g2
(g6
S'\xf4W\x8c%j]\xc9?'
p1359
tp1360
Rp1361
tp1362
a(S'british oceanographic data centre'
p1363
g2
(g6
S'\xed\xcc\xe5\xa3\xac[\xc9?'
p1364
tp1365
Rp1366
tp1367
a(S'dirty data'
p1368
g2
(g6
S'T\x19k\xd9\xdcZ\xc9?'
p1369
tp1370
Rp1371
tp1372
a(S'quartile'
p1373
g2
(g6
S'{\xa7\xab\xce\x0cZ\xc9?'
p1374
tp1375
Rp1376
tp1377
a(S'data logger'
p1378
g2
(g6
S'\xc8 \xdb>2V\xc9?'
p1379
tp1380
Rp1381
tp1382
a(S'cofio software'
p1383
g2
(g6
S'\x7fl\xee\x9d\xc9K\xc9?'
p1384
tp1385
Rp1386
tp1387
a(S'data residency'
p1388
g2
(g6
S'7\x88D\xa4\xebH\xc9?'
p1389
tp1390
Rp1391
tp1392
a(S'future problem solving program international'
p1393
g2
(g6
S'\xab\x03m6\xa9F\xc9?'
p1394
tp1395
Rp1396
tp1397
a(S'pawel lewicki'
p1398
g2
(g6
S'P\xaf\x98~\xa29\xc9?'
p1399
tp1400
Rp1401
tp1402
a(S'xaware'
p1403
g2
(g6
S'\xe8\xfb\x9e\x85\xc28\xc9?'
p1404
tp1405
Rp1406
tp1407
a(S'national space science data center'
p1408
g2
(g6
S'$\xe0\xee,\x858\xc9?'
p1409
tp1410
Rp1411
tp1412
a(S'datameet'
p1413
g2
(g6
S'\xc5p\xe3\xfb\xac6\xc9?'
p1414
tp1415
Rp1416
tp1417
a(S'data element'
p1418
g2
(g6
S'\x8e\x9b/\xda\xce4\xc9?'
p1419
tp1420
Rp1421
tp1422
a(S'data extraction'
p1423
g2
(g6
S'\xf9\x88Yt\xa64\xc9?'
p1424
tp1425
Rp1426
tp1427
a(S'prosoft engineering'
p1428
g2
(g6
S'9L\xb8\xa9l2\xc9?'
p1429
tp1430
Rp1431
tp1432
a(S'e-science'
p1433
g2
(g6
S'\xb7\xc37\xc8\xe61\xc9?'
p1434
tp1435
Rp1436
tp1437
a(S'common education data standards'
p1438
g2
(g6
S'\xe9\x93\x1d\x1b&0\xc9?'
p1439
tp1440
Rp1441
tp1442
a(S'netflix prize'
p1443
g2
(g6
S'4{\x0eA\x9f/\xc9?'
p1444
tp1445
Rp1446
tp1447
a(S'general data protection regulation'
p1448
g2
(g6
S',\xf7~\xd6\xdd)\xc9?'
p1449
tp1450
Rp1451
tp1452
a(S'zaloni'
p1453
g2
(g6
S"!\x92\x9a\xfaY'\xc9?"
p1454
tp1455
Rp1456
tp1457
a(S'quantifind'
p1458
g2
(g6
S'\x02\xbd\xd9Z\x87%\xc9?'
p1459
tp1460
Rp1461
tp1462
a(S'bs iso 20022-1'
p1463
g2
(g6
S"'\xfd\xa4:1%\xc9?"
p1464
tp1465
Rp1466
tp1467
a(S'disparate system'
p1468
g2
(g6
S'\xe9\xce\\\xa3\x83#\xc9?'
p1469
tp1470
Rp1471
tp1472
a(S'figure skating competition'
p1473
g2
(g6
S'CI\xe7\xd8\x10#\xc9?'
p1474
tp1475
Rp1476
tp1477
a(S'data corruption'
p1478
g2
(g6
S'\x1d4H\x81_\x1a\xc9?'
p1479
tp1480
Rp1481
tp1482
a(S'dortmund data bank'
p1483
g2
(g6
S'1\xaa\x06c\xc5\x17\xc9?'
p1484
tp1485
Rp1486
tp1487
a(S'data fusion'
p1488
g2
(g6
S'\x8e\xa4\xf33o\x12\xc9?'
p1489
tp1490
Rp1491
tp1492
a(S'drew conway'
p1493
g2
(g6
S'\xcag\xe7\xb3\x8d\x11\xc9?'
p1494
tp1495
Rp1496
tp1497
a(S'phpcodegenie'
p1498
g2
(g6
S'\xc8X\xd7cS\x07\xc9?'
p1499
tp1500
Rp1501
tp1502
a(S'unnormalized form'
p1503
g2
(g6
S'\xe9\xc1\x86\x15\xce\x04\xc9?'
p1504
tp1505
Rp1506
tp1507
a(S'multidimensional analysis'
p1508
g2
(g6
S'9\xbf2\xda\xb3\x03\xc9?'
p1509
tp1510
Rp1511
tp1512
a.