(lp0
(S'knowledge sharing'
p1
cnumpy.core.multiarray
scalar
p2
(cnumpy
dtype
p3
(S'f8'
p4
I0
I1
tp5
Rp6
(I3
S'<'
p7
NNNI-1
I-1
I0
tp8
bS'\xfe\xff\xff\xff\xff\xff\xef?'
p9
tp10
Rp11
tp12
a(S'outline of knowledge'
p13
g2
(g6
S'\xd1`\x9d\xbd\xae\x1e\xea?'
p14
tp15
Rp16
tp17
a(S'knowledge management'
p18
g2
(g6
S'\xdb@C\x10.\xa1\xe9?'
p19
tp20
Rp21
tp22
a(S'knowledge transfer'
p23
g2
(g6
S')a\xfb}d^\xe8?'
p24
tp25
Rp26
tp27
a(S'knowledge'
p28
g2
(g6
S'\x8c\xdfJn\x02G\xe7?'
p29
tp30
Rp31
tp32
a(S'knowledge worker'
p33
g2
(g6
S'+\x04\x88\xc7v<\xe7?'
p34
tp35
Rp36
tp37
a(S'chief knowledge officer'
p38
g2
(g6
S'\xf6(\xb0\xf4W\x05\xe7?'
p39
tp40
Rp41
tp42
a(S'descriptive knowledge'
p43
g2
(g6
S'\xae\xe1\xc6\xc6\x97\xe0\xe5?'
p44
tp45
Rp46
tp47
a(S'knowledge society'
p48
g2
(g6
S'Z\x1f\x85\x15r\xcc\xe5?'
p49
tp50
Rp51
tp52
a(S'knowledge market'
p53
g2
(g6
S'\x98s\xafzJ\xc5\xe5?'
p54
tp55
Rp56
tp57
a(S'knowledge organization (management)'
p58
g2
(g6
S'\xf2\xeb\x022b\x9e\xe5?'
p59
tp60
Rp61
tp62
a(S'personal knowledge management'
p63
g2
(g6
S'\xc6|\xe5x\xe5!\xe5?'
p64
tp65
Rp66
tp67
a(S'knowledge by presence'
p68
g2
(g6
S'\x86\xb2\xff\xa0\xb4\xc0\xe4?'
p69
tp70
Rp71
tp72
a(S'tacit knowledge'
p73
g2
(g6
S'{\x86\xdeh\x1ed\xe4?'
p74
tp75
Rp76
tp77
a(S'knowledge value chain'
p78
g2
(g6
S'\x8b\x99;U\x8b_\xe4?'
p79
tp80
Rp81
tp82
a(S'knowledge entrepreneurship'
p83
g2
(g6
S'#F\x17\xf1\xa7^\xe4?'
p84
tp85
Rp86
tp87
a(S'knowledge ecosystem'
p88
g2
(g6
S'\x18\xbc\xf3;g?\xe4?'
p89
tp90
Rp91
tp92
a(S'methods of obtaining knowledge'
p93
g2
(g6
S'&\xb8\x96\x16\xe0)\xe4?'
p94
tp95
Rp96
tp97
a(S'knowledge divide'
p98
g2
(g6
S'\xc8\xe5`\xf4\x07\x1d\xe4?'
p99
tp100
Rp101
tp102
a(S'knowledge broker'
p103
g2
(g6
S'\xcd\xd7FR\\\x13\xe4?'
p104
tp105
Rp106
tp107
a(S'social knowledge management'
p108
g2
(g6
S'\x82c;\xab\xe8\x07\xe4?'
p109
tp110
Rp111
tp112
a(S'explicit knowledge'
p113
g2
(g6
S'\x10n6\x8e\xba\xf1\xe3?'
p114
tp115
Rp116
tp117
a(S'knowledge economy'
p118
g2
(g6
S'\x98M3\xd8\x0b\xe7\xe3?'
p119
tp120
Rp121
tp122
a(S'seci model of knowledge dimensions'
p123
g2
(g6
S'\x8d\xb8~)\xec\xd3\xe3?'
p124
tp125
Rp126
tp127
a(S'knowledge value'
p128
g2
(g6
S'`\xf5\x0f\xf9&\xc5\xe3?'
p129
tp130
Rp131
tp132
a(S'knowledge community'
p133
g2
(g6
S'q([\xf6\x9f\x9f\xe3?'
p134
tp135
Rp136
tp137
a(S'customer knowledge'
p138
g2
(g6
S'A5\xde\x19d\x80\xe3?'
p139
tp140
Rp141
tp142
a(S'the knowledge (disambiguation)'
p143
g2
(g6
S'\xa5\xe3\xa7\x10\xb9|\xe3?'
p144
tp145
Rp146
tp147
a(S'knowledge (disambiguation)'
p148
g2
(g6
S'\xf0\xd3\xac|5T\xe3?'
p149
tp150
Rp151
tp152
a(S'organizational memory'
p153
g2
(g6
S'qgPE\x191\xe3?'
p154
tp155
Rp156
tp157
a(S'encapsulated knowledge'
p158
g2
(g6
S'\x86ia-\xc3\x0b\xe3?'
p159
tp160
Rp161
tp162
a(S'general knowledge'
p163
g2
(g6
S'\xb6\\q\nB\xe6\xe2?'
p164
tp165
Rp166
tp167
a(S'knowledge building'
p168
g2
(g6
S'5\x82\x06\xd5\xef\xa5\xe2?'
p169
tp170
Rp171
tp172
a(S'knowledge building community'
p173
g2
(g6
S'\xf8)\xdeN\xe3\xa4\xe2?'
p174
tp175
Rp176
tp177
a(S'body of knowledge'
p178
g2
(g6
S'8s;\xb5s\x84\xe2?'
p179
tp180
Rp181
tp182
a(S'knowledge modeling'
p183
g2
(g6
S',\xc0\x16\x1f\x9d2\xe2?'
p184
tp185
Rp186
tp187
a(S'air force knowledge now'
p188
g2
(g6
S'\xff\x94X\x8a\xae\x08\xe2?'
p189
tp190
Rp191
tp192
a(S'knowledge-based systems'
p193
g2
(g6
S'\xe9V^\xf6v\xf8\xe1?'
p194
tp195
Rp196
tp197
a(S'inert knowledge'
p198
g2
(g6
S'}Q\x06\x01)\xe0\xe1?'
p199
tp200
Rp201
tp202
a(S'knowledge base'
p203
g2
(g6
S'zbb\xfb\xea\xa4\xe1?'
p204
tp205
Rp206
tp207
a(S'knowledge mobilization'
p208
g2
(g6
S']C\xe2\xf9)\xa4\xe1?'
p209
tp210
Rp211
tp212
a(S'list of knowledge management concepts'
p213
g2
(g6
S'6\x7f\xb0\x12\x1f\xa2\xe1?'
p214
tp215
Rp216
tp217
a(S'organizational learning'
p218
g2
(g6
S'e\xe3\x90/\xc0w\xe1?'
p219
tp220
Rp221
tp222
a(S'open knowledge base connectivity'
p223
g2
(g6
S'\xdb6\xa2\xc0!=\xe1?'
p224
tp225
Rp226
tp227
a(S'knowledge-based theory of the firm'
p228
g2
(g6
S'2\xcfT$@\x17\xe1?'
p229
tp230
Rp231
tp232
a(S'common knowledge'
p233
g2
(g6
S'\x99\xd4\x03A:\xe9\xe0?'
p234
tp235
Rp236
tp237
a(S'dynamic knowledge repository'
p238
g2
(g6
S'+\xcd"\x01+\xe5\xe0?'
p239
tp240
Rp241
tp242
a(S'traditional knowledge'
p243
g2
(g6
S'\x8e\x1f\xac{\xad\xc6\xe0?'
p244
tp245
Rp246
tp247
a(S'knowledge environment'
p248
g2
(g6
S'\xba#N+\xae\xc0\xe0?'
p249
tp250
Rp251
tp252
a(S'dispersed knowledge'
p253
g2
(g6
S'\x1a\xdd\x1e\xe8h\xb3\xe0?'
p254
tp255
Rp256
tp257
a(S'vidya (knowledge)'
p258
g2
(g6
S'\xc5\x94\xb9\xa2"\x9e\xe0?'
p259
tp260
Rp261
tp262
a(S'knowledge space'
p263
g2
(g6
S'\xeag\xf8\x9b+\x9b\xe0?'
p264
tp265
Rp266
tp267
a(S'knowledge assessment methodology'
p268
g2
(g6
S'\xc9f\xecB\x8c\x8f\xe0?'
p269
tp270
Rp271
tp272
a(S'domain knowledge'
p273
g2
(g6
S'1\xbfm\x8e^\x8b\xe0?'
p274
tp275
Rp276
tp277
a(S'procedural knowledge'
p278
g2
(g6
S'#\xcdXEI\x84\xe0?'
p279
tp280
Rp281
tp282
a(S'mutual knowledge (logic)'
p283
g2
(g6
S'\x10\xf5!\xe5\xa3\x82\xe0?'
p284
tp285
Rp286
tp287
a(S'vipassan\xc4\x81-\xc3\xb1\xc4\x81\xe1\xb9\x87a'
p288
g2
(g6
S' \x99\x00\xba\xbfX\xe0?'
p289
tp290
Rp291
tp292
a(S'dikw pyramid'
p293
g2
(g6
S'\xb0\xfeK\xbfYM\xe0?'
p294
tp295
Rp296
tp297
a(S'free knowledge institute'
p298
g2
(g6
S'CJ\x9b\x99\xaa7\xe0?'
p299
tp300
Rp301
tp302
a(S'theory of knowledge (ib course)'
p303
g2
(g6
S'\x1bni\x95\xb73\xe0?'
p304
tp305
Rp306
tp307
a(S'electronic journal of knowledge management'
p308
g2
(g6
S'\xb2\xbe\x8c\xe6}!\xe0?'
p309
tp310
Rp311
tp312
a(S'canadian it body of knowledge'
p313
g2
(g6
S'\x01\x1d\x92\x9b;\x16\xe0?'
p314
tp315
Rp316
tp317
a(S'sharing'
p318
g2
(g6
S"\xd4B'MB\x0b\xe0?"
p319
tp320
Rp321
tp322
a(S'knowledge engine'
p323
g2
(g6
S'\x9b\x16\nS\xc6\x08\xe0?'
p324
tp325
Rp326
tp327
a(S'nuclear knowledge management'
p328
g2
(g6
S'"\x93\xbf_\x83\x08\xe0?'
p329
tp330
Rp331
tp332
a(S'knowledge acquisition and documentation structuring'
p333
g2
(g6
S'\x15\x07tT"\xe6\xdf?'
p334
tp335
Rp336
tp337
a(S'knowledgebase manager pro'
p338
g2
(g6
S'\xbf5\xf3\xdf\xd7\xd2\xdf?'
p339
tp340
Rp341
tp342
a(S'international society for knowledge organization'
p343
g2
(g6
S'g\xfa/\xe5\xd9\xcd\xdf?'
p344
tp345
Rp346
tp347
a(S'personal knowledge networking'
p348
g2
(g6
S'\xde\xbb\xcb\x9eH\xb3\xdf?'
p349
tp350
Rp351
tp352
a(S'computational knowledge economy'
p353
g2
(g6
S';\x04 K\xac\x98\xdf?'
p354
tp355
Rp356
tp357
a(S'new knowledge worker of korea'
p358
g2
(g6
S'\x08\x04\x1f\xb6o\x8d\xdf?'
p359
tp360
Rp361
tp362
a(S'knowledge enterprise'
p363
g2
(g6
S'\x11\x9a\x82AF\x8a\xdf?'
p364
tp365
Rp366
tp367
a(S'jnana'
p368
g2
(g6
S'\x16\xe7\xac\xa5\xac]\xdf?'
p369
tp370
Rp371
tp372
a(S'knowledge integration'
p373
g2
(g6
S')\xa5\x14\x07*F\xdf?'
p374
tp375
Rp376
tp377
a(S'knowledge forum'
p378
g2
(g6
S'\xfb>\x03\xcd\xa0%\xdf?'
p379
tp380
Rp381
tp382
a(S'cyc'
p383
g2
(g6
S'\x80p\xa0s7\xd7\xde?'
p384
tp385
Rp386
tp387
a(S'core knowledge foundation'
p388
g2
(g6
S'B@\x0b\xa8\xb9\xb4\xde?'
p389
tp390
Rp391
tp392
a(S'new knowledge farmer of korea'
p393
g2
(g6
S'\x13g\xa9\xf6\xfd\xa6\xde?'
p394
tp395
Rp396
tp397
a(S'knowledge network'
p398
g2
(g6
S'lH\x02\xd6\x96 \xde?'
p399
tp400
Rp401
tp402
a(S'kbe (disambiguation)'
p403
g2
(g6
S'\xe6\xc4\x1d\x97@\x18\xde?'
p404
tp405
Rp406
tp407
a(S'experiential knowledge'
p408
g2
(g6
S'qfw\x0es\x0b\xde?'
p409
tp410
Rp411
tp412
a(S'epistemology'
p413
g2
(g6
S'\xfc#\x1a\xf3\x92\x03\xde?'
p414
tp415
Rp416
tp417
a(S'knowledge representation and reasoning'
p418
g2
(g6
S'h\x91\x93U\x18\xee\xdd?'
p419
tp420
Rp421
tp422
a(S'high performance knowledge bases'
p423
g2
(g6
S'\x08\x97\xfc\xd5\xb6\x9f\xdd?'
p424
tp425
Rp426
tp427
a(S'design knowledge'
p428
g2
(g6
S'\x15\xb96{4\x9b\xdd?'
p429
tp430
Rp431
tp432
a(S'knowledge utilization research center'
p433
g2
(g6
S'\x98B\xde\x80\x1f\x82\xdd?'
p434
tp435
Rp436
tp437
a(S'knowledge level'
p438
g2
(g6
S'A\x1c\xf8\xc2\xbd\x80\xdd?'
p439
tp440
Rp441
tp442
a(S'jain epistemology'
p443
g2
(g6
S'$\xb0\x9b\xa4&\x80\xdd?'
p444
tp445
Rp446
tp447
a(S'knowledge caf\xc3\xa9'
p448
g2
(g6
S'\xe9\xc4\x15(hm\xdd?'
p449
tp450
Rp451
tp452
a(S'knowledge vault'
p453
g2
(g6
S'qxL*\xd4K\xdd?'
p454
tp455
Rp456
tp457
a(S'distributed knowledge'
p458
g2
(g6
S'i\x18\x9eo\xe1D\xdd?'
p459
tp460
Rp461
tp462
a(S'social cognitive optimization'
p463
g2
(g6
S'\x00}x\xf4\xf0=\xdd?'
p464
tp465
Rp466
tp467
a(S'local knowledge problem'
p468
g2
(g6
S'\x92\x8bE\xf6Z+\xdd?'
p469
tp470
Rp471
tp472
a(S'd&d km-it'
p473
g2
(g6
S'\x01\x06=\xa5\x8f\x11\xdd?'
p474
tp475
Rp476
tp477
a(S'knowledge query and manipulation language'
p478
g2
(g6
S'R\xb1\xd7.\xc7\r\xdd?'
p479
tp480
Rp481
tp482
a(S'classora'
p483
g2
(g6
S'\xf3V\xe1\x07\xd9\xd9\xdc?'
p484
tp485
Rp486
tp487
a(S'tribal knowledge'
p488
g2
(g6
S'\xbd\xbb}\x92\xa4\xb6\xdc?'
p489
tp490
Rp491
tp492
a(S'tree of knowledge'
p493
g2
(g6
S'\xa2\x0f\t)h\xb5\xdc?'
p494
tp495
Rp496
tp497
a(S'knowledge engineer'
p498
g2
(g6
S'\xb2\xa3S\xd3\xdb\xb1\xdc?'
p499
tp500
Rp501
tp502
a(S'core knowledge uk'
p503
g2
(g6
S'\xca\xb2\xbb\x04\xc0\x8c\xdc?'
p504
tp505
Rp506
tp507
a(S'aparoksha'
p508
g2
(g6
S'\xe3\xe2\xdf\x9b#\x85\xdc?'
p509
tp510
Rp511
tp512
a(S'personal knowledge base'
p513
g2
(g6
S'C\xcc\xb7\xe2\xd6w\xdc?'
p514
tp515
Rp516
tp517
a(S'francisco javier carrillo gamboa'
p518
g2
(g6
S'\x15\xcf\x05Y\xe5$\xdc?'
p519
tp520
Rp521
tp522
a(S'knowledge plaza'
p523
g2
(g6
S'sjY\\\xf7\x1f\xdc?'
p524
tp525
Rp526
tp527
a(S'knowledge commons'
p528
g2
(g6
S'dI\x8f\x7f\xc1\x12\xdc?'
p529
tp530
Rp531
tp532
a(S'marlene scardamalia'
p533
g2
(g6
S's]\xcd\xbd\x05\x04\xdc?'
p534
tp535
Rp536
tp537
a(S'open knowledge'
p538
g2
(g6
S'k\x1fG\xc7\xf8\xc2\xdb?'
p539
tp540
Rp541
tp542
a(S'knowledge graph'
p543
g2
(g6
S'\xdf\xcb\xf1U\x8b\xa9\xdb?'
p544
tp545
Rp546
tp547
a(S'knowledge level modeling'
p548
g2
(g6
S'X:\xc9\xdd\xde\x86\xdb?'
p549
tp550
Rp551
tp552
a(S'proof of knowledge'
p553
g2
(g6
S'\xf4\xf3}#?u\xdb?'
p554
tp555
Rp556
tp557
a(S'knowledge gap hypothesis'
p558
g2
(g6
S'\x838}q\xd9q\xdb?'
p559
tp560
Rp561
tp562
a(S'gnosology'
p563
g2
(g6
S'B<\xa4"\xc0m\xdb?'
p564
tp565
Rp566
tp567
a(S'metaknowledge'
p568
g2
(g6
S'\x10\x06\xff\xd3Lm\xdb?'
p569
tp570
Rp571
tp572
a(S'interface position'
p573
g2
(g6
S'w\x98\xb2\xdb(U\xdb?'
p574
tp575
Rp576
tp577
a(S'k-commerce'
p578
g2
(g6
S'\xe9\x9c?\x83\xfc#\xdb?'
p579
tp580
Rp581
tp582
a(S'knowledge engineering'
p583
g2
(g6
S'\xf5=8\x0e\x97"\xdb?'
p584
tp585
Rp586
tp587
a(S'purvas'
p588
g2
(g6
S'8\x1b\x88\x18\xca\x14\xdb?'
p589
tp590
Rp591
tp592
a(S'eolas (disambiguation)'
p593
g2
(g6
S'\xb9+\xba\xe4\x05\x0b\xdb?'
p594
tp595
Rp596
tp597
a(S'ripple-down rules'
p598
g2
(g6
S'\xf7\xcb\xe3p\x9f\xfc\xda?'
p599
tp600
Rp601
tp602
a(S'lognet'
p603
g2
(g6
S'e%o=\xb0\xf1\xda?'
p604
tp605
Rp606
tp607
a(S'asia-pacific telecentre network'
p608
g2
(g6
S'\xd6\x0b\x86\nZ\xdb\xda?'
p609
tp610
Rp611
tp612
a(S'knowledge neglect'
p613
g2
(g6
S'\xe6\xb1\xcbj\x7f\xd9\xda?'
p614
tp615
Rp616
tp617
a(S'rashid kausar'
p618
g2
(g6
S'\x83\xfe\xb2&S\xd4\xda?'
p619
tp620
Rp621
tp622
a(S'i-space'
p623
g2
(g6
S'A\x99\xae\xc2\x8f\xcf\xda?'
p624
tp625
Rp626
tp627
a(S'common knowledge (logic)'
p628
g2
(g6
S'\xae\t\xa2\xcct\x9a\xda?'
p629
tp630
Rp631
tp632
a(S'new club of paris'
p633
g2
(g6
S'\xd6\xdb\xba\xa0\n\x93\xda?'
p634
tp635
Rp636
tp637
a(S'the knowledge academy'
p638
g2
(g6
S'\xcd7*-~\x8a\xda?'
p639
tp640
Rp641
tp642
a(S'lee shulman'
p643
g2
(g6
S'EB6!\x1dO\xda?'
p644
tp645
Rp646
tp647
a(S'knowledge policy'
p648
g2
(g6
S"'8\r7\xf8M\xda?"
p649
tp650
Rp651
tp652
a(S'symbol level'
p653
g2
(g6
S'`\xc7\xca\xcd\xd2\x11\xda?'
p654
tp655
Rp656
tp657
a(S'knowledge machine'
p658
g2
(g6
S'S\xbb<z?\xb0\xd9?'
p659
tp660
Rp661
tp662
a(S'knowledge based community sharing system'
p663
g2
(g6
S'/\x00\x06\xecF\xaf\xd9?'
p664
tp665
Rp666
tp667
a(S'cognitive assets'
p668
g2
(g6
S'\xe2<\xcc\xdak\x80\xd9?'
p669
tp670
Rp671
tp672
a(S"women's ways of knowing"
p673
g2
(g6
S'A\xe3\xbd\x03+Y\xd9?'
p674
tp675
Rp676
tp677
a(S'knowledge collection from volunteer contributors'
p678
g2
(g6
S'\xfb\x84\x01E\xf8M\xd9?'
p679
tp680
Rp681
tp682
a(S'power-knowledge'
p683
g2
(g6
S'\xff\xdd\xc1\x01\xa7L\xd9?'
p684
tp685
Rp686
tp687
a(S'openurl knowledge base'
p688
g2
(g6
S'\x9aj9uGI\xd9?'
p689
tp690
Rp691
tp692
a(S'wirearchy'
p693
g2
(g6
S'\x92\xfdB\xc9fC\xd9?'
p694
tp695
Rp696
tp697
a(S'ibtina theory'
p698
g2
(g6
S'%\x97\xec\t\xf4\x07\xd9?'
p699
tp700
Rp701
tp702
a(S'integrated collaboration environment'
p703
g2
(g6
S'\xe0\x86Z\xc3\xb3\x06\xd9?'
p704
tp705
Rp706
tp707
a(S'selfsourcing'
p708
g2
(g6
S'\xec8\xac\x81\x9a\x04\xd9?'
p709
tp710
Rp711
tp712
a(S'configuration design'
p713
g2
(g6
S'\xab\x8b\xe9\xde\xf8\xe2\xd8?'
p714
tp715
Rp716
tp717
a(S'evi (software)'
p718
g2
(g6
S'Q\x05\x1a\x8ca\xd9\xd8?'
p719
tp720
Rp721
tp722
a(S'knowledge management professional society'
p723
g2
(g6
S'\xa2E$\xe6,\xd4\xd8?'
p724
tp725
Rp726
tp727
a(S'journal of knowledge management'
p728
g2
(g6
S'd\x84\xbdb\x8c\xcd\xd8?'
p729
tp730
Rp731
tp732
a(S'zero-knowledge proof'
p733
g2
(g6
S'L\xbc].\xb4\xbc\xd8?'
p734
tp735
Rp736
tp737
a(S'transactive memory'
p738
g2
(g6
S'k\x0bg*\x06\x92\xd8?'
p739
tp740
Rp741
tp742
a(S'corporate amnesia'
p743
g2
(g6
S'h\x9cQ>\xa3|\xd8?'
p744
tp745
Rp746
tp747
a(S'knowledge organization system'
p748
g2
(g6
S'oY9Y\x9ct\xd8?'
p749
tp750
Rp751
tp752
a(S'mutual knowledge'
p753
g2
(g6
S'dAA\x01\xe9`\xd8?'
p754
tp755
Rp756
tp757
a(S'd3web'
p758
g2
(g6
S'`\xf7\xd6\xd2\xd0L\xd8?'
p759
tp760
Rp761
tp762
a(S'knowledge deficit'
p763
g2
(g6
S'F\x88\xd5\xc2\xf9/\xd8?'
p764
tp765
Rp766
tp767
a(S'chronosophy'
p768
g2
(g6
S'\xfe\xd3bE\xb8$\xd8?'
p769
tp770
Rp771
tp772
a(S'encyclopedic knowledge'
p773
g2
(g6
S'\x1afd\xef\xef#\xd8?'
p774
tp775
Rp776
tp777
a(S'network-centric organization'
p778
g2
(g6
S'\xd4\xa0E\xe5}\n\xd8?'
p779
tp780
Rp781
tp782
a(S'half-life of knowledge'
p783
g2
(g6
S'\xda\xe5\xa6$f\xfd\xd7?'
p784
tp785
Rp786
tp787
a(S'metacognition'
p788
g2
(g6
S'\x88\xa8\xe28\x8b\xfb\xd7?'
p789
tp790
Rp791
tp792
a(S'kindercare education'
p793
g2
(g6
S'\x19\xf8\xebR\x8b\xef\xd7?'
p794
tp795
Rp796
tp797
a(S'access to knowledge movement'
p798
g2
(g6
S'\x98\x15\xc8\x07\xfc\xcd\xd7?'
p799
tp800
Rp801
tp802
a(S'jijnasa'
p803
g2
(g6
S'\xb3\x85\xcf\xebY\xc4\xd7?'
p804
tp805
Rp806
tp807
a(S'anuvyavasaya'
p808
g2
(g6
S'\x8a\x05p\x19`\xbc\xd7?'
p809
tp810
Rp811
tp812
a(S'knowledge transferring assessment'
p813
g2
(g6
S'X{\xde\xd8\xd3\xb8\xd7?'
p814
tp815
Rp816
tp817
a(S'contextualism'
p818
g2
(g6
S'\x0e]\n\xe2;\xa7\xd7?'
p819
tp820
Rp821
tp822
a(S'tom gruber'
p823
g2
(g6
S'\xf0\xe7\xf9\xfb\x9c\x9d\xd7?'
p824
tp825
Rp826
tp827
a(S'knowledge river'
p828
g2
(g6
S'\xd5\xeb\x80Y\xf1\x9c\xd7?'
p829
tp830
Rp831
tp832
a(S'free knowledge foundation'
p833
g2
(g6
S'\x92\x1c\xb9\xef=\x7f\xd7?'
p834
tp835
Rp836
tp837
a(S'knowledge search'
p838
g2
(g6
S'\xc3z\xd7\xb7\xdfN\xd7?'
p839
tp840
Rp841
tp842
a(S'gnosiology'
p843
g2
(g6
S'\x84[\xfb\xc8\xbcM\xd7?'
p844
tp845
Rp846
tp847
a(S'history of knowledge'
p848
g2
(g6
S'\xcb\xfa\x96\x12<3\xd7?'
p849
tp850
Rp851
tp852
a(S'bob wielinga'
p853
g2
(g6
S'\xda\xcd\xedA\x7f&\xd7?'
p854
tp855
Rp856
tp857
a(S'knowledge-based engineering'
p858
g2
(g6
S'q\x92E,\x95\x10\xd7?'
p859
tp860
Rp861
tp862
a(S'know-how trading'
p863
g2
(g6
S'\xbb\x07\xba\xdc\x92\x06\xd7?'
p864
tp865
Rp866
tp867
a(S'karnataka knowledge commission'
p868
g2
(g6
S'e?\x92\xf9\xb2\x02\xd7?'
p869
tp870
Rp871
tp872
a(S'gnosis'
p873
g2
(g6
S'\xbbOU`\xe4\xfd\xd6?'
p874
tp875
Rp876
tp877
a(S'guy st. clair'
p878
g2
(g6
S'\xd88\xd8T\xad\xfb\xd6?'
p879
tp880
Rp881
tp882
a(S'on practice'
p883
g2
(g6
S'\x0f\xfe\xf7\x96\x1c\xd5\xd6?'
p884
tp885
Rp886
tp887
a(S'mode 2'
p888
g2
(g6
S'\xb2\xef>\x93\xbf\xcc\xd6?'
p889
tp890
Rp891
tp892
a(S'henry t. laurency'
p893
g2
(g6
S'\xe8m\xb9\xac\x85\xba\xd6?'
p894
tp895
Rp896
tp897
a(S'community of practice'
p898
g2
(g6
S'\xf6\xdep\x83\xe2\xa7\xd6?'
p899
tp900
Rp901
tp902
a(S'intelligence in nature'
p903
g2
(g6
S'`F\xc3w\x82\x95\xd6?'
p904
tp905
Rp906
tp907
a(S'open knowledge international'
p908
g2
(g6
S'=\xbdi\x88\x9al\xd6?'
p909
tp910
Rp911
tp912
a(S'knowledge organization (journal)'
p913
g2
(g6
S'\xc8\xd4A\xbe\x95j\xd6?'
p914
tp915
Rp916
tp917
a(S'knowledge survey'
p918
g2
(g6
S'\x04W\xfb\xfcBi\xd6?'
p919
tp920
Rp921
tp922
a(S'knowledge (legal construct)'
p923
g2
(g6
S'c\xc1\xb0\xff\x8cc\xd6?'
p924
tp925
Rp926
tp927
a(S'knowledge web'
p928
g2
(g6
S'\x8a\xfa\x04G\xd6U\xd6?'
p929
tp930
Rp931
tp932
a(S'pablo mach\xc3\xb3n'
p933
g2
(g6
S'\x06\x9d{\x93PO\xd6?'
p934
tp935
Rp936
tp937
a(S'kevin desouza'
p938
g2
(g6
S'\x0c\xec\x86\xf6rJ\xd6?'
p939
tp940
Rp941
tp942
a(S'preliminary discourse to the encyclopedia of diderot'
p943
g2
(g6
S'td\xcbT\x93:\xd6?'
p944
tp945
Rp946
tp947
a(S'sociology of knowledge'
p948
g2
(g6
S'\xc0,\r\x97K1\xd6?'
p949
tp950
Rp951
tp952
a(S"joy's law (management)"
p953
g2
(g6
S'\x7f^<\x9d\x8d,\xd6?'
p954
tp955
Rp956
tp957
a(S'cassell\xe2\x80\x99s book of knowledge'
p958
g2
(g6
S'h.\xb6\x97c$\xd6?'
p959
tp960
Rp961
tp962
a(S'natural history in the spanish new world'
p963
g2
(g6
S'\x1c6r\xfe\x83\x1f\xd6?'
p964
tp965
Rp966
tp967
a(S'mountain quest institute'
p968
g2
(g6
S'\xb5\xd6\x82\xeaJ\t\xd6?'
p969
tp970
Rp971
tp972
a(S'confidence-based learning'
p973
g2
(g6
S'\xf6\x08w\xd66\x08\xd6?'
p974
tp975
Rp976
tp977
a(S'curse of knowledge'
p978
g2
(g6
S',4\x9f0S\xfb\xd5?'
p979
tp980
Rp981
tp982
a(S'knowledge and its limits'
p983
g2
(g6
S'TC\xd3k\xce\xf8\xd5?'
p984
tp985
Rp986
tp987
a(S'communicate knowledge manifesto'
p988
g2
(g6
S'_\xb8p3\x82\xec\xd5?'
p989
tp990
Rp991
tp992
a(S'robert de hoog (scientist)'
p993
g2
(g6
S'LJ4\xd0b\xd9\xd5?'
p994
tp995
Rp996
tp997
a(S'london knowledge lab'
p998
g2
(g6
S'ZR\x1cj\xba\xd8\xd5?'
p999
tp1000
Rp1001
tp1002
a(S'amar gupta'
p1003
g2
(g6
S'\xa8\xe1\xec\x90\xc3\xcf\xd5?'
p1004
tp1005
Rp1006
tp1007
a(S'richard fikes'
p1008
g2
(g6
S'$\xc9\x97\xeci\xbd\xd5?'
p1009
tp1010
Rp1011
tp1012
a(S'ny\xc4\x81ya s\xc5\xabtras'
p1013
g2
(g6
S'\x06$R=:\x98\xd5?'
p1014
tp1015
Rp1016
tp1017
a(S'carl bereiter'
p1018
g2
(g6
S'\xb9\xf9T\x7fu\x8c\xd5?'
p1019
tp1020
Rp1021
tp1022
a(S'bbc knowledge (magazine)'
p1023
g2
(g6
S'\xbb\x86J\xd4\xe9\x8a\xd5?'
p1024
tp1025
Rp1026
tp1027
a(S'brian r. gaines'
p1028
g2
(g6
S'9s\xa9X\xe6\x89\xd5?'
p1029
tp1030
Rp1031
tp1032
a(S'information coding classification'
p1033
g2
(g6
S'\xc10\xc8\xd0\xad\x86\xd5?'
p1034
tp1035
Rp1036
tp1037
a(S'knowledge acquisition'
p1038
g2
(g6
S'\xa2\xf5\xa0U`\x82\xd5?'
p1039
tp1040
Rp1041
tp1042
a(S'domain-specific learning'
p1043
g2
(g6
S'e\x7f\xa2\xfe\x14w\xd5?'
p1044
tp1045
Rp1046
tp1047
a(S'patricia alexander'
p1048
g2
(g6
S'\x98\xd2\xca\x1d ]\xd5?'
p1049
tp1050
Rp1051
tp1052
a(S'extelligence'
p1053
g2
(g6
S'\xfd\xd8p4g0\xd5?'
p1054
tp1055
Rp1056
tp1057
a(S'zero knowledge'
p1058
g2
(g6
S'P\xdaXUJ0\xd5?'
p1059
tp1060
Rp1061
tp1062
a(S'scientia potentia est'
p1063
g2
(g6
S'P>\xb1?o\x16\xd5?'
p1064
tp1065
Rp1066
tp1067
a(S'index of windows games (j)'
p1068
g2
(g6
S'\xb9\x14\xfa\x8al\xf1\xd4?'
p1069
tp1070
Rp1071
tp1072
a(S'max boisot'
p1073
g2
(g6
S't*\xcb;L\xe3\xd4?'
p1074
tp1075
Rp1076
tp1077
a(S'knowledge crystal'
p1078
g2
(g6
S'a\xadf\xcb\xe9\xca\xd4?'
p1079
tp1080
Rp1081
tp1082
a(S'gennady simeonovich osipov'
p1083
g2
(g6
S'\xf9\x9e\xd7\x89\xdc\xc4\xd4?'
p1084
tp1085
Rp1086
tp1087
a(S'the social construction of reality'
p1088
g2
(g6
S'"\x16\x93\xd0x\xc4\xd4?'
p1089
tp1090
Rp1091
tp1092
a(S'national knowledge commission'
p1093
g2
(g6
S'Q)\xc3$\xeb\xb3\xd4?'
p1094
tp1095
Rp1096
tp1097
a(S'genetic epistemology'
p1098
g2
(g6
S'\xf4\x86\xd2\x83p\xaa\xd4?'
p1099
tp1100
Rp1101
tp1102
a(S'too big to know'
p1103
g2
(g6
S'\xc9\xf3A\xf6e\xa5\xd4?'
p1104
tp1105
Rp1106
tp1107
a(S'nico stehr'
p1108
g2
(g6
S'\xb1\x98\xf4\xa2\xb5\x97\xd4?'
p1109
tp1110
Rp1111
tp1112
a(S'wouter tebbens'
p1113
g2
(g6
S'0\xac\xd6Q0\x97\xd4?'
p1114
tp1115
Rp1116
tp1117
a(S'the info project'
p1118
g2
(g6
S'\x870u\xae%\x88\xd4?'
p1119
tp1120
Rp1121
tp1122
a(S'vivid knowledge'
p1123
g2
(g6
S'Y\xf9!e\xf1\x86\xd4?'
p1124
tp1125
Rp1126
tp1127
a(S'knowledge management software'
p1128
g2
(g6
S'z|R\x93\xf7\x85\xd4?'
p1129
tp1130
Rp1131
tp1132
a(S'pillowfish'
p1133
g2
(g6
S'\xb4\x10\xfb\x81\x8ci\xd4?'
p1134
tp1135
Rp1136
tp1137
a(S'knowledge of christ'
p1138
g2
(g6
S'l$\x00\xb7\xa1g\xd4?'
p1139
tp1140
Rp1141
tp1142
a(S'enactive interfaces'
p1143
g2
(g6
S'\x9a\x8dE\xcf\xac]\xd4?'
p1144
tp1145
Rp1146
tp1147
a(S'jonathan spira'
p1148
g2
(g6
S'=\xd5\x94J\x12]\xd4?'
p1149
tp1150
Rp1151
tp1152
a(S'dangerous knowledge'
p1153
g2
(g6
S'z\xfe\xc4=\xacW\xd4?'
p1154
tp1155
Rp1156
tp1157
a(S'knowledge institute of technology'
p1158
g2
(g6
S'a\xaa\x17dmU\xd4?'
p1159
tp1160
Rp1161
tp1162
a(S'domain-general learning'
p1163
g2
(g6
S'\xca\xd5\xee\xd7\xf3S\xd4?'
p1164
tp1165
Rp1166
tp1167
a(S'fle3'
p1168
g2
(g6
S'\xf2\x8a\xab\xd9\x85S\xd4?'
p1169
tp1170
Rp1171
tp1172
a(S'teacher quality'
p1173
g2
(g6
S'\xbb8\xa5\x00_=\xd4?'
p1174
tp1175
Rp1176
tp1177
a(S'forbidden knowledge'
p1178
g2
(g6
S'\xee\x12\xf8-\x977\xd4?'
p1179
tp1180
Rp1181
tp1182
a(S'line 14, guangzhou metro'
p1183
g2
(g6
S'\x81\xc6\xc2\xcaQ\xfd\xd3?'
p1184
tp1185
Rp1186
tp1187
a(S's. barry barnes'
p1188
g2
(g6
S'\x95\x97,(S\xf7\xd3?'
p1189
tp1190
Rp1191
tp1192
a(S'martin j. eppler'
p1193
g2
(g6
S'\xaa\x00]Ke\xd9\xd3?'
p1194
tp1195
Rp1196
tp1197
a(S'expertise reversal effect'
p1198
g2
(g6
S'\xdar]\xd6\xcc\xcf\xd3?'
p1199
tp1200
Rp1201
tp1202
a(S'molinism'
p1203
g2
(g6
S'\xaf\xbb\xa3UF\xca\xd3?'
p1204
tp1205
Rp1206
tp1207
a(S'praxis test'
p1208
g2
(g6
S'\x9e\ty&B\xc1\xd3?'
p1209
tp1210
Rp1211
tp1212
a(S'marilyn leask'
p1213
g2
(g6
S'q\x10\x8b\xd9\xf1\xb8\xd3?'
p1214
tp1215
Rp1216
tp1217
a(S'riba knowledge communities'
p1218
g2
(g6
S'\\\x10aa\x0e\xb7\xd3?'
p1219
tp1220
Rp1221
tp1222
a(S'non-interactive zero-knowledge proof'
p1223
g2
(g6
S'\xd9met\xf2\xae\xd3?'
p1224
tp1225
Rp1226
tp1227
a(S'mathematical knowledge management'
p1228
g2
(g6
S'o\xfc\x08z\x8d\xae\xd3?'
p1229
tp1230
Rp1231
tp1232
a(S'process capital'
p1233
g2
(g6
S'\x1cf\xd6],\x9f\xd3?'
p1234
tp1235
Rp1236
tp1237
a(S'paroksha'
p1238
g2
(g6
S'\xf4V\xd7\xc94\x9d\xd3?'
p1239
tp1240
Rp1241
tp1242
a(S'knowledge retrieval'
p1243
g2
(g6
S'\x89\x89\xa6J\xcb\x9b\xd3?'
p1244
tp1245
Rp1246
tp1247
a(S'agnoetae'
p1248
g2
(g6
S'\x10\xfaa,\x9e\x9a\xd3?'
p1249
tp1250
Rp1251
tp1252
a(S'local knowledge (band)'
p1253
g2
(g6
S'\x9b\xb2\xb0\xea\x8b\x8f\xd3?'
p1254
tp1255
Rp1256
tp1257
a(S'empirical research'
p1258
g2
(g6
S'1)O\xce3\x8a\xd3?'
p1259
tp1260
Rp1261
tp1262
a(S'kshetrajna'
p1263
g2
(g6
S'E\xb6\x17\\:\x86\xd3?'
p1264
tp1265
Rp1266
tp1267
a(S'paul justin compton'
p1268
g2
(g6
S'u7~.m\x82\xd3?'
p1269
tp1270
Rp1271
tp1272
a(S'glossary of education terms (d\xe2\x80\x93f)'
p1273
g2
(g6
S'\x0e\xa8\x8e\x88\xc7{\xd3?'
p1274
tp1275
Rp1276
tp1277
a(S'gnowsys'
p1278
g2
(g6
S'\xd7\xd6\x83\xf8\xaet\xd3?'
p1279
tp1280
Rp1281
tp1282
a(S'bureaupedia'
p1283
g2
(g6
S'?\xcd\xe6\xb6\x1f_\xd3?'
p1284
tp1285
Rp1286
tp1287
a(S'knowledge and skills framework'
p1288
g2
(g6
S'\x1d\xe3\xd8mGA\xd3?'
p1289
tp1290
Rp1291
tp1292
a(S'para vidya'
p1293
g2
(g6
S'-l8\xae?=\xd3?'
p1294
tp1295
Rp1296
tp1297
a(S'indigenous knowledge centre'
p1298
g2
(g6
S'\x9e.0\x9aR)\xd3?'
p1299
tp1300
Rp1301
tp1302
a(S'knowledge triangle'
p1303
g2
(g6
S'j\x00h\xc2G)\xd3?'
p1304
tp1305
Rp1306
tp1307
a(S'verna allee'
p1308
g2
(g6
S'\xaei\xe1\xac\x88#\xd3?'
p1309
tp1310
Rp1311
tp1312
a(S'activist knowledge'
p1313
g2
(g6
S'\xe6\x1c\x13\x14\xeb\x14\xd3?'
p1314
tp1315
Rp1316
tp1317
a(S'list of educational institutions which have sanskrit phrases as their mottos'
p1318
g2
(g6
S'\xc7\xb7\x9d\xab?\xfd\xd2?'
p1319
tp1320
Rp1321
tp1322
a(S'km programming language'
p1323
g2
(g6
S'\xa3ls9*\xf3\xd2?'
p1324
tp1325
Rp1326
tp1327
a(S'shrutakevalin'
p1328
g2
(g6
S"\xf1b\xd4'\xa3\xef\xd2?"
p1329
tp1330
Rp1331
tp1332
a(S'ittoolbox'
p1333
g2
(g6
S'\xdex\xb7\x9d\xa2\xe1\xd2?'
p1334
tp1335
Rp1336
tp1337
a(S'rationalism'
p1338
g2
(g6
S'!\xa8h\xc1\xe2\xdf\xd2?'
p1339
tp1340
Rp1341
tp1342
a(S'semantic research'
p1343
g2
(g6
S'\x88\xb8\x8b\xd4w\xdc\xd2?'
p1344
tp1345
Rp1346
tp1347
a(S"women's knowledge international"
p1348
g2
(g6
S'\x0c\x9f#\xd7+\xda\xd2?'
p1349
tp1350
Rp1351
tp1352
a(S'geographic information science and technology body of knowledge'
p1353
g2
(g6
S'u\x1apZ)\xd9\xd2?'
p1354
tp1355
Rp1356
tp1357
a(S'frank van harmelen'
p1358
g2
(g6
S'\xa2\x94\x90\xbf<\xcb\xd2?'
p1359
tp1360
Rp1361
tp1362
a(S'institute of knowledge transfer'
p1363
g2
(g6
S'\xd1LJ\xdck\xc7\xd2?'
p1364
tp1365
Rp1366
tp1367
a(S'knowledge ark'
p1368
g2
(g6
S'\xeed\x98\xde\xd1\xc5\xd2?'
p1369
tp1370
Rp1371
tp1372
a(S'integration objects'
p1373
g2
(g6
S'S\\%\xf2r\xbf\xd2?'
p1374
tp1375
Rp1376
tp1377
a(S'knowledge interchange format'
p1378
g2
(g6
S'\xdd\x86c+\xb1\xba\xd2?'
p1379
tp1380
Rp1381
tp1382
a(S'knowledge channel'
p1383
g2
(g6
S'\xda7\xbc\xcb\x12\xaf\xd2?'
p1384
tp1385
Rp1386
tp1387
a(S'knowlege quarter'
p1388
g2
(g6
S'\xe8\xe0g\x97\xdc\xac\xd2?'
p1389
tp1390
Rp1391
tp1392
a(S'knowledge engineering and machine learning group'
p1393
g2
(g6
S'\x1f\x8bk\x90\xbb\xaa\xd2?'
p1394
tp1395
Rp1396
tp1397
a(S'knowledge economic city, medina'
p1398
g2
(g6
S'F\x9d\xe4+\xce\xa8\xd2?'
p1399
tp1400
Rp1401
tp1402
a(S'teachings of prem rawat'
p1403
g2
(g6
S'\x83\xb7B(v\xa5\xd2?'
p1404
tp1405
Rp1406
tp1407
a(S'knowledge of results'
p1408
g2
(g6
S'T#\xe8#2\x92\xd2?'
p1409
tp1410
Rp1411
tp1412
a(S'marsilius of inghen'
p1413
g2
(g6
S'\x08\x9fqC\x87o\xd2?'
p1414
tp1415
Rp1416
tp1417
a(S'epistemic modal logic'
p1418
g2
(g6
S'\xed\x03\xc9\xbeig\xd2?'
p1419
tp1420
Rp1421
tp1422
a(S'course of popular lectures'
p1423
g2
(g6
S'\xb3OAx]d\xd2?'
p1424
tp1425
Rp1426
tp1427
a(S'what engineers know and how they know it'
p1428
g2
(g6
S'\x05\xc2\xa9\xed\xdb]\xd2?'
p1429
tp1430
Rp1431
tp1432
a(S'public knowledge'
p1433
g2
(g6
S'"\xbd\xce\x91\x82[\xd2?'
p1434
tp1435
Rp1436
tp1437
a(S'philippians 3'
p1438
g2
(g6
S'\xb7\xb1BWcT\xd2?'
p1439
tp1440
Rp1441
tp1442
a(S'flat world knowledge'
p1443
g2
(g6
S'\x07\x98\x85X?T\xd2?'
p1444
tp1445
Rp1446
tp1447
a(S'research (disambiguation)'
p1448
g2
(g6
S'\x94\xf0\x01\xc0\x11G\xd2?'
p1449
tp1450
Rp1451
tp1452
a(S'elicitation technique'
p1453
g2
(g6
S'\x9b\xffe\x8a$D\xd2?'
p1454
tp1455
Rp1456
tp1457
a(S'prior knowledge for pattern recognition'
p1458
g2
(g6
S'\xa6-\xd3\xe6\x1c@\xd2?'
p1459
tp1460
Rp1461
tp1462
a(S'democratization of knowledge'
p1463
g2
(g6
S"(\x87'\xb3\xfd:\xd2?"
p1464
tp1465
Rp1466
tp1467
a(S'those firmly rooted in knowledge'
p1468
g2
(g6
S'k\x88\x9b\x9bS9\xd2?'
p1469
tp1470
Rp1471
tp1472
a(S'knowledge unlatched'
p1473
g2
(g6
S'\xa6\x9f\xee\xd0z3\xd2?'
p1474
tp1475
Rp1476
tp1477
a(S'quassim cassam'
p1478
g2
(g6
S'\x96\xe8h\xdcY)\xd2?'
p1479
tp1480
Rp1481
tp1482
a(S'knowledge encyclop\xc3\xa6dia'
p1483
g2
(g6
S'.\xe1/xG(\xd2?'
p1484
tp1485
Rp1486
tp1487
a(S'the use of knowledge in society'
p1488
g2
(g6
S'V_\x8ci\xa4 \xd2?'
p1489
tp1490
Rp1491
tp1492
a(S'expert system'
p1493
g2
(g6
S'\xe1\x9c\x98\xfd\xa4\x1c\xd2?'
p1494
tp1495
Rp1496
tp1497
a(S'lizzie fricker'
p1498
g2
(g6
S'\xa8\xf6u\x9b\x93\x15\xd2?'
p1499
tp1500
Rp1501
tp1502
a(S'threshold knowledge'
p1503
g2
(g6
S'g\x90d:\x89\x0e\xd2?'
p1504
tp1505
Rp1506
tp1507
a(S'outline of epistemology'
p1508
g2
(g6
S'\x8aW}\xb1\x1c\r\xd2?'
p1509
tp1510
Rp1511
tp1512
a.