(lp0
(S'larry page'
p1
cnumpy.core.multiarray
scalar
p2
(cnumpy
dtype
p3
(S'f8'
p4
I0
I1
tp5
Rp6
(I3
S'<'
p7
NNNI-1
I-1
I0
tp8
bS'\xff\xff\xff\xff\xff\xff\xef?'
p9
tp10
Rp11
tp12
a(S'history of google'
p13
g2
(g6
S'\xd1]\x1az\xad3\xe6?'
p14
tp15
Rp16
tp17
a(S'google'
p18
g2
(g6
S'\x1cS\xb1I3}\xe5?'
p19
tp20
Rp21
tp22
a(S'google ranking'
p23
g2
(g6
S'\x92r97\xbeb\xe5?'
p24
tp25
Rp26
tp27
a(S'googlization'
p28
g2
(g6
S'\x12rr\x1bK{\xe3?'
p29
tp30
Rp31
tp32
a(S"list of google april fools' day jokes"
p33
g2
(g6
S'N\xfc\xbe\xe4\xce]\xe3?'
p34
tp35
Rp36
tp37
a(S'list of google products'
p38
g2
(g6
S'|>\xf2\xb6\xf3[\xe3?'
p39
tp40
Rp41
tp42
a(S'pagerank'
p43
g2
(g6
S'\xe2\r\xc1L\xb1U\xe3?'
p44
tp45
Rp46
tp47
a(S'google page creator'
p48
g2
(g6
S'\xfe\xaf\x15\xc1oI\xe3?'
p49
tp50
Rp51
tp52
a(S'criticism of google'
p53
g2
(g6
S'z\x7f\xd7\x91\xe0>\xe3?'
p54
tp55
Rp56
tp57
a(S'google+'
p58
g2
(g6
S'w\xf2\x9a/\xa2#\xe3?'
p59
tp60
Rp61
tp62
a(S'outline of google'
p63
g2
(g6
S'\x19g?+\xc6\xea\xe2?'
p64
tp65
Rp66
tp67
a(S'google search'
p68
g2
(g6
S'\x9e\x076)\xc4\xa8\xe2?'
p69
tp70
Rp71
tp72
a(S'list of google apps for android'
p73
g2
(g6
S'C>,\xa7i\x99\xe2?'
p74
tp75
Rp76
tp77
a(S'google bomb'
p78
g2
(g6
S'\xdc\xfe\x89\xbd>y\xe2?'
p79
tp80
Rp81
tp82
a(S'list of mergers and acquisitions by alphabet'
p83
g2
(g6
S'\x9b\x93\x006\xefo\xe2?'
p84
tp85
Rp86
tp87
a(S'planet google'
p88
g2
(g6
S'\x87\x94\x8cj\x07f\xe2?'
p89
tp90
Rp91
tp92
a(S'google business solutions'
p93
g2
(g6
S'_\xea\xb2?\x02\xd5\xe1?'
p94
tp95
Rp96
tp97
a(S'privacy concerns regarding google'
p98
g2
(g6
S'\x8a\x87\xac3L\xb1\xe1?'
p99
tp100
Rp101
tp102
a(S'list of google easter eggs'
p103
g2
(g6
S'\x0f\x12\x9d\x94\x90\xa5\xe1?'
p104
tp105
Rp106
tp107
a(S'google now'
p108
g2
(g6
S'\x11h\x0c4g\x98\xe1?'
p109
tp110
Rp111
tp112
a(S'censorship by google'
p113
g2
(g6
S'\xb7\xa1\x89;\xa3r\xe1?'
p114
tp115
Rp116
tp117
a(S'sergey brin'
p118
g2
(g6
S'\xda\x1ew\xb9\xf0D\xe1?'
p119
tp120
Rp121
tp122
a(S'google assistant'
p123
g2
(g6
S'JZ9\xd5\x1f\x16\xe1?'
p124
tp125
Rp126
tp127
a(S'page (surname)'
p128
g2
(g6
S'\x11\xb1G\xb5\x1c\x13\xe1?'
p129
tp130
Rp131
tp132
a(S'google voice search'
p133
g2
(g6
S'\xdc\xe9\xd6\xf2\x82\x00\xe1?'
p134
tp135
Rp136
tp137
a(S'sitelink'
p138
g2
(g6
S'|Rk\n\xd8\xe9\xe0?'
p139
tp140
Rp141
tp142
a(S'google developer expert'
p143
g2
(g6
S'\xb2\x8c\xe0\x1b\x87\xe9\xe0?'
p144
tp145
Rp146
tp147
a(S'google mobile services'
p148
g2
(g6
S'ysU\x85\xa6\xc9\xe0?'
p149
tp150
Rp151
tp152
a(S'groovle'
p153
g2
(g6
S'\xc5)\xc4\xdb\xd2\xba\xe0?'
p154
tp155
Rp156
tp157
a(S'google china'
p158
g2
(g6
S'\xa4\xf5\xbe\x9ay\xb4\xe0?'
p159
tp160
Rp161
tp162
a(S'g suite'
p163
g2
(g6
S'\xaf{\x9a0C\xb3\xe0?'
p164
tp165
Rp166
tp167
a(S'google litigation'
p168
g2
(g6
S'\xf2\x96|\xf1;\xaf\xe0?'
p169
tp170
Rp171
tp172
a(S'google books'
p173
g2
(g6
S'LA5\x86\xb7\x9c\xe0?'
p174
tp175
Rp176
tp177
a(S'google blogoscoped'
p178
g2
(g6
S'\x97I\xf1\xf3\xa0\x99\xe0?'
p179
tp180
Rp181
tp182
a(S'susan wojcicki'
p183
g2
(g6
S'\xb1t\x88\xac \x82\xe0?'
p184
tp185
Rp186
tp187
a(S'home page (disambiguation)'
p188
g2
(g6
S'*\xaeI\xfc\x08\x82\xe0?'
p189
tp190
Rp191
tp192
a(S'google labs'
p193
g2
(g6
S'\xaaL\xa3\xf0T~\xe0?'
p194
tp195
Rp196
tp197
a(S'alphabet inc.'
p198
g2
(g6
S'\xf7D(o\xe2r\xe0?'
p199
tp200
Rp201
tp202
a(S'google.by'
p203
g2
(g6
S'\xc4\xd8\x18\x86\x10d\xe0?'
p204
tp205
Rp206
tp207
a(S"google founders' award"
p208
g2
(g6
S'p\xe5\xaan\xf4^\xe0?'
p209
tp210
Rp211
tp212
a(S'google developers live'
p213
g2
(g6
S'\xc8JnT\nZ\xe0?'
p214
tp215
Rp216
tp217
a(S'google data liberation front'
p218
g2
(g6
S'*\xd0\x0f\xba1X\xe0?'
p219
tp220
Rp221
tp222
a(S'roy walton'
p223
g2
(g6
S'4\xe6\x05\xb5\xf6P\xe0?'
p224
tp225
Rp226
tp227
a(S'google news'
p228
g2
(g6
S'\xcb\xdf\xcaA7K\xe0?'
p229
tp230
Rp231
tp232
a(S'google home'
p233
g2
(g6
S'\xadm4\x0e\xbdE\xe0?'
p234
tp235
Rp236
tp237
a(S'google web history'
p238
g2
(g6
S'\x8d\x18\xf1K\xb1\x1d\xe0?'
p239
tp240
Rp241
tp242
a(S'street view trusted'
p243
g2
(g6
S'\xb6-\xf7\xa0\x1b\x1b\xe0?'
p244
tp245
Rp246
tp247
a(S'google pack'
p248
g2
(g6
S'|Z+cP\t\xe0?'
p249
tp250
Rp251
tp252
a(S'google (disambiguation)'
p253
g2
(g6
S'{\x93\xd6\x15\xcf\x04\xe0?'
p254
tp255
Rp256
tp257
a(S'google shopping'
p258
g2
(g6
S'\xef\x1e\xee\xb8\x19\x01\xe0?'
p259
tp260
Rp261
tp262
a(S'google questions and answers'
p263
g2
(g6
S'\x1c6\xd0\xd4\x99\xf9\xdf?'
p264
tp265
Rp266
tp267
a(S'google developers'
p268
g2
(g6
S'oW\x04\t\xad\xc6\xdf?'
p269
tp270
Rp271
tp272
a(S'google reader'
p273
g2
(g6
S'\xc2\xcb]Vy\xc3\xdf?'
p274
tp275
Rp276
tp277
a(S'google account'
p278
g2
(g6
S'fnAE\x1c\xbc\xdf?'
p279
tp280
Rp281
tp282
a(S'wesley chan'
p283
g2
(g6
S'\xe8y!\x15;\xb0\xdf?'
p284
tp285
Rp286
tp287
a(S'google maps'
p288
g2
(g6
S'\n\xc2\xb3l\xd7\xad\xdf?'
p289
tp290
Rp291
tp292
a(S'google talk'
p293
g2
(g6
S'\xfe\xe3v\x17\xef\xa9\xdf?'
p294
tp295
Rp296
tp297
a(S'google base'
p298
g2
(g6
S'\x97\xad\x93t\xa4\xa7\xdf?'
p299
tp300
Rp301
tp302
a(S'google play music'
p303
g2
(g6
S'S\x9de\xfeO\xa3\xdf?'
p304
tp305
Rp306
tp307
a(S'google earth'
p308
g2
(g6
S'\xc3\x1fd\x88\x89\x97\xdf?'
p309
tp310
Rp311
tp312
a(S'a google a day'
p313
g2
(g6
S'o\xacb`V\x93\xdf?'
p314
tp315
Rp316
tp317
a(S'google offers'
p318
g2
(g6
S'\xaa\xfd\xf63Ko\xdf?'
p319
tp320
Rp321
tp322
a(S'google drive'
p323
g2
(g6
S'f\xd9\xd8\xaa\xdff\xdf?'
p324
tp325
Rp326
tp327
a(S'vic gundotra'
p328
g2
(g6
S'\xb7W\xfb\xce\xfcc\xdf?'
p329
tp330
Rp331
tp332
a(S'google sites'
p333
g2
(g6
S'\xd53^Z\x8eI\xdf?'
p334
tp335
Rp336
tp337
a(S'google takeout'
p338
g2
(g6
S'6\xe9\xc8E\x0bF\xdf?'
p339
tp340
Rp341
tp342
a(S'google play books'
p343
g2
(g6
S'\xdeT\x1f\xc0v9\xdf?'
p344
tp345
Rp346
tp347
a(S'google store'
p348
g2
(g6
S'\xad\xf0\xa8\x01o\x15\xdf?'
p349
tp350
Rp351
tp352
a(S'google play services'
p353
g2
(g6
S'\x94\xf8\x8f1\xd2\xf9\xde?'
p354
tp355
Rp356
tp357
a(S'google brain'
p358
g2
(g6
S'\xa3\\pJ\xe1\xec\xde?'
p359
tp360
Rp361
tp362
a(S'google help forums'
p363
g2
(g6
S'\x87g\x95\x9f$\xbd\xde?'
p364
tp365
Rp366
tp367
a(S'google crisis response'
p368
g2
(g6
S'nZ\x01\x93!{\xde?'
p369
tp370
Rp371
tp372
a(S'google hangouts'
p373
g2
(g6
S'?S\x10K\xa3P\xde?'
p374
tp375
Rp376
tp377
a(S'google (verb)'
p378
g2
(g6
S'\xda\x14.\xd4vL\xde?'
p379
tp380
Rp381
tp382
a(S'in the plex'
p383
g2
(g6
S'$\x1e\xbbp\rI\xde?'
p384
tp385
Rp386
tp387
a(S'adwords'
p388
g2
(g6
S'xYUZ\x85C\xde?'
p389
tp390
Rp391
tp392
a(S"don't be evil"
p393
g2
(g6
S'\x07\xfb\xfdir\x04\xde?'
p394
tp395
Rp396
tp397
a(S'google play'
p398
g2
(g6
S'\x06\x9a\t;\xf1\x00\xde?'
p399
tp400
Rp401
tp402
a(S'nymwars'
p403
g2
(g6
S'\x13eA\xdc\x87\xfd\xdd?'
p404
tp405
Rp406
tp407
a(S'x (company)'
p408
g2
(g6
S'\xe4l]/[\xe3\xdd?'
p409
tp410
Rp411
tp412
a(S'list of most downloaded android applications'
p413
g2
(g6
S'\xa2\xeci\xf4{\xc8\xdd?'
p414
tp415
Rp416
tp417
a(S'page'
p418
g2
(g6
S'\xfb!\xb7\x19\x9e\xaa\xdd?'
p419
tp420
Rp421
tp422
a(S'google docs, sheets and slides'
p423
g2
(g6
S'\x92iho\x94\xa6\xdd?'
p424
tp425
Rp426
tp427
a(S'tensorflow'
p428
g2
(g6
S'\xf6\xd4\x8b\xdfH\xa3\xdd?'
p429
tp430
Rp431
tp432
a(S'google volume one'
p433
g2
(g6
S'\xba9\x81\xc3\x96\xa1\xdd?'
p434
tp435
Rp436
tp437
a(S'list of google domains'
p438
g2
(g6
S'xp\xa8\xf4\x0f\x86\xdd?'
p439
tp440
Rp441
tp442
a(S'elgoog'
p443
g2
(g6
S'\x04\x8dvg\x02\x82\xdd?'
p444
tp445
Rp446
tp447
a(S'google squared'
p448
g2
(g6
S'\xa6\xc93^\xda\x81\xdd?'
p449
tp450
Rp451
tp452
a(S'field v. google, inc.'
p453
g2
(g6
S'\x83B\xa52\xf7f\xdd?'
p454
tp455
Rp456
tp457
a(S'google chart api'
p458
g2
(g6
S'"\x8e\xc8\xae\x06T\xdd?'
p459
tp460
Rp461
tp462
a(S'google logo'
p463
g2
(g6
S'\x89c\x1dGvF\xdd?'
p464
tp465
Rp466
tp467
a(S'home page'
p468
g2
(g6
S'm\xc3\xbd\x00\xfa\x0f\xdd?'
p469
tp470
Rp471
tp472
a(S'goojje'
p473
g2
(g6
S'\xa8\xc7\x18\xbf\xdf\x03\xdd?'
p474
tp475
Rp476
tp477
a(S'google voice'
p478
g2
(g6
S'\xd9q\x13\xdd9\xfa\xdc?'
p479
tp480
Rp481
tp482
a(S'google health'
p483
g2
(g6
S'4\tc\x1d{\xf5\xdc?'
p484
tp485
Rp486
tp487
a(S'google penalty'
p488
g2
(g6
S'\x83\xbb\x00\x0e\xec\xac\xdc?'
p489
tp490
Rp491
tp492
a(S'google for education'
p493
g2
(g6
S'\xf3Co\xf0e\xa1\xdc?'
p494
tp495
Rp496
tp497
a(S'google cloud platform'
p498
g2
(g6
S'\x9f\xe1\x01f\x9b\x9a\xdc?'
p499
tp500
Rp501
tp502
a(S'google panda'
p503
g2
(g6
S'\x82t\xee=\xf1r\xdc?'
p504
tp505
Rp506
tp507
a(S'google glass'
p508
g2
(g6
S'\x9do\xd1\x90\xb9p\xdc?'
p509
tp510
Rp511
tp512
a(S'google course builder'
p513
g2
(g6
S'\xc1\xd3\x94\xf6\x91^\xdc?'
p514
tp515
Rp516
tp517
a(S'yossi matias'
p518
g2
(g6
S'o\x05\x8b{H^\xdc?'
p519
tp520
Rp521
tp522
a(S'google data centers'
p523
g2
(g6
S'W\x97\xc9\x92\xe1H\xdc?'
p524
tp525
Rp526
tp527
a(S'google scholar'
p528
g2
(g6
S'\xe7\xa6\xa6\x97Z,\xdc?'
p529
tp530
Rp531
tp532
a(S'googled: the end of the world as we know it'
p533
g2
(g6
S'\xc6\x8cyc\x19\xf5\xdb?'
p534
tp535
Rp536
tp537
a(S'google street view privacy concerns'
p538
g2
(g6
S'\x8a\x92\x8bh\xa3\xeb\xdb?'
p539
tp540
Rp541
tp542
a(S'google news archive'
p543
g2
(g6
S'\xff&\xb4\x94\xf6\xe7\xdb?'
p544
tp545
Rp546
tp547
a(S'google for work'
p548
g2
(g6
S'\x8e/\x14\xb5B\xca\xdb?'
p549
tp550
Rp551
tp552
a(S'google search console'
p553
g2
(g6
S's\x12\xba.\xc8\xc3\xdb?'
p554
tp555
Rp556
tp557
a(S'sundar pichai'
p558
g2
(g6
S'\x86\x94\xde\xf4\xf2\xb7\xdb?'
p559
tp560
Rp561
tp562
a(S'list of google play edition devices'
p563
g2
(g6
S'\xddI\xf3\xd7\xc9\xaf\xdb?'
p564
tp565
Rp566
tp567
a(S'knol'
p568
g2
(g6
S'\x14\xe3e\xa9\xce\x9e\xdb?'
p569
tp570
Rp571
tp572
a(S'google insights for search'
p573
g2
(g6
S'Y\xaa\x18\xeca\x9a\xdb?'
p574
tp575
Rp576
tp577
a(S'google duo'
p578
g2
(g6
S'\x05\xb7\x11\xbf\x1d\x8e\xdb?'
p579
tp580
Rp581
tp582
a(S'google personalized search'
p583
g2
(g6
S'\x12\xd3\xf1\x9b\xde\x86\xdb?'
p584
tp585
Rp586
tp587
a(S'googleplex'
p588
g2
(g6
S'\x84\xdc\x93\x0f\x97\x85\xdb?'
p589
tp590
Rp591
tp592
a(S'patti page'
p593
g2
(g6
S'\xb9hn\x86R\\\xdb?'
p594
tp595
Rp596
tp597
a(S'john page'
p598
g2
(g6
S'dX\xf48oY\xdb?'
p599
tp600
Rp601
tp602
a(S'google custom search'
p603
g2
(g6
S'\xe3\x18\x08^\xc7:\xdb?'
p604
tp605
Rp606
tp607
a(S'page view'
p608
g2
(g6
S'\x14\xb4\xdb`\xa99\xdb?'
p609
tp610
Rp611
tp612
a(S'list of most popular smartphone apps'
p613
g2
(g6
S'`9\x11m!0\xdb?'
p614
tp615
Rp616
tp617
a(S'european union vs. google'
p618
g2
(g6
S'\xef\x84\xf6\xfbW.\xdb?'
p619
tp620
Rp621
tp622
a(S'wdyl (search engine)'
p623
g2
(g6
S'\x85\xb1\xf2W\x81-\xdb?'
p624
tp625
Rp626
tp627
a(S'page two'
p628
g2
(g6
S'\x8d?[\xeb\x87+\xdb?'
p629
tp630
Rp631
tp632
a(S'google fiber'
p633
g2
(g6
S'K\xbd\x90TI%\xdb?'
p634
tp635
Rp636
tp637
a(S'google finance'
p638
g2
(g6
S'\xac\\\xc6^\x12%\xdb?'
p639
tp640
Rp641
tp642
a(S'atgoogletalks'
p643
g2
(g6
S'\xca\x9eF\xaf)$\xdb?'
p644
tp645
Rp646
tp647
a(S'google get your business online'
p648
g2
(g6
S'\xb7\x13H^+#\xdb?'
p649
tp650
Rp651
tp652
a(S'google art project'
p653
g2
(g6
S'4\x0e\xf6\xb4>"\xdb?'
p654
tp655
Rp656
tp657
a(S'search engine optimization'
p658
g2
(g6
S'\x04\x04^\xa5\xbd\x1c\xdb?'
p659
tp660
Rp661
tp662
a(S'alexandre hohagen'
p663
g2
(g6
S'X\x08]7Q\x1b\xdb?'
p664
tp665
Rp666
tp667
a(S'narayanan shivakumar'
p668
g2
(g6
S'D\x9c\xb2\xcdH\r\xdb?'
p669
tp670
Rp671
tp672
a(S'louis coues page'
p673
g2
(g6
S"\x1c\xe9\x04\x1d'\x06\xdb?"
p674
tp675
Rp676
tp677
a(S'salar kamangar'
p678
g2
(g6
S'}\xcf\x97\x8d\xb7\xfc\xda?'
p679
tp680
Rp681
tp682
a(S'google web designer'
p683
g2
(g6
S'w\xf0R\xe3\xf9\xf3\xda?'
p684
tp685
Rp686
tp687
a(S'google web accelerator'
p688
g2
(g6
S'\x18\xae\xb6\xd4\x92\xee\xda?'
p689
tp690
Rp691
tp692
a(S'list of artists in the metropolitan museum of art guide'
p693
g2
(g6
S'a\xc7\xd63\xdc\xec\xda?'
p694
tp695
Rp696
tp697
a(S'google trends'
p698
g2
(g6
S'\xeb\x18\xa5H\r\xeb\xda?'
p699
tp700
Rp701
tp702
a(S'google currents'
p703
g2
(g6
S'\x03\x15\x1d\xf7\x80\xd8\xda?'
p704
tp705
Rp706
tp707
a(S'google street view'
p708
g2
(g6
S'\xb3|\xdeL\xe0\xd2\xda?'
p709
tp710
Rp711
tp712
a(S'list of most popular websites'
p713
g2
(g6
S'\x80\xf5\x95\xca\xf2\xd0\xda?'
p714
tp715
Rp716
tp717
a(S'political google bombs in the 2004 u.s. presidential election'
p718
g2
(g6
S'J\x04\xe3Wg\xca\xda?'
p719
tp720
Rp721
tp722
a(S'google wifi'
p723
g2
(g6
S'P\xce@o#\xb7\xda?'
p724
tp725
Rp726
tp727
a(S'timeline of google search'
p728
g2
(g6
S'>\xb2\x10\xf7I\xb6\xda?'
p729
tp730
Rp731
tp732
a(S'google goggles'
p733
g2
(g6
S'\xc7j\xa2\xb8e\xab\xda?'
p734
tp735
Rp736
tp737
a(S'google energy'
p738
g2
(g6
S'\x80n\xd0=\xf3\xaa\xda?'
p739
tp740
Rp741
tp742
a(S'urs h\xc3\xb6lzle'
p743
g2
(g6
S'\xd5K\x91\xdf\xff\x9f\xda?'
p744
tp745
Rp746
tp747
a(S'adsense'
p748
g2
(g6
S"'\x01\xb3\x90\xb9\x83\xda?"
p749
tp750
Rp751
tp752
a(S'kaltix'
p753
g2
(g6
S'\xe0\xd1m- \x7f\xda?'
p754
tp755
Rp756
tp757
a(S'mytracks'
p758
g2
(g6
S'\xac#u,\x98|\xda?'
p759
tp760
Rp761
tp762
a(S'steven page'
p763
g2
(g6
S'G\xd1V\xb4S{\xda?'
p764
tp765
Rp766
tp767
a(S'google alerts'
p768
g2
(g6
S'\x80y\x9fNey\xda?'
p769
tp770
Rp771
tp772
a(S'james page'
p773
g2
(g6
S'c\xf4\xf5\xf1\x13l\xda?'
p774
tp775
Rp776
tp777
a(S'google camera'
p778
g2
(g6
S'X\xb0>\x08\xa0k\xda?'
p779
tp780
Rp781
tp782
a(S'google me (song)'
p783
g2
(g6
S'\x9b\x7f\xa6\x10\x84k\xda?'
p784
tp785
Rp786
tp787
a(S'google analytics'
p788
g2
(g6
S'\xce\xbe\x8an\xe4]\xda?'
p789
tp790
Rp791
tp792
a(S'normalized google distance'
p793
g2
(g6
S'\xbd\xf7\x12\x86\xf5X\xda?'
p794
tp795
Rp796
tp797
a(S'amit singhal'
p798
g2
(g6
S'\xff\x938\x11\x91X\xda?'
p799
tp800
Rp801
tp802
a(S'google gadgets'
p803
g2
(g6
S"'p4\xf1\xfaU\xda?"
p804
tp805
Rp806
tp807
a(S'charles grafton page'
p808
g2
(g6
S'\xe1\xd5\x14j5Q\xda?'
p809
tp810
Rp811
tp812
a(S'jimmy page'
p813
g2
(g6
S'\x07\xd3D\x19\x8cN\xda?'
p814
tp815
Rp816
tp817
a(S'google helpouts'
p818
g2
(g6
S'h\x11\xd0Kt:\xda?'
p819
tp820
Rp821
tp822
a(S'google answers'
p823
g2
(g6
S'\xff\x1e@w.3\xda?'
p824
tp825
Rp826
tp827
a(S'google photos'
p828
g2
(g6
S'\x95\xf4:EY2\xda?'
p829
tp830
Rp831
tp832
a(S'google doodle'
p833
g2
(g6
S'Oi\xaa\x98\x03$\xda?'
p834
tp835
Rp836
tp837
a(S'page one'
p838
g2
(g6
S'\x8a\xb3_\x12%!\xda?'
p839
tp840
Rp841
tp842
a(S'google quick search box'
p843
g2
(g6
S'\x13\xb9\xcb\x86\xd2\x1f\xda?'
p844
tp845
Rp846
tp847
a(S'john page (virginia politician)'
p848
g2
(g6
S'7\xebm\x9e\xa6\x10\xda?'
p849
tp850
Rp851
tp852
a(S'fant\xc3\xb4mas (album)'
p853
g2
(g6
S'\x95-\x08gI\x08\xda?'
p854
tp855
Rp856
tp857
a(S'google summer of code'
p858
g2
(g6
S'\xd1^\x85d\xf9\x01\xda?'
p859
tp860
Rp861
tp862
a(S'google sidewiki'
p863
g2
(g6
S'\xfa\x8a\x13\xde\x01\x00\xda?'
p864
tp865
Rp866
tp867
a(S'google contacts'
p868
g2
(g6
S'u\xff<\xea\xb4\xe2\xd9?'
p869
tp870
Rp871
tp872
a(S'vanessa fox'
p873
g2
(g6
S'{\xc2\xf8q:\xd7\xd9?'
p874
tp875
Rp876
tp877
a(S'postini'
p878
g2
(g6
S'\xa1d\x80.\xd7\xbe\xd9?'
p879
tp880
Rp881
tp882
a(S'capitalg'
p883
g2
(g6
S'Tr4\xb3\x03\xb4\xd9?'
p884
tp885
Rp886
tp887
a(S'google domains'
p888
g2
(g6
S'\xfa\x97\x98\x15\x8f\xb3\xd9?'
p889
tp890
Rp891
tp892
a(S'google swiffy'
p893
g2
(g6
S'i\xc1f\x94[\xae\xd9?'
p894
tp895
Rp896
tp897
a(S'google apps marketplace'
p898
g2
(g6
S'\x16\xf0\xa9\xcf\xd6\xa5\xd9?'
p899
tp900
Rp901
tp902
a(S'google maps pin'
p903
g2
(g6
S'\xac\xa3\x11\xba\xec\xa1\xd9?'
p904
tp905
Rp906
tp907
a(S'google modular data center'
p908
g2
(g6
S'tA\x88F\xad\x98\xd9?'
p909
tp910
Rp911
tp912
a(S'william page'
p913
g2
(g6
S'\x0b\x0b_=\x91\x96\xd9?'
p914
tp915
Rp916
tp917
a(S'google surveys'
p918
g2
(g6
S'iZ\xb1o\xab\x84\xd9?'
p919
tp920
Rp921
tp922
a(S'google latitude'
p923
g2
(g6
S't\x9b\x8d\xca\xe8}\xd9?'
p924
tp925
Rp926
tp927
a(S'google buzz'
p928
g2
(g6
S'\xde\xaa\xbdC:z\xd9?'
p929
tp930
Rp931
tp932
a(S'google japanese input'
p933
g2
(g6
S'\x8c\xe7\xf4\xba\x7fq\xd9?'
p934
tp935
Rp936
tp937
a(S'google affiliate network'
p938
g2
(g6
S'\xa6\xd1\xf1\x88bq\xd9?'
p939
tp940
Rp941
tp942
a(S'googlepedia'
p943
g2
(g6
S"\x0f|\x01L'Z\xd9?"
p944
tp945
Rp946
tp947
a(S'the life of zamenhof'
p948
g2
(g6
S'\xee\x03[\xb8\x8aS\xd9?'
p949
tp950
Rp951
tp952
a(S'david lawee'
p953
g2
(g6
S'\xa3\xb5\x9e\xfb\xf0Q\xd9?'
p954
tp955
Rp956
tp957
a(S'google flights'
p958
g2
(g6
S'\xc2<\x8fB\xe5N\xd9?'
p959
tp960
Rp961
tp962
a(S'andy rubin'
p963
g2
(g6
S'TX\x9d\x06\xcf4\xd9?'
p964
tp965
Rp966
tp967
a(S'argleton'
p968
g2
(g6
S'\xe3~\xcf\xa5\x8f2\xd9?'
p969
tp970
Rp971
tp972
a(S'page (paper)'
p973
g2
(g6
S'\xa9`\xe8i\xf0 \xd9?'
p974
tp975
Rp976
tp977
a(S'google.org'
p978
g2
(g6
S'\xf2\x92\xc4\x9e\x96\x1c\xd9?'
p979
tp980
Rp981
tp982
a(S'page (given name)'
p983
g2
(g6
S'\xf2nd\xcc^\x1c\xd9?'
p984
tp985
Rp986
tp987
a(S'authors guild, inc. v. google, inc.'
p988
g2
(g6
S'\xe9\x0f\xb8\xf3\x00\x18\xd9?'
p989
tp990
Rp991
tp992
a(S'parasite hosting'
p993
g2
(g6
S'H\x9f\x83\xa1\x0c\n\xd9?'
p994
tp995
Rp996
tp997
a(S'the curious conspiracy'
p998
g2
(g6
S'g}\x86\x81\xfd\x03\xd9?'
p999
tp1000
Rp1001
tp1002
a(S'jens eilstrup rasmussen'
p1003
g2
(g6
S'D(\xc1\xe6\t\xf9\xd8?'
p1004
tp1005
Rp1006
tp1007
a(S'google real-time search'
p1008
g2
(g6
S'\xae\xa0\x13T\x93\xed\xd8?'
p1009
tp1010
Rp1011
tp1012
a(S'google pigeon'
p1013
g2
(g6
S'\x0f\xcf\x18.\x8f\xea\xd8?'
p1014
tp1015
Rp1016
tp1017
a(S'material design'
p1018
g2
(g6
S'5\r"\xa8\x9b\xe3\xd8?'
p1019
tp1020
Rp1021
tp1022
a(S'list of artists in the philadelphia museum of art handbook of the collections'
p1023
g2
(g6
S'2\xec\xdf0\xc7\xd9\xd8?'
p1024
tp1025
Rp1026
tp1027
a(S'google directory'
p1028
g2
(g6
S'\xde\xd1\xa4S_\xd4\xd8?'
p1029
tp1030
Rp1031
tp1032
a(S'thomas page'
p1033
g2
(g6
S'bl\x83\xc4\xd6\xc1\xd8?'
p1034
tp1035
Rp1036
tp1037
a(S'earle page'
p1038
g2
(g6
S'\xad\xcb\xcbft\xbb\xd8?'
p1039
tp1040
Rp1041
tp1042
a(S'google cloud print'
p1043
g2
(g6
S'|n\x00?\xf6\xb7\xd8?'
p1044
tp1045
Rp1046
tp1047
a(S'chromecast'
p1048
g2
(g6
S'\x9c,\xb3\xdd\x08\xb6\xd8?'
p1049
tp1050
Rp1051
tp1052
a(S'waymo'
p1053
g2
(g6
S'&\x15\xc8\x96y\xac\xd8?'
p1054
tp1055
Rp1056
tp1057
a(S'robert page'
p1058
g2
(g6
S'\x05\x10\xd3d\xb3\xaa\xd8?'
p1059
tp1060
Rp1061
tp1062
a(S'hibnick v. google, inc.'
p1063
g2
(g6
S'\x19\x0f>\x94\x83\xa3\xd8?'
p1064
tp1065
Rp1066
tp1067
a(S'paperpile'
p1068
g2
(g6
S"/$'\x9b#\xa1\xd8?"
p1069
tp1070
Rp1071
tp1072
a(S'google fit'
p1073
g2
(g6
S'\x13"\xc2\xef\xaf\x8e\xd8?'
p1074
tp1075
Rp1076
tp1077
a(S'google searchology'
p1078
g2
(g6
S'o\xa8\xf3\x86\xa6\x8d\xd8?'
p1079
tp1080
Rp1081
tp1082
a(S'syncdocs'
p1083
g2
(g6
S'3\xf5?\xb6\xd9\x8b\xd8?'
p1084
tp1085
Rp1086
tp1087
a(S'google news & weather'
p1088
g2
(g6
S'\xcdt7\x13\xcc\x85\xd8?'
p1089
tp1090
Rp1091
tp1092
a(S'emmanuel mogenet'
p1093
g2
(g6
S'w\xed<+\x10\x85\xd8?'
p1094
tp1095
Rp1096
tp1097
a(S'christoph von sigwart'
p1098
g2
(g6
S'a7D\xd0\xebx\xd8?'
p1099
tp1100
Rp1101
tp1102
a(S'krishna bharat'
p1103
g2
(g6
S'\xca"\x84\x8a\nr\xd8?'
p1104
tp1105
Rp1106
tp1107
a(S'google apis'
p1108
g2
(g6
S'+\xd5\x93\x0ben\xd8?'
p1109
tp1110
Rp1111
tp1112
a(S'ernest arthur jelf'
p1113
g2
(g6
S'\xac\x1a\xfeT)`\xd8?'
p1114
tp1115
Rp1116
tp1117
a(S'proceratium google'
p1118
g2
(g6
S'\xd4\x84m\x87\xdf_\xd8?'
p1119
tp1120
Rp1121
tp1122
a(S'playn'
p1123
g2
(g6
S'B\xd89\x13\x05]\xd8?'
p1124
tp1125
Rp1126
tp1127
a(S'droiders'
p1128
g2
(g6
S'{\xd8O\xd0\xedU\xd8?'
p1129
tp1130
Rp1131
tp1132
a(S'2web technologies'
p1133
g2
(g6
S'r\x1e\xac\x03\x00R\xd8?'
p1134
tp1135
Rp1136
tp1137
a(S'eric schmidt'
p1138
g2
(g6
S'E\xcc\xae\x12*P\xd8?'
p1139
tp1140
Rp1141
tp1142
a(S'google dashboard'
p1143
g2
(g6
S'\xda\xde\xc2\xddJN\xd8?'
p1144
tp1145
Rp1146
tp1147
a(S'picasa web albums'
p1148
g2
(g6
S'\x14\x90\xd7\x92\xc1G\xd8?'
p1149
tp1150
Rp1151
tp1152
a(S'google play games'
p1153
g2
(g6
S'p\xca3\x94\x04C\xd8?'
p1154
tp1155
Rp1156
tp1157
a(S'google cast'
p1158
g2
(g6
S'\xb2\xcah\xda\xd8<\xd8?'
p1159
tp1160
Rp1161
tp1162
a(S'bigquery'
p1163
g2
(g6
S'MJ5\xc4\x857\xd8?'
p1164
tp1165
Rp1166
tp1167
a(S'united states v. google inc.'
p1168
g2
(g6
S'\x9e\x1c\x8f204\xd8?'
p1169
tp1170
Rp1171
tp1172
a(S'even murderers take holidays and other mysteries'
p1173
g2
(g6
S'\x0f\x97)\x1d\xf61\xd8?'
p1174
tp1175
Rp1176
tp1177
a(S'joseph c. eversole'
p1178
g2
(g6
S'i\xe0qa\xe0&\xd8?'
p1179
tp1180
Rp1181
tp1182
a(S'george c. page'
p1183
g2
(g6
S'\xfb4q\xe4\x96\x15\xd8?'
p1184
tp1185
Rp1186
tp1187
a(S'goog-411'
p1188
g2
(g6
S'\x13\xbb\x1b\x86P\x11\xd8?'
p1189
tp1190
Rp1191
tp1192
a(S'google earth outreach'
p1193
g2
(g6
S'2\xed\x91\xd4,\r\xd8?'
p1194
tp1195
Rp1196
tp1197
a(S'google book search settlement agreement'
p1198
g2
(g6
S'\x0b\xa0\xff\x9d,\t\xd8?'
p1199
tp1200
Rp1201
tp1202
a(S'orkut'
p1203
g2
(g6
S'\x1f\x94OF<\x07\xd8?'
p1204
tp1205
Rp1206
tp1207
a(S'google videos'
p1208
g2
(g6
S'\xc6\x95;\xd0\xd8\xfe\xd7?'
p1209
tp1210
Rp1211
tp1212
a(S'googlism'
p1213
g2
(g6
S'\xfec\x07;q\xfd\xd7?'
p1214
tp1215
Rp1216
tp1217
a(S'google keep'
p1218
g2
(g6
S'\xd5O\x9f\x82\xdb\xf9\xd7?'
p1219
tp1220
Rp1221
tp1222
a(S'rajen sheth'
p1223
g2
(g6
S'8\xe8\xec%6\xea\xd7?'
p1224
tp1225
Rp1226
tp1227
a(S'jonathan rosenberg (technologist)'
p1228
g2
(g6
S'xl\xb1\xfe\xe0\xe5\xd7?'
p1229
tp1230
Rp1231
tp1232
a(S'the secrets to app success on google play'
p1233
g2
(g6
S'\xc9Q\xf4\x0e3\xe2\xd7?'
p1234
tp1235
Rp1236
tp1237
a(S'first price'
p1238
g2
(g6
S'"\x1dc\x85\x99\xde\xd7?'
p1239
tp1240
Rp1241
tp1242
a(S'rebecca moore (scientist)'
p1243
g2
(g6
S'\xde-\xf0&f\xd5\xd7?'
p1244
tp1245
Rp1246
tp1247
a(S'google map maker'
p1248
g2
(g6
S'\xa6E\xa9\x8a\xc9\xc5\xd7?'
p1249
tp1250
Rp1251
tp1252
a(S'thomas page (cricketer)'
p1253
g2
(g6
S'\xcc\x93\x92E\x8d\xc1\xd7?'
p1254
tp1255
Rp1256
tp1257
a(S'google, inc. v. american blind & wallpaper factory, inc.'
p1258
g2
(g6
S'\xaf\xc7\xca\x8d)\xbd\xd7?'
p1259
tp1260
Rp1261
tp1262
a(S'google wifi'
p1263
g2
(g6
S'\xe7\xaa\xacb\xf1\xbb\xd7?'
p1264
tp1265
Rp1266
tp1267
a(S'google tv'
p1268
g2
(g6
S'~\xcf\rG\xcd\xb7\xd7?'
p1269
tp1270
Rp1271
tp1272
a(S'google checkout'
p1273
g2
(g6
S'Q\xd8]\xb0\xda\xad\xd7?'
p1274
tp1275
Rp1276
tp1277
a(S'socialwok'
p1278
g2
(g6
S'\xa0\xd8\xd1\x86\x83\xab\xd7?'
p1279
tp1280
Rp1281
tp1282
a(S'walter hines page senior high school'
p1283
g2
(g6
S'r\x9eP\x87\xe1\xa8\xd7?'
p1284
tp1285
Rp1286
tp1287
a(S'google friend connect'
p1288
g2
(g6
S'\xd3\xb7\xa0<0\xa2\xd7?'
p1289
tp1290
Rp1291
tp1292
a(S'google free zone'
p1293
g2
(g6
S'W\x81\xea\xd3\x8a\xa1\xd7?'
p1294
tp1295
Rp1296
tp1297
a(S'martin page'
p1298
g2
(g6
S'\x7f\xbd\xa1\xea~\x96\xd7?'
p1299
tp1300
Rp1301
tp1302
a(S'google hacks'
p1303
g2
(g6
S'|j3\xef\xb1\x84\xd7?'
p1304
tp1305
Rp1306
tp1307
a(S'google drawings'
p1308
g2
(g6
S'\xa6\xb5\x8d)\x97\x80\xd7?'
p1309
tp1310
Rp1311
tp1312
a(S'sandbox effect'
p1313
g2
(g6
S'\x9f7KE\xae\x7f\xd7?'
p1314
tp1315
Rp1316
tp1317
a(S'google code-in'
p1318
g2
(g6
S'\xa2^\xb5\x8cJ}\xd7?'
p1319
tp1320
Rp1321
tp1322
a(S'uberconference'
p1323
g2
(g6
S'\x89\xce\xcc\x18\xeav\xd7?'
p1324
tp1325
Rp1326
tp1327
a(S'google shell'
p1328
g2
(g6
S'\x97&c\x8bys\xd7?'
p1329
tp1330
Rp1331
tp1332
a(S'ecocho'
p1333
g2
(g6
S'\x1a/{\xf3Yl\xd7?'
p1334
tp1335
Rp1336
tp1337
a(S'search neutrality'
p1338
g2
(g6
S'\x8a\xfa\x01\xc2[e\xd7?'
p1339
tp1340
Rp1341
tp1342
a(S"b\xc3\xa9l\xc3\xa1dy's anomaly"
p1343
g2
(g6
S'\xa3\xa1Vo\xa4c\xd7?'
p1344
tp1345
Rp1346
tp1347
a(S'gdocsdrive'
p1348
g2
(g6
S'\x13T\x9b\xe9\x0e_\xd7?'
p1349
tp1350
Rp1351
tp1352
a(S'imageamerica'
p1353
g2
(g6
S'&\xbce\x80\xd5[\xd7?'
p1354
tp1355
Rp1356
tp1357
a(S'adscape'
p1358
g2
(g6
S'\xf1*8\r?[\xd7?'
p1359
tp1360
Rp1361
tp1362
a(S'hendrik hondius i'
p1363
g2
(g6
S'\xe2\xa8\xe8{\x96V\xd7?'
p1364
tp1365
Rp1366
tp1367
a(S'google notebook'
p1368
g2
(g6
S'y\xd0\x93CET\xd7?'
p1369
tp1370
Rp1371
tp1372
a(S'david drummond (google)'
p1373
g2
(g6
S'\xa9\xd6\xc2\xe9\xffS\xd7?'
p1374
tp1375
Rp1376
tp1377
a(S'udi manber'
p1378
g2
(g6
S'\x9e\xe9\x06N\xd0N\xd7?'
p1379
tp1380
Rp1381
tp1382
a(S'backlink'
p1383
g2
(g6
S'\xad\x0b\xc1\x14`<\xd7?'
p1384
tp1385
Rp1386
tp1387
a(S'page house'
p1388
g2
(g6
S'\xd3\xc4`\x1c\xfc;\xd7?'
p1389
tp1390
Rp1391
tp1392
a(S'greenborder'
p1393
g2
(g6
S'\xbe\x80w\xf0\xa5;\xd7?'
p1394
tp1395
Rp1396
tp1397
a(S'book rights registry'
p1398
g2
(g6
S'\xbf\xecr\x92z5\xd7?'
p1399
tp1400
Rp1401
tp1402
a(S'picasa'
p1403
g2
(g6
S'>\xa3D\x8eq1\xd7?'
p1404
tp1405
Rp1406
tp1407
a(S"o'kroley v. fastcase, inc."
p1408
g2
(g6
S'OW:?\x03.\xd7?'
p1409
tp1410
Rp1411
tp1412
a(S'google image swirl'
p1413
g2
(g6
S'V\xc5tB\x04*\xd7?'
p1414
tp1415
Rp1416
tp1417
a(S'jeff dean (computer scientist)'
p1418
g2
(g6
S'\x82\x9e\xd0`w\x1b\xd7?'
p1419
tp1420
Rp1421
tp1422
a(S'google apps script'
p1423
g2
(g6
S'\xc7X\xbb*\xa5\n\xd7?'
p1424
tp1425
Rp1426
tp1427
a(S'craig silverstein'
p1428
g2
(g6
S'\xde\x1e\x14\xc5\xf4\t\xd7?'
p1429
tp1430
Rp1431
tp1432
a(S'google powermeter'
p1433
g2
(g6
S'\xdc\x98{\xa1\xe8\xff\xd6?'
p1434
tp1435
Rp1436
tp1437
a(S'knowledge graph'
p1438
g2
(g6
S'=\x05F\x86\xf3\xfd\xd6?'
p1439
tp1440
Rp1441
tp1442
a(S'google toolbar'
p1443
g2
(g6
S'\xb3\x80\x90\xe8\xbd\xfb\xd6?'
p1444
tp1445
Rp1446
tp1447
a(S'supplemental result'
p1448
g2
(g6
S'\xa0\x0b^_P\xf1\xd6?'
p1449
tp1450
Rp1451
tp1452
a(S'dilan jayawardane'
p1453
g2
(g6
S'\xdfRN\x9a\x1b\xf1\xd6?'
p1454
tp1455
Rp1456
tp1457
a(S'john page (middle plantation)'
p1458
g2
(g6
S'\xce\x1c\xe9h\x8f\xee\xd6?'
p1459
tp1460
Rp1461
tp1462
a(S'lovelock! (album)'
p1463
g2
(g6
S'W\xe5l\xc1\xa3\xea\xd6?'
p1464
tp1465
Rp1466
tp1467
a(S'miui'
p1468
g2
(g6
S'|\x18\xa5\xd2>\xe7\xd6?'
p1469
tp1470
Rp1471
tp1472
a(S'megan smith'
p1473
g2
(g6
S'\x10\x0c\x84\n\x8e\xe4\xd6?'
p1474
tp1475
Rp1476
tp1477
a(S'google maori'
p1478
g2
(g6
S'\x06ao\x1f\xdf\xe2\xd6?'
p1479
tp1480
Rp1481
tp1482
a(S'search engine manipulation effect'
p1483
g2
(g6
S'qt\xad\x82\x87\xe2\xd6?'
p1484
tp1485
Rp1486
tp1487
a(S'google penguin'
p1488
g2
(g6
S'Y\xe81\xda\xdd\xde\xd6?'
p1489
tp1490
Rp1491
tp1492
a(S'google cloud connect'
p1493
g2
(g6
S'\xa4Q\xdfE\x8f\xd7\xd6?'
p1494
tp1495
Rp1496
tp1497
a(S'centre for theology and public issues'
p1498
g2
(g6
S'\x19`+\x03|\xd7\xd6?'
p1499
tp1500
Rp1501
tp1502
a(S'like.com'
p1503
g2
(g6
S'X??\xb1\x1b\xd7\xd6?'
p1504
tp1505
Rp1506
tp1507
a(S'google web components'
p1508
g2
(g6
S"*~\xe2\x19'\xce\xd6?"
p1509
tp1510
Rp1511
tp1512
a.