(lp0
(S'latent dirichlet allocation'
p1
cnumpy.core.multiarray
scalar
p2
(cnumpy
dtype
p3
(S'f8'
p4
I0
I1
tp5
Rp6
(I3
S'<'
p7
NNNI-1
I-1
I0
tp8
bS'\xfa\xff\xff\xff\xff\xff\xef?'
p9
tp10
Rp11
tp12
a(S'dynamic topic model'
p13
g2
(g6
S'\xc55\xb4H\xf3\xb6\xe3?'
p14
tp15
Rp16
tp17
a(S'topic model'
p18
g2
(g6
S'm\x0e\xf2\xaa=e\xe2?'
p19
tp20
Rp21
tp22
a(S'localizer type directional aid'
p23
g2
(g6
S'\x1c\xd0\x03\x91\x9c\x13\xe0?'
p24
tp25
Rp26
tp27
a(S'dirichlet-multinomial distribution'
p28
g2
(g6
S' S\x98\x01\xc2<\xdf?'
p29
tp30
Rp31
tp32
a(S'pachinko allocation'
p33
g2
(g6
S'\xeb\x03\xefb4K\xd9?'
p34
tp35
Rp36
tp37
a(S'linear discriminant analysis'
p38
g2
(g6
S'>\xc6\x80\xed\x95\xc9\xd8?'
p39
tp40
Rp41
tp42
a(S'london democratic association'
p43
g2
(g6
S':<\x8d\xab\xf9$\xd8?'
p44
tp45
Rp46
tp47
a(S'dirichlet process'
p48
g2
(g6
S'+\x86\x9f\xb7\xdf\x15\xd7?'
p49
tp50
Rp51
tp52
a(S'probabilistic latent semantic analysis'
p53
g2
(g6
S'\t\rg\xcco\xd2\xd6?'
p54
tp55
Rp56
tp57
a(S'dirichlet distribution'
p58
g2
(g6
S'a\xa2\x8b\x01\x07\xc4\xd6?'
p59
tp60
Rp61
tp62
a(S'topic'
p63
g2
(g6
S'\xd0n*Me{\xd6?'
p64
tp65
Rp66
tp67
a(S'hierarchical dirichlet process'
p68
g2
(g6
S'Ntu\x05\xaaB\xd6?'
p69
tp70
Rp71
tp72
a(S'lockspeiser lda-01'
p73
g2
(g6
S'\xbc&l\x02P\xe3\xd5?'
p74
tp75
Rp76
tp77
a(S'concentration parameter'
p78
g2
(g6
S'\x8ek~\nA\x00\xd5?'
p79
tp80
Rp81
tp82
a(S'topic maps'
p83
g2
(g6
S'\x80\xf8\x8b\xb0\xd9\xf9\xd3?'
p84
tp85
Rp86
tp87
a(S'plate notation'
p88
g2
(g6
S'\x03\xd4\x8fW\x03s\xd3?'
p89
tp90
Rp91
tp92
a(S'gibbs sampling'
p93
g2
(g6
S'\x07\xa8\xd5\xe2\x00G\xd3?'
p94
tp95
Rp96
tp97
a(S'gensim'
p98
g2
(g6
S'\x87\xef5-\xc58\xd3?'
p99
tp100
Rp101
tp102
a(S'lithium diisopropylamide'
p103
g2
(g6
S'w\xb82\xa6\xed\x11\xd3?'
p104
tp105
Rp106
tp107
a(S'topic and comment'
p108
g2
(g6
S'\xe0\xa8\n\xc3\x86\xab\xd2?'
p109
tp110
Rp111
tp112
a(S'lahore development authority'
p113
g2
(g6
S'U\x08/\xf3\xe7\x97\xd2?'
p114
tp115
Rp116
tp117
a(S'inverted dirichlet distribution'
p118
g2
(g6
S'{J\xad\\Ni\xd2?'
p119
tp120
Rp121
tp122
a(S'document-term matrix'
p123
g2
(g6
S'\x8a\x82\x1d\x9bq"\xd2?'
p124
tp125
Rp126
tp127
a(S'david blei'
p128
g2
(g6
S'-Y\xd3{%\xc1\xd1?'
p129
tp130
Rp131
tp132
a(S'topic-based vector space model'
p133
g2
(g6
S'\xa9~\xab\xe1\x07\x83\xd1?'
p134
tp135
Rp136
tp137
a(S'categorical distribution'
p138
g2
(g6
S'\x8e\x14\x1d\x86\xee}\xd1?'
p139
tp140
Rp141
tp142
a(S'mixture model'
p143
g2
(g6
S'\x9b\x7f\x97\x80e4\xd1?'
p144
tp145
Rp146
tp147
a(S'linear diode array'
p148
g2
(g6
S'<\x1d\x95\xf4\xb4.\xd1?'
p149
tp150
Rp151
tp152
a(S'list of things named after peter gustav lejeune dirichlet'
p153
g2
(g6
S',\xf0\xa1\xf9G.\xd1?'
p154
tp155
Rp156
tp157
a(S'london development agency'
p158
g2
(g6
S'\xf4\xf4\x10\\\xdb\xfc\xd0?'
p159
tp160
Rp161
tp162
a(S'topic-prominent language'
p163
g2
(g6
S'\xff\xd3\x8a\xa9:\xd2\xd0?'
p164
tp165
Rp166
tp167
a(S'vector space model'
p168
g2
(g6
S'\x1d}#z\xc4\xbd\xd0?'
p169
tp170
Rp171
tp172
a(S'bag-of-words model in computer vision'
p173
g2
(g6
S"\xb3\xbePV'\xa1\xd0?"
p174
tp175
Rp176
tp177
a(S"dirichlet's energy"
p178
g2
(g6
S'vn|\xbaY\xd4\xcf?'
p179
tp180
Rp181
tp182
a(S'peter gustav lejeune dirichlet'
p183
g2
(g6
S'\x80\x81G6\xee\xb5\xcf?'
p184
tp185
Rp186
tp187
a(S'variational bayesian methods'
p188
g2
(g6
S'\xc9x\xc2|-\x8d\xcf?'
p189
tp190
Rp191
tp192
a(S'hor\xc3\xa1rios do funchal'
p193
g2
(g6
S'Mk(&-\x83\xcf?'
p194
tp195
Rp196
tp197
a(S'query likelihood model'
p198
g2
(g6
S'\xfa\xe9\x99\xf4ai\xcf?'
p199
tp200
Rp201
tp202
a(S"history's mysteries"
p203
g2
(g6
S'\x8f\xc1\x9bU`/\xcf?'
p204
tp205
Rp206
tp207
a(S'dirichlet form'
p208
g2
(g6
S'\xe8\xa1n\xa0m\x18\xcf?'
p209
tp210
Rp211
tp212
a(S'object categorization from image search'
p213
g2
(g6
S'X}\xcd\xbdp\xef\xce?'
p214
tp215
Rp216
tp217
a(S'dirichlet series'
p218
g2
(g6
S'[\\\xeaiG\xea\xce?'
p219
tp220
Rp221
tp222
a(S's.c.a.m.p.e.r'
p223
g2
(g6
S'\x7f\x833\xce\xe5\xe8\xce?'
p224
tp225
Rp226
tp227
a(S'gla land and property'
p228
g2
(g6
S'\x01\x9d\xf3\xb7\x1f\xde\xce?'
p229
tp230
Rp231
tp232
a(S'outburst (game)'
p233
g2
(g6
S'\xbc@\x02u\x9f~\xce?'
p234
tp235
Rp236
tp237
a(S"dirichlet's principle"
p238
g2
(g6
S'\xb6fw\x80\xb3c\xce?'
p239
tp240
Rp241
tp242
a(S'competefor'
p243
g2
(g6
S'9\xb2\x0ef\x9b`\xce?'
p244
tp245
Rp246
tp247
a(S'language model'
p248
g2
(g6
S'\xd4L\xe1l\x82D\xce?'
p249
tp250
Rp251
tp252
a(S'topic marker'
p253
g2
(g6
S'\xbdc\xbcY\xd85\xce?'
p254
tp255
Rp256
tp257
a(S'imprecise dirichlet process'
p258
g2
(g6
S'\x89\x197\xef\x14-\xce?'
p259
tp260
Rp261
tp262
a(S'grouped dirichlet distribution'
p263
g2
(g6
S'\t\x9f\xb0u\x99\xe3\xcd?'
p264
tp265
Rp266
tp267
a(S'multinomial distribution'
p268
g2
(g6
S'\x89\xc6\x94\x9c\xb5\xc7\xcd?'
p269
tp270
Rp271
tp272
a(S'pitman\xe2\x80\x93yor process'
p273
g2
(g6
S'\x88cqD\x88\xc0\xcd?'
p274
tp275
Rp276
tp277
a(S'hidden markov model'
p278
g2
(g6
S'\xdf\xb9Z#\xc2j\xcd?'
p279
tp280
Rp281
tp282
a(S'generative model'
p283
g2
(g6
S'\x034\x81Q\x176\xcd?'
p284
tp285
Rp286
tp287
a(S'dirichlet problem'
p288
g2
(g6
S'!\xb0uN\xaf%\xcd?'
p289
tp290
Rp291
tp292
a(S'lda'
p293
g2
(g6
S'6\xccY[\xb1\x17\xcd?'
p294
tp295
Rp296
tp297
a(S'more (application)'
p298
g2
(g6
S'q7\xca\xfc\xdf\xef\xcc?'
p299
tp300
Rp301
tp302
a(S'word2vec'
p303
g2
(g6
S'2QT\xffe\xae\xcc?'
p304
tp305
Rp306
tp307
a(S'document modelling'
p308
g2
(g6
S'\xb1\x0c\x85\xe5\xb7\x82\xcc?'
p309
tp310
Rp311
tp312
a(S'topic: the washington & jefferson college review'
p313
g2
(g6
S'\xaa\x80_\xb6og\xcc?'
p314
tp315
Rp316
tp317
a(S'binary independence model'
p318
g2
(g6
S'\xd5|\x9eis;\xcc?'
p319
tp320
Rp321
tp322
a(S'table topic'
p323
g2
(g6
S'2)y\t\x84\x02\xcc?'
p324
tp325
Rp326
tp327
a(S'cedar-fox'
p328
g2
(g6
S'\xf6TD%\xcc\xdb\xcb?'
p329
tp330
Rp331
tp332
a(S'dirichlet l-function'
p333
g2
(g6
S'4\xe6:\xd4g\xdb\xcb?'
p334
tp335
Rp336
tp337
a(S'hot topic'
p338
g2
(g6
S'\x98\x16\xe7^\xfc\xd8\xcb?'
p339
tp340
Rp341
tp342
a(S'document'
p343
g2
(g6
S'\xa1D\xad\xe9\x8b\xd4\xcb?'
p344
tp345
Rp346
tp347
a(S'document management system'
p348
g2
(g6
S'Pk\x10\x03\x91\x92\xcb?'
p349
tp350
Rp351
tp352
a(S'probit model'
p353
g2
(g6
S'J\xf0B\xe8P\x8b\xcb?'
p354
tp355
Rp356
tp357
a(S'probability distribution'
p358
g2
(g6
S'\x98\x1b\xa6\xc5"\x83\xcb?'
p359
tp360
Rp361
tp362
a(S'local-density approximation'
p363
g2
(g6
S'p\xb8\xcc\x11\xcat\xcb?'
p364
tp365
Rp366
tp367
a(S'kernel fisher discriminant analysis'
p368
g2
(g6
S'\x95\xc8\\p\x15j\xcb?'
p369
tp370
Rp371
tp372
a(S'document comparison'
p373
g2
(g6
S'2\x13gs\xdc\x1b\xcb?'
p374
tp375
Rp376
tp377
a(S'latent semantic analysis'
p378
g2
(g6
S'\xcbg>R:\x1b\xcb?'
p379
tp380
Rp381
tp382
a(S'bag-of-words model'
p383
g2
(g6
S'l\x0f\x91\xd3L\x08\xcb?'
p384
tp385
Rp386
tp387
a(S'document (disambiguation)'
p388
g2
(g6
S'\xc6JP\xdd\x7f\x05\xcb?'
p389
tp390
Rp391
tp392
a(S'discourse topic'
p393
g2
(g6
S'&\x8e!Sv\xf9\xca?'
p394
tp395
Rp396
tp397
a(S'generalized dirichlet distribution'
p398
g2
(g6
S'\x9bE\xcb5\xfb\xe6\xca?'
p399
tp400
Rp401
tp402
a(S'bayesian hierarchical modeling'
p403
g2
(g6
S'\xde\xc7l\x02b\xd7\xca?'
p404
tp405
Rp406
tp407
a(S'off topic'
p408
g2
(g6
S'\xe1\xe2\x12G\x98\xd0\xca?'
p409
tp410
Rp411
tp412
a(S'united states case law topical index'
p413
g2
(g6
S'\xd9\xa6U[`\xcf\xca?'
p414
tp415
Rp416
tp417
a(S'collaborative document review'
p418
g2
(g6
S'\x10\xb0\xd5E9\xcd\xca?'
p419
tp420
Rp421
tp422
a(S'logit-normal distribution'
p423
g2
(g6
S'"\x94B\x84\xc5\xcb\xca?'
p424
tp425
Rp426
tp427
a(S'ib group 4 subjects'
p428
g2
(g6
S']\x7f\xa1\x13\xe1\xca\xca?'
p429
tp430
Rp431
tp432
a(S'perplexity'
p433
g2
(g6
S'\x80\xcfo\xef[\xb9\xca?'
p434
tp435
Rp436
tp437
a(S'scenari'
p438
g2
(g6
S'\xbf\x89\xf9\xdd=\x96\xca?'
p439
tp440
Rp441
tp442
a(S'bayesian network'
p443
g2
(g6
S'\xf2\xd3n\xb8a\x95\xca?'
p444
tp445
Rp446
tp447
a(S'rule of succession'
p448
g2
(g6
S'\xcf@\x8b,\xa7\x82\xca?'
p449
tp450
Rp451
tp452
a(S'ibm alignment models'
p453
g2
(g6
S'e\xe7\xb4|\xfdY\xca?'
p454
tp455
Rp456
tp457
a(S'transmittal document'
p458
g2
(g6
S'j\xb0 \xd2\xff5\xca?'
p459
tp460
Rp461
tp462
a(S'international association of students in agricultural and related sciences'
p463
g2
(g6
S"\x87\xff\x95@\xb0'\xca?"
p464
tp465
Rp466
tp467
a(S'living document'
p468
g2
(g6
S'\xfb\xa6A\xee;#\xca?'
p469
tp470
Rp471
tp472
a(S'list of statistics articles'
p473
g2
(g6
S'\x1bY1\xdd\xf4\x16\xca?'
p474
tp475
Rp476
tp477
a(S'estimation of distribution algorithm'
p478
g2
(g6
S'\x02L\xec\x0b\xf4\xfb\xc9?'
p479
tp480
Rp481
tp482
a(S'bid 770'
p483
g2
(g6
S'\xb9\xc3\xfd\xa6\xcb\xd6\xc9?'
p484
tp485
Rp486
tp487
a(S'semantic analysis (machine learning)'
p488
g2
(g6
S'\x87\x9eHbt\xc0\xc9?'
p489
tp490
Rp491
tp492
a(S'document engineering'
p493
g2
(g6
S'\xc9\x03\xa7\xab}\x9c\xc9?'
p494
tp495
Rp496
tp497
a(S'multi-document summarization'
p498
g2
(g6
S'\xb9!\xcfx\xdd\x1f\xc9?'
p499
tp500
Rp501
tp502
a(S'automatic summarization'
p503
g2
(g6
S'd(m\x18\x08\n\xc9?'
p504
tp505
Rp506
tp507
a(S'marginal distribution'
p508
g2
(g6
S'\xb0\x97\xffJ\xd1\t\xc9?'
p509
tp510
Rp511
tp512
a(S'joint probability distribution'
p513
g2
(g6
S'\x07\xe3\xff\x1c\x82\xfc\xc8?'
p514
tp515
Rp516
tp517
a(S'compound probability distribution'
p518
g2
(g6
S'\xff\x18\xc6G\xf4\xec\xc8?'
p519
tp520
Rp521
tp522
a(S'statistical model'
p523
g2
(g6
S'\xe2\xf0\x0fm;\xe6\xc8?'
p524
tp525
Rp526
tp527
a(S'neutral vector'
p528
g2
(g6
S'g}\xc7k\xb6\xd6\xc8?'
p529
tp530
Rp531
tp532
a(S'magportal'
p533
g2
(g6
S'\xb1@\x8f\x84H\xd0\xc8?'
p534
tp535
Rp536
tp537
a(S'prewriting'
p538
g2
(g6
S'Z\xfb\x88\xe9\x07\xcd\xc8?'
p539
tp540
Rp541
tp542
a(S"student's t-distribution"
p543
g2
(g6
S'?I\xa1\xee\x10\xac\xc8?'
p544
tp545
Rp546
tp547
a(S'global document type identifier'
p548
g2
(g6
S'\xc9\x90\x13~\x82\x98\xc8?'
p549
tp550
Rp551
tp552
a(S'structural equations with latent variables'
p553
g2
(g6
S'\xc0]\xc8=\xa8\x91\xc8?'
p554
tp555
Rp556
tp557
a(S'dispatches (magazine)'
p558
g2
(g6
S'\xb5\\\x05\x8f\xcc\x82\xc8?'
p559
tp560
Rp561
tp562
a(S'mathematical statistics'
p563
g2
(g6
S'\xb8\xae\x9a\xe2\xdel\xc8?'
p564
tp565
Rp566
tp567
a(S'document automation'
p568
g2
(g6
S'n%\x07^\xcae\xc8?'
p569
tp570
Rp571
tp572
a(S'los de abajo (band)'
p573
g2
(g6
S'3\xa9\x8a\xdc:J\xc8?'
p574
tp575
Rp576
tp577
a(S'explicit semantic analysis'
p578
g2
(g6
S'\x9f\x90R\x1b\xfbE\xc8?'
p579
tp580
Rp581
tp582
a(S'aspose.words'
p583
g2
(g6
S'\xd60X\xd3\x038\xc8?'
p584
tp585
Rp586
tp587
a(S'lists of mathematics topics'
p588
g2
(g6
S'\x8b\xc3\xb6\x0e\x07"\xc8?'
p589
tp590
Rp591
tp592
a(S'legal document assistant'
p593
g2
(g6
S'\x18@\xec\xe9k\xf6\xc7?'
p594
tp595
Rp596
tp597
a(S'bayesian programming'
p598
g2
(g6
S'\xf1"{m\xe8\xed\xc7?'
p599
tp600
Rp601
tp602
a(S'diisopropylamine'
p603
g2
(g6
S'\x19K\x7f\x0f\xd0\xec\xc7?'
p604
tp605
Rp606
tp607
a(S'westmeath topic'
p608
g2
(g6
S'q\x14\xfd\x9eE\xe5\xc7?'
p609
tp610
Rp611
tp612
a(S'bayesian inference'
p613
g2
(g6
S'bo\x0b\x1c\x0b\xe4\xc7?'
p614
tp615
Rp616
tp617
a(S'baryancistrus'
p618
g2
(g6
S'\xb1\xd0g\xa4\xab\xc2\xc7?'
p619
tp620
Rp621
tp622
a(S'studentized range distribution'
p623
g2
(g6
S'\x0cz\x10\xb8}\xc0\xc7?'
p624
tp625
Rp626
tp627
a(S'information structure'
p628
g2
(g6
S"\x8cG'\xd1m\xc0\xc7?"
p629
tp630
Rp631
tp632
a(S'logogen model'
p633
g2
(g6
S'\x1b\x1c\xecx-\xc0\xc7?'
p634
tp635
Rp636
tp637
a(S'youbeq'
p638
g2
(g6
S'6\xb8\x1b\xabQ\xbf\xc7?'
p639
tp640
Rp641
tp642
a(S'dirichlet beta function'
p643
g2
(g6
S'\x95\xaf\xd8\xdf\x07\xb0\xc7?'
p644
tp645
Rp646
tp647
a(S'latent variable'
p648
g2
(g6
S'\xf6&d\xc2*\xa3\xc7?'
p649
tp650
Rp651
tp652
a(S'dirichlet eigenvalue'
p653
g2
(g6
S'53O\x89\x16\x9f\xc7?'
p654
tp655
Rp656
tp657
a(S'spike-and-slab variable selection'
p658
g2
(g6
S'E\xc4\x06o\xe8\x9b\xc7?'
p659
tp660
Rp661
tp662
a(S'bayesian econometrics'
p663
g2
(g6
S'\x9eU\xc3\xff\xf2\x98\xc7?'
p664
tp665
Rp666
tp667
a(S'document-oriented database'
p668
g2
(g6
S'\x93\xf5\xd2\x00\xd7\x98\xc7?'
p669
tp670
Rp671
tp672
a(S'binomial regression'
p673
g2
(g6
S'\x0f0\x9b\x8a\x11\x92\xc7?'
p674
tp675
Rp676
tp677
a(S'probability and statistics'
p678
g2
(g6
S'\x1c\xe4\x84\xc5\xfe\x8f\xc7?'
p679
tp680
Rp681
tp682
a(S'bayesian linear regression'
p683
g2
(g6
S'A\xb7\xa1)\x8c\x88\xc7?'
p684
tp685
Rp686
tp687
a(S'k-distribution'
p688
g2
(g6
S'\\W\xf3\x96\xe3\x7f\xc7?'
p689
tp690
Rp691
tp692
a(S'bates distribution'
p693
g2
(g6
S'&\xac+\x12\x13u\xc7?'
p694
tp695
Rp696
tp697
a(S'forward\xe2\x80\x93backward algorithm'
p698
g2
(g6
S'A\xa23}\xadl\xc7?'
p699
tp700
Rp701
tp702
a(S'document collaboration'
p703
g2
(g6
S'\xa1~\x1c\x81Ue\xc7?'
p704
tp705
Rp706
tp707
a(S'unmik travel document'
p708
g2
(g6
S'\xaa\xc9\x01T\xdaZ\xc7?'
p709
tp710
Rp711
tp712
a(S'list of probability distributions'
p713
g2
(g6
S'S9\xbe\xf3\x0bD\xc7?'
p714
tp715
Rp716
tp717
a(S'dirichlet convolution'
p718
g2
(g6
S"'\xcd\x00\xdd,>\xc7?"
p719
tp720
Rp721
tp722
a(S'word count'
p723
g2
(g6
S'\x05^b\xb7N8\xc7?'
p724
tp725
Rp726
tp727
a(S'dirichlet space'
p728
g2
(g6
S'\xbdK\x95\x8f\xe85\xc7?'
p729
tp730
Rp731
tp732
a(S'outline of probability'
p733
g2
(g6
S'NY\x1d\xb9\xd8*\xc7?'
p734
tp735
Rp736
tp737
a(S'search engine indexing'
p738
g2
(g6
S'\x914i\xc1\x8e"\xc7?'
p739
tp740
Rp741
tp742
a(S'inverse transform sampling'
p743
g2
(g6
S'U\x13s\x8e\xaa\x1c\xc7?'
p744
tp745
Rp746
tp747
a(S'uncertain inference'
p748
g2
(g6
S'\x93\xb2\xa5^\xf4\xfd\xc6?'
p749
tp750
Rp751
tp752
a(S'contractexpress'
p753
g2
(g6
S'b`k\x12%\xf6\xc6?'
p754
tp755
Rp756
tp757
a(S'word (group theory)'
p758
g2
(g6
S'z\xc4VQ\x9d\xf0\xc6?'
p759
tp760
Rp761
tp762
a(S'dirichlet kernel'
p763
g2
(g6
S'\x08\xf9$w\xe0\xec\xc6?'
p764
tp765
Rp766
tp767
a(S'interleaf'
p768
g2
(g6
S'\xa6v\xe1O\xa1\xda\xc6?'
p769
tp770
Rp771
tp772
a(S'document processing'
p773
g2
(g6
S'Q4\xf49\xa9\xcd\xc6?'
p774
tp775
Rp776
tp777
a(S'dirichlet conditions'
p778
g2
(g6
S'\x06t\xea_\xaf\xa9\xc6?'
p779
tp780
Rp781
tp782
a(S'concept mining'
p783
g2
(g6
S'ju\x049N\xa2\xc6?'
p784
tp785
Rp786
tp787
a(S'arcsine distribution'
p788
g2
(g6
S'g\x17\x10\xe8N\x99\xc6?'
p789
tp790
Rp791
tp792
a(S'wysiwym'
p793
g2
(g6
S'\xfa\x8b\xc39\xb0\x92\xc6?'
p794
tp795
Rp796
tp797
a(S'microsoft word'
p798
g2
(g6
S'\xa3\x8c[\xd0\xc5\x8e\xc6?'
p799
tp800
Rp801
tp802
a(S'bayesian inference in phylogeny'
p803
g2
(g6
S'\xa7j\xd1\xc2\x0b\x89\xc6?'
p804
tp805
Rp806
tp807
a(S'linear classifier'
p808
g2
(g6
S'+#<\x0c\xadr\xc6?'
p809
tp810
Rp811
tp812
a(S'product distribution'
p813
g2
(g6
S'v\x1f0*\xd8g\xc6?'
p814
tp815
Rp816
tp817
a(S'itt 2020'
p818
g2
(g6
S'[\xa8\x02\x8d\xadZ\xc6?'
p819
tp820
Rp821
tp822
a(S'gompertz distribution'
p823
g2
(g6
S'\xfb\xe7\xf7\x82\x10W\xc6?'
p824
tp825
Rp826
tp827
a(S'andorran parliamentary election, 2015'
p828
g2
(g6
S'\xfe\xd9\xa5r|M\xc6?'
p829
tp830
Rp831
tp832
a(S'multinomial logistic regression'
p833
g2
(g6
S'\x0e\x10\x04\x7f\xf2G\xc6?'
p834
tp835
Rp836
tp837
a(S'probability distribution fitting'
p838
g2
(g6
S'6\xc5\xd2\xebb6\xc6?'
p839
tp840
Rp841
tp842
a(S'statistically improbable phrase'
p843
g2
(g6
S'1\xfbfi\xed.\xc6?'
p844
tp845
Rp846
tp847
a(S'marginal likelihood'
p848
g2
(g6
S'A\x00.\x16\xe6+\xc6?'
p849
tp850
Rp851
tp852
a(S'f-distribution'
p853
g2
(g6
S'\xc9\xe0\xd2\xe2\x8c$\xc6?'
p854
tp855
Rp856
tp857
a(S'dirichlet density'
p858
g2
(g6
S'\xc3\xec\x02bF\x1e\xc6?'
p859
tp860
Rp861
tp862
a(S'generalized linear model'
p863
g2
(g6
S'd\x98\x12NY\x18\xc6?'
p864
tp865
Rp866
tp867
a(S'document layout analysis'
p868
g2
(g6
S'\xe8\xf4\x8as\xad\x17\xc6?'
p869
tp870
Rp871
tp872
a(S'symmetric probability distribution'
p873
g2
(g6
S'\xd0\xc1\xccj\xdc\x16\xc6?'
p874
tp875
Rp876
tp877
a(S'mixture distribution'
p878
g2
(g6
S'cs\xb5\x7fz\t\xc6?'
p879
tp880
Rp881
tp882
a(S'probability integral transform'
p883
g2
(g6
S'\xd0\xd9D\xafm\xf9\xc5?'
p884
tp885
Rp886
tp887
a(S'right to work law uk'
p888
g2
(g6
S'\xbc\xaf\x9d\xd2\xd5\xe3\xc5?'
p889
tp890
Rp891
tp892
a(S'indecomposable distribution'
p893
g2
(g6
S'\xe3\x8f\x1b\x1a\xfe\xda\xc5?'
p894
tp895
Rp896
tp897
a(S"zipf's law"
p898
g2
(g6
S'\xacp\\%/\xce\xc5?'
p899
tp900
Rp901
tp902
a(S'variational message passing'
p903
g2
(g6
S' \xcd!\x80\x9d\xcc\xc5?'
p904
tp905
Rp906
tp907
a(S'algorithmic inference'
p908
g2
(g6
S'\x80n\xd5E|\xc3\xc5?'
p909
tp910
Rp911
tp912
a(S'document number nine'
p913
g2
(g6
S'\xa6\x07\xf0\x17\x9f\xbb\xc5?'
p914
tp915
Rp916
tp917
a(S'eigenvalues and eigenvectors of the second derivative'
p918
g2
(g6
S'\xd3d\x87p\x1e\xba\xc5?'
p919
tp920
Rp921
tp922
a(S'probability density function'
p923
g2
(g6
S'\x0b\xf4\xdf\x9e\xc2\xb9\xc5?'
p924
tp925
Rp926
tp927
a(S'hotdocs'
p928
g2
(g6
S'\xbc\xcfPne\xb9\xc5?'
p929
tp930
Rp931
tp932
a(S'web messaging'
p933
g2
(g6
S'\x06\xeb\xb7q\x82\xa9\xc5?'
p934
tp935
Rp936
tp937
a(S'tektonica prize'
p938
g2
(g6
S'&n!\xf6\xa5\xa4\xc5?'
p939
tp940
Rp941
tp942
a(S'posterior predictive distribution'
p943
g2
(g6
S'\x7f\x00\xfa\x87\x81\xa4\xc5?'
p944
tp945
Rp946
tp947
a(S'theformtool'
p948
g2
(g6
S'MJ\xb4\xab\xb0\x9d\xc5?'
p949
tp950
Rp951
tp952
a(S'game design document'
p953
g2
(g6
S'\xab\xe5\xf7M\xfd\x99\xc5?'
p954
tp955
Rp956
tp957
a(S'exponential family'
p958
g2
(g6
S'yY\x1b{\xef\x98\xc5?'
p959
tp960
Rp961
tp962
a(S'transport document'
p963
g2
(g6
S'1C\xbe\x95D\x97\xc5?'
p964
tp965
Rp966
tp967
a(S'vorlesungen \xc3\xbcber zahlentheorie'
p968
g2
(g6
S'w\xd3\xe0\xbb\xfe\x95\xc5?'
p969
tp970
Rp971
tp972
a(S'dagum distribution'
p973
g2
(g6
S'_\x13\xbe\xc9\x17\x91\xc5?'
p974
tp975
Rp976
tp977
a(S'general dirichlet series'
p978
g2
(g6
S'\xcb\xb9\xcfcV\x8c\xc5?'
p979
tp980
Rp981
tp982
a(S'document-centric collaboration'
p983
g2
(g6
S'g\xb0Zy\x9a\x8a\xc5?'
p984
tp985
Rp986
tp987
a(S'latent class model'
p988
g2
(g6
S'\\\xef\xb8\xf7E\x83\xc5?'
p989
tp990
Rp991
tp992
a(S'latent variable model'
p993
g2
(g6
S'\xad\xde\xf6\xbe\xa7\x80\xc5?'
p994
tp995
Rp996
tp997
a(S'lists of statistics topics'
p998
g2
(g6
S'&A}%\xfa{\xc5?'
p999
tp1000
Rp1001
tp1002
a(S'document classification'
p1003
g2
(g6
S'\xa3\x0c\x0b\x8a\xbcr\xc5?'
p1004
tp1005
Rp1006
tp1007
a(S'bayesian probability'
p1008
g2
(g6
S'\xc1Me\xa8\x7fr\xc5?'
p1009
tp1010
Rp1011
tp1012
a(S'list of convolutions of probability distributions'
p1013
g2
(g6
S'\x19\x06t\xbe!h\xc5?'
p1014
tp1015
Rp1016
tp1017
a(S'cache language model'
p1018
g2
(g6
S'\xb8\xaa\x97O`e\xc5?'
p1019
tp1020
Rp1021
tp1022
a(S'flanagan brothers'
p1023
g2
(g6
S'G\x13\xae)\xa1c\xc5?'
p1024
tp1025
Rp1026
tp1027
a(S'causal graph'
p1028
g2
(g6
S'\x96\xe5\x80x\x98a\xc5?'
p1029
tp1030
Rp1031
tp1032
a(S'irwin\xe2\x80\x93hall distribution'
p1033
g2
(g6
S'\xcd\x0e\x98\xfb\x97X\xc5?'
p1034
tp1035
Rp1036
tp1037
a(S'mathematical model'
p1038
g2
(g6
S'\xabb\xd2c7U\xc5?'
p1039
tp1040
Rp1041
tp1042
a(S'document imaging'
p1043
g2
(g6
S'v\xa7\x17\x16\xc7G\xc5?'
p1044
tp1045
Rp1046
tp1047
a(S'vector generalized linear model'
p1048
g2
(g6
S'\xd7\x0bX\xa7\xcfE\xc5?'
p1049
tp1050
Rp1051
tp1052
a(S'inductive probability'
p1053
g2
(g6
S'\x03\xbd\xfa<iA\xc5?'
p1054
tp1055
Rp1056
tp1057
a(S'weibull distribution'
p1058
g2
(g6
S'\xeeIs\x1e\x90:\xc5?'
p1059
tp1060
Rp1061
tp1062
a(S'memorylessness'
p1063
g2
(g6
S'\xd9\xcd\xc5\x1b=6\xc5?'
p1064
tp1065
Rp1066
tp1067
a(S'identifiability'
p1068
g2
(g6
S'J\x1d\x8f\x05\x8a)\xc5?'
p1069
tp1070
Rp1071
tp1072
a(S'structural equation modeling'
p1073
g2
(g6
S'\x11\xf2+\x1eP(\xc5?'
p1074
tp1075
Rp1076
tp1077
a(S'cokurtosis'
p1078
g2
(g6
S'V\x7f\x1a\x00\xd5"\xc5?'
p1079
tp1080
Rp1081
tp1082
a(S'hyperexponential distribution'
p1083
g2
(g6
S'\xea\xc7\nc\xbd\x1f\xc5?'
p1084
tp1085
Rp1086
tp1087
a(S'inverse probability'
p1088
g2
(g6
S'7\xf4\xdfa\x0f\x1f\xc5?'
p1089
tp1090
Rp1091
tp1092
a(S'normal distribution'
p1093
g2
(g6
S'\xa4\xe0\xcd\xc8F\x1d\xc5?'
p1094
tp1095
Rp1096
tp1097
a(S'nakagami distribution'
p1098
g2
(g6
S'\x08r1\x80,\x1c\xc5?'
p1099
tp1100
Rp1101
tp1102
a(S'law of the unconscious statistician'
p1103
g2
(g6
S'W\xc7\xe0\x1ch\x17\xc5?'
p1104
tp1105
Rp1106
tp1107
a(S'kneser\xe2\x80\x93ney smoothing'
p1108
g2
(g6
S'\x89\x9cE\xee\xde\x14\xc5?'
p1109
tp1110
Rp1111
tp1112
a(S'linear probability model'
p1113
g2
(g6
S'\xeb#\xa8\xd5\xa2\t\xc5?'
p1114
tp1115
Rp1116
tp1117
a(S'list of the best thing i ever ate episodes'
p1118
g2
(g6
S'\x14K\x99n{\xfd\xc4?'
p1119
tp1120
Rp1121
tp1122
a(S'metropolis\xe2\x80\x93hastings algorithm'
p1123
g2
(g6
S'\xabE}\xff\x02\xf9\xc4?'
p1124
tp1125
Rp1126
tp1127
a(S"perron's formula"
p1128
g2
(g6
S'\x99\x907o\x1f\xf7\xc4?'
p1129
tp1130
Rp1131
tp1132
a(S'sanitization (classified information)'
p1133
g2
(g6
S'\xc6+I\xd9M\xf6\xc4?'
p1134
tp1135
Rp1136
tp1137
a(S'slash distribution'
p1138
g2
(g6
S'A\x94m\xfc\r\xf5\xc4?'
p1139
tp1140
Rp1141
tp1142
a(S'document capture software'
p1143
g2
(g6
S'\xa2L\xb8.Z\xf4\xc4?'
p1144
tp1145
Rp1146
tp1147
a(S'benzylideneacetone'
p1148
g2
(g6
S'\x14O|\x9d>\xef\xc4?'
p1149
tp1150
Rp1151
tp1152
a(S'silvertown quays'
p1153
g2
(g6
S'\xe6\xdcR\x91\x84\xeb\xc4?'
p1154
tp1155
Rp1156
tp1157
a(S'pseudolikelihood'
p1158
g2
(g6
S'ho\x9e`\xcf\xe8\xc4?'
p1159
tp1160
Rp1161
tp1162
a(S'rayleigh mixture distribution'
p1163
g2
(g6
S'\x94P\xc3\xd3\xf0\xdc\xc4?'
p1164
tp1165
Rp1166
tp1167
a(S'history of microsoft word'
p1168
g2
(g6
S'\xb7\xe1\xec\x13R\xd8\xc4?'
p1169
tp1170
Rp1171
tp1172
a(S'sliding window based part-of-speech tagging'
p1173
g2
(g6
S'\xed\xb90E[\xd3\xc4?'
p1174
tp1175
Rp1176
tp1177
a(S'probability theory'
p1178
g2
(g6
S'\xf2\xdeM,\xa0\xd2\xc4?'
p1179
tp1180
Rp1181
tp1182
a(S'utopia lda'
p1183
g2
(g6
S'\xd8\xe3O\xbc\xbb\xcc\xc4?'
p1184
tp1185
Rp1186
tp1187
a(S'beta-binomial distribution'
p1188
g2
(g6
S'\xf1\xd2S\x91T\xc0\xc4?'
p1189
tp1190
Rp1191
tp1192
a(S'adeptol'
p1193
g2
(g6
S'z\x9c@\xfd\xa5\xbf\xc4?'
p1194
tp1195
Rp1196
tp1197
a(S'statistical inference'
p1198
g2
(g6
S'\x12\xdct\xfaC\xba\xc4?'
p1199
tp1200
Rp1201
tp1202
a(S'multivariate probit model'
p1203
g2
(g6
S'\x12&2pB\xba\xc4?'
p1204
tp1205
Rp1206
tp1207
a(S'the last word'
p1208
g2
(g6
S'\x1e\x9bW\xf8\xb2\xb2\xc4?'
p1209
tp1210
Rp1211
tp1212
a(S'tf\xe2\x80\x93idf'
p1213
g2
(g6
S'\xde\x83\x84Gj\xb2\xc4?'
p1214
tp1215
Rp1216
tp1217
a(S'dirichlet (crater)'
p1218
g2
(g6
S'8uUk\xe9\xa8\xc4?'
p1219
tp1220
Rp1221
tp1222
a(S'state of the nation (ghana)'
p1223
g2
(g6
S'\xbeO+\xaf\xa0\xa7\xc4?'
p1224
tp1225
Rp1226
tp1227
a(S'rejection sampling'
p1228
g2
(g6
S'D~\xc9}\x1b\xa4\xc4?'
p1229
tp1230
Rp1231
tp1232
a(S'foundations of statistics'
p1233
g2
(g6
S't\xbb\xde\xd6R\x9e\xc4?'
p1234
tp1235
Rp1236
tp1237
a(S'document camera'
p1238
g2
(g6
S'\xa4&l\x131\x9b\xc4?'
p1239
tp1240
Rp1241
tp1242
a(S'negative binomial distribution'
p1243
g2
(g6
S'\x16+>\x8d\xd0\x98\xc4?'
p1244
tp1245
Rp1246
tp1247
a(S'chinese restaurant process'
p1248
g2
(g6
S'\x86eJ\xb8\xa5\x98\xc4?'
p1249
tp1250
Rp1251
tp1252
a(S'word recognition'
p1253
g2
(g6
S'?\x83\x11gP\x96\xc4?'
p1254
tp1255
Rp1256
tp1257
a(S'lithuanian development agency'
p1258
g2
(g6
S'\x8d\x0b\x8b\x9a\xf7\x91\xc4?'
p1259
tp1260
Rp1261
tp1262
a(S"lindley's paradox"
p1263
g2
(g6
S'V\xeb\xd4P3\x87\xc4?'
p1264
tp1265
Rp1266
tp1267
a(S'distribution learning theory'
p1268
g2
(g6
S'xzt\x9a\x93\x86\xc4?'
p1269
tp1270
Rp1271
tp1272
a(S'winhelp'
p1273
g2
(g6
S'\x85\xb4\xdab?z\xc4?'
p1274
tp1275
Rp1276
tp1277
a(S'optimistic knowledge gradient'
p1278
g2
(g6
S';\xa3\xfe\xe5\x9fv\xc4?'
p1279
tp1280
Rp1281
tp1282
a(S'comparison of document interfaces'
p1283
g2
(g6
S'j\x17\xda\x08\xdeo\xc4?'
p1284
tp1285
Rp1286
tp1287
a(S'wakeby distribution'
p1288
g2
(g6
S'\x7fj\x0fQ\xeek\xc4?'
p1289
tp1290
Rp1291
tp1292
a(S'term discrimination'
p1293
g2
(g6
S'=~[\xd1\x1ff\xc4?'
p1294
tp1295
Rp1296
tp1297
a(S'uniform distribution (continuous)'
p1298
g2
(g6
S'9\xf9vG\xcea\xc4?'
p1299
tp1300
Rp1301
tp1302
a(S'rocchio algorithm'
p1303
g2
(g6
S'L\x96~3?^\xc4?'
p1304
tp1305
Rp1306
tp1307
a(S'skellam distribution'
p1308
g2
(g6
S'\xa9\x8f|g\rZ\xc4?'
p1309
tp1310
Rp1311
tp1312
a(S'unimodality'
p1313
g2
(g6
S'\x8fS\x93cWX\xc4?'
p1314
tp1315
Rp1316
tp1317
a(S'binomial distribution'
p1318
g2
(g6
S'b\x86&\\\x8cT\xc4?'
p1319
tp1320
Rp1321
tp1322
a(S'document processor'
p1323
g2
(g6
S'\x1d\xca\xb1s\xa1I\xc4?'
p1324
tp1325
Rp1326
tp1327
a(S'word'
p1328
g2
(g6
S'&\x10\xed\xf5\xf1G\xc4?'
p1329
tp1330
Rp1331
tp1332
a(S'dedekind psi function'
p1333
g2
(g6
S')+\xa4,\xa3E\xc4?'
p1334
tp1335
Rp1336
tp1337
a(S'word association'
p1338
g2
(g6
S'\x98\x05\xde\xe6\xa9C\xc4?'
p1339
tp1340
Rp1341
tp1342
a(S'twisting properties'
p1343
g2
(g6
S'\x01\x06\x10W\xcc>\xc4?'
p1344
tp1345
Rp1346
tp1347
a(S'nowhere continuous function'
p1348
g2
(g6
S'\x1b\nM\xf9\x91;\xc4?'
p1349
tp1350
Rp1351
tp1352
a(S'frequentist inference'
p1353
g2
(g6
S'\x01\x1c\xe4\x14S5\xc4?'
p1354
tp1355
Rp1356
tp1357
a(S'standard boolean model'
p1358
g2
(g6
S'\xf4\xc6\xc6\xfb\xa44\xc4?'
p1359
tp1360
Rp1361
tp1362
a(S'convolution of probability distributions'
p1363
g2
(g6
S'\xe4\x9c\xbe\xbfY3\xc4?'
p1364
tp1365
Rp1366
tp1367
a(S'naive bayes classifier'
p1368
g2
(g6
S'\x95\x12p\xf7\x12.\xc4?'
p1369
tp1370
Rp1371
tp1372
a(S'a. l. lloyd'
p1373
g2
(g6
S'\xd47,\xc0F*\xc4?'
p1374
tp1375
Rp1376
tp1377
a(S'quantile function'
p1378
g2
(g6
S'\x08D\xbeX\x99)\xc4?'
p1379
tp1380
Rp1381
tp1382
a(S'random variable'
p1383
g2
(g6
S',\x06\xb0/N)\xc4?'
p1384
tp1385
Rp1386
tp1387
a(S'cohort model'
p1388
g2
(g6
S'\xda\xdaDjn(\xc4?'
p1389
tp1390
Rp1391
tp1392
a(S'logarithmic distribution'
p1393
g2
(g6
S'\xe2\x82J\xc2\xae\x1e\xc4?'
p1394
tp1395
Rp1396
tp1397
a(S'cluster labeling'
p1398
g2
(g6
S'\xdc\x04\x0e>\x84\x1b\xc4?'
p1399
tp1400
Rp1401
tp1402
a(S'a christian reflection on the new age'
p1403
g2
(g6
S'F888S\x19\xc4?'
p1404
tp1405
Rp1406
tp1407
a(S'anacomp'
p1408
g2
(g6
S'9\xd8\xfcn|\x16\xc4?'
p1409
tp1410
Rp1411
tp1412
a(S'word (disambiguation)'
p1413
g2
(g6
S'\x12W\xf0\xaf\xc2\x15\xc4?'
p1414
tp1415
Rp1416
tp1417
a(S'information bottleneck method'
p1418
g2
(g6
S'/\x8a\xc1\xf8\x1e\x10\xc4?'
p1419
tp1420
Rp1421
tp1422
a(S'geometric distribution'
p1423
g2
(g6
S'\x07\x1a\xf3\xe4e\r\xc4?'
p1424
tp1425
Rp1426
tp1427
a(S'probability bounds analysis'
p1428
g2
(g6
S'\x8d\xbc\t\xa7\xf2\x0c\xc4?'
p1429
tp1430
Rp1431
tp1432
a(S"stein's method"
p1433
g2
(g6
S'\x88\x15\x8b\xde\x90\x0c\xc4?'
p1434
tp1435
Rp1436
tp1437
a(S'probability box'
p1438
g2
(g6
S'\xc1b\xb9\x8f\xd5\xfe\xc3?'
p1439
tp1440
Rp1441
tp1442
a(S'generalized integer gamma distribution'
p1443
g2
(g6
S'\xcf\x97\xdc\x94d\xfc\xc3?'
p1444
tp1445
Rp1446
tp1447
a(S'overdispersion'
p1448
g2
(g6
S'_\x8f\x85\x16\xdf\xfb\xc3?'
p1449
tp1450
Rp1451
tp1452
a(S'document clustering'
p1453
g2
(g6
S'Q\x9c\xf8mF\xf8\xc3?'
p1454
tp1455
Rp1456
tp1457
a(S'bradley\xe2\x80\x93terry model'
p1458
g2
(g6
S'.\x80\xd8\xc0\xd2\xf7\xc3?'
p1459
tp1460
Rp1461
tp1462
a(S'order statistic'
p1463
g2
(g6
S'\xd5ZI\xcd~\xf7\xc3?'
p1464
tp1465
Rp1466
tp1467
a(S'conditional independence'
p1468
g2
(g6
S'oY\xe5\x89\xb6\xf2\xc3?'
p1469
tp1470
Rp1471
tp1472
a(S'class number formula'
p1473
g2
(g6
S'\xc5G\xbc\xa7\x81\xf2\xc3?'
p1474
tp1475
Rp1476
tp1477
a(S'aigaion'
p1478
g2
(g6
S'\x9f\xc1>\x85\x91\xee\xc3?'
p1479
tp1480
Rp1481
tp1482
a(S'stable distribution'
p1483
g2
(g6
S'N\xa2\xd2%9\xee\xc3?'
p1484
tp1485
Rp1486
tp1487
a(S'topic-based authoring'
p1488
g2
(g6
S'\xbf\x14\xf9\x86m\xed\xc3?'
p1489
tp1490
Rp1491
tp1492
a(S'catalog of articles in probability theory'
p1493
g2
(g6
S'\x813\x05\xc8\x90\xe3\xc3?'
p1494
tp1495
Rp1496
tp1497
a(S'mixture (probability)'
p1498
g2
(g6
S'OcK<B\xe1\xc3?'
p1499
tp1500
Rp1501
tp1502
a(S'sum of normally distributed random variables'
p1503
g2
(g6
S'\xa6\x1d\x10f#\xdf\xc3?'
p1504
tp1505
Rp1506
tp1507
a(S'empirical bayes method'
p1508
g2
(g6
S'(>\xe7^_\xdd\xc3?'
p1509
tp1510
Rp1511
tp1512
a.