(lp0
(S'lifelog'
p1
cnumpy.core.multiarray
scalar
p2
(cnumpy
dtype
p3
(S'f8'
p4
I0
I1
tp5
Rp6
(I3
S'<'
p7
NNNI-1
I-1
I0
tp8
bS'\x04\x00\x00\x00\x00\x00\xf0?'
p9
tp10
Rp11
tp12
a(S'lifecasting (video stream)'
p13
g2
(g6
S'\x1d\xe5\x01)\xd2\x04\xdf?'
p14
tp15
Rp16
tp17
a(S'wearable technology'
p18
g2
(g6
S'\xe8\xe9`\xf7q?\xdd?'
p19
tp20
Rp21
tp22
a(S'wearable computer'
p23
g2
(g6
S'\x8d\xbe\xd0\xd7m\xe0\xdc?'
p24
tp25
Rp26
tp27
a(S'wearable technology show'
p28
g2
(g6
S'\x87\xf1\xd31$\xf4\xd9?'
p29
tp30
Rp31
tp32
a(S'wearable art'
p33
g2
(g6
S'h\x19@F\xeaz\xd9?'
p34
tp35
Rp36
tp37
a(S'wearable computing group'
p38
g2
(g6
S'\xf2\xa0K\xbc\x88&\xd9?'
p39
tp40
Rp41
tp42
a(S'steve mann'
p43
g2
(g6
S'\xdf\xf5\xa8\xc6q\xde\xd8?'
p44
tp45
Rp46
tp47
a(S'thad starner'
p48
g2
(g6
S'<\x91\xea\x85K\x15\xd8?'
p49
tp50
Rp51
tp52
a(S'vandrico'
p53
g2
(g6
S'3\xc5n\xf5T1\xd6?'
p54
tp55
Rp56
tp57
a(S'sixthsense'
p58
g2
(g6
S'\xeavBB\xae\x87\xd4?'
p59
tp60
Rp61
tp62
a(S'looxcie'
p63
g2
(g6
S'\x88/\xb6\xc6\xf5\x91\xd3?'
p64
tp65
Rp66
tp67
a(S'wearable generator'
p68
g2
(g6
S'\xa7\xf6Ou\xa65\xd3?'
p69
tp70
Rp71
tp72
a(S'wearable augmented task-list interchange device'
p73
g2
(g6
S'G\x96\xad\xfc\xce\xe5\xd2?'
p74
tp75
Rp76
tp77
a(S'smart wearable system'
p78
g2
(g6
S'~\xc8u\xcb\xb5\x99\xd2?'
p79
tp80
Rp81
tp82
a(S'quantified self'
p83
g2
(g6
S'2\xab\xddI\xd1\x83\xd2?'
p84
tp85
Rp86
tp87
a(S'activity tracker'
p88
g2
(g6
S'\x17\x17]\x08]B\xd2?'
p89
tp90
Rp91
tp92
a(S'mondevices'
p93
g2
(g6
S'\xb2\xa2C\x82\xc1\xe8\xd1?'
p94
tp95
Rp96
tp97
a(S'microsoft sensecam'
p98
g2
(g6
S'\xda\xc9\x1c\xae\xaf\xdb\xd0?'
p99
tp100
Rp101
tp102
a(S'portable communications device'
p103
g2
(g6
S'.\xe2\xb6\x9c\x9a\xc1\xd0?'
p104
tp105
Rp106
tp107
a(S'mobile app'
p108
g2
(g6
S'\xc5\x9f\xf59\x99\xbe\xd0?'
p109
tp110
Rp111
tp112
a(S'sousveillance'
p113
g2
(g6
S'c\xc0\xd1n\x81\xa9\xd0?'
p114
tp115
Rp116
tp117
a(S'nixie (drone)'
p118
g2
(g6
S'\x16\x1c|1V\x92\xd0?'
p119
tp120
Rp121
tp122
a(S'myvu'
p123
g2
(g6
S'\xfa\xeb[\x1b\xeff\xd0?'
p124
tp125
Rp126
tp127
a(S'mobile device'
p128
g2
(g6
S'%&3\xc6\xee_\xd0?'
p129
tp130
Rp131
tp132
a(S'hzo'
p133
g2
(g6
S'\xa1\t\xd9\x8e\xcd\x18\xd0?'
p134
tp135
Rp136
tp137
a(S'keyer'
p138
g2
(g6
S'\xf9\x15\xd0s<\xeb\xcf?'
p139
tp140
Rp141
tp142
a(S'mann (surname)'
p143
g2
(g6
S"-\xa2\x8d'[\xc3\xcf?"
p144
tp145
Rp146
tp147
a(S'streaming media'
p148
g2
(g6
S'\x11\x8bG\x15\xa1c\xcf?'
p149
tp150
Rp151
tp152
a(S'runtastic'
p153
g2
(g6
S'V\x0f\xcb\xf3\xbd\x0e\xcf?'
p154
tp155
Rp156
tp157
a(S'glove one'
p158
g2
(g6
S'6!\x9a;f\xfb\xce?'
p159
tp160
Rp161
tp162
a(S'eyetap'
p163
g2
(g6
S'N\x95\xa9\xael\xb3\xce?'
p164
tp165
Rp166
tp167
a(S'liquid image'
p168
g2
(g6
S'\xad\xb4{e,\xe7\xcd?'
p169
tp170
Rp171
tp172
a(S'list of chat websites'
p173
g2
(g6
S'\xbb=\xdd\x82i\xe1\xcd?'
p174
tp175
Rp176
tp177
a(S'goqii'
p178
g2
(g6
S'\x12\xa1\x10\x86w\xc5\xcd?'
p179
tp180
Rp181
tp182
a(S'timeline of online video'
p183
g2
(g6
S'\xcc\xcaO\xb8-\xb7\xcd?'
p184
tp185
Rp186
tp187
a(S'mobile social network'
p188
g2
(g6
S'@ab\x11\xd3\xab\xcd?'
p189
tp190
Rp191
tp192
a(S'sony ericsson liveview'
p193
g2
(g6
S'\xbc\x86\x1c\x9c\xc2\x99\xcd?'
p194
tp195
Rp196
tp197
a(S'narrative clip'
p198
g2
(g6
S'\x8c\xf1\x0fMR\x85\xcd?'
p199
tp200
Rp201
tp202
a(S'neulion'
p203
g2
(g6
S'\xba\xb4\x83\xd7\xc1}\xcd?'
p204
tp205
Rp206
tp207
a(S'cameleon (software)'
p208
g2
(g6
S'\x16))\xe3w\xa5\xcc?'
p209
tp210
Rp211
tp212
a(S'camera (windows)'
p213
g2
(g6
S'\xfcY~V]C\xcc?'
p214
tp215
Rp216
tp217
a(S'aimee mann'
p218
g2
(g6
S'\xb2*\xb1x =\xcc?'
p219
tp220
Rp221
tp222
a(S'sargy mann'
p223
g2
(g6
S'Z:\xb4\xe1N8\xcc?'
p224
tp225
Rp226
tp227
a(S'mann'
p228
g2
(g6
S'\xe1\x01k!_\xf8\xcb?'
p229
tp230
Rp231
tp232
a(S'humanistic intelligence'
p233
g2
(g6
S'\x7f\xa5\xd4[\x98\xf4\xcb?'
p234
tp235
Rp236
tp237
a(S'john mann'
p238
g2
(g6
S'y\x1e\x90\xa3x\xc9\xcb?'
p239
tp240
Rp241
tp242
a(S'bob mann (american football)'
p243
g2
(g6
S'{Q\xa5z`\xb1\xcb?'
p244
tp245
Rp246
tp247
a(S'kamcord'
p248
g2
(g6
S'\x85\xac)\x12L\xa3\xcb?'
p249
tp250
Rp251
tp252
a(S'bodymedia'
p253
g2
(g6
S'\xaa\xde\xd19\x8e\x9c\xcb?'
p254
tp255
Rp256
tp257
a(S'smartglasses'
p258
g2
(g6
S'7\xe2\xeb\x9f.\x94\xcb?'
p259
tp260
Rp261
tp262
a(S'william mann'
p263
g2
(g6
S'\xd4\xc6C\x8e\xefQ\xcb?'
p264
tp265
Rp266
tp267
a(S'bob mann'
p268
g2
(g6
S'\xbf\xd8\xcbQ\xbeM\xcb?'
p269
tp270
Rp271
tp272
a(S'nearables'
p273
g2
(g6
S'\x01G\xf3\xe6?F\xcb?'
p274
tp275
Rp276
tp277
a(S'steve mann (guitarist)'
p278
g2
(g6
S'\x1f!\x80\xa9\xbb0\xcb?'
p279
tp280
Rp281
tp282
a(S'alfred e. mann'
p283
g2
(g6
S'8\xa2R!\xff\xf3\xca?'
p284
tp285
Rp286
tp287
a(S'match moving'
p288
g2
(g6
S'\x0e\x17\xe5b\t\xc8\xca?'
p289
tp290
Rp291
tp292
a(S'mann family'
p293
g2
(g6
S'\x95,&$\x81\xc2\xca?'
p294
tp295
Rp296
tp297
a(S'appsbar'
p298
g2
(g6
S'\xbd#\x17\xb3\xc7\xbb\xca?'
p299
tp300
Rp301
tp302
a(S'e-textiles'
p303
g2
(g6
S'\x888T\xe5=\x8e\xca?'
p304
tp305
Rp306
tp307
a(S'sally mann'
p308
g2
(g6
S'\xc3\x9b \\\x8d~\xca?'
p309
tp310
Rp311
tp312
a(S'real-time geotagging'
p313
g2
(g6
S'I\xc0X\xf9\xd5w\xca?'
p314
tp315
Rp316
tp317
a(S'body area network'
p318
g2
(g6
S'\xfe\xe3_\x8f\xcdi\xca?'
p319
tp320
Rp321
tp322
a(S'mobile technology'
p323
g2
(g6
S'F\xca\xa2\x9aF[\xca?'
p324
tp325
Rp326
tp327
a(S'toter mann'
p328
g2
(g6
S'AA\xb6\x8f\xd2W\xca?'
p329
tp330
Rp331
tp332
a(S'george mann'
p333
g2
(g6
S'\xd8#\xca\x0f{W\xca?'
p334
tp335
Rp336
tp337
a(S'merlin mann'
p338
g2
(g6
S'\x03\xfc\xff\x8fgN\xca?'
p339
tp340
Rp341
tp342
a(S'gps tracking unit'
p343
g2
(g6
S'\xbf\xbac\xbe\xc3,\xca?'
p344
tp345
Rp346
tp347
a(S'augmate'
p348
g2
(g6
S'\x13\xb2>Z\xab#\xca?'
p349
tp350
Rp351
tp352
a(S'fitbit'
p353
g2
(g6
S'\xa8\n<\x7fP\x1f\xca?'
p354
tp355
Rp356
tp357
a(S'david mann'
p358
g2
(g6
S"\x03\xc8'$\n\x1f\xca?"
p359
tp360
Rp361
tp362
a(S'live365'
p363
g2
(g6
S'\x8aL\xed)1\x1c\xca?'
p364
tp365
Rp366
tp367
a(S'richard mann'
p368
g2
(g6
S'\x1c\xb12\xf4W\x1a\xca?'
p369
tp370
Rp371
tp372
a(S'thomas c. mann'
p373
g2
(g6
S"\x00\x81P\xdc'\x08\xca?"
p374
tp375
Rp376
tp377
a(S'thomas mann'
p378
g2
(g6
S'S\xf7\x1c\x12\xa8\xfd\xc9?'
p379
tp380
Rp381
tp382
a(S'webcam'
p383
g2
(g6
S'<\x95f7\x1b\xee\xc9?'
p384
tp385
Rp386
tp387
a(S'orrin l. mann'
p388
g2
(g6
S'\xcc;\xc1\xcci\xed\xc9?'
p389
tp390
Rp391
tp392
a(S'charles mann'
p393
g2
(g6
S'\xa8+\x13\xbe{\xe4\xc9?'
p394
tp395
Rp396
tp397
a(S'social networking service'
p398
g2
(g6
S'C#\x0b>\x90\xc6\xc9?'
p399
tp400
Rp401
tp402
a(S'horace mann'
p403
g2
(g6
S'\x89/\x0b)m\xb4\xc9?'
p404
tp405
Rp406
tp407
a(S'hearables'
p408
g2
(g6
S'9`\x90\x07\x8a\xae\xc9?'
p409
tp410
Rp411
tp412
a(S'equiveillance'
p413
g2
(g6
S'\x03\xcbu\x86\xfb\xac\xc9?'
p414
tp415
Rp416
tp417
a(S'haivision'
p418
g2
(g6
S'\xfa\xec\xd8\xd4\xdc\x9d\xc9?'
p419
tp420
Rp421
tp422
a(S'mocana'
p423
g2
(g6
S'\xa2\xe3\xec+\xb1\x98\xc9?'
p424
tp425
Rp426
tp427
a(S'mobile web'
p428
g2
(g6
S'\x02\xb8\x1b\xe0\x94\x8f\xc9?'
p429
tp430
Rp431
tp432
a(S'james mann'
p433
g2
(g6
S'\x95W\x8f\x9c@\x8a\xc9?'
p434
tp435
Rp436
tp437
a(S'richie mann'
p438
g2
(g6
S'0Z\x12h%\x87\xc9?'
p439
tp440
Rp441
tp442
a(S'thomas mann house'
p443
g2
(g6
S'\xef\xa5$V\x18\x83\xc9?'
p444
tp445
Rp446
tp447
a(S'appmakr'
p448
g2
(g6
S"\xc4\xbd\xe8'\x03n\xc9?"
p449
tp450
Rp451
tp452
a(S'cross-device tracking'
p453
g2
(g6
S'\x9a=\xc8\xff\x99h\xc9?'
p454
tp455
Rp456
tp457
a(S'golo mann'
p458
g2
(g6
S'\xd3\x1c\x8f\xd3%h\xc9?'
p459
tp460
Rp461
tp462
a(S'mobile business intelligence'
p463
g2
(g6
S'\xb98\rVZg\xc9?'
p464
tp465
Rp466
tp467
a(S'visual networking'
p468
g2
(g6
S'\xd0h`\xdf|]\xc9?'
p469
tp470
Rp471
tp472
a(S'connected devices'
p473
g2
(g6
S'\xfb\xd3\xa9\xee\xdbY\xc9?'
p474
tp475
Rp476
tp477
a(S'digital omnivore'
p478
g2
(g6
S'\xbc\xeb\x8e\xe1\xb6S\xc9?'
p479
tp480
Rp481
tp482
a(S'michael mann'
p483
g2
(g6
S'jG\x87\xe8 D\xc9?'
p484
tp485
Rp486
tp487
a(S'live media'
p488
g2
(g6
S'\xb0\xfe\xb4\xa3BA\xc9?'
p489
tp490
Rp491
tp492
a(S'world of wearable art'
p493
g2
(g6
S'\xba!\x8f\x16K-\xc9?'
p494
tp495
Rp496
tp497
a(S'fullpower technologies'
p498
g2
(g6
S'X\x0bM\x86\xaf#\xc9?'
p499
tp500
Rp501
tp502
a(S'edward mann'
p503
g2
(g6
S'\x97\xa7\xe69b#\xc9?'
p504
tp505
Rp506
tp507
a(S'kelly mann (sports administrator)'
p508
g2
(g6
S'\xa8AwJ\x10\x1d\xc9?'
p509
tp510
Rp511
tp512
a(S'thomas mann (disambiguation)'
p513
g2
(g6
S'\x10\xa67\xea\x8b\x17\xc9?'
p514
tp515
Rp516
tp517
a(S'engage mobile solutions'
p518
g2
(g6
S'\x8a\xfd\x93\x83Z\x17\xc9?'
p519
tp520
Rp521
tp522
a(S'dekko'
p523
g2
(g6
S'\xa6\xfe\xb6x\xa4\x11\xc9?'
p524
tp525
Rp526
tp527
a(S'app store'
p528
g2
(g6
S't-g\t\xf5\r\xc9?'
p529
tp530
Rp531
tp532
a(S'mann theatres'
p533
g2
(g6
S'\xbcWgB/\x07\xc9?'
p534
tp535
Rp536
tp537
a(S'mobile computing'
p538
g2
(g6
S'\xc6\xac\x1d\x8f\x8b\xfe\xc8?'
p539
tp540
Rp541
tp542
a(S'html5 in mobile devices'
p543
g2
(g6
S'\x98\xf5q\x13\x99\xf8\xc8?'
p544
tp545
Rp546
tp547
a(S'carl mann'
p548
g2
(g6
S'\x06\t\xe4\xe4l\xe4\xc8?'
p549
tp550
Rp551
tp552
a(S'billy mann'
p553
g2
(g6
S'\xa8\xc0\x13\x1c\xb4\xd4\xc8?'
p554
tp555
Rp556
tp557
a(S'judy mann'
p558
g2
(g6
S' h\x98\x12b\xcf\xc8?'
p559
tp560
Rp561
tp562
a(S'michael mann (disambiguation)'
p563
g2
(g6
S'D\xe4\xa3}\xcb\xcb\xc8?'
p564
tp565
Rp566
tp567
a(S'esau mann'
p568
g2
(g6
S'\x07s,\xa9\xe7\xbe\xc8?'
p569
tp570
Rp571
tp572
a(S'mixlr'
p573
g2
(g6
S'\xa3\xd7\xc6i\xe5\xb2\xc8?'
p574
tp575
Rp576
tp577
a(S'xenmobile'
p578
g2
(g6
S'\xdb\xa0d2\x96\xa6\xc8?'
p579
tp580
Rp581
tp582
a(S'quell (wearable)'
p583
g2
(g6
S'\x8d?\x957\xe8\xa2\xc8?'
p584
tp585
Rp586
tp587
a(S'thomas mann (actor)'
p588
g2
(g6
S'\x92$A,B\x9e\xc8?'
p589
tp590
Rp591
tp592
a(S'flipps'
p593
g2
(g6
S'\x10\xd0\x9b\xec\xe3\x93\xc8?'
p594
tp595
Rp596
tp597
a(S'snappii'
p598
g2
(g6
S'\xf2N\xcf\x8b\xb2\x8d\xc8?'
p599
tp600
Rp601
tp602
a(S'henry mann'
p603
g2
(g6
S'\xc2\xd1\xf8\xb2\x81\x86\xc8?'
p604
tp605
Rp606
tp607
a(S'up the junction (soundtrack)'
p608
g2
(g6
S'\x02\x02\xb6pA|\xc8?'
p609
tp610
Rp611
tp612
a(S'ted mann (disambiguation)'
p613
g2
(g6
S'\x8a\x86\x00s\x87{\xc8?'
p614
tp615
Rp616
tp617
a(S'mobimii'
p618
g2
(g6
S'\xb4[\x05\xcben\xc8?'
p619
tp620
Rp621
tp622
a(S'heinrich mann'
p623
g2
(g6
S'\x0e\xd5]\x00+n\xc8?'
p624
tp625
Rp626
tp627
a(S'mososo'
p628
g2
(g6
S'\xaa\xe4oi\x8a[\xc8?'
p629
tp630
Rp631
tp632
a(S'wowza streaming engine'
p633
g2
(g6
S'\x16\xe4\xbc\x92\xf3X\xc8?'
p634
tp635
Rp636
tp637
a(S'chromecast'
p638
g2
(g6
S'\x19v8\x9d\x1eU\xc8?'
p639
tp640
Rp641
tp642
a(S'johnno mann'
p643
g2
(g6
S"'iC\x16DN\xc8?"
p644
tp645
Rp646
tp647
a(S'arthur mann (disambiguation)'
p648
g2
(g6
S'I>P\xbceC\xc8?'
p649
tp650
Rp651
tp652
a(S'mobile content'
p653
g2
(g6
S'\x06z\xe4~\xf7<\xc8?'
p654
tp655
Rp656
tp657
a(S'gps tracking server'
p658
g2
(g6
S'\xe5\xd3p\xc7\x85;\xc8?'
p659
tp660
Rp661
tp662
a(S'fiksu'
p663
g2
(g6
S'\x88\x96\x14\r\x067\xc8?'
p664
tp665
Rp666
tp667
a(S'adaptive bitrate streaming'
p668
g2
(g6
S'\xe5\x80\x18\xac\xd16\xc8?'
p669
tp670
Rp671
tp672
a(S'spinlet'
p673
g2
(g6
S"x\x1da2\xd9'\xc8?"
p674
tp675
Rp676
tp677
a(S'lily robotics, inc.'
p678
g2
(g6
S'\x86N\xef\xb5\xd8$\xc8?'
p679
tp680
Rp681
tp682
a(S'elana mann'
p683
g2
(g6
S'J\xb7\xfbq\x82\x17\xc8?'
p684
tp685
Rp686
tp687
a(S'grabyo'
p688
g2
(g6
S'\x95Ix\xbck\x0c\xc8?'
p689
tp690
Rp691
tp692
a(S'john mann (musician)'
p693
g2
(g6
S'\xcc\xcbH\xde\x02\x0b\xc8?'
p694
tp695
Rp696
tp697
a(S'johnny mann'
p698
g2
(g6
S'\x11f\x90N\x1a\xd9\xc7?'
p699
tp700
Rp701
tp702
a(S'mobile game'
p703
g2
(g6
S'\xe4\x8a9\xc6x\xd7\xc7?'
p704
tp705
Rp706
tp707
a(S'jonathan mann'
p708
g2
(g6
S'BL,\xf7\x0b\xd0\xc7?'
p709
tp710
Rp711
tp712
a(S'elisabeth mann borgese'
p713
g2
(g6
S'*\xd3\xcc\xd9.\xcd\xc7?'
p714
tp715
Rp716
tp717
a(S'mobile deep linking'
p718
g2
(g6
S'~h\x1c\x00\xe4\xcb\xc7?'
p719
tp720
Rp721
tp722
a(S'vuclip'
p723
g2
(g6
S'\xba\x81Q\xe3\x9a\xc3\xc7?'
p724
tp725
Rp726
tp727
a(S'viziapps'
p728
g2
(g6
S'Jg\xfee\x1a\xc0\xc7?'
p729
tp730
Rp731
tp732
a(S'list of usb video class devices'
p733
g2
(g6
S'\x1d\xf58/\x16\xbf\xc7?'
p734
tp735
Rp736
tp737
a(S'preventice'
p738
g2
(g6
S'_\x0b_Th\xbe\xc7?'
p739
tp740
Rp741
tp742
a(S'hugo mann'
p743
g2
(g6
S'\x84Q\xa2VL\xbd\xc7?'
p744
tp745
Rp746
tp747
a(S'through the viewfinder photography'
p748
g2
(g6
S'\xdd\x11\xcax\xce\xba\xc7?'
p749
tp750
Rp751
tp752
a(S'vehicle tracking system'
p753
g2
(g6
S'\xfd.\xb7@\xb0\xb3\xc7?'
p754
tp755
Rp756
tp757
a(S'social mobile application'
p758
g2
(g6
S':;We\x93\xac\xc7?'
p759
tp760
Rp761
tp762
a(S'nicholas mann (academic)'
p763
g2
(g6
S'O\xec@C\xe8\x9e\xc7?'
p764
tp765
Rp766
tp767
a(S'stephen mann (theater owner)'
p768
g2
(g6
S'\t\x16"\x90\x82\x9d\xc7?'
p769
tp770
Rp771
tp772
a(S'art mann'
p773
g2
(g6
S'\xa4P\xba\x9d\xf0\x90\xc7?'
p774
tp775
Rp776
tp777
a(S'ted mann'
p778
g2
(g6
S'\x1a\r,\xc94\x8d\xc7?'
p779
tp780
Rp781
tp782
a(S'mann gegen mann'
p783
g2
(g6
S'l\x9e\xd00\xb4\x87\xc7?'
p784
tp785
Rp786
tp787
a(S'tom mann'
p788
g2
(g6
S"\xb5\xca'V\xc7\x85\xc7?"
p789
tp790
Rp791
tp792
a(S'charles mann (american football)'
p793
g2
(g6
S'\x08\x92\xa97\xf0\x7f\xc7?'
p794
tp795
Rp796
tp797
a(S'realnetworks'
p798
g2
(g6
S'\xce\x8e,.${\xc7?'
p799
tp800
Rp801
tp802
a(S'delbert mann'
p803
g2
(g6
S'\xa9\xb6\xa0Y\xc2w\xc7?'
p804
tp805
Rp806
tp807
a(S'telepointer'
p808
g2
(g6
S'\xff\x18\xa7\xfc6s\xc7?'
p809
tp810
Rp811
tp812
a(S'http live streaming'
p813
g2
(g6
S'\xca\x98oU\x9aq\xc7?'
p814
tp815
Rp816
tp817
a(S'magic camera'
p818
g2
(g6
S'.\xa30\x9e\xc2U\xc7?'
p819
tp820
Rp821
tp822
a(S'mobileer'
p823
g2
(g6
S'\x8fC\xa5D\x1cO\xc7?'
p824
tp825
Rp826
tp827
a(S'smartthings'
p828
g2
(g6
S'\x13\xafh\xf8gN\xc7?'
p829
tp830
Rp831
tp832
a(S'stickam'
p833
g2
(g6
S'[\x95\x13h%M\xc7?'
p834
tp835
Rp836
tp837
a(S'michael mann (sociologist)'
p838
g2
(g6
S'_iX=\xd2K\xc7?'
p839
tp840
Rp841
tp842
a(S'mobile social address book'
p843
g2
(g6
S'\xb1cRp>@\xc7?'
p844
tp845
Rp846
tp847
a(S'jen mann'
p848
g2
(g6
S"\xaea'g\xc8=\xc7?"
p849
tp850
Rp851
tp852
a(S'video hosting service'
p853
g2
(g6
S'\xdb1\xe9av=\xc7?'
p854
tp855
Rp856
tp857
a(S'tracking'
p858
g2
(g6
S'I:\x9f\xb6%5\xc7?'
p859
tp860
Rp861
tp862
a(S'darpa lifelog'
p863
g2
(g6
S'\xa9\xd4r\xab\xee&\xc7?'
p864
tp865
Rp866
tp867
a(S'glorified magnified'
p868
g2
(g6
S'%\xf7\x12s\xfb$\xc7?'
p869
tp870
Rp871
tp872
a(S'harrington mann'
p873
g2
(g6
S'-\xfc\xa5\xc5;!\xc7?'
p874
tp875
Rp876
tp877
a(S'mobile 2.0'
p878
g2
(g6
S'\xc6\xf4\x8a\x84%\x1e\xc7?'
p879
tp880
Rp881
tp882
a(S'enterprise social networking'
p883
g2
(g6
S'\xe3\x15S\x89\xc2\x19\xc7?'
p884
tp885
Rp886
tp887
a(S'list of streaming media systems'
p888
g2
(g6
S'T\x86 \xdfQ\x16\xc7?'
p889
tp890
Rp891
tp892
a(S'mobile application management'
p893
g2
(g6
S'G\x8a\xf82\x9f\x15\xc7?'
p894
tp895
Rp896
tp897
a(S'rich mobile application'
p898
g2
(g6
S'\x0e\xd7\x04\xd3\xb4\x0f\xc7?'
p899
tp900
Rp901
tp902
a(S'fishbrain'
p903
g2
(g6
S'\x15\xb2/\xf7\x0b\x0f\xc7?'
p904
tp905
Rp906
tp907
a(S'hiram mann'
p908
g2
(g6
S"\x12\x12\x87'\xa3\t\xc7?"
p909
tp910
Rp911
tp912
a(S'chris mann (composer)'
p913
g2
(g6
S'\x82/N\xf1^\x05\xc7?'
p914
tp915
Rp916
tp917
a(S'handygames'
p918
g2
(g6
S'\xd6Zb\x9a\xf1\x01\xc7?'
p919
tp920
Rp921
tp922
a(S'gtx corp'
p923
g2
(g6
S'A\xb5<\xa7\x8d\x00\xc7?'
p924
tp925
Rp926
tp927
a(S'michael e. mann'
p928
g2
(g6
S'\xea\xa7\x15L\xa1\xf7\xc6?'
p929
tp930
Rp931
tp932
a(S'john mann (british politician)'
p933
g2
(g6
S'\xcf-nz,\xf7\xc6?'
p934
tp935
Rp936
tp937
a(S'herbie mann'
p938
g2
(g6
S'G}\xad\x986\xf2\xc6?'
p939
tp940
Rp941
tp942
a(S'howard mann'
p943
g2
(g6
S'\x00\x02\x18\x19\xfa\xed\xc6?'
p944
tp945
Rp946
tp947
a(S'silverpush'
p948
g2
(g6
S'\xe8\x0bD\x04\xb4\xed\xc6?'
p949
tp950
Rp951
tp952
a(S'mobile television'
p953
g2
(g6
S'\xda\x0fs\x9cl\xec\xc6?'
p954
tp955
Rp956
tp957
a(S'internetq'
p958
g2
(g6
S'/\x13i\xa7\xe9\xe8\xc6?'
p959
tp960
Rp961
tp962
a(S'mobile commerce service provider'
p963
g2
(g6
S'\x16\xef\x0c.\x7f\xe5\xc6?'
p964
tp965
Rp966
tp967
a(S'igenapps'
p968
g2
(g6
S'\xc8\x98|a\xde\xe3\xc6?'
p969
tp970
Rp971
tp972
a(S'colette mann'
p973
g2
(g6
S'=\xb6O\x0e\xb4\xe0\xc6?'
p974
tp975
Rp976
tp977
a(S'novarra inc.'
p978
g2
(g6
S'\x93T\xd8\xd5u\xe0\xc6?'
p979
tp980
Rp981
tp982
a(S'christopher mann (cricketer)'
p983
g2
(g6
S'\xdb\xd0\x9e*\xcc\xd7\xc6?'
p984
tp985
Rp986
tp987
a(S'ubiquitous computing'
p988
g2
(g6
S'\xb4\xdd\x9cK\x99\xd7\xc6?'
p989
tp990
Rp991
tp992
a(S'mobile marketing'
p993
g2
(g6
S'!\x9b}Kr\xd3\xc6?'
p994
tp995
Rp996
tp997
a(S'tvnolly'
p998
g2
(g6
S'\x82\xcd\x14\x17{\xd2\xc6?'
p999
tp1000
Rp1001
tp1002
a(S'verisilicon'
p1003
g2
(g6
S'\xea\xfb+\xdc"\xd1\xc6?'
p1004
tp1005
Rp1006
tp1007
a(S'smart device'
p1008
g2
(g6
S'\x12\tl\xc2V\xcb\xc6?'
p1009
tp1010
Rp1011
tp1012
a(S'theodore d. mann'
p1013
g2
(g6
S'\x93T?\xc1\xa2\xc9\xc6?'
p1014
tp1015
Rp1016
tp1017
a(S'shooting of joseph mann'
p1018
g2
(g6
S'"\xd4C\x9e\xc3\xc6\xc6?'
p1019
tp1020
Rp1021
tp1022
a(S'virtual camera system'
p1023
g2
(g6
S'\x85\x0f]\xf3\x19\xc2\xc6?'
p1024
tp1025
Rp1026
tp1027
a(S'z. mann zilla'
p1028
g2
(g6
S'\r\xa2\x07\x92\xcf\xbf\xc6?'
p1029
tp1030
Rp1031
tp1032
a(S'progressive web app'
p1033
g2
(g6
S'.\x17\x12\xa5q\xbf\xc6?'
p1034
tp1035
Rp1036
tp1037
a(S'horace mann jr.'
p1038
g2
(g6
S'\x18\xe1o\x94\xea\xbe\xc6?'
p1039
tp1040
Rp1041
tp1042
a(S'autographer'
p1043
g2
(g6
S'\x80Z\xd94i\xba\xc6?'
p1044
tp1045
Rp1046
tp1047
a(S'charles mann (advocate-general)'
p1048
g2
(g6
S'\t\x1fN\x8c\x04\xb0\xc6?'
p1049
tp1050
Rp1051
tp1052
a(S'coming up close: a retrospective'
p1053
g2
(g6
S'\x0cU\xd01\x14\xaf\xc6?'
p1054
tp1055
Rp1056
tp1057
a(S'handango'
p1058
g2
(g6
S'-X\xef\xb5\xf5\xad\xc6?'
p1059
tp1060
Rp1061
tp1062
a(S'alfred mann (musicologist)'
p1063
g2
(g6
S'\xe78\x07p,\xab\xc6?'
p1064
tp1065
Rp1066
tp1067
a(S'list of photo and video apps'
p1068
g2
(g6
S'\x80Rb\xb5\x87\xa0\xc6?'
p1069
tp1070
Rp1071
tp1072
a(S'mobile commerce'
p1073
g2
(g6
S':h\x9c\x1a\xb7\x99\xc6?'
p1074
tp1075
Rp1076
tp1077
a(S'hooq'
p1078
g2
(g6
S'\xb3\x80\xae\x0f\xf2\x98\xc6?'
p1079
tp1080
Rp1081
tp1082
a(S'george mann (cricketer)'
p1083
g2
(g6
S'n?\xef\xb8\x8e\x98\xc6?'
p1084
tp1085
Rp1086
tp1087
a(S'boxee'
p1088
g2
(g6
S'\xfa\xd9\xc5\x19\x18\x8f\xc6?'
p1089
tp1090
Rp1091
tp1092
a(S'geolocation privacy and surveillance act'
p1093
g2
(g6
S'\xfd/\x96\x95J\x89\xc6?'
p1094
tp1095
Rp1096
tp1097
a(S'deezer'
p1098
g2
(g6
S'\xf6\x8b\xf4\x9f\x00\x88\xc6?'
p1099
tp1100
Rp1101
tp1102
a(S'mifi'
p1103
g2
(g6
S'\xbc\xfb\xd5\xa9*\x86\xc6?'
p1104
tp1105
Rp1106
tp1107
a(S'wimm one'
p1108
g2
(g6
S'\xf5F\xd4\xf0}t\xc6?'
p1109
tp1110
Rp1111
tp1112
a(S'social web'
p1113
g2
(g6
S'\xfa\x94\x94U\xebk\xc6?'
p1114
tp1115
Rp1116
tp1117
a(S'softcam'
p1118
g2
(g6
S'\xe1\xe5\xaf?ke\xc6?'
p1119
tp1120
Rp1121
tp1122
a(S'greatcall'
p1123
g2
(g6
S'\x15y\x19\xebwb\xc6?'
p1124
tp1125
Rp1126
tp1127
a(S'charles mann (australian politician)'
p1128
g2
(g6
S'\x91\xdf\x99U\x1cb\xc6?'
p1129
tp1130
Rp1131
tp1132
a(S'telenav'
p1133
g2
(g6
S'\xc2NE\x19\xe0W\xc6?'
p1134
tp1135
Rp1136
tp1137
a(S'mobile interaction'
p1138
g2
(g6
S"\\'\x1a\xe8\xdeU\xc6?"
p1139
tp1140
Rp1141
tp1142
a(S'streamworks international'
p1143
g2
(g6
S'g\xb5\xbfK\xf7T\xc6?'
p1144
tp1145
Rp1146
tp1147
a(S'privacy concerns with social networking services'
p1148
g2
(g6
S'!t\xe0\x9a\xd6G\xc6?'
p1149
tp1150
Rp1151
tp1152
a(S'james robert mann (south carolina)'
p1153
g2
(g6
S'r\x02\xcf\x0e\x04G\xc6?'
p1154
tp1155
Rp1156
tp1157
a(S'showself'
p1158
g2
(g6
S'\xd4\x92\x9e#qE\xc6?'
p1159
tp1160
Rp1161
tp1162
a(S'j. l. mann high school'
p1163
g2
(g6
S'}^5\xcf\xf3?\xc6?'
p1164
tp1165
Rp1166
tp1167
a(S'imeem'
p1168
g2
(g6
S'0\xfd\x0f\xa2\xe9=\xc6?'
p1169
tp1170
Rp1171
tp1172
a(S'2014 webby awards'
p1173
g2
(g6
S'\xe1\x17\x86\x93\xaf2\xc6?'
p1174
tp1175
Rp1176
tp1177
a(S'aarti mann'
p1178
g2
(g6
S'q\x17\xd7\xaal1\xc6?'
p1179
tp1180
Rp1181
tp1182
a(S'opera mobile store'
p1183
g2
(g6
S'\xe7C$\x96G0\xc6?'
p1184
tp1185
Rp1186
tp1187
a(S'jordan fung'
p1188
g2
(g6
S'm\x8e\x85_\xdb.\xc6?'
p1189
tp1190
Rp1191
tp1192
a(S'archelis'
p1193
g2
(g6
S'\xe6\x16C\x18\xa0+\xc6?'
p1194
tp1195
Rp1196
tp1197
a(S'google cast'
p1198
g2
(g6
S'\x19\x89i7\x95+\xc6?'
p1199
tp1200
Rp1201
tp1202
a(S'comparison of streaming media systems'
p1203
g2
(g6
S'LYn\x1f7$\xc6?'
p1204
tp1205
Rp1206
tp1207
a(S'plains music'
p1208
g2
(g6
S'\x90\x00\xfb\x95_"\xc6?'
p1209
tp1210
Rp1211
tp1212
a(S'simon mann'
p1213
g2
(g6
S"\xd9\xcff\xdd' \xc6?"
p1214
tp1215
Rp1216
tp1217
a(S'somewhere in afrika'
p1218
g2
(g6
S'\xcb\xe1\x13k\xf6\x1f\xc6?'
p1219
tp1220
Rp1221
tp1222
a(S'microsoft intune'
p1223
g2
(g6
S'\xfa\x18L\x83\xe1\x1f\xc6?'
p1224
tp1225
Rp1226
tp1227
a(S'mobile web analytics'
p1228
g2
(g6
S'DU\xf5\x83H\x1c\xc6?'
p1229
tp1230
Rp1231
tp1232
a(S'remote sim provisioning'
p1233
g2
(g6
S'\xe2\xf9$\xce\xc2\x18\xc6?'
p1234
tp1235
Rp1236
tp1237
a(S'google glass breastfeeding app trial'
p1238
g2
(g6
S'\\\xc4\xbeZZ\x13\xc6?'
p1239
tp1240
Rp1241
tp1242
a(S'wearsafe'
p1243
g2
(g6
S'\n\xf9A\xb4{\x0e\xc6?'
p1244
tp1245
Rp1246
tp1247
a(S'barto and mann'
p1248
g2
(g6
S'\x08{x\xbc\xba\r\xc6?'
p1249
tp1250
Rp1251
tp1252
a(S'internet television'
p1253
g2
(g6
S'+K&\xf1\x16\r\xc6?'
p1254
tp1255
Rp1256
tp1257
a(S'bitwalking'
p1258
g2
(g6
S'X\x98R\x13\xee\t\xc6?'
p1259
tp1260
Rp1261
tp1262
a(S'playon'
p1263
g2
(g6
S'\xff2\xa1\xf0;\x03\xc6?'
p1264
tp1265
Rp1266
tp1267
a(S'9apps'
p1268
g2
(g6
S'(\x1b\x92\xeeT\x00\xc6?'
p1269
tp1270
Rp1271
tp1272
a(S'juicecaster'
p1273
g2
(g6
S'\xb2\xe7\x12`\xa3\xff\xc5?'
p1274
tp1275
Rp1276
tp1277
a(S'videoconferencing'
p1278
g2
(g6
S'iTeDq\xfb\xc5?'
p1279
tp1280
Rp1281
tp1282
a(S'appsfire'
p1283
g2
(g6
S';\x89\x15g+\xf5\xc5?'
p1284
tp1285
Rp1286
tp1287
a(S'jason ling'
p1288
g2
(g6
S'H+#s\xe7\xf1\xc5?'
p1289
tp1290
Rp1291
tp1292
a(S'gerald mann'
p1293
g2
(g6
S'\x98\xf7\x9e\xaee\xf1\xc5?'
p1294
tp1295
Rp1296
tp1297
a(S'chris mann (singer)'
p1298
g2
(g6
S'[4`\x96\x85\xf0\xc5?'
p1299
tp1300
Rp1301
tp1302
a(S'unified streaming'
p1303
g2
(g6
S'\xfd\xf9\x8e\xb9\xf9\xef\xc5?'
p1304
tp1305
Rp1306
tp1307
a(S'internet video'
p1308
g2
(g6
S'\x97\xd5\xd17\xf6\xe9\xc5?'
p1309
tp1310
Rp1311
tp1312
a(S'adam zeis'
p1313
g2
(g6
S'\xa57ws\xc1\xe8\xc5?'
p1314
tp1315
Rp1316
tp1317
a(S'jesse zook mann'
p1318
g2
(g6
S'{\xdb\x15>\xfe\xd5\xc5?'
p1319
tp1320
Rp1321
tp1322
a(S'video assist'
p1323
g2
(g6
S'DO\x0c\xbb\xf9\xcb\xc5?'
p1324
tp1325
Rp1326
tp1327
a(S'cutecircuit'
p1328
g2
(g6
S'A\x15#P\xd6\xc8\xc5?'
p1329
tp1330
Rp1331
tp1332
a(S'nowlive'
p1333
g2
(g6
S'\x01\xe4\xbd\xb3\xf2\xbe\xc5?'
p1334
tp1335
Rp1336
tp1337
a(S'vyrt'
p1338
g2
(g6
S'wPF\xffR\xbd\xc5?'
p1339
tp1340
Rp1341
tp1342
a(S'crowdoptic, inc.'
p1343
g2
(g6
S'\xe7\x1a\xa5\x1b\x9d\xb9\xc5?'
p1344
tp1345
Rp1346
tp1347
a(S'mscape'
p1348
g2
(g6
S'\x87\x10`\xcc\xff\xb4\xc5?'
p1349
tp1350
Rp1351
tp1352
a(S'mobile cdn'
p1353
g2
(g6
S'\x1e\xa4\x03\xe9\x11\xb4\xc5?'
p1354
tp1355
Rp1356
tp1357
a(S'microsoft mobile services'
p1358
g2
(g6
S'\x8a\xec\x02;%\xb3\xc5?'
p1359
tp1360
Rp1361
tp1362
a(S'harris mann'
p1363
g2
(g6
S'\xac_\xc5\nS\xa8\xc5?'
p1364
tp1365
Rp1366
tp1367
a(S'mocospace'
p1368
g2
(g6
S'\x91-4\x12k\xa4\xc5?'
p1369
tp1370
Rp1371
tp1372
a(S'pixorial'
p1373
g2
(g6
S'\xda\x8a$4\x81\xa3\xc5?'
p1374
tp1375
Rp1376
tp1377
a(S'videotelephony'
p1378
g2
(g6
S'\xb0\xbd>h"\xa3\xc5?'
p1379
tp1380
Rp1381
tp1382
a(S'mobile advertising'
p1383
g2
(g6
S'bo\xae?\xe0\x9c\xc5?'
p1384
tp1385
Rp1386
tp1387
a(S'online social entertainment'
p1388
g2
(g6
S'W7(\x90\xb8\x9a\xc5?'
p1389
tp1390
Rp1391
tp1392
a(S'jonathan mann (musician)'
p1393
g2
(g6
S'\xd2 \xd6\xb1L\x95\xc5?'
p1394
tp1395
Rp1396
tp1397
a(S'john mann (cricketer, born 1983)'
p1398
g2
(g6
S'\\\xc1p\xceq\x94\xc5?'
p1399
tp1400
Rp1401
tp1402
a(S'p2p caching'
p1403
g2
(g6
S"\xba'\x10v\x0b\x93\xc5?"
p1404
tp1405
Rp1406
tp1407
a(S'the waiting room (john mann album)'
p1408
g2
(g6
S'p\xad\xf1F\x7f\x8f\xc5?'
p1409
tp1410
Rp1411
tp1412
a(S'anthony mann'
p1413
g2
(g6
S'F\xa7E\xf3\x91\x8d\xc5?'
p1414
tp1415
Rp1416
tp1417
a(S'socialcasting'
p1418
g2
(g6
S'D\xe9\x03q\x1a\x8c\xc5?'
p1419
tp1420
Rp1421
tp1422
a(S'william mann (mathematician)'
p1423
g2
(g6
S'\xdc9\xcd\xde\xb9\x89\xc5?'
p1424
tp1425
Rp1426
tp1427
a(S'prontoforms'
p1428
g2
(g6
S'8\x8cv\xa3\x88\x87\xc5?'
p1429
tp1430
Rp1431
tp1432
a(S'wearable cardioverter defibrillator'
p1433
g2
(g6
S'0\xca}\xdc\xaa\x81\xc5?'
p1434
tp1435
Rp1436
tp1437
a(S'leslie mann'
p1438
g2
(g6
S'8A\xa6}\xcf\x80\xc5?'
p1439
tp1440
Rp1441
tp1442
a(S'mann baronets'
p1443
g2
(g6
S'E\xc1\xa4q\x9c|\xc5?'
p1444
tp1445
Rp1446
tp1447
a(S"everything's different now"
p1448
g2
(g6
S'\xdb\x1d\x16,\x91w\xc5?'
p1449
tp1450
Rp1451
tp1452
a(S'navy dare'
p1453
g2
(g6
S'\xb3\x9a\r\x06\xb7v\xc5?'
p1454
tp1455
Rp1456
tp1457
a(S'video camera'
p1458
g2
(g6
S'\x8f5F\xc2\xdau\xc5?'
p1459
tp1460
Rp1461
tp1462
a(S'videographer'
p1463
g2
(g6
S'\xc8$Y\x96\x14u\xc5?'
p1464
tp1465
Rp1466
tp1467
a(S'zemingo group'
p1468
g2
(g6
S'rj\xf8\x81\xden\xc5?'
p1469
tp1470
Rp1471
tp1472
a(S'internet privacy'
p1473
g2
(g6
S'\xf5u)\x91\x89k\xc5?'
p1474
tp1475
Rp1476
tp1477
a(S'bruce mann (legal historian)'
p1478
g2
(g6
S'\x0c;\x1b\x02\xc0h\xc5?'
p1479
tp1480
Rp1481
tp1482
a(S'enterprise mobility management'
p1483
g2
(g6
S'\xb3\x03\x96&Rf\xc5?'
p1484
tp1485
Rp1486
tp1487
a(S'dashtop mobile'
p1488
g2
(g6
S'\xf6r\x0fN\xf3a\xc5?'
p1489
tp1490
Rp1491
tp1492
a(S'myxer'
p1493
g2
(g6
S'#\xdaM(\x84]\xc5?'
p1494
tp1495
Rp1496
tp1497
a(S'2000s in science and technology'
p1498
g2
(g6
S'F\xe9(\x88hY\xc5?'
p1499
tp1500
Rp1501
tp1502
a(S'videophone'
p1503
g2
(g6
S'\xafK\xf8\xb5LV\xc5?'
p1504
tp1505
Rp1506
tp1507
a(S'valencell'
p1508
g2
(g6
S'u\xd2\xca;\xeaU\xc5?'
p1509
tp1510
Rp1511
tp1512
a.