(lp0
(S'logarithm'
p1
cnumpy.core.multiarray
scalar
p2
(cnumpy
dtype
p3
(S'f8'
p4
I0
I1
tp5
Rp6
(I3
S'<'
p7
NNNI-1
I-1
I0
tp8
bS'\x01\x00\x00\x00\x00\x00\xf0?'
p9
tp10
Rp11
tp12
a(S'napierian logarithm'
p13
g2
(g6
S'L\xf5+2\x7f]\xeb?'
p14
tp15
Rp16
tp17
a(S'common logarithm'
p18
g2
(g6
S'R87J\x1c.\xea?'
p19
tp20
Rp21
tp22
a(S'natural logarithm of 2'
p23
g2
(g6
S'1(\x06\x8e\xef\xf3\xe8?'
p24
tp25
Rp26
tp27
a(S'natural logarithm'
p28
g2
(g6
S'\x88\xb5`\xbf-\xa4\xe8?'
p29
tp30
Rp31
tp32
a(S'binary logarithm'
p33
g2
(g6
S'\xec`\xb1\x89\xe5\x9d\xe7?'
p34
tp35
Rp36
tp37
a(S'list of logarithmic identities'
p38
g2
(g6
S'\xf9t"Yh%\xe7?'
p39
tp40
Rp41
tp42
a(S'history of logarithms'
p43
g2
(g6
S'\xca\xa1(s\x1d\xd5\xe5?'
p44
tp45
Rp46
tp47
a(S'logarithmic differentiation'
p48
g2
(g6
S'\xf4\x80\xf2\xbasD\xe5?'
p49
tp50
Rp51
tp52
a(S'iterated logarithm'
p53
g2
(g6
S'i\x88}\xfa\xf8\xb9\xe4?'
p54
tp55
Rp56
tp57
a(S'super-logarithm'
p58
g2
(g6
S'\x13\xc6\xd9\x1a;\x80\xe4?'
p59
tp60
Rp61
tp62
a(S'complex logarithm'
p63
g2
(g6
S'3\x066Ocn\xe3?'
p64
tp65
Rp66
tp67
a(S'logarithm of a matrix'
p68
g2
(g6
S'\xb5\x1ek\xb0\x0et\xe2?'
p69
tp70
Rp71
tp72
a(S'identity (mathematics)'
p73
g2
(g6
S'\xe6\xeeW\x85\x08,\xe2?'
p74
tp75
Rp76
tp77
a(S'discrete logarithm'
p78
g2
(g6
S'\xb9\x1083lw\xe1?'
p79
tp80
Rp81
tp82
a(S'index of logarithm articles'
p83
g2
(g6
S'r\xb0\x14\t|K\xe1?'
p84
tp85
Rp86
tp87
a(S'mathematical table'
p88
g2
(g6
S'P\x1f\x8avW\xb2\xde?'
p89
tp90
Rp91
tp92
a(S'cologarithm'
p93
g2
(g6
S'\xd2\x16\x9d\xfd\xac\x94\xdb?'
p94
tp95
Rp96
tp97
a(S'e (mathematical constant)'
p98
g2
(g6
S'\xe7\xf3KtBW\xda?'
p99
tp100
Rp101
tp102
a(S'gr\xc3\xa9goire de saint-vincent'
p103
g2
(g6
S'\x7f\xce)\xc3\xf95\xd9?'
p104
tp105
Rp106
tp107
a(S'maximum term method'
p108
g2
(g6
S'\xab-Y2+\xc1\xd8?'
p109
tp110
Rp111
tp112
a(S'logarithmic derivative'
p113
g2
(g6
S'%\xab\xcf"\xc7\xb2\xd8?'
p114
tp115
Rp116
tp117
a(S'alphonse antonio de sarasa'
p118
g2
(g6
S'\x97\xdawv\x0c\x7f\xd8?'
p119
tp120
Rp121
tp122
a(S'branch point'
p123
g2
(g6
S'\x87l\t\xc0\xefs\xd8?'
p124
tp125
Rp126
tp127
a(S'logit'
p128
g2
(g6
S'||\xd2\x81\xdfq\xd8?'
p129
tp130
Rp131
tp132
a(S'principal branch'
p133
g2
(g6
S'J\x9di\xd8\xdb&\xd8?'
p134
tp135
Rp136
tp137
a(S"zech's logarithm"
p138
g2
(g6
S'\xb02\xa1\xc1?\xa9\xd7?'
p139
tp140
Rp141
tp142
a(S'john speidell'
p143
g2
(g6
S'\x0e\xd1<\xc0,f\xd7?'
p144
tp145
Rp146
tp147
a(S'discrete logarithm records'
p148
g2
(g6
S'\x81\x1c\xc2\xe9\xd1Z\xd7?'
p149
tp150
Rp151
tp152
a(S'index calculus algorithm'
p153
g2
(g6
S'\xc8\xd3\xbcm\x03S\xd6?'
p154
tp155
Rp156
tp157
a(S'logarithmic growth'
p158
g2
(g6
S'\x1d\xd0\x06\xf8<:\xd6?'
p159
tp160
Rp161
tp162
a(S'okamoto\xe2\x80\x93uchiyama cryptosystem'
p163
g2
(g6
S'\x90z\xcb>i\x14\xd6?'
p164
tp165
Rp166
tp167
a(S'neper'
p168
g2
(g6
S'<\xa9\x16G\x7fG\xd5?'
p169
tp170
Rp171
tp172
a(S"euler's formula"
p173
g2
(g6
S'\xaeer\x1eB\xca\xd4?'
p174
tp175
Rp176
tp177
a(S'law of the iterated logarithm'
p178
g2
(g6
S'Y\xf7\x87.w\xc4\xd4?'
p179
tp180
Rp181
tp182
a(S'john pollard (mathematician)'
p183
g2
(g6
S']^\x00\xb6\xd9\xb4\xd4?'
p184
tp185
Rp186
tp187
a(S'polylogarithmic function'
p188
g2
(g6
S'A\xa9@\xe6\x81\xaa\xd4?'
p189
tp190
Rp191
tp192
a(S'smearing retransformation'
p193
g2
(g6
S'\xf1\xa2t\xf3\x9d$\xd4?'
p194
tp195
Rp196
tp197
a(S'power rule'
p198
g2
(g6
S'\xfd^\xbe^\x86\x06\xd4?'
p199
tp200
Rp201
tp202
a(S'logarithmic units'
p203
g2
(g6
S'h\xb2)\x832\xea\xd3?'
p204
tp205
Rp206
tp207
a(S'euler function'
p208
g2
(g6
S'p\x98\xa1\x9c\x18\xdc\xd3?'
p209
tp210
Rp211
tp212
a(S'p-adic exponential function'
p213
g2
(g6
S'\xbc\x1e\x9b\x92\x80\xc3\xd3?'
p214
tp215
Rp216
tp217
a(S'polygamma function'
p218
g2
(g6
S'\xa0!\x1d\x0bP\xb8\xd3?'
p219
tp220
Rp221
tp222
a(S'l-notation'
p223
g2
(g6
S'@\xef\xd9\xc6\xb5\xa1\xd3?'
p224
tp225
Rp226
tp227
a(S'order of magnitude'
p228
g2
(g6
S'@\xb9E2\x17\x9a\xd3?'
p229
tp230
Rp231
tp232
a(S'mercator series'
p233
g2
(g6
S'\xb3|S\x94rS\xd3?'
p234
tp235
Rp236
tp237
a(S'adrien ulacq'
p238
g2
(g6
S'\xfc#\xe8m\xd56\xd3?'
p239
tp240
Rp241
tp242
a(S'base (exponentiation)'
p243
g2
(g6
S'\r\xc3\xe3f\x0b\x08\xd3?'
p244
tp245
Rp246
tp247
a(S'exponentiation'
p248
g2
(g6
S'\xfdFs\xee\xe2\x06\xd3?'
p249
tp250
Rp251
tp252
a(S"liouville's theorem (differential algebra)"
p253
g2
(g6
S'\xee\xa9\x15\xed\xa7\x05\xd3?'
p254
tp255
Rp256
tp257
a(S'henry briggs (mathematician)'
p258
g2
(g6
S'\x16xx\x99^\x02\xd3?'
p259
tp260
Rp261
tp262
a(S'logarithmic number system'
p263
g2
(g6
S'\xaa\xb4\xbf\x000\xeb\xd2?'
p264
tp265
Rp266
tp267
a(S'adriaan vlacq'
p268
g2
(g6
S'\r\xa7\xcb\x96\xa6\xd1\xd2?'
p269
tp270
Rp271
tp272
a(S'list of mathematical abbreviations'
p273
g2
(g6
S'm\x8dB\x0c,\xa0\xd2?'
p274
tp275
Rp276
tp277
a(S'significand'
p278
g2
(g6
S'&\xa0\x1el\xc6\x8a\xd2?'
p279
tp280
Rp281
tp282
a(S'inverse hyperbolic function'
p283
g2
(g6
S'\x0e$\xb3\xc4\x0ey\xd2?'
p284
tp285
Rp286
tp287
a(S'list of mathematical functions'
p288
g2
(g6
S'\xd6\x13}{\xa5q\xd2?'
p289
tp290
Rp291
tp292
a(S'log probability'
p293
g2
(g6
S'\xb7\xb8\x04\x06\xb8[\xd2?'
p294
tp295
Rp296
tp297
a(S'tetration'
p298
g2
(g6
S'G}\x0cR\xd8W\xd2?'
p299
tp300
Rp301
tp302
a(S'bkm algorithm'
p303
g2
(g6
S'\x07\x8cM\n\x15\xbb\xd1?'
p304
tp305
Rp306
tp307
a(S"b\xc3\xb6ttcher's equation"
p308
g2
(g6
S'd}\xb8\xb0v\xac\xd1?'
p309
tp310
Rp311
tp312
a(S'alexander john thompson'
p313
g2
(g6
S'k\x00\xfe./\xab\xd1?'
p314
tp315
Rp316
tp317
a(S'logarithmic mean'
p318
g2
(g6
S'\xd0\x88X\xb4\xcdy\xd1?'
p319
tp320
Rp321
tp322
a(S'barnes g-function'
p323
g2
(g6
S'\x87\xd1\x80\xb6\x94u\xd1?'
p324
tp325
Rp326
tp327
a(S'exponential integral'
p328
g2
(g6
S'\xa3\x9fg\xd5\xfei\xd1?'
p329
tp330
Rp331
tp332
a(S'elementary function'
p333
g2
(g6
S'\xa4\xd5\xa0\xa7\xafd\xd1?'
p334
tp335
Rp336
tp337
a(S'mantissa'
p338
g2
(g6
S'\xf1\xa6\xa0\xbcM]\xd1?'
p339
tp340
Rp341
tp342
a(S'ln'
p343
g2
(g6
S'.\x04\x06\xf9\xd6P\xd1?'
p344
tp345
Rp346
tp347
a(S'densitometry'
p348
g2
(g6
S'\x02\xcf\xae\xc2\xaeA\xd1?'
p349
tp350
Rp351
tp352
a(S"cavalieri's quadrature formula"
p353
g2
(g6
S'\x1dW8\xe3\x1e7\xd1?'
p354
tp355
Rp356
tp357
a(S'principal value'
p358
g2
(g6
S'\xf7\xbd(_Q4\xd1?'
p359
tp360
Rp361
tp362
a(S'tsallis statistics'
p363
g2
(g6
S'd\x8b\x8c\xe4I\xfa\xd0?'
p364
tp365
Rp366
tp367
a(S'partial function'
p368
g2
(g6
S"\xb5\xcfP'A\xe9\xd0?"
p369
tp370
Rp371
tp372
a(S'prosthaphaeresis'
p373
g2
(g6
S'6\xe5\xc7\xc6O\xb6\xd0?'
p374
tp375
Rp376
tp377
a(S'cepstrum'
p378
g2
(g6
S'\xc0_\x88\x01\x9e\xa9\xd0?'
p379
tp380
Rp381
tp382
a(S'nicholas mercator'
p383
g2
(g6
S'b\x1c\xac\xd9k\x89\xd0?'
p384
tp385
Rp386
tp387
a(S'twinkle'
p388
g2
(g6
S'\r\n\x96\xd5\xe2n\xd0?'
p389
tp390
Rp391
tp392
a(S'support curve'
p393
g2
(g6
S'\xc5\xaa\xc5\x04\xca^\xd0?'
p394
tp395
Rp396
tp397
a(S'e number (disambiguation)'
p398
g2
(g6
S'\xeaI1M\x81P\xd0?'
p399
tp400
Rp401
tp402
a(S'foias constant'
p403
g2
(g6
S'\xbc\x10\xeb&MD\xd0?'
p404
tp405
Rp406
tp407
a(S'hartley function'
p408
g2
(g6
S'{-\xb5\r\xb19\xd0?'
p409
tp410
Rp411
tp412
a(S'transcendental function'
p413
g2
(g6
S'\xddA\xfe\xe8*\x11\xd0?'
p414
tp415
Rp416
tp417
a(S'exponential function'
p418
g2
(g6
S'E\x84\x15\xaaDZ\xcf?'
p419
tp420
Rp421
tp422
a(S'self-information'
p423
g2
(g6
S'\xc7\xa0z\xfcwS\xcf?'
p424
tp425
Rp426
tp427
a(S'polylogarithm'
p428
g2
(g6
S'\xc8`\xf9\t\xc08\xcf?'
p429
tp430
Rp431
tp432
a(S'1614 in science'
p433
g2
(g6
S'\x83\x86\n\xa8f$\xcf?'
p434
tp435
Rp436
tp437
a(S'logarithmic integral function'
p438
g2
(g6
S'Zj\xe7\xb10\x07\xcf?'
p439
tp440
Rp441
tp442
a(S'iso 31-11'
p443
g2
(g6
S'\x1d\xc2\x16\xa1\x9a\xfd\xce?'
p444
tp445
Rp446
tp447
a(S'accumulation function'
p448
g2
(g6
S'8\x08\\\x81\x01\xfb\xce?'
p449
tp450
Rp451
tp452
a(S'mccallum rule'
p453
g2
(g6
S'&\xab\x9a\x855\xe0\xce?'
p454
tp455
Rp456
tp457
a(S'multiplicity function for n noninteracting spins'
p458
g2
(g6
S'\xff.\xe3Dc\xdb\xce?'
p459
tp460
Rp461
tp462
a(S'gelfond\xe2\x80\x93schneider theorem'
p463
g2
(g6
S'\x00\xdf\xb8\x9f+\xd6\xce?'
p464
tp465
Rp466
tp467
a(S'ibn hamza al-maghribi'
p468
g2
(g6
S'~\x1b:2\xf2\xb3\xce?'
p469
tp470
Rp471
tp472
a(S'quantities of information'
p473
g2
(g6
S'\x07q|+V\x81\xce?'
p474
tp475
Rp476
tp477
a(S'combinant'
p478
g2
(g6
S'u\\U\x9c1P\xce?'
p479
tp480
Rp481
tp482
a(S'ramanujan\xe2\x80\x93soldner constant'
p483
g2
(g6
S'\xbd\xdd-X@J\xce?'
p484
tp485
Rp486
tp487
a(S'characterization (mathematics)'
p488
g2
(g6
S'p\x05\xfc\xcb\x9b\xff\xcd?'
p489
tp490
Rp491
tp492
a(S'level (logarithmic quantity)'
p493
g2
(g6
S'}\x17\\\xb8\xa9\xa4\xcd?'
p494
tp495
Rp496
tp497
a(S'proof of knowledge'
p498
g2
(g6
S'\xae\xe8E\xa05`\xcd?'
p499
tp500
Rp501
tp502
a(S'data transformation (statistics)'
p503
g2
(g6
S'\x14\x81A\x94\xb8D\xcd?'
p504
tp505
Rp506
tp507
a(S'integral of the secant function'
p508
g2
(g6
S'\x89\xd4`\xf1\x9c*\xcd?'
p509
tp510
Rp511
tp512
a(S'entire function'
p513
g2
(g6
S'u\x93\xc4,\xc4\x11\xcd?'
p514
tp515
Rp516
tp517
a(S'differentiation rules'
p518
g2
(g6
S'o\x8a\xa3\xeak\xe5\xcc?'
p519
tp520
Rp521
tp522
a(S"l\xc3\xa9vy's constant"
p523
g2
(g6
S'\xbdSR\x14x\xac\xcc?'
p524
tp525
Rp526
tp527
a(S'chebyshev function'
p528
g2
(g6
S'\xf62\xf1\x10\xb2\x87\xcc?'
p529
tp530
Rp531
tp532
a(S'taylor series'
p533
g2
(g6
S'\xa9\x9e\xc4\xa4at\xcc?'
p534
tp535
Rp536
tp537
a(S'product rule'
p538
g2
(g6
S'Q\x00\xcc\x8b\xb5 \xcc?'
p539
tp540
Rp541
tp542
a(S"spence's function"
p543
g2
(g6
S'\xf7>\x10jp\xf8\xcb?'
p544
tp545
Rp546
tp547
a(S'semi-log plot'
p548
g2
(g6
S'\xfa\x12\x9bq}\xe6\xcb?'
p549
tp550
Rp551
tp552
a(S'gamma function'
p553
g2
(g6
S'\xe0\x1b\x87\xc5\x1d\xd2\xcb?'
p554
tp555
Rp556
tp557
a(S'superfunction'
p558
g2
(g6
S'Z`"\x13T\xc0\xcb?'
p559
tp560
Rp561
tp562
a(S'euler\xe2\x80\x93mascheroni constant'
p563
g2
(g6
S'\x05\xe5\xf8M\xf4\xb0\xcb?'
p564
tp565
Rp566
tp567
a(S'ieee p1363'
p568
g2
(g6
S'\xa7\x98\xc0R\x94\x9d\xcb?'
p569
tp570
Rp571
tp572
a(S"pollard's kangaroo algorithm"
p573
g2
(g6
S'\x96B"\xce\xe8\x8d\xcb?'
p574
tp575
Rp576
tp577
a(S'irving stringham'
p578
g2
(g6
S'9+3\xe3g\x89\xcb?'
p579
tp580
Rp581
tp582
a(S'random self-reducibility'
p583
g2
(g6
S'NeP\xe0\x19J\xcb?'
p584
tp585
Rp586
tp587
a(S'closed-form expression'
p588
g2
(g6
S'\x99\xcf.\xbf\xd7/\xcb?'
p589
tp590
Rp591
tp592
a(S'f number (chemistry)'
p593
g2
(g6
S'x\x9b\x90\xd7\x05!\xcb?'
p594
tp595
Rp596
tp597
a(S'ezechiel de decker'
p598
g2
(g6
S'\xe6\x17]\x1b-\xf7\xca?'
p599
tp600
Rp601
tp602
a(S'manhattan plot'
p603
g2
(g6
S"'u\xf3\xd9l\xb8\xca?"
p604
tp605
Rp606
tp607
a(S'large numbers'
p608
g2
(g6
S']\xc6\xf3\xd6\x80\xa8\xca?'
p609
tp610
Rp611
tp612
a(S'logarithmic scale'
p613
g2
(g6
S'2\x86\x06\xe26b\xca?'
p614
tp615
Rp616
tp617
a(S'symmetric level-index arithmetic'
p618
g2
(g6
S'\x99D\x06\x89\xfb>\xca?'
p619
tp620
Rp621
tp622
a(S'meissel\xe2\x80\x93mertens constant'
p623
g2
(g6
S'\x96\x17\x80\xd6\x11\x1b\xca?'
p624
tp625
Rp626
tp627
a(S'hyperbolic distribution'
p628
g2
(g6
S'j\xd4G\xc1\x8d\x0b\xca?'
p629
tp630
Rp631
tp632
a(S'jost b\xc3\xbcrgi'
p633
g2
(g6
S'\xd9\xaff\x0b\x81\x05\xca?'
p634
tp635
Rp636
tp637
a(S'very smooth hash'
p638
g2
(g6
S'T\xdf J\xdf\xc4\xc9?'
p639
tp640
Rp641
tp642
a(S'landau distribution'
p643
g2
(g6
S'\xf8\xb9\xdf:G\xbb\xc9?'
p644
tp645
Rp646
tp647
a(S'br\xc3\xb8nsted catalysis equation'
p648
g2
(g6
S'F\xfd\xe5ze\xb4\xc9?'
p649
tp650
Rp651
tp652
a(S'list of types of functions'
p653
g2
(g6
S'\xea5|"\xa7\xa2\xc9?'
p654
tp655
Rp656
tp657
a(S'function (mathematics)'
p658
g2
(g6
S'\x96+\xb5F\x90\x9d\xc9?'
p659
tp660
Rp661
tp662
a(S'characterizations of the exponential function'
p663
g2
(g6
S'\x93!O\xfeiy\xc9?'
p664
tp665
Rp666
tp667
a(S'power law of practice'
p668
g2
(g6
S'y\xa4\x1d\x15\xbfq\xc9?'
p669
tp670
Rp671
tp672
a(S'correlate summation analysis'
p673
g2
(g6
S'-\xac\xbd\xc2oZ\xc9?'
p674
tp675
Rp676
tp677
a(S'ordered logit'
p678
g2
(g6
S'\xa6\xa0\xdc\xa5jD\xc9?'
p679
tp680
Rp681
tp682
a(S'replica trick'
p683
g2
(g6
S'\x00\xee\x16\xdb\xbf3\xc9?'
p684
tp685
Rp686
tp687
a(S'antiderivative'
p688
g2
(g6
S'\x92\xaar\x07))\xc9?'
p689
tp690
Rp691
tp692
a(S'natural (disambiguation)'
p693
g2
(g6
S'\x07\xe0M\xfbp"\xc9?'
p694
tp695
Rp696
tp697
a(S'champernowne distribution'
p698
g2
(g6
S'5\xbc\x0e\x02\x1a\x18\xc9?'
p699
tp700
Rp701
tp702
a(S'motor variable'
p703
g2
(g6
S'Gc\xc4\x92\x11\x14\xc9?'
p704
tp705
Rp706
tp707
a(S"gibbs' inequality"
p708
g2
(g6
S')zZ\xaf\x8e\x05\xc9?'
p709
tp710
Rp711
tp712
a(S'non-integer representation'
p713
g2
(g6
S'\xd6\x8f\xe1\x15\x1a\xd7\xc8?'
p714
tp715
Rp716
tp717
a(S'volker strassen'
p718
g2
(g6
S'~mo\x8c\xb9\xd2\xc8?'
p719
tp720
Rp721
tp722
a(S'digamma function'
p723
g2
(g6
S'\xe2\xac\xb6\xe9\xf5\x94\xc8?'
p724
tp725
Rp726
tp727
a(S'j\xc3\xb8rgen pedersen gram'
p728
g2
(g6
S'\x88}\xb1=\x84v\xc8?'
p729
tp730
Rp731
tp732
a(S'rabdology'
p733
g2
(g6
S'\x9a \x9c^Qi\xc8?'
p734
tp735
Rp736
tp737
a(S'hyperbolic sector'
p738
g2
(g6
S']\x91\rL\xf1M\xc8?'
p739
tp740
Rp741
tp742
a(S'one-way function'
p743
g2
(g6
S'jL\xe8\xaf\xc8B\xc8?'
p744
tp745
Rp746
tp747
a(S'integer complexity'
p748
g2
(g6
S"\xbf\xe1\xe2V\xfc'\xc8?"
p749
tp750
Rp751
tp752
a(S'infinite product'
p753
g2
(g6
S'\x9f\xdd;\x9a\x06\x18\xc8?'
p754
tp755
Rp756
tp757
a(S'lambert w function'
p758
g2
(g6
S'\xd6<t\xd2\xfd\x14\xc8?'
p759
tp760
Rp761
tp762
a(S'local zeta-function'
p763
g2
(g6
S'\x11\xcc\xc2\xb1V\t\xc8?'
p764
tp765
Rp766
tp767
a(S'liouvillian function'
p768
g2
(g6
S'?m\xe5\x18C\xf4\xc7?'
p769
tp770
Rp771
tp772
a(S'nat (unit)'
p773
g2
(g6
S'BP;\xcc\xd0\xd3\xc7?'
p774
tp775
Rp776
tp777
a(S'divergence of the sum of the reciprocals of the primes'
p778
g2
(g6
S'\xef\x88\x16~\x12\xc5\xc7?'
p779
tp780
Rp781
tp782
a(S'blum\xe2\x80\x93micali algorithm'
p783
g2
(g6
S'\x9d\x93\xa5\xde\xa8\xc3\xc7?'
p784
tp785
Rp786
tp787
a(S'log\xe2\x80\x93log plot'
p788
g2
(g6
S'\x8e\x01\xdc\x19\xb8\xbe\xc7?'
p789
tp790
Rp791
tp792
a(S'monodromy theorem'
p793
g2
(g6
S'&\x00#[c\xa5\xc7?'
p794
tp795
Rp796
tp797
a(S'half-exponential function'
p798
g2
(g6
S'\xef\x87\xe6Q\x86\x8b\xc7?'
p799
tp800
Rp801
tp802
a(S'primorial'
p803
g2
(g6
S'\xc5Q\x94\xea\xd4\x84\xc7?'
p804
tp805
Rp806
tp807
a(S'score (statistics)'
p808
g2
(g6
S'e\xa9t\xfd\x92t\xc7?'
p809
tp810
Rp811
tp812
a(S'derivative'
p813
g2
(g6
S'\x8c\x8f\x0c\x9e\xd5i\xc7?'
p814
tp815
Rp816
tp817
a(S"fisher's z-distribution"
p818
g2
(g6
S'\xc2\x9c[<Bh\xc7?'
p819
tp820
Rp821
tp822
a(S'complex number'
p823
g2
(g6
S'\xc5\xf9)\xc0\xbeZ\xc7?'
p824
tp825
Rp826
tp827
a(S'exsecant'
p828
g2
(g6
S'_\x9f![\xeeP\xc7?'
p829
tp830
Rp831
tp832
a(S'integral test for convergence'
p833
g2
(g6
S'\n\x90>\xbc\xff*\xc7?'
p834
tp835
Rp836
tp837
a(S'incomplete gamma function'
p838
g2
(g6
S'\xae\x06\x08\x83\xdf*\xc7?'
p839
tp840
Rp841
tp842
a(S'mincer earnings function'
p843
g2
(g6
S'\x1d\x1eT\xd3\xb3%\xc7?'
p844
tp845
Rp846
tp847
a(S'multivalued function'
p848
g2
(g6
S'\xcc\xdf\xfc\xeb\t\xfd\xc6?'
p849
tp850
Rp851
tp852
a(S'wrapped normal distribution'
p853
g2
(g6
S'\x87Px%\xf7\xf9\xc6?'
p854
tp855
Rp856
tp857
a(S'slide rule'
p858
g2
(g6
S'\x07=e\xcc\xd7\xf3\xc6?'
p859
tp860
Rp861
tp862
a(S'probit'
p863
g2
(g6
S'\xce\xa2\x17\x88\x99\xf2\xc6?'
p864
tp865
Rp866
tp867
a(S'precomputation'
p868
g2
(g6
S'\x8f\x8b\x8d\x9eZ\xef\xc6?'
p869
tp870
Rp871
tp872
a(S"stirling's approximation"
p873
g2
(g6
S'\x8b\x1c4\xd1Q\xe6\xc6?'
p874
tp875
Rp876
tp877
a(S'antoine equation'
p878
g2
(g6
S'K\xe9\xd9\x82\xbb\xde\xc6?'
p879
tp880
Rp881
tp882
a(S'logmar chart'
p883
g2
(g6
S'Ae\x14@+\xd9\xc6?'
p884
tp885
Rp886
tp887
a(S"euler's continued fraction formula"
p888
g2
(g6
S']5TE\xd3\xd3\xc6?'
p889
tp890
Rp891
tp892
a(S'wiener\xe2\x80\x93hopf method'
p893
g2
(g6
S'\xa9q\x03M`\xce\xc6?'
p894
tp895
Rp896
tp897
a(S'sinclair scientific'
p898
g2
(g6
S'\xe2%LLo\xca\xc6?'
p899
tp900
Rp901
tp902
a(S"steiner's calculus problem"
p903
g2
(g6
S'\x15\xe1\xab<\xf9\xba\xc6?'
p904
tp905
Rp906
tp907
a(S'differential calculus'
p908
g2
(g6
S'\xc9$`%R\xb2\xc6?'
p909
tp910
Rp911
tp912
a(S'aleksandr khinchin'
p913
g2
(g6
S'\x0b\xb4\xbf\xc5\xaa\xaa\xc6?'
p914
tp915
Rp916
tp917
a(S'octic equation'
p918
g2
(g6
S'?\xf4d\xd1z\xaa\xc6?'
p919
tp920
Rp921
tp922
a(S"baker's theorem"
p923
g2
(g6
S'\xea\x7f\x80Z\xa9\xa1\xc6?'
p924
tp925
Rp926
tp927
a(S'graph of a function'
p928
g2
(g6
S'\xfc\x92Z"\x04\x95\xc6?'
p929
tp930
Rp931
tp932
a(S'risch algorithm'
p933
g2
(g6
S'\x95\x9eS\x11"\x93\xc6?'
p934
tp935
Rp936
tp937
a(S'harmonic number'
p938
g2
(g6
S'\xe7\xc0\x86\x19Z\x89\xc6?'
p939
tp940
Rp941
tp942
a(S'lg (disambiguation)'
p943
g2
(g6
S'\x86\xfc\xbe\x85FX\xc6?'
p944
tp945
Rp946
tp947
a(S'trigamma function'
p948
g2
(g6
S'\xcd\x15\xde\x7fLR\xc6?'
p949
tp950
Rp951
tp952
a(S'multiplicative independence'
p953
g2
(g6
S'\x19\x12Uz\x1bL\xc6?'
p954
tp955
Rp956
tp957
a(S'constant function'
p958
g2
(g6
S'mI\x07\xc0\xb7D\xc6?'
p959
tp960
Rp961
tp962
a(S'list of calculus topics'
p963
g2
(g6
S'~;\xfd"O\x06\xc6?'
p964
tp965
Rp966
tp967
a(S'sinc function'
p968
g2
(g6
S'\xf9j\x02k\x7f\xfc\xc5?'
p969
tp970
Rp971
tp972
a(S'characteristic multiplier'
p973
g2
(g6
S'\xf4\x1b[\xf5\xe2\xfa\xc5?'
p974
tp975
Rp976
tp977
a(S'inverse function'
p978
g2
(g6
S'\xe9\xf3\xb6\xdd\x12\xf7\xc5?'
p979
tp980
Rp981
tp982
a(S'prime-counting function'
p983
g2
(g6
S'n\x86\xe5\x00\x05\xf3\xc5?'
p984
tp985
Rp986
tp987
a(S'inverse functions and differentiation'
p988
g2
(g6
S'X\x9d5.\xf5\xf0\xc5?'
p989
tp990
Rp991
tp992
a(S'virasena'
p993
g2
(g6
S'\x0504xP\xd2\xc5?'
p994
tp995
Rp996
tp997
a(S'inverse trigonometric functions'
p998
g2
(g6
S'\xa3\xac\x13\xedA\xcc\xc5?'
p999
tp1000
Rp1001
tp1002
a(S'pi'
p1003
g2
(g6
S'H\xeaN\xd9\xf4\xab\xc5?'
p1004
tp1005
Rp1006
tp1007
a(S'analytic continuation'
p1008
g2
(g6
S'TV\xc4\xea\xb7\x98\xc5?'
p1009
tp1010
Rp1011
tp1012
a(S'logarithmic conformal field theory'
p1013
g2
(g6
S'\xdc\xc8\xda\xe1\xf0\x8d\xc5?'
p1014
tp1015
Rp1016
tp1017
a(S"landau's function"
p1018
g2
(g6
S'\xe6}s\xa2c\x89\xc5?'
p1019
tp1020
Rp1021
tp1022
a(S'fast inverse square root'
p1023
g2
(g6
S'4\x9e\xa4l\x10~\xc5?'
p1024
tp1025
Rp1026
tp1027
a(S'arithmetic function'
p1028
g2
(g6
S'\x14b\x8c;\xa1z\xc5?'
p1029
tp1030
Rp1031
tp1032
a(S'integration by parts'
p1033
g2
(g6
S'7\xa7\x91r\x81s\xc5?'
p1034
tp1035
Rp1036
tp1037
a(S'extended precision'
p1038
g2
(g6
S'"\x1a#pen\xc5?'
p1039
tp1040
Rp1041
tp1042
a(S'six exponentials theorem'
p1043
g2
(g6
S'\xee>\x00\xc1\xb1[\xc5?'
p1044
tp1045
Rp1046
tp1047
a(S'prime number theorem'
p1048
g2
(g6
S'\x7f\xd4\xa9UPX\xc5?'
p1049
tp1050
Rp1051
tp1052
a(S'octave (electronics)'
p1053
g2
(g6
S'\xa4^\x1e\x14KP\xc5?'
p1054
tp1055
Rp1056
tp1057
a(S'rescaled range'
p1058
g2
(g6
S'\x81\x87\xa6\xb4\x0cK\xc5?'
p1059
tp1060
Rp1061
tp1062
a(S'1617 in science'
p1063
g2
(g6
S'\x1b,\xc1\x16eF\xc5?'
p1064
tp1065
Rp1066
tp1067
a(S'stretching field'
p1068
g2
(g6
S'\xbe\xde\xd2\xe7\xe1E\xc5?'
p1069
tp1070
Rp1071
tp1072
a(S'logsumexp'
p1073
g2
(g6
S'\xc6\xf9\x88\x873D\xc5?'
p1074
tp1075
Rp1076
tp1077
a(S'unary function'
p1078
g2
(g6
S'73\xdb\xde\xc7B\xc5?'
p1079
tp1080
Rp1081
tp1082
a(S'q-function'
p1083
g2
(g6
S'\x1ak\xc2\x80\xbf2\xc5?'
p1084
tp1085
Rp1086
tp1087
a(S'list of real analysis topics'
p1088
g2
(g6
S'\x9elM)\x16&\xc5?'
p1089
tp1090
Rp1091
tp1092
a(S"somos' quadratic recurrence constant"
p1093
g2
(g6
S'?%\xe3\xbe\xb7\x1e\xc5?'
p1094
tp1095
Rp1096
tp1097
a(S'log-normal distribution'
p1098
g2
(g6
S'\xc0\xddc\x008\x19\xc5?'
p1099
tp1100
Rp1101
tp1102
a(S'logarithmically convex function'
p1103
g2
(g6
S'\x1e\xa4\x8c\xde\xa4\x18\xc5?'
p1104
tp1105
Rp1106
tp1107
a(S'meromorphic function'
p1108
g2
(g6
S'\xf3\xd0\xee\x0e\xa0\x10\xc5?'
p1109
tp1110
Rp1111
tp1112
a(S'fiat\xe2\x80\x93shamir heuristic'
p1113
g2
(g6
S'\x17\xd2\xf4\xda\x8b\x05\xc5?'
p1114
tp1115
Rp1116
tp1117
a(S'indicator function'
p1118
g2
(g6
S'\xa0-\xf2h\xba\x03\xc5?'
p1119
tp1120
Rp1121
tp1122
a(S'johann faulhaber'
p1123
g2
(g6
S'f\x04\xe0\xc0\xda\xcc\xc4?'
p1124
tp1125
Rp1126
tp1127
a(S'pointcheval\xe2\x80\x93stern signature algorithm'
p1128
g2
(g6
S'}\xf9\xcd|+\xc4\xc4?'
p1129
tp1130
Rp1131
tp1132
a(S"euler's totient function"
p1133
g2
(g6
S'$x\xafn\xfb\xc2\xc4?'
p1134
tp1135
Rp1136
tp1137
a(S'xtr'
p1138
g2
(g6
S'\xc1\x9ct~O\xc0\xc4?'
p1139
tp1140
Rp1141
tp1142
a(S'characteristic function (probability theory)'
p1143
g2
(g6
S'\x08g\xe3\x9d\xc6\xba\xc4?'
p1144
tp1145
Rp1146
tp1147
a(S'function of several real variables'
p1148
g2
(g6
S'\xbd\xe6m.H\xb9\xc4?'
p1149
tp1150
Rp1151
tp1152
a(S"sophomore's dream"
p1153
g2
(g6
S'\r\xfc\xc4\xa9;\xb0\xc4?'
p1154
tp1155
Rp1156
tp1157
a(S'gnu mpfr'
p1158
g2
(g6
S'\x15\xe5^"\xde\xa6\xc4?'
p1159
tp1160
Rp1161
tp1162
a(S'carl johan malmsten'
p1163
g2
(g6
S'\xb9\xe1:;Z\xa5\xc4?'
p1164
tp1165
Rp1166
tp1167
a(S'slender-body theory'
p1168
g2
(g6
S'`\xe8\xad\x8c\x88\xa4\xc4?'
p1169
tp1170
Rp1171
tp1172
a(S'factorial'
p1173
g2
(g6
S'\xee\x92\xbe\xbf\x85\x99\xc4?'
p1174
tp1175
Rp1176
tp1177
a(S'hypograph (mathematics)'
p1178
g2
(g6
S'-\xd0Mq\xa8\x8e\xc4?'
p1179
tp1180
Rp1181
tp1182
a(S'argument of a function'
p1183
g2
(g6
S'\xe0\xbdQ\xc9W\x7f\xc4?'
p1184
tp1185
Rp1186
tp1187
a(S'quantile function'
p1188
g2
(g6
S'\x83h4Ja{\xc4?'
p1189
tp1190
Rp1191
tp1192
a(S'chain rule'
p1193
g2
(g6
S'\x02\x1c\x81\x02\xb8q\xc4?'
p1194
tp1195
Rp1196
tp1197
a(S'cordic'
p1198
g2
(g6
S'\xac\x81\xe1U\x8bq\xc4?'
p1199
tp1200
Rp1201
tp1202
a(S'average order of an arithmetic function'
p1203
g2
(g6
S'g\xac%P\x0bn\xc4?'
p1204
tp1205
Rp1206
tp1207
a(S'non-analytic smooth function'
p1208
g2
(g6
S'or\xb9\xfa\x0fl\xc4?'
p1209
tp1210
Rp1211
tp1212
a(S'coulomb collision'
p1213
g2
(g6
S'?,c\x0ej_\xc4?'
p1214
tp1215
Rp1216
tp1217
a(S'characteristic exponent'
p1218
g2
(g6
S'7Y\x8dt\x8f^\xc4?'
p1219
tp1220
Rp1221
tp1222
a(S'additive function'
p1223
g2
(g6
S'\xcf\xdc!\x13cV\xc4?'
p1224
tp1225
Rp1226
tp1227
a(S'griewank function'
p1228
g2
(g6
S'\xf7\x84ST\x97M\xc4?'
p1229
tp1230
Rp1231
tp1232
a(S'circular points at infinity'
p1233
g2
(g6
S'S\xb2p\xdc?H\xc4?'
p1234
tp1235
Rp1236
tp1237
a(S'hypertranscendental function'
p1238
g2
(g6
S'\xe6\xb6\xdd\x80\xd3<\xc4?'
p1239
tp1240
Rp1241
tp1242
a(S'j. knutson'
p1243
g2
(g6
S'e\x066ci<\xc4?'
p1244
tp1245
Rp1246
tp1247
a(S"de moivre's formula"
p1248
g2
(g6
S'+\xf0X\x11w2\xc4?'
p1249
tp1250
Rp1251
tp1252
a(S'gregory coefficients'
p1253
g2
(g6
S'R\x80\n\xe1\x9e%\xc4?'
p1254
tp1255
Rp1256
tp1257
a(S'geometric standard deviation'
p1258
g2
(g6
S'\xce \xb89\x91$\xc4?'
p1259
tp1260
Rp1261
tp1262
a(S'spigot algorithm'
p1263
g2
(g6
S"r2B\x9b'#\xc4?"
p1264
tp1265
Rp1266
tp1267
a(S'binary function'
p1268
g2
(g6
S"\xfaED'B\x17\xc4?"
p1269
tp1270
Rp1271
tp1272
a(S'double exponential function'
p1273
g2
(g6
S'N\xffz\\\xf5\x10\xc4?'
p1274
tp1275
Rp1276
tp1277
a(S'convolution power'
p1278
g2
(g6
S' \xb4\xa8\x94\x83\n\xc4?'
p1279
tp1280
Rp1281
tp1282
a(S'power of two'
p1283
g2
(g6
S'\x1c\x9e\xeb\xe4\xe5\xf7\xc3?'
p1284
tp1285
Rp1286
tp1287
a(S'modular exponentiation'
p1288
g2
(g6
S'\x0f\x01\x1a\xd5\x80\xf3\xc3?'
p1289
tp1290
Rp1291
tp1292
a(S'step function'
p1293
g2
(g6
S'\x1e\x95\xe3\n\x9d\xef\xc3?'
p1294
tp1295
Rp1296
tp1297
a(S'currying'
p1298
g2
(g6
S'\r\xdaX?O\xed\xc3?'
p1299
tp1300
Rp1301
tp1302
a(S'franz mertens'
p1303
g2
(g6
S'>\x8agA\x80\xea\xc3?'
p1304
tp1305
Rp1306
tp1307
a(S'pietro mengoli'
p1308
g2
(g6
S'-Y5l%\xe7\xc3?'
p1309
tp1310
Rp1311
tp1312
a(S'test functions for optimization'
p1313
g2
(g6
S'o\xa3s\x0c\xcb\xe5\xc3?'
p1314
tp1315
Rp1316
tp1317
a(S'meijer g-function'
p1318
g2
(g6
S'\xed\x91\x9bL\xda\xe2\xc3?'
p1319
tp1320
Rp1321
tp1322
a(S'special functions'
p1323
g2
(g6
S'\xe60\xda.\x85\xe2\xc3?'
p1324
tp1325
Rp1326
tp1327
a(S'moment-generating function'
p1328
g2
(g6
S'sv\x94\xa7\xbd\xe0\xc3?'
p1329
tp1330
Rp1331
tp1332
a(S'dlc'
p1333
g2
(g6
S'F\xbd\xf6!)\xe0\xc3?'
p1334
tp1335
Rp1336
tp1337
a(S'ramp function'
p1338
g2
(g6
S'\xab\xe9l\xa2.\xdd\xc3?'
p1339
tp1340
Rp1341
tp1342
a(S'hyperoperation'
p1343
g2
(g6
S'\xbc\xfc"|X\xd7\xc3?'
p1344
tp1345
Rp1346
tp1347
a(S'isothermal\xe2\x80\x93isobaric ensemble'
p1348
g2
(g6
S'<\xcd\xeac\x1c\xd2\xc3?'
p1349
tp1350
Rp1351
tp1352
a(S'linear function (calculus)'
p1353
g2
(g6
S'\xb53\x01\x83a\xd0\xc3?'
p1354
tp1355
Rp1356
tp1357
a(S'p\xc3\xb3lya class'
p1358
g2
(g6
S'\xd4gb\x08\xb1\xcb\xc3?'
p1359
tp1360
Rp1361
tp1362
a(S'refinable function'
p1363
g2
(g6
S'\x8b\x12\t7\x0c\xc7\xc3?'
p1364
tp1365
Rp1366
tp1367
a(S'atan2'
p1368
g2
(g6
S'\xdd\x8d`\xe9k\xb6\xc3?'
p1369
tp1370
Rp1371
tp1372
a(S'exponential sheaf sequence'
p1373
g2
(g6
S'w\x03\xbe\xff\x95\xb2\xc3?'
p1374
tp1375
Rp1376
tp1377
a(S'john napier'
p1378
g2
(g6
S'\xe3d\xe9=\x7f\xaa\xc3?'
p1379
tp1380
Rp1381
tp1382
a(S'k-function'
p1383
g2
(g6
S't?\x13\xc5\x00\xa9\xc3?'
p1384
tp1385
Rp1386
tp1387
a(S'history of the function concept'
p1388
g2
(g6
S'\x8bz\x1f\x14\x82\xa7\xc3?'
p1389
tp1390
Rp1391
tp1392
a(S'rectangular function'
p1393
g2
(g6
S'\x12\xa2vFe\x96\xc3?'
p1394
tp1395
Rp1396
tp1397
a(S'dirichlet eta function'
p1398
g2
(g6
S'\xba\x8b6?\xa7\x91\xc3?'
p1399
tp1400
Rp1401
tp1402
a(S'floating point'
p1403
g2
(g6
S'9R\xbfF{\x91\xc3?'
p1404
tp1405
Rp1406
tp1407
a(S'condition number'
p1408
g2
(g6
S'\xea\x9co{\x8f\x8b\xc3?'
p1409
tp1410
Rp1411
tp1412
a(S'methods of contour integration'
p1413
g2
(g6
S'\xdby\xdd0\x9a\x80\xc3?'
p1414
tp1415
Rp1416
tp1417
a(S'1550 in scotland'
p1418
g2
(g6
S'\xe9q\x81\x0fL\x80\xc3?'
p1419
tp1420
Rp1421
tp1422
a(S'stand density management diagram'
p1423
g2
(g6
S'=\x02\xc4\xa7\x8bn\xc3?'
p1424
tp1425
Rp1426
tp1427
a(S'quasilinear'
p1428
g2
(g6
S'\x81\x0f\x1b\xb3$g\xc3?'
p1429
tp1430
Rp1431
tp1432
a(S"green's function"
p1433
g2
(g6
S'\xa1)\x00\x0e\xb7_\xc3?'
p1434
tp1435
Rp1436
tp1437
a(S'harmonic series (mathematics)'
p1438
g2
(g6
S',\xac@x\x81^\xc3?'
p1439
tp1440
Rp1441
tp1442
a(S'millioctave'
p1443
g2
(g6
S'\x90\xc7\xb5\x9b\xf2]\xc3?'
p1444
tp1445
Rp1446
tp1447
a(S'implicit function'
p1448
g2
(g6
S'\xb3Lp\x82\xfcG\xc3?'
p1449
tp1450
Rp1451
tp1452
a(S'lagrange inversion theorem'
p1453
g2
(g6
S'\t\xdc\xe7alG\xc3?'
p1454
tp1455
Rp1456
tp1457
a(S'clausen function'
p1458
g2
(g6
S'\xab\xbc-\xe7\xbcB\xc3?'
p1459
tp1460
Rp1461
tp1462
a(S'big o notation'
p1463
g2
(g6
S'L\xdb\x8b\xd7\n6\xc3?'
p1464
tp1465
Rp1466
tp1467
a(S'iterated function'
p1468
g2
(g6
S'\xf3\xe9S\xf8I1\xc3?'
p1469
tp1470
Rp1471
tp1472
a(S'floor and ceiling functions'
p1473
g2
(g6
S'\x85\xd5\x99\x96F,\xc3?'
p1474
tp1475
Rp1476
tp1477
a(S'change of base'
p1478
g2
(g6
S'\x91\x9fqX\xf1+\xc3?'
p1479
tp1480
Rp1481
tp1482
a(S'speed prior'
p1483
g2
(g6
S'\xeb\xe1?%\xfb)\xc3?'
p1484
tp1485
Rp1486
tp1487
a(S'second derivative'
p1488
g2
(g6
S'Y\x1d\xa3\n\xd5\x1e\xc3?'
p1489
tp1490
Rp1491
tp1492
a(S'error function'
p1493
g2
(g6
S'\x83v\x18XE\x18\xc3?'
p1494
tp1495
Rp1496
tp1497
a(S'codomain'
p1498
g2
(g6
S'\x915g\x1f\x7f\x17\xc3?'
p1499
tp1500
Rp1501
tp1502
a(S'trigonometric functions of matrices'
p1503
g2
(g6
S'\t\xb6\x8d&\xfb\x0e\xc3?'
p1504
tp1505
Rp1506
tp1507
a(S'rule of three (statistics)'
p1508
g2
(g6
S'O\xfd\x90\x1ab\x05\xc3?'
p1509
tp1510
Rp1511
tp1512
a.