(lp0
(S'long short-term memory'
p1
cnumpy.core.multiarray
scalar
p2
(cnumpy
dtype
p3
(S'f8'
p4
I0
I1
tp5
Rp6
(I3
S'<'
p7
NNNI-1
I-1
I0
tp8
bS'\x01\x00\x00\x00\x00\x00\xf0?'
p9
tp10
Rp11
tp12
a(S'recurrent neural network'
p13
g2
(g6
S'\xc4D\x15\xb4\xb5\x87\xe2?'
p14
tp15
Rp16
tp17
a(S'types of artificial neural networks'
p18
g2
(g6
S'\x91\xc8\x00\xf7D-\xe0?'
p19
tp20
Rp21
tp22
a(S'gated recurrent unit'
p23
g2
(g6
S'\xfd\xe1\xd1\x8e\x080\xdf?'
p24
tp25
Rp26
tp27
a(S'backpropagation'
p28
g2
(g6
S'|\xf0\xa8\xa6\x84\x82\xde?'
p29
tp30
Rp31
tp32
a(S'artificial neural network'
p33
g2
(g6
S'\xf3N\x0e\xd1\xf6\t\xdd?'
p34
tp35
Rp36
tp37
a(S'deep learning'
p38
g2
(g6
S'\xd9\x10>[|\xa3\xdc?'
p39
tp40
Rp41
tp42
a(S'feedforward neural network'
p43
g2
(g6
S'<\xd50\xc1\xecZ\xdc?'
p44
tp45
Rp46
tp47
a(S'backpropagation through time'
p48
g2
(g6
S'\x13cpS\x08\x96\xdb?'
p49
tp50
Rp51
tp52
a(S'catastrophic interference'
p53
g2
(g6
S'\xda6\x82/\xe0\xe7\xda?'
p54
tp55
Rp56
tp57
a(S'vanishing gradient problem'
p58
g2
(g6
S'\xc1\x97e\xd1\xdd\xc5\xda?'
p59
tp60
Rp61
tp62
a(S'almeida\xe2\x80\x93pineda recurrent backpropagation'
p63
g2
(g6
S'}\xb3_1\x19?\xda?'
p64
tp65
Rp66
tp67
a(S'instantaneously trained neural networks'
p68
g2
(g6
S"Z\xbf\x97'r\x94\xd9?"
p69
tp70
Rp71
tp72
a(S'encog'
p73
g2
(g6
S'\xb6\x03\xb1K\x15I\xd9?'
p74
tp75
Rp76
tp77
a(S'time delay neural network'
p78
g2
(g6
S'\xf8\x8d\xae\xf7 \xa3\xd8?'
p79
tp80
Rp81
tp82
a(S'bidirectional recurrent neural networks'
p83
g2
(g6
S"'w\xf6\xb3\rx\xd8?"
p84
tp85
Rp86
tp87
a(S'adaline'
p88
g2
(g6
S';C\x07\x8b\xe6:\xd8?'
p89
tp90
Rp91
tp92
a(S'recursive neural network'
p93
g2
(g6
S'\x07|\x8f\x01)\xe9\xd7?'
p94
tp95
Rp96
tp97
a(S'perceptron'
p98
g2
(g6
S'?\x97\x083A\xbc\xd7?'
p99
tp100
Rp101
tp102
a(S'neural cryptography'
p103
g2
(g6
S'\xec\xf3#(\xfbW\xd7?'
p104
tp105
Rp106
tp107
a(S'convolutional neural network'
p108
g2
(g6
S']\x1e\x90\xce\x12H\xd7?'
p109
tp110
Rp111
tp112
a(S'neural turing machine'
p113
g2
(g6
S'\xcf\xc9\x98or\xb2\xd6?'
p114
tp115
Rp116
tp117
a(S'connectionism'
p118
g2
(g6
S'\xaa~\x017\xb4\x8d\xd6?'
p119
tp120
Rp121
tp122
a(S'random neural network'
p123
g2
(g6
S'\xd2\xfeX\x1e\x7fS\xd6?'
p124
tp125
Rp126
tp127
a(S'neural gas'
p128
g2
(g6
S'\xab\x9dW\xc7eI\xd6?'
p129
tp130
Rp131
tp132
a(S'hopfield network'
p133
g2
(g6
S'\xe3})\xcd\x94!\xd6?'
p134
tp135
Rp136
tp137
a(S'neurosolutions'
p138
g2
(g6
S'%\xcb\x00\x8a\xe3\xca\xd5?'
p139
tp140
Rp141
tp142
a(S'physical neural network'
p143
g2
(g6
S'\x19\xdc\xd5^\x8e{\xd5?'
p144
tp145
Rp146
tp147
a(S'neural lab'
p148
g2
(g6
S'\xa2\xfa9\xf3\xder\xd5?'
p149
tp150
Rp151
tp152
a(S'neural network software'
p153
g2
(g6
S'O\x07\x94oL\xfb\xd4?'
p154
tp155
Rp156
tp157
a(S'computational neurogenetic modeling'
p158
g2
(g6
S'\xd3\x99\xc8\xf9L\xf6\xd4?'
p159
tp160
Rp161
tp162
a(S'bcpnn'
p163
g2
(g6
S'\xc4g~ib\xe5\xd4?'
p164
tp165
Rp166
tp167
a(S'timeline of machine learning'
p168
g2
(g6
S'\x9d\xa6\xe7\x1c\xaa\xc7\xd4?'
p169
tp170
Rp171
tp172
a(S'joone'
p173
g2
(g6
S'\xe6}\xae79\x84\xd4?'
p174
tp175
Rp176
tp177
a(S'differentiable neural computer'
p178
g2
(g6
S'Ds#t2p\xd4?'
p179
tp180
Rp181
tp182
a(S'neuroph'
p183
g2
(g6
S'\x9d(\xa49*3\xd4?'
p184
tp185
Rp186
tp187
a(S'ronald j. williams'
p188
g2
(g6
S"\xb8t'\xf3\x02\xf0\xd3?"
p189
tp190
Rp191
tp192
a(S'competitive learning'
p193
g2
(g6
S':\xdc\xfe\xadJ\xac\xd3?'
p194
tp195
Rp196
tp197
a(S'modular neural network'
p198
g2
(g6
S'.\xe7\x910)\xac\xd3?'
p199
tp200
Rp201
tp202
a(S'snns'
p203
g2
(g6
S'\xa1R\xff\xd77t\xd3?'
p204
tp205
Rp206
tp207
a(S'confabulation (neural networks)'
p208
g2
(g6
S'\xc1>\x8c\x96\xf4s\xd3?'
p209
tp210
Rp211
tp212
a(S'leabra'
p213
g2
(g6
S'#c\x8c\xac]f\xd3?'
p214
tp215
Rp216
tp217
a(S'radial basis function network'
p218
g2
(g6
S"\n\x81'g\xdb3\xd3?"
p219
tp220
Rp221
tp222
a(S'self-organizing map'
p223
g2
(g6
S'\x8c\xbeF\x98\xa6\x06\xd3?'
p224
tp225
Rp226
tp227
a(S'hyper basis function network'
p228
g2
(g6
S'\xf10\xd9\xdc\xb1\xe0\xd2?'
p229
tp230
Rp231
tp232
a(S'rectifier (neural networks)'
p233
g2
(g6
S'\x9e\xc9\xa9\xacD\xcc\xd2?'
p234
tp235
Rp236
tp237
a(S'multilayer perceptron'
p238
g2
(g6
S'\x9e\x90\xda\xbc\x90\xb8\xd2?'
p239
tp240
Rp241
tp242
a(S'vector (mathematics and physics)'
p243
g2
(g6
S'&\xce\xe2_\xce\xaf\xd2?'
p244
tp245
Rp246
tp247
a(S'madaline'
p248
g2
(g6
S'\x88\xf6\xbd\x9b\xcb\x9e\xd2?'
p249
tp250
Rp251
tp252
a(S'mnist database'
p253
g2
(g6
S'\xfc\xed\xf9\xc8b\x93\xd2?'
p254
tp255
Rp256
tp257
a(S'vector'
p258
g2
(g6
S'\x8f\x85~\x07\xc6\x81\xd2?'
p259
tp260
Rp261
tp262
a(S'probabilistic neural network'
p263
g2
(g6
S'\xacz\xa4c\xb7w\xd2?'
p264
tp265
Rp266
tp267
a(S'paul werbos'
p268
g2
(g6
S'*\x12\x9f\x8e\xa2Y\xd2?'
p269
tp270
Rp271
tp272
a(S'softmax function'
p273
g2
(g6
S'\x8a\xf1\x95\x88\x9fO\xd2?'
p274
tp275
Rp276
tp277
a(S'autoencoder'
p278
g2
(g6
S'5E\xf1~\xbe>\xd2?'
p279
tp280
Rp281
tp282
a(S'winner-take-all (computing)'
p283
g2
(g6
S'\xa1\x06y\x88_0\xd2?'
p284
tp285
Rp286
tp287
a(S'multidimensional system'
p288
g2
(g6
S'[\xfa\xfbk\xc6\x17\xd2?'
p289
tp290
Rp291
tp292
a(S'sepp hochreiter'
p293
g2
(g6
S'}\xdc-Z\xc7\xf0\xd1?'
p294
tp295
Rp296
tp297
a(S'neural network synchronization protocol'
p298
g2
(g6
S'h\x97\xd9WB\xe8\xd1?'
p299
tp300
Rp301
tp302
a(S'delta rule'
p303
g2
(g6
S'\xe45\xab\xbc\xd0\xdb\xd1?'
p304
tp305
Rp306
tp307
a(S'spiking neural network'
p308
g2
(g6
S'\xbbk@\xc3\x15\xcc\xd1?'
p309
tp310
Rp311
tp312
a(S'vector calculus'
p313
g2
(g6
S'\xb70\xcd\xee\xac\x96\xd1?'
p314
tp315
Rp316
tp317
a(S'extension neural network'
p318
g2
(g6
S'\xdc\x15\xf6\nq\x88\xd1?'
p319
tp320
Rp321
tp322
a(S'rnn'
p323
g2
(g6
S'\xf0(\x07\xeb\x00\x83\xd1?'
p324
tp325
Rp326
tp327
a(S'vector field'
p328
g2
(g6
S'\x85\x8b\x0f\xa9h\x82\xd1?'
p329
tp330
Rp331
tp332
a(S'stephen grossberg'
p333
g2
(g6
S'\xba\x1f\r\xa4R|\xd1?'
p334
tp335
Rp336
tp337
a(S'euclidean vector'
p338
g2
(g6
S'\xc7\xb2-\xb5\x17g\xd1?'
p339
tp340
Rp341
tp342
a(S'adaptive resonance theory'
p343
g2
(g6
S'"\xa0\x97\xe1Ae\xd1?'
p344
tp345
Rp346
tp347
a(S'toffoli gate'
p348
g2
(g6
S'\xb4\xc74\xfe\xc0L\xd1?'
p349
tp350
Rp351
tp352
a(S'and gate'
p353
g2
(g6
S'\xb7\x91\x8e\xb4\xd2@\xd1?'
p354
tp355
Rp356
tp357
a(S'generalization error'
p358
g2
(g6
S'4\x9f0\x99\xc0?\xd1?'
p359
tp360
Rp361
tp362
a(S'or gate'
p363
g2
(g6
S'v\xd2\x08\x1e\xbe\x17\xd1?'
p364
tp365
Rp366
tp367
a(S'cerebellar model articulation controller'
p368
g2
(g6
S'\xde\x1e\xbc\x8f\xab\x0b\xd1?'
p369
tp370
Rp371
tp372
a(S'quantum gate'
p373
g2
(g6
S"\x1bZ'b>\x01\xd1?"
p374
tp375
Rp376
tp377
a(S'feature learning'
p378
g2
(g6
S'\x11\t\xbfV\x14\xf7\xd0?'
p379
tp380
Rp381
tp382
a(S'vector potential'
p383
g2
(g6
S'\x18\ng|\x17\xcf\xd0?'
p384
tp385
Rp386
tp387
a(S'xnor gate'
p388
g2
(g6
S'C\x9c\x84\xbc\xae\xaa\xd0?'
p389
tp390
Rp391
tp392
a(S'darkforest'
p393
g2
(g6
S'V\xb3i\x9f\x0b\xa9\xd0?'
p394
tp395
Rp396
tp397
a(S'neurodimension'
p398
g2
(g6
S'x;\r\x9c\xf2\x95\xd0?'
p399
tp400
Rp401
tp402
a(S'gradient'
p403
g2
(g6
S'\xb2\xc9\xfdV\x08v\xd0?'
p404
tp405
Rp406
tp407
a(S'optical neural network'
p408
g2
(g6
S'\xa0D(\x83\xd4l\xd0?'
p409
tp410
Rp411
tp412
a(S'neural networks (journal)'
p413
g2
(g6
S'\x95=\xbc\x04Ci\xd0?'
p414
tp415
Rp416
tp417
a(S'tseytin transformation'
p418
g2
(g6
S'\tT\xc8\xd7ZO\xd0?'
p419
tp420
Rp421
tp422
a(S'four-phase logic'
p423
g2
(g6
S'\t\xb8\xf7\xb2\xd3B\xd0?'
p424
tp425
Rp426
tp427
a(S'nor gate'
p428
g2
(g6
S'Y\x88\xf4\xe5\x03B\xd0?'
p429
tp430
Rp431
tp432
a(S'circuit (computer science)'
p433
g2
(g6
S'\n\xe1\xb0-!\x14\xd0?'
p434
tp435
Rp436
tp437
a(S'input\xe2\x80\x93output model'
p438
g2
(g6
S'\x7fC\xe2\x8d\x05\x03\xd0?'
p439
tp440
Rp441
tp442
a(S'vector space'
p443
g2
(g6
S'\xcboO\xb7\x19\xff\xcf?'
p444
tp445
Rp446
tp447
a(S'sparse matrix-vector multiplication'
p448
g2
(g6
S'5v{\xf7\x95\xfc\xcf?'
p449
tp450
Rp451
tp452
a(S'ensemble averaging (machine learning)'
p453
g2
(g6
S',\xf9@\x17!\xf8\xcf?'
p454
tp455
Rp456
tp457
a(S'artificial neuron'
p458
g2
(g6
S'4SQd\xc2\xec\xcf?'
p459
tp460
Rp461
tp462
a(S'neural machine translation'
p463
g2
(g6
S'\xdc\x155>k\xcb\xcf?'
p464
tp465
Rp466
tp467
a(S'1-2-ax working memory task'
p468
g2
(g6
S'\\\xa2\x8b0\xc4\xc8\xcf?'
p469
tp470
Rp471
tp472
a(S'neocognitron'
p473
g2
(g6
S'\x1a\xf0\xcc</\x91\xcf?'
p474
tp475
Rp476
tp477
a(S'echo state network'
p478
g2
(g6
S'\x13\xb6\xa6\xe50\x8c\xcf?'
p479
tp480
Rp481
tp482
a(S'neural engineering'
p483
g2
(g6
S'\x14v\xcf1\xf8r\xcf?'
p484
tp485
Rp486
tp487
a(S'vector operator'
p488
g2
(g6
S'A\xa1\xd4\x17\xbdU\xcf?'
p489
tp490
Rp491
tp492
a(S'statistical learning theory'
p493
g2
(g6
S'\xc1\xe4\xf9M\xfeD\xcf?'
p494
tp495
Rp496
tp497
a(S'pattern recognition'
p498
g2
(g6
S'\xc9d%\xd1\xbb>\xcf?'
p499
tp500
Rp501
tp502
a(S'electric gates'
p503
g2
(g6
S'\x94(a\xc0\xeb<\xcf?'
p504
tp505
Rp506
tp507
a(S'snn'
p508
g2
(g6
S'\xda\x14\xc2\xbc\xf8/\xcf?'
p509
tp510
Rp511
tp512
a(S'neural crest'
p513
g2
(g6
S'-/\x94w\xf2/\xcf?'
p514
tp515
Rp516
tp517
a(S'kak neural network'
p518
g2
(g6
S'\xd6\x1e\xde[\xd7%\xcf?'
p519
tp520
Rp521
tp522
a(S'buddy memory allocation'
p523
g2
(g6
S'\xe7\xc1=`\xd7\x00\xcf?'
p524
tp525
Rp526
tp527
a(S'quantum neural network'
p528
g2
(g6
S'\x87\xdf \xfdB\xf1\xce?'
p529
tp530
Rp531
tp532
a(S'neural plate'
p533
g2
(g6
S'\x15\xd9\xfeh\xdc\xde\xce?'
p534
tp535
Rp536
tp537
a(S'neurorobotics'
p538
g2
(g6
S'4\xea.\xd9\xd3\xd4\xce?'
p539
tp540
Rp541
tp542
a(S'speech recognition'
p543
g2
(g6
S'\x91\xe5\xeai<\xd1\xce?'
p544
tp545
Rp546
tp547
a(S'del'
p548
g2
(g6
S']\x7f$\xe5\xff\xcd\xce?'
p549
tp550
Rp551
tp552
a(S'storage (memory)'
p553
g2
(g6
S'\xe5C\x16N\xdf\xc3\xce?'
p554
tp555
Rp556
tp557
a(S'gates of delhi'
p558
g2
(g6
S'\xdbe\xf5k-\xc1\xce?'
p559
tp560
Rp561
tp562
a(S'probability vector'
p563
g2
(g6
S'\xf3\x93\x19n3\xac\xce?'
p564
tp565
Rp566
tp567
a(S'gate operator'
p568
g2
(g6
S'\xbf$Z\xd1\xf7\xaa\xce?'
p569
tp570
Rp571
tp572
a(S'nor logic'
p573
g2
(g6
S'\n0G\xc8}\xa0\xce?'
p574
tp575
Rp576
tp577
a(S'restricted boltzmann machine'
p578
g2
(g6
S's\\\x11P\xcd\x92\xce?'
p579
tp580
Rp581
tp582
a(S'test vector'
p583
g2
(g6
S'\xce5\x0e\x17\xdf\x81\xce?'
p584
tp585
Rp586
tp587
a(S'neural clique'
p588
g2
(g6
S'\xe1\xb8$\xaa@q\xce?'
p589
tp590
Rp591
tp592
a(S'vector-valued function'
p593
g2
(g6
S'\x19\xf3c\x07~i\xce?'
p594
tp595
Rp596
tp597
a(S'vector space model'
p598
g2
(g6
S'\xe5.R<|B\xce?'
p599
tp600
Rp601
tp602
a(S'intelligent flight control system'
p603
g2
(g6
S'Cp\xd6\xa1m9\xce?'
p604
tp605
Rp606
tp607
a(S'classification system for serial criminal patterns'
p608
g2
(g6
S'=\x18\xb4\xb4\xdd\x1e\xce?'
p609
tp610
Rp611
tp612
a(S'list of machine learning concepts'
p613
g2
(g6
S'\xd7\xbeNo\xc5\n\xce?'
p614
tp615
Rp616
tp617
a(S'activation function'
p618
g2
(g6
S'\\m\xc1\xad\xd8\x03\xce?'
p619
tp620
Rp621
tp622
a(S'james a. anderson'
p623
g2
(g6
S'\x81zxXz\xf7\xcd?'
p624
tp625
Rp626
tp627
a(S'european neural network society'
p628
g2
(g6
S'N\xb5\x14C\xbc\xe1\xcd?'
p629
tp630
Rp631
tp632
a(S'supervised learning'
p633
g2
(g6
S'H\x8ef\x19\xce\xdc\xcd?'
p634
tp635
Rp636
tp637
a(S'neurulation'
p638
g2
(g6
S'\xd0`\xe0\xd2m\xd4\xcd?'
p639
tp640
Rp641
tp642
a(S'conservative vector field'
p643
g2
(g6
S'\x0c\x1d:W\xe2\xa4\xcd?'
p644
tp645
Rp646
tp647
a(S'j\xc3\xbcrgen schmidhuber'
p648
g2
(g6
S"fj'\xee\x9d\xa2\xcd?"
p649
tp650
Rp651
tp652
a(S'vector motors'
p653
g2
(g6
S'\xfb6R\\z\xa0\xcd?'
p654
tp655
Rp656
tp657
a(S'biological neural network'
p658
g2
(g6
S'\x978\xa6\xeb\xe8\x97\xcd?'
p659
tp660
Rp661
tp662
a(S'handwriting recognition'
p663
g2
(g6
S'Y\xe1\xb0P\xfb\x87\xcd?'
p664
tp665
Rp666
tp667
a(S'support vector machine'
p668
g2
(g6
S'J\xb3\xd1t\x07\x84\xcd?'
p669
tp670
Rp671
tp672
a(S'learning rule'
p673
g2
(g6
S'\x0f1\xf6j\x05\x81\xcd?'
p674
tp675
Rp676
tp677
a(S'vector informatik'
p678
g2
(g6
S"'\xdd\xac\xf3\x8cu\xcd?"
p679
tp680
Rp681
tp682
a(S'intelligent control'
p683
g2
(g6
S'\nu\xe4\x84\xd8q\xcd?'
p684
tp685
Rp686
tp687
a(S'gates of the temple mount'
p688
g2
(g6
S'\x061\x8a|\xcbm\xcd?'
p689
tp690
Rp691
tp692
a(S'neural fold'
p693
g2
(g6
S')\xa7\xcd\xe5\x1ci\xcd?'
p694
tp695
Rp696
tp697
a(S'neural tube'
p698
g2
(g6
S'LH\xe3\xf6I]\xcd?'
p699
tp700
Rp701
tp702
a(S'stochastic neural network'
p703
g2
(g6
S'>\x19\x902\xf4R\xcd?'
p704
tp705
Rp706
tp707
a(S'vector architect'
p708
g2
(g6
S'\xdb`\xfa\xc7\xde-\xcd?'
p709
tp710
Rp711
tp712
a(S'vector processor'
p713
g2
(g6
S'\xe4\x1d\x04C\x0b\x17\xcd?'
p714
tp715
Rp716
tp717
a(S'nonlinear system identification'
p718
g2
(g6
S'\x1b\xe1\xe5:v\t\xcd?'
p719
tp720
Rp721
tp722
a(S'evolutionary acquisition of neural topologies'
p723
g2
(g6
S'\xee#*\x97n\t\xcd?'
p724
tp725
Rp726
tp727
a(S'marketing and artificial intelligence'
p728
g2
(g6
S'#C\x8cV\xf3\xeb\xcc?'
p729
tp730
Rp731
tp732
a(S'holographic associative memory'
p733
g2
(g6
S',\xe8\xd9:\x1d\xeb\xcc?'
p734
tp735
Rp736
tp737
a(S'gates of belgrade'
p738
g2
(g6
S'\xf5\xef\xf7\xbc\xc1\xb3\xcc?'
p739
tp740
Rp741
tp742
a(S'the eight gates of seoul'
p743
g2
(g6
S'z\xe8\xcd2\xd0\xad\xcc?'
p744
tp745
Rp746
tp747
a(S'function block diagram'
p748
g2
(g6
S'\xec\xbf\x1e\x81\xe3\xa9\xcc?'
p749
tp750
Rp751
tp752
a(S'logic learning machine'
p753
g2
(g6
S'\xbf\xb3\x93\xf5-\xa4\xcc?'
p754
tp755
Rp756
tp757
a(S'vexel'
p758
g2
(g6
S'\x9e\xa9\xd6\x81$\xa0\xcc?'
p759
tp760
Rp761
tp762
a(S'keras'
p763
g2
(g6
S'\x1a\xd9\x07X\x0cv\xcc?'
p764
tp765
Rp766
tp767
a(S'state vector (geographical)'
p768
g2
(g6
S'\xf1\xb5\xbc\r\xfak\xcc?'
p769
tp770
Rp771
tp772
a(S'pseudovector'
p773
g2
(g6
S'\x83\xff1\xf0\xec`\xcc?'
p774
tp775
Rp776
tp777
a(S'universal approximation theorem'
p778
g2
(g6
S'\xf7a\\\x7fn[\xcc?'
p779
tp780
Rp781
tp782
a(S'examples of vector spaces'
p783
g2
(g6
S'\x0b\xca\xd3\x02*[\xcc?'
p784
tp785
Rp786
tp787
a(S'liquid state machine'
p788
g2
(g6
S'\xb6\x98\x9fx\x8cR\xcc?'
p789
tp790
Rp791
tp792
a(S'vector (magazine)'
p793
g2
(g6
S'2\x01\xa2\x95eE\xcc?'
p794
tp795
Rp796
tp797
a(S'holstentor'
p798
g2
(g6
S'e7\t\xa8GA\xcc?'
p799
tp800
Rp801
tp802
a(S'parker vector'
p803
g2
(g6
S"cm0'\x008\xcc?"
p804
tp805
Rp806
tp807
a(S'split up (expert system)'
p808
g2
(g6
S'\xe2}|\xd2\n6\xcc?'
p809
tp810
Rp811
tp812
a(S'in situ adaptive tabulation'
p813
g2
(g6
S'\xcb* M\xfe.\xcc?'
p814
tp815
Rp816
tp817
a(S'vector-06c'
p818
g2
(g6
S'\x93\xbb\xdc<(\x1e\xcc?'
p819
tp820
Rp821
tp822
a(S'n-vector'
p823
g2
(g6
S'\xa9\xfc\x84\x92\xbf\x11\xcc?'
p824
tp825
Rp826
tp827
a(S'list of dublin gates'
p828
g2
(g6
S'\xf0V\x91"\xcd\r\xcc?'
p829
tp830
Rp831
tp832
a(S'vector graphics'
p833
g2
(g6
S'\xbb\xccY\xf0\x9c\x06\xcc?'
p834
tp835
Rp836
tp837
a(S'position (vector)'
p838
g2
(g6
S'So\xf1M\x87\x05\xcc?'
p839
tp840
Rp841
tp842
a(S'vector (company)'
p843
g2
(g6
S'^\xec`\xcc\x12\x03\xcc?'
p844
tp845
Rp846
tp847
a(S'neural groove'
p848
g2
(g6
S',\xc5l\xc4\x90\x02\xcc?'
p849
tp850
Rp851
tp852
a(S'gate'
p853
g2
(g6
S'\xa86\xbd\x1b\xb9\xfd\xcb?'
p854
tp855
Rp856
tp857
a(S'solenoidal vector field'
p858
g2
(g6
S'\x0c\xce"\xae\xa7\xe9\xcb?'
p859
tp860
Rp861
tp862
a(S'vector marketing'
p863
g2
(g6
S',\x0c\xe4\x80\xa7\xe7\xcb?'
p864
tp865
Rp866
tp867
a(S'learning vector quantization'
p868
g2
(g6
S'\xb6\xb1r\x0b\xa5\xd9\xcb?'
p869
tp870
Rp871
tp872
a(S'cognitive architecture'
p873
g2
(g6
S'V]uO\xe0\xd0\xcb?'
p874
tp875
Rp876
tp877
a(S'vector control'
p878
g2
(g6
S'\x07\x9b\xb2\xe5\x80\xd0\xcb?'
p879
tp880
Rp881
tp882
a(S'poynting vector'
p883
g2
(g6
S'\xdfET\x83\xa4\xc3\xcb?'
p884
tp885
Rp886
tp887
a(S'controlled not gate'
p888
g2
(g6
S'(\x0b\x82\xfb\xc9\xbf\xcb?'
p889
tp890
Rp891
tp892
a(S'sparse distributed memory'
p893
g2
(g6
S'\x17\x0b\xc4\xaey\xbf\xcb?'
p894
tp895
Rp896
tp897
a(S'gates'
p898
g2
(g6
S'\xfa0\xe9\x87/\xb0\xcb?'
p899
tp900
Rp901
tp902
a(S'christoph von der malsburg'
p903
g2
(g6
S'X]\xe8\xe5\x1c\xa7\xcb?'
p904
tp905
Rp906
tp907
a(S'deepdreaming'
p908
g2
(g6
S"'\xfd\xce[\x85\x98\xcb?"
p909
tp910
Rp911
tp912
a(S'esn'
p913
g2
(g6
S'\xaf5M\xca\x8a\x92\xcb?'
p914
tp915
Rp916
tp917
a(S'extreme learning machine'
p918
g2
(g6
S'\xbb\xb6\xd6\x83{\x86\xcb?'
p919
tp920
Rp921
tp922
a(S'semipredicate problem'
p923
g2
(g6
S'\xa0^\x94q\xe5\x80\xcb?'
p924
tp925
Rp926
tp927
a(S'canonical normal form'
p928
g2
(g6
S'R_\x12\x97hw\xcb?'
p929
tp930
Rp931
tp932
a(S'comparison of vector algebra and geometric algebra'
p933
g2
(g6
S'\x13#\xff\xf8xr\xcb?'
p934
tp935
Rp936
tp937
a(S'memory'
p938
g2
(g6
S'T\x13%qBn\xcb?'
p939
tp940
Rp941
tp942
a(S'error function'
p943
g2
(g6
S')\xf62\xf4rd\xcb?'
p944
tp945
Rp946
tp947
a(S'gate (disambiguation)'
p948
g2
(g6
S'\x8b/\xde\t:U\xcb?'
p949
tp950
Rp951
tp952
a(S'sequence container (c++)'
p953
g2
(g6
S'\x8a\xdfvf\xbeG\xcb?'
p954
tp955
Rp956
tp957
a(S'unit vector'
p958
g2
(g6
S'#\r2\x16x2\xcb?'
p959
tp960
Rp961
tp962
a(S'vector notation'
p963
g2
(g6
S'`J\xa7\xe5b(\xcb?'
p964
tp965
Rp966
tp967
a(S'neural engineering object'
p968
g2
(g6
S"lD\x07\xbe\x18'\xcb?"
p969
tp970
Rp971
tp972
a(S'gate house and gate, monken hadley'
p973
g2
(g6
S'\xfaPFr;"\xcb?'
p974
tp975
Rp976
tp977
a(S'network dynamics'
p978
g2
(g6
S'\xb0N\xce:n\n\xcb?'
p979
tp980
Rp981
tp982
a(S'interactive activation and competition networks'
p983
g2
(g6
S'\xef\xe2D?\xac\x03\xcb?'
p984
tp985
Rp986
tp987
a(S'bill gates'
p988
g2
(g6
S']\x15V\x06\x9f\x02\xcb?'
p989
tp990
Rp991
tp992
a(S'complex lamellar vector field'
p993
g2
(g6
S"\x1b'G?\x06\x01\xcb?"
p994
tp995
Rp996
tp997
a(S'vector area'
p998
g2
(g6
S';\xf9V\x89r\x00\xcb?'
p999
tp1000
Rp1001
tp1002
a(S'indicator vector'
p1003
g2
(g6
S'\x06\xb1\x7f\x0c1\xfb\xca?'
p1004
tp1005
Rp1006
tp1007
a(S'van wickle gates'
p1008
g2
(g6
S'%"\x12)\x0f\xf9\xca?'
p1009
tp1010
Rp1011
tp1012
a(S'gates (surname)'
p1013
g2
(g6
S'\x9cfj*\x05\xf4\xca?'
p1014
tp1015
Rp1016
tp1017
a(S'neural designer'
p1018
g2
(g6
S'\x90\xcc\xd4l\x0e\xef\xca?'
p1019
tp1020
Rp1021
tp1022
a(S'versor (physics)'
p1023
g2
(g6
S'o\xbd\xb2\x8f\x06\xef\xca?'
p1024
tp1025
Rp1026
tp1027
a(S'fusion adaptive resonance theory'
p1028
g2
(g6
S'\xbaB-\xf7b\xed\xca?'
p1029
tp1030
Rp1031
tp1032
a(S'list of network theory topics'
p1033
g2
(g6
S'|X/\xac\xd8\xec\xca?'
p1034
tp1035
Rp1036
tp1037
a(S'standard streams'
p1038
g2
(g6
S'\x07\xc3\xb2\xa5\x91\xe5\xca?'
p1039
tp1040
Rp1041
tp1042
a(S'shanmen'
p1043
g2
(g6
S'\xef\xba3)\xe7\xe3\xca?'
p1044
tp1045
Rp1046
tp1047
a(S'alternative explanations of the "grandmother" cell'
p1048
g2
(g6
S'\x8ab\x81\xf8\x90\xd6\xca?'
p1049
tp1050
Rp1051
tp1052
a(S'h-vector'
p1053
g2
(g6
S'\x8f6-\xadc\xd4\xca?'
p1054
tp1055
Rp1056
tp1057
a(S'vector laplacian'
p1058
g2
(g6
S'\x96e\xcf\xb43\xc5\xca?'
p1059
tp1060
Rp1061
tp1062
a(S'power estimation techniques for rtl'
p1063
g2
(g6
S'\xdd\xebt\xfd\xdc\xbd\xca?'
p1064
tp1065
Rp1066
tp1067
a(S'opennn'
p1068
g2
(g6
S'\x013&\xd1t\xaf\xca?'
p1069
tp1070
Rp1071
tp1072
a(S'neuroevolution'
p1073
g2
(g6
S'\x91\xf5M<L\xa7\xca?'
p1074
tp1075
Rp1076
tp1077
a(S'grossberg network'
p1078
g2
(g6
S'V}w\x8f\x8f\x9b\xca?'
p1079
tp1080
Rp1081
tp1082
a(S'gerald wiegert'
p1083
g2
(g6
S'D\xc2\xf8p\xad\x96\xca?'
p1084
tp1085
Rp1086
tp1087
a(S'neuroectoderm'
p1088
g2
(g6
S'\x82\x7f\x8eK\x88\x88\xca?'
p1089
tp1090
Rp1091
tp1092
a(S'vector clock'
p1093
g2
(g6
S'P:y\xe0\xd9\x85\xca?'
p1094
tp1095
Rp1096
tp1097
a(S'\xc5\xa0ar\xc5\xabnas raudys'
p1098
g2
(g6
S'Y\x1d\xd91\xfd{\xca?'
p1099
tp1100
Rp1101
tp1102
a(S'symmetric boolean function'
p1103
g2
(g6
S'\x1dL\x84\xce\xeel\xca?'
p1104
tp1105
Rp1106
tp1107
a(S'fredkin gate'
p1108
g2
(g6
S'y\x06&\xb1\x99_\xca?'
p1109
tp1110
Rp1111
tp1112
a(S'laplace\xe2\x80\x93runge\xe2\x80\x93lenz vector'
p1113
g2
(g6
S'\xd2(\xc6\x0b\xd6E\xca?'
p1114
tp1115
Rp1116
tp1117
a(S'fundamental vector field'
p1118
g2
(g6
S'X7\xd8\xa2\x1aC\xca?'
p1119
tp1120
Rp1121
tp1122
a(S'associative memory'
p1123
g2
(g6
S'\x9a\xd7\xf1\x1d\xbdB\xca?'
p1124
tp1125
Rp1126
tp1127
a(S'neuromorphic engineering'
p1128
g2
(g6
S' a\xbb\x81\xce<\xca?'
p1129
tp1130
Rp1131
tp1132
a(S'neural substrate'
p1133
g2
(g6
S'-\xcb\xa5Y\n:\xca?'
p1134
tp1135
Rp1136
tp1137
a(S'non-linear least squares'
p1138
g2
(g6
S'\xab4y\x0cw4\xca?'
p1139
tp1140
Rp1141
tp1142
a(S'cellular neural network'
p1143
g2
(g6
S'\xdc1\x00\x91$*\xca?'
p1144
tp1145
Rp1146
tp1147
a(S'hitac s-810'
p1148
g2
(g6
S"\xb9\xd9\x81\xb9\x18'\xca?"
p1149
tp1150
Rp1151
tp1152
a(S'methods used to study memory'
p1153
g2
(g6
S'J+2EL&\xca?'
p1154
tp1155
Rp1156
tp1157
a(S'homothetic vector field'
p1158
g2
(g6
S'\x81\xbe)\xda\\ \xca?'
p1159
tp1160
Rp1161
tp1162
a(S'hybrid neural network'
p1163
g2
(g6
S'\xca\x17\x90\x01\x95\x1c\xca?'
p1164
tp1165
Rp1166
tp1167
a(S'four-vector'
p1168
g2
(g6
S'\x8d\x8f}@g\x05\xca?'
p1169
tp1170
Rp1171
tp1172
a(S'counterpropagation network'
p1173
g2
(g6
S'fP\xdbLp\xfd\xc9?'
p1174
tp1175
Rp1176
tp1177
a(S'feedforward'
p1178
g2
(g6
S'\x0b>8ul\xfd\xc9?'
p1179
tp1180
Rp1181
tp1182
a(S'city gate'
p1183
g2
(g6
S'xC\xad$\x9a\xfc\xc9?'
p1184
tp1185
Rp1186
tp1187
a(S'golden gate, kiev'
p1188
g2
(g6
S'\x83\x038Y[\xfb\xc9?'
p1189
tp1190
Rp1191
tp1192
a(S'row and column vectors'
p1193
g2
(g6
S'\x04xrd\x93\xec\xc9?'
p1194
tp1195
Rp1196
tp1197
a(S'pulse-coupled networks'
p1198
g2
(g6
S'$\x18\x84\xf3\x9a\xeb\xc9?'
p1199
tp1200
Rp1201
tp1202
a(S'quickprop'
p1203
g2
(g6
S'\xf6\xa4eB[\xe5\xc9?'
p1204
tp1205
Rp1206
tp1207
a(S'tensor product network'
p1208
g2
(g6
S'p\xbe\xbb\xe9(\xe4\xc9?'
p1209
tp1210
Rp1211
tp1212
a(S'regulatory feedback network'
p1213
g2
(g6
S'A\xde%,|\xe0\xc9?'
p1214
tp1215
Rp1216
tp1217
a(S'ordered vector space'
p1218
g2
(g6
S'\xde\xc2\x1b\x9e\xc1\xd1\xc9?'
p1219
tp1220
Rp1221
tp1222
a(S"artur d'avila garcez"
p1223
g2
(g6
S'\xe4\xf9\xe9\x15\xdf\xc6\xc9?'
p1224
tp1225
Rp1226
tp1227
a(S"beckstrom's law"
p1228
g2
(g6
S'8>\x88\x17\xfc\xad\xc9?'
p1229
tp1230
Rp1231
tp1232
a(S'tapsel gate'
p1233
g2
(g6
S'i\x98\xca\xde&\xad\xc9?'
p1234
tp1235
Rp1236
tp1237
a(S'vector bundle'
p1238
g2
(g6
S'\xc7\r\\\xed\xa3\xa7\xc9?'
p1239
tp1240
Rp1241
tp1242
a(S'multivariate random variable'
p1243
g2
(g6
S'\xb8a\xde\x9f\x02\xa0\xc9?'
p1244
tp1245
Rp1246
tp1247
a(S'controllability'
p1248
g2
(g6
S'h\x05\xc3\xfc\xeb\x9c\xc9?'
p1249
tp1250
Rp1251
tp1252
a(S'tangent vector'
p1253
g2
(g6
S'\xe1\xdcc\x95\x90\x99\xc9?'
p1254
tp1255
Rp1256
tp1257
a(S'population vector'
p1258
g2
(g6
S'&\xa7\x83*H\x99\xc9?'
p1259
tp1260
Rp1261
tp1262
a(S'working memory'
p1263
g2
(g6
S'\xbf\xed\xee\x1c\xb6\x96\xc9?'
p1264
tp1265
Rp1266
tp1267
a(S'secondary vector bundle structure'
p1268
g2
(g6
S'(\x86J\xd8"\x94\xc9?'
p1269
tp1270
Rp1271
tp1272
a(S'paratransgenesis'
p1273
g2
(g6
S'\xf4\xaad6<\x93\xc9?'
p1274
tp1275
Rp1276
tp1277
a(S'feature scaling'
p1278
g2
(g6
S'\xe9\xb5\x9c\xb1a\x92\xc9?'
p1279
tp1280
Rp1281
tp1282
a(S'nervous system network models'
p1283
g2
(g6
S'X\xb1V\xf6\xc4\x8f\xc9?'
p1284
tp1285
Rp1286
tp1287
a(S'autoassociative memory'
p1288
g2
(g6
S'Z\xe2\x13\xa7\x18\x87\xc9?'
p1289
tp1290
Rp1291
tp1292
a(S'time dependent vector field'
p1293
g2
(g6
S'\x06\xd0-\x13\xf5\x81\xc9?'
p1294
tp1295
Rp1296
tp1297
a(S'teuvo kohonen'
p1298
g2
(g6
S'j\xf3\xd1s\xa6\x81\xc9?'
p1299
tp1300
Rp1301
tp1302
a(S'vector graphic'
p1303
g2
(g6
S'\x0f\xeb\x19#r\x81\xc9?'
p1304
tp1305
Rp1306
tp1307
a(S'deeplearning4j'
p1308
g2
(g6
S'_\x06<\x97\x11\x7f\xc9?'
p1309
tp1310
Rp1311
tp1312
a(S'tangential and normal components'
p1313
g2
(g6
S'\x1ff\x04\x07\x18{\xc9?'
p1314
tp1315
Rp1316
tp1317
a(S'decoded neurofeedback'
p1318
g2
(g6
S'\xae5\xa2\xf0\xe6y\xc9?'
p1319
tp1320
Rp1321
tp1322
a(S'gradient-like vector field'
p1323
g2
(g6
S'\xda\xb2~g\x92u\xc9?'
p1324
tp1325
Rp1326
tp1327
a(S'ai accelerator'
p1328
g2
(g6
S'\xb1\xcc\x1bm\xe4s\xc9?'
p1329
tp1330
Rp1331
tp1332
a(S'hava siegelmann'
p1333
g2
(g6
S'\xdf3\xa1\xb1Zb\xc9?'
p1334
tp1335
Rp1336
tp1337
a(S'boake gates'
p1338
g2
(g6
S'4M\x8e\x92\xafX\xc9?'
p1339
tp1340
Rp1341
tp1342
a(S'new gate'
p1343
g2
(g6
S'\xffM)\xff)V\xc9?'
p1344
tp1345
Rp1346
tp1347
a(S'parameter (computer programming)'
p1348
g2
(g6
S'\xaaC\r\x15\xfcO\xc9?'
p1349
tp1350
Rp1351
tp1352
a(S'mapreduce'
p1353
g2
(g6
S'\x1e\xc2\x90\x02BM\xc9?'
p1354
tp1355
Rp1356
tp1357
a(S'conformal vector field'
p1358
g2
(g6
S'`0\xf2.WK\xc9?'
p1359
tp1360
Rp1361
tp1362
a(S'city gate (valletta)'
p1363
g2
(g6
S'e\xcfm\x1c\x07G\xc9?'
p1364
tp1365
Rp1366
tp1367
a(S'approximation error'
p1368
g2
(g6
S'\xccYs\xa4\xebC\xc9?'
p1369
tp1370
Rp1371
tp1372
a(S'neurula'
p1373
g2
(g6
S'\xec9\x84\x01HB\xc9?'
p1374
tp1375
Rp1376
tp1377
a(S'geoffrey hinton'
p1378
g2
(g6
S'\x9d0\r]\xd93\xc9?'
p1379
tp1380
Rp1381
tp1382
a(S"duncan's taxonomy"
p1383
g2
(g6
S'\x0c~S\xb030\xc9?'
p1384
tp1385
Rp1386
tp1387
a(S'cal actor language'
p1388
g2
(g6
S'\xe8b\r\xbd\xc4)\xc9?'
p1389
tp1390
Rp1391
tp1392
a(S'hierarchical temporal memory'
p1393
g2
(g6
S'\xa7\x04\x01\x1e\x89 \xc9?'
p1394
tp1395
Rp1396
tp1397
a(S'extended finite-state machine'
p1398
g2
(g6
S'I\\\xc3\xfb\x7f \xc9?'
p1399
tp1400
Rp1401
tp1402
a(S'coordinate vector'
p1403
g2
(g6
S'\xa3\x14\x19\xef\x80\x19\xc9?'
p1404
tp1405
Rp1406
tp1407
a(S'dnn'
p1408
g2
(g6
S'gbC\xd4/\x0f\xc9?'
p1409
tp1410
Rp1411
tp1412
a(S'automatic vectorization'
p1413
g2
(g6
S'\xa5X\x92\x07\xd6\x0e\xc9?'
p1414
tp1415
Rp1416
tp1417
a(S'huldah gates'
p1418
g2
(g6
S'>(\xb7V\xc5\x0c\xc9?'
p1419
tp1420
Rp1421
tp1422
a(S'value network'
p1423
g2
(g6
S'^\xee\xc0\x10\xa8\x0c\xc9?'
p1424
tp1425
Rp1426
tp1427
a(S'stochastic gradient descent'
p1428
g2
(g6
S'\xd5\xab\xf2wZ\x04\xc9?'
p1429
tp1430
Rp1431
tp1432
a(S'adaboost'
p1433
g2
(g6
S'\xcd\x1d1\x1a\xa9\x03\xc9?'
p1434
tp1435
Rp1436
tp1437
a(S'gates of ahmedabad'
p1438
g2
(g6
S'E\xacjF\xf4\x02\xc9?'
p1439
tp1440
Rp1441
tp1442
a(S'multiplexer'
p1443
g2
(g6
S'V\x8c\x9c^\xd4\xff\xc8?'
p1444
tp1445
Rp1446
tp1447
a(S'altivec'
p1448
g2
(g6
S'\x9b]\x0f~\x9f\xf2\xc8?'
p1449
tp1450
Rp1451
tp1452
a(S'primordial element (algebra)'
p1453
g2
(g6
S'\x19\xf3\xe8\x07\n\xf1\xc8?'
p1454
tp1455
Rp1456
tp1457
a(S'genetic memory'
p1458
g2
(g6
S'\x95P\x05\x86\xd0\xe8\xc8?'
p1459
tp1460
Rp1461
tp1462
a(S'sponge function'
p1463
g2
(g6
S'\xa5\x1df)\x95\xe8\xc8?'
p1464
tp1465
Rp1466
tp1467
a(S'kernel methods for vector output'
p1468
g2
(g6
S'o\nj%\x15\xe5\xc8?'
p1469
tp1470
Rp1471
tp1472
a(S'biological network'
p1473
g2
(g6
S'H[/5M\xe1\xc8?'
p1474
tp1475
Rp1476
tp1477
a(S'helmholtz decomposition'
p1478
g2
(g6
S'"\xcc\xbd\n6\xd9\xc8?'
p1479
tp1480
Rp1481
tp1482
a(S'michael a. arbib'
p1483
g2
(g6
S'\xd2\xe4^j\xfd\xd7\xc8?'
p1484
tp1485
Rp1486
tp1487
a(S'vector algebra'
p1488
g2
(g6
S'\xed \xc9\xd1\xdc\xd3\xc8?'
p1489
tp1490
Rp1491
tp1492
a(S'sackheim gate'
p1493
g2
(g6
S'@\xfe\xed;\r\xd3\xc8?'
p1494
tp1495
Rp1496
tp1497
a(S'victoria gate (valletta)'
p1498
g2
(g6
S'\xac\xd2\xb0\xa3@\xcd\xc8?'
p1499
tp1500
Rp1501
tp1502
a(S'value (computer science)'
p1503
g2
(g6
S'D\xcc\xc1\xc0\x84\xca\xc8?'
p1504
tp1505
Rp1506
tp1507
a(S'covariance and contravariance of vectors'
p1508
g2
(g6
S'q\xa7?\xb5w\xc9\xc8?'
p1509
tp1510
Rp1511
tp1512
a.