(lp0
(S'maarten de rijke'
p1
cnumpy.core.multiarray
scalar
p2
(cnumpy
dtype
p3
(S'f8'
p4
I0
I1
tp5
Rp6
(I3
S'<'
p7
NNNI-1
I-1
I0
tp8
bS'\x01\x00\x00\x00\x00\x00\xf0?'
p9
tp10
Rp11
tp12
a(S'maarten'
p13
g2
(g6
S'6\x91\x90Zu\x86\xdf?'
p14
tp15
Rp16
tp17
a(S'maarten rudelsheim'
p18
g2
(g6
S'/1\x97h\x17\xe7\xd8?'
p19
tp20
Rp21
tp22
a(S'sint maarten general election, 2016'
p23
g2
(g6
S'x\x8e\x08&\x1d&\xd8?'
p24
tp25
Rp26
tp27
a(S'sint maarten'
p28
g2
(g6
S'\xc6f\xcas\xaf\xa7\xd7?'
p29
tp30
Rp31
tp32
a(S'maarten maartens'
p33
g2
(g6
S'\xfd\xca B!}\xd7?'
p34
tp35
Rp36
tp37
a(S'william marlin'
p38
g2
(g6
S'\xd7\xec\xb0\x18\xe7*\xd6?'
p39
tp40
Rp41
tp42
a(S'prime minister of sint maarten'
p43
g2
(g6
S'U\xdc3\xde\xad!\xd6?'
p44
tp45
Rp46
tp47
a(S'hendrik maarten krabb\xc3\xa9'
p48
g2
(g6
S'\x00x\x8e\xad\x86\x13\xd6?'
p49
tp50
Rp51
tp52
a(S'sint maarten general election, 2014'
p53
g2
(g6
S'\xd2\xb3\xdc\xd8\n\xdb\xd5?'
p54
tp55
Rp56
tp57
a(S'djai essed'
p58
g2
(g6
S'\x1fbP\x08\xd0k\xd5?'
p59
tp60
Rp61
tp62
a(S'andre knol'
p63
g2
(g6
S'v\xb5N\xceIP\xd5?'
p64
tp65
Rp66
tp67
a(S'list of political parties in sint maarten'
p68
g2
(g6
S'\x08\xf8\n\x1co,\xd5?'
p69
tp70
Rp71
tp72
a(S'amsterdam'
p73
g2
(g6
S'\x84@\x9c\x9e:\x8a\xd4?'
p74
tp75
Rp76
tp77
a(S'sint maarten amateur athletic association'
p78
g2
(g6
S'(\xbc\xfe\x82?{\xd4?'
p79
tp80
Rp81
tp82
a(S'list of songs about amsterdam'
p83
g2
(g6
S'\xd6\xda\xb3\x8d\xc19\xd4?'
p84
tp85
Rp86
tp87
a(S'sint maarten, north holland'
p88
g2
(g6
S'\x88BP&\x99\x14\xd4?'
p89
tp90
Rp91
tp92
a(S'amsterdam (disambiguation)'
p93
g2
(g6
S'\x1de\xba\xb6A\x08\xd4?'
p94
tp95
Rp96
tp97
a(S'sint maarten national cricket team'
p98
g2
(g6
S'\xba\x1a1c%\xfd\xd3?'
p99
tp100
Rp101
tp102
a(S'modal logic'
p103
g2
(g6
S'\x00\x12\x19\x8c5\xfa\xd3?'
p104
tp105
Rp106
tp107
a(S'raymond wolff'
p108
g2
(g6
S'\xc3\xca\x8e\x94/\xcc\xd3?'
p109
tp110
Rp111
tp112
a(S'national alliance (sint maarten)'
p113
g2
(g6
S'\xd6z\xe0\x0e8\xc1\xd3?'
p114
tp115
Rp116
tp117
a(S'united st. maarten party'
p118
g2
(g6
S'Yy\xb7\xf3\xae\xbf\xd3?'
p119
tp120
Rp121
tp122
a(S'maarten van severen'
p123
g2
(g6
S'\xbd\xb4Z\xd4j\xaa\xd3?'
p124
tp125
Rp126
tp127
a(S'paulus aertsz van ravesteyn'
p128
g2
(g6
S'\x10\x12WC=\x90\xd3?'
p129
tp130
Rp131
tp132
a(S'sint maarten national football team'
p133
g2
(g6
S'\xef\xa9l\xe3[N\xd3?'
p134
tp135
Rp136
tp137
a(S'parasram singh'
p138
g2
(g6
S'%Z\xfb\x14\xfeM\xd3?'
p139
tp140
Rp141
tp142
a(S'list of railway stations in amsterdam'
p143
g2
(g6
S')*%\x0bYE\xd3?'
p144
tp145
Rp146
tp147
a(S'government of sint maarten'
p148
g2
(g6
S'YX\x86Vv-\xd3?'
p149
tp150
Rp151
tp152
a(S'information retrieval applications'
p153
g2
(g6
S'\xc6\xed\xcd\x1c\xcd"\xd3?'
p154
tp155
Rp156
tp157
a(S'knowledge retrieval'
p158
g2
(g6
S'e\xa2\xa5<\xa4!\xd3?'
p159
tp160
Rp161
tp162
a(S'history of amsterdam'
p163
g2
(g6
S'J\xcb\xbf\x15\xfc\x1f\xd3?'
p164
tp165
Rp166
tp167
a(S'flag of sint maarten'
p168
g2
(g6
S'\xbe\xab]\xbb\xa5\xf0\xd2?'
p169
tp170
Rp171
tp172
a(S'elections in sint maarten'
p173
g2
(g6
S'MP`I\xe8\xd7\xd2?'
p174
tp175
Rp176
tp177
a(S'mathias voges'
p178
g2
(g6
S'\x0c\n{\xf8\x1f\xa9\xd2?'
p179
tp180
Rp181
tp182
a(S'johan van benthem (logician)'
p183
g2
(g6
S'\x94$,\xe4\x1f\xa4\xd2?'
p184
tp185
Rp186
tp187
a(S'sxmjobs.com'
p188
g2
(g6
S'(\xd6\x96p\xff\x88\xd2?'
p189
tp190
Rp191
tp192
a(S'classical modal logic'
p193
g2
(g6
S'\x80\x0f\xda\x10+\x80\xd2?'
p194
tp195
Rp196
tp197
a(S'governor of sint maarten'
p198
g2
(g6
S'$\xe7\x1ax\xe1h\xd2?'
p199
tp200
Rp201
tp202
a(S'maarten van lieshout'
p203
g2
(g6
S'\x02\xb3\xb5U\xe9U\xd2?'
p204
tp205
Rp206
tp207
a(S'sint maarten general election, 1999'
p208
g2
(g6
S'\xbb\xf6\x95\xfd\xc0Q\xd2?'
p209
tp210
Rp211
tp212
a(S'modal companion'
p213
g2
(g6
S'\x12L\xbcQ[0\xd2?'
p214
tp215
Rp216
tp217
a(S'c. j. van rijsbergen'
p218
g2
(g6
S'\x14\x9a\x1f\x04\xa4,\xd2?'
p219
tp220
Rp221
tp222
a(S'modal'
p223
g2
(g6
S'\x1e\xf7\xc98\xa4\x13\xd2?'
p224
tp225
Rp226
tp227
a(S'new amsterdam (disambiguation)'
p228
g2
(g6
S'\xc4,\xebU\xf1\x03\xd2?'
p229
tp230
Rp231
tp232
a(S'calvin mooers'
p233
g2
(g6
S'?v\xe1\xc2\xed\xf5\xd1?'
p234
tp235
Rp236
tp237
a(S'joost r\xc3\xb6ben'
p238
g2
(g6
S'\x05\xf5%JD\xdb\xd1?'
p239
tp240
Rp241
tp242
a(S'president of the parliament of sint maarten'
p243
g2
(g6
S'\x97\xf8o\xc8\xc0\xbc\xd1?'
p244
tp245
Rp246
tp247
a(S'sint maarten heineken regatta'
p248
g2
(g6
S'y\xa6\x87\n\xa4\xa2\xd1?'
p249
tp250
Rp251
tp252
a(S'hengel'
p253
g2
(g6
S'\xcf\xc6\xb9o\x04\x90\xd1?'
p254
tp255
Rp256
tp257
a(S'melvin fitting'
p258
g2
(g6
S'\x89\xdb,\xa2\xbbf\xd1?'
p259
tp260
Rp261
tp262
a(S'list of sint maarten twenty20 players'
p263
g2
(g6
S'\xb8S\xaex\x0b\\\xd1?'
p264
tp265
Rp266
tp267
a(S'special interest group on information retrieval'
p268
g2
(g6
S'\xfc\xfaS\xe3=X\xd1?'
p269
tp270
Rp271
tp272
a(S'david blair (information technologist)'
p273
g2
(g6
S'\xa2\xbf\\n\x08N\xd1?'
p274
tp275
Rp276
tp277
a(S'steven evans (cricketer)'
p278
g2
(g6
S'16)\x01\x0eJ\xd1?'
p279
tp280
Rp281
tp282
a(S'city region of amsterdam'
p283
g2
(g6
S'\xbe\x05\xf1\x80\x1bB\xd1?'
p284
tp285
Rp286
tp287
a(S'modal algebra'
p288
g2
(g6
S'n\xfd<O\xc3:\xd1?'
p289
tp290
Rp291
tp292
a(S'list of most visited museums in the netherlands'
p293
g2
(g6
S'u\xaa\x0b\xf7M\x1b\xd1?'
p294
tp295
Rp296
tp297
a(S'claude wathey'
p298
g2
(g6
S'N\x0b"W0\x1b\xd1?'
p299
tp300
Rp301
tp302
a(S'list of klm delft blue houses'
p303
g2
(g6
S'\xc8mJ@a\x16\xd1?'
p304
tp305
Rp306
tp307
a(S'information retrieval facility'
p308
g2
(g6
S'\xe0\x7f[\tB\x06\xd1?'
p309
tp310
Rp311
tp312
a(S'transport in amsterdam'
p313
g2
(g6
S'\xf2\xb4\xac\xb3\x8c\xf8\xd0?'
p314
tp315
Rp316
tp317
a(S'estates of sint maarten'
p318
g2
(g6
S'\x13\xee\x9dL\xcd\xec\xd0?'
p319
tp320
Rp321
tp322
a(S'gerard salton award'
p323
g2
(g6
S'\xea~\x8f\x05\xaa\xeb\xd0?'
p324
tp325
Rp326
tp327
a(S'canon of amsterdam'
p328
g2
(g6
S'\x83\xad\xc5D\xd8\xdf\xd0?'
p329
tp330
Rp331
tp332
a(S'sint maarten league'
p333
g2
(g6
S'\xbb\x02\xe1\x84~\xd3\xd0?'
p334
tp335
Rp336
tp337
a(S'bob wielinga'
p338
g2
(g6
S'\x13\xf6\xb5\x0e4\xb8\xd0?'
p339
tp340
Rp341
tp342
a(S'multimodal logic'
p343
g2
(g6
S'\xcc\xf8\x98\x97\x85\xb4\xd0?'
p344
tp345
Rp346
tp347
a(S'coat of arms of sint maarten'
p348
g2
(g6
S'e\xbd\x0ek=\x89\xd0?'
p349
tp350
Rp351
tp352
a(S'networked environment for music analysis'
p353
g2
(g6
S'\xb7I\x83*\x16\x86\xd0?'
p354
tp355
Rp356
tp357
a(S'ramsleii boelijn'
p358
g2
(g6
S'\xce\x99\xb9\x95\r\x84\xd0?'
p359
tp360
Rp361
tp362
a(S'economy of saint martin'
p363
g2
(g6
S'\x85\x99\x86}Fv\xd0?'
p364
tp365
Rp366
tp367
a(S'moreland le blanc'
p368
g2
(g6
S'\x11d\xd7\x0b\t\\\xd0?'
p369
tp370
Rp371
tp372
a(S'jules theeuwes'
p373
g2
(g6
S'`\xfa\xa2\xc7m[\xd0?'
p374
tp375
Rp376
tp377
a(S'information retrieval specialist group'
p378
g2
(g6
S'R\xb7\xa1\xbc\xce@\xd0?'
p379
tp380
Rp381
tp382
a(S'robert amsterdam'
p383
g2
(g6
S'!\xb6\xd4\x9f\x03=\xd0?'
p384
tp385
Rp386
tp387
a(S'timeline of amsterdam'
p388
g2
(g6
S'w\x95\x03^e7\xd0?'
p389
tp390
Rp391
tp392
a(S'amsterdam centre for architecture (arcam)'
p393
g2
(g6
S'\xb8u\xa7_\x1e4\xd0?'
p394
tp395
Rp396
tp397
a(S'rob mokken'
p398
g2
(g6
S'_\xa2\xc8\xac\xde/\xd0?'
p399
tp400
Rp401
tp402
a(S'jean-rene belizar'
p403
g2
(g6
S'3\x03-6}\x1c\xd0?'
p404
tp405
Rp406
tp407
a(S'xml retrieval'
p408
g2
(g6
S'\x16\x1c\x86|g\x11\xd0?'
p409
tp410
Rp411
tp412
a(S'amsterdam\xe2\x80\x93schiphol railway'
p413
g2
(g6
S'\xfe`3z\x1a\x11\xd0?'
p414
tp415
Rp416
tp417
a(S'marcel gumbs'
p418
g2
(g6
S'\xd9\xf7\xab\xe0\xe7\x0c\xd0?'
p419
tp420
Rp421
tp422
a(S'kenroy david'
p423
g2
(g6
S'\x17k\xbf\x079\x02\xd0?'
p424
tp425
Rp426
tp427
a(S'amsterdam (city), new york'
p428
g2
(g6
S'\xd1Zx\x8a\x10\xd3\xcf?'
p429
tp430
Rp431
tp432
a(S'information retrieval'
p433
g2
(g6
S'\x85\x8aHW>\xbc\xcf?'
p434
tp435
Rp436
tp437
a(S'smpr-1'
p438
g2
(g6
S'\xaa#y\xe8\xfd\x9d\xcf?'
p439
tp440
Rp441
tp442
a(S"united people's party (sint maarten)"
p443
g2
(g6
S'a\x8eb%\x7f`\xcf?'
p444
tp445
Rp446
tp447
a(S'modal depth'
p448
g2
(g6
S'@\xbf\xb2\xaf\xc8O\xcf?'
p449
tp450
Rp451
tp452
a(S'amsterdam metropolitan area'
p453
g2
(g6
S'$\x86%\x13\xf0,\xcf?'
p454
tp455
Rp456
tp457
a(S'maarten heijmans'
p458
g2
(g6
S'a\xb4\x84\xfd\xbc \xcf?'
p459
tp460
Rp461
tp462
a(S'jan hemelrijk'
p463
g2
(g6
S'\xe3\x80V\x88d\x15\xcf?'
p464
tp465
Rp466
tp467
a(S'institute of management and economics'
p468
g2
(g6
S'y=\x8f\xf3\xfe\xee\xce?'
p469
tp470
Rp471
tp472
a(S'modal operator'
p473
g2
(g6
S'\xe7j\xf5\r\x92\xde\xce?'
p474
tp475
Rp476
tp477
a(S'second marlin cabinet'
p478
g2
(g6
S'\xb7Ut\xb1\x14\xcf\xce?'
p479
tp480
Rp481
tp482
a(S'amsterdam science park railway station'
p483
g2
(g6
S"\xaf\xc7;'\xd5\xbe\xce?"
p484
tp485
Rp486
tp487
a(S'johannes gerard van dillen'
p488
g2
(g6
S'APaUU\x98\xce?'
p489
tp490
Rp491
tp492
a(S'boroughs of amsterdam'
p493
g2
(g6
S'\xf9\x9a\x18P\xd5x\xce?'
p494
tp495
Rp496
tp497
a(S'wim zaal'
p498
g2
(g6
S'm\r\x8epib\xce?'
p499
tp500
Rp501
tp502
a(S'cross-language information retrieval'
p503
g2
(g6
S'\x87\x98QW\xcdZ\xce?'
p504
tp505
Rp506
tp507
a(S'sarah wescot-williams'
p508
g2
(g6
S'\xb6\x17\xf6\xdd\xf8X\xce?'
p509
tp510
Rp511
tp512
a(S'keston dornick'
p513
g2
(g6
S'\x93\x19}~\x971\xce?'
p514
tp515
Rp516
tp517
a(S'robert de hoog (scientist)'
p518
g2
(g6
S'e\x03m\xf2:\x14\xce?'
p519
tp520
Rp521
tp522
a(S'man of sorrows (maarten van heemskerck)'
p523
g2
(g6
S'\xe2\x1c<\xb0\x04\x11\xce?'
p524
tp525
Rp526
tp527
a(S's5 (modal logic)'
p528
g2
(g6
S'b\xd7Y\xcad\x10\xce?'
p529
tp530
Rp531
tp532
a(S'maarten krabb\xc3\xa9'
p533
g2
(g6
S'\x04\x05\r\xad\x10\r\xce?'
p534
tp535
Rp536
tp537
a(S'institute for logic, language and computation'
p538
g2
(g6
S'\x1cFYg\xca\x06\xce?'
p539
tp540
Rp541
tp542
a(S'document retrieval'
p543
g2
(g6
S'gf@E \xca\xcd?'
p544
tp545
Rp546
tp547
a(S'wim blok'
p548
g2
(g6
S'\xb8D\x1d\xc2=\xbc\xcd?'
p549
tp550
Rp551
tp552
a(S'standard translation'
p553
g2
(g6
S'\xea\xa8~\x91w\xbb\xcd?'
p554
tp555
Rp556
tp557
a(S'bibliography of amsterdam'
p558
g2
(g6
S'_|zpG\xa4\xcd?'
p559
tp560
Rp561
tp562
a(S'list of tourist attractions in amsterdam'
p563
g2
(g6
S'I\x83H\x13\x82\x81\xcd?'
p564
tp565
Rp566
tp567
a(S'isaac ouwater'
p568
g2
(g6
S'4\x11\x80\x07\xb8q\xcd?'
p569
tp570
Rp571
tp572
a(S'bj\xc3\xb6rn stenvers'
p573
g2
(g6
S'\xb0\x1d\xd9\xc0hp\xcd?'
p574
tp575
Rp576
tp577
a(S'berend tobia boeyinga'
p578
g2
(g6
S'\x88!\xe2\xd1{o\xcd?'
p579
tp580
Rp581
tp582
a(S'list of dutch painters'
p583
g2
(g6
S'\xb8\xc2A\xa0\xc1m\xcd?'
p584
tp585
Rp586
tp587
a(S'lodewijk asscher'
p588
g2
(g6
S'\xfd\xadi\xf2\xb5d\xcd?'
p589
tp590
Rp591
tp592
a(S'juda lion palache'
p593
g2
(g6
S'\xdfX}\x0c\x01V\xcd?'
p594
tp595
Rp596
tp597
a(S'alexander bodon'
p598
g2
(g6
S'\x0c\x19B\x0b7K\xcd?'
p599
tp600
Rp601
tp602
a(S'morey amsterdam'
p603
g2
(g6
S'\x8bY\xec\x13\x0c&\xcd?'
p604
tp605
Rp606
tp607
a(S'university of amsterdam'
p608
g2
(g6
S'\xfe"X\xcf\x1d\r\xcd?'
p609
tp610
Rp611
tp612
a(S'maarten de jonge'
p613
g2
(g6
S'\x18\x83/\x95\xa3\x03\xcd?'
p614
tp615
Rp616
tp617
a(S'john may (shipwright)'
p618
g2
(g6
S';\x0c\xe2E\x8f\xf2\xcc?'
p619
tp620
Rp621
tp622
a(S'tony kent strix award'
p623
g2
(g6
S'\x14\xfc\xe8Z\xd2\xf0\xcc?'
p624
tp625
Rp626
tp627
a(S'gerrit bolhuis'
p628
g2
(g6
S'o\xd5\x1d\x84\xe0\xec\xcc?'
p629
tp630
Rp631
tp632
a(S'willem godschalck van focquenbroch'
p633
g2
(g6
S'S`d\xafo\xea\xcc?'
p634
tp635
Rp636
tp637
a(S'centrum wiskunde & informatica'
p638
g2
(g6
S'\n\xc8\xb2Q\xcb\xe7\xcc?'
p639
tp640
Rp641
tp642
a(S'maarten neyens'
p643
g2
(g6
S'\x06\xfe\x06\x9a\xd7\xb8\xcc?'
p644
tp645
Rp646
tp647
a(S'sim gokkes'
p648
g2
(g6
S'\xb3\xb6H\x9d\xa6\xb3\xcc?'
p649
tp650
Rp651
tp652
a(S'information science'
p653
g2
(g6
S'a\xc7d\x83\xff\xb1\xcc?'
p654
tp655
Rp656
tp657
a(S'oosterdokseiland'
p658
g2
(g6
S'\x87\xe4\x16\xeaG\xb0\xcc?'
p659
tp660
Rp661
tp662
a(S'bloemenmarkt'
p663
g2
(g6
S'M\xb7b*}\xad\xcc?'
p664
tp665
Rp666
tp667
a(S'american university of integrative sciences'
p668
g2
(g6
S'\xc9\xa4\x83\xdb\x07\xa0\xcc?'
p669
tp670
Rp671
tp672
a(S's\xc3\xa1ndor dominich'
p673
g2
(g6
S'\x17\xaf\xba7`\x9d\xcc?'
p674
tp675
Rp676
tp677
a(S'amsterdam school'
p678
g2
(g6
S'\x7f\x1c\xbe\xc9\xcb\x91\xcc?'
p679
tp680
Rp681
tp682
a(S'sint maarten general election, 2010'
p683
g2
(g6
S'h\x92\xdf\xf3\xac\x89\xcc?'
p684
tp685
Rp686
tp687
a(S'maarten altena'
p688
g2
(g6
S'!J(i\xcc\x86\xcc?'
p689
tp690
Rp691
tp692
a(S'philips vingboons'
p693
g2
(g6
S'[0\xda\x80\xfe\x84\xcc?'
p694
tp695
Rp696
tp697
a(S'dirk van haaren'
p698
g2
(g6
S'\xd5\xb6\xf0\x17g|\xcc?'
p699
tp700
Rp701
tp702
a(S'first marlin cabinet'
p703
g2
(g6
S'\xb8\x83\x05D\xafx\xcc?'
p704
tp705
Rp706
tp707
a(S'justus danckerts'
p708
g2
(g6
S'\xb9\xdf\xa3\xc8\x9eg\xcc?'
p709
tp710
Rp711
tp712
a(S'grachtengordel (amsterdam)'
p713
g2
(g6
S'.q\xfd\x93Ua\xcc?'
p714
tp715
Rp716
tp717
a(S'national democratic party (sint maarten)'
p718
g2
(g6
S'\xb1\x885+\xc4T\xcc?'
p719
tp720
Rp721
tp722
a(S'new amsterdam'
p723
g2
(g6
S'>\x84\x83\x96zI\xcc?'
p724
tp725
Rp726
tp727
a(S'government of amsterdam'
p728
g2
(g6
S"\x8f\xb4\xf67K'\xcc?"
p729
tp730
Rp731
tp732
a(S'spaced retrieval'
p733
g2
(g6
S'6\x98\xf3\x9f\xbf \xcc?'
p734
tp735
Rp736
tp737
a(S'modal window'
p738
g2
(g6
S'\\,Zz4\x17\xcc?'
p739
tp740
Rp741
tp742
a(S'minister plenipotentiary of sint maarten'
p743
g2
(g6
S'\x11b)\x1f}\x11\xcc?'
p744
tp745
Rp746
tp747
a(S'ramses (tv series)'
p748
g2
(g6
S'\xf6N\xde[C\x10\xcc?'
p749
tp750
Rp751
tp752
a(S'cornelis anthonisz.'
p753
g2
(g6
S'\x90QB\xb5U\x0e\xcc?'
p754
tp755
Rp756
tp757
a(S'francoys dancx'
p758
g2
(g6
S'\xf4\x8dq\x10=\x0c\xcc?'
p759
tp760
Rp761
tp762
a(S'anthony g. amsterdam'
p763
g2
(g6
S'\x00\xb7\xa0\x89\x11\x0c\xcc?'
p764
tp765
Rp766
tp767
a(S'pieter van abeele'
p768
g2
(g6
S'\x02T\xf7\xfa\x18\x00\xcc?'
p769
tp770
Rp771
tp772
a(S'waterlooplein metro station'
p773
g2
(g6
S'\xc9\x1eN\x10T\xfb\xcb?'
p774
tp775
Rp776
tp777
a(S'w. bruce croft'
p778
g2
(g6
S'O\xcct\x91?\xfb\xcb?'
p779
tp780
Rp781
tp782
a(S'amsterdam weekly'
p783
g2
(g6
S'\x87\x84\xb5\xb18\xfb\xcb?'
p784
tp785
Rp786
tp787
a(S'gemeentelijk vervoerbedrijf'
p788
g2
(g6
S'e3\x13\xc5\x89\xda\xcb?'
p789
tp790
Rp791
tp792
a(S'alle tijd'
p793
g2
(g6
S'T\xbc\xa1-\x0b\xd9\xcb?'
p794
tp795
Rp796
tp797
a(S'cranfield experiments'
p798
g2
(g6
S'B_{\x05\xc1\xd4\xcb?'
p799
tp800
Rp801
tp802
a(S'joost janszoon bilhamer'
p803
g2
(g6
S'I]\xa3\xbfb\xc8\xcb?'
p804
tp805
Rp806
tp807
a(S'constitutional court of sint maarten'
p808
g2
(g6
S'\xfe!\x83v\xab\xc2\xcb?'
p809
tp810
Rp811
tp812
a(S'strandvliet metro station'
p813
g2
(g6
S"3\x8a')i\xbe\xcb?"
p814
tp815
Rp816
tp817
a(S'gein metro station'
p818
g2
(g6
S"3\x8a')i\xbe\xcb?"
p819
tp820
Rp821
tp822
a(S'bullewijk metro station'
p823
g2
(g6
S"3\x8a')i\xbe\xcb?"
p824
tp825
Rp826
tp827
a(S'gonny van oudenallen'
p828
g2
(g6
S'6\x81\xe0\xe5\xef\xb7\xcb?'
p829
tp830
Rp831
tp832
a(S'amsterdam sloterdijk station'
p833
g2
(g6
S'i\xcf\x9a\xc4D\xa9\xcb?'
p834
tp835
Rp836
tp837
a(S'john lemmon'
p838
g2
(g6
S'\xcc\x1d\x96\xd79\xa2\xcb?'
p839
tp840
Rp841
tp842
a(S'maarten haverkamp'
p843
g2
(g6
S'\x1f\xfb>\xcd\x91\x8f\xcb?'
p844
tp845
Rp846
tp847
a(S'meindert fennema'
p848
g2
(g6
S'\xf3\x9f\x9d\xfa \x8a\xcb?'
p849
tp850
Rp851
tp852
a(S'bv herly amsterdam'
p853
g2
(g6
S'\x89\x07\xeb_\x83\x89\xcb?'
p854
tp855
Rp856
tp857
a(S'sint maarten general election, 1979'
p858
g2
(g6
S'\xf3\xa3h\x8c\x9cz\xcb?'
p859
tp860
Rp861
tp862
a(S"van 't kruijs opening"
p863
g2
(g6
S'\xdf\x98\x95\xb4\xd7x\xcb?'
p864
tp865
Rp866
tp867
a(S'steven kuhn'
p868
g2
(g6
S'\xa0f,\x88\xa5t\xcb?'
p869
tp870
Rp871
tp872
a(S'hybrid logic'
p873
g2
(g6
S'\x0eu\xe8\xb23b\xcb?'
p874
tp875
Rp876
tp877
a(S'port of amsterdam'
p878
g2
(g6
S'\x0e\xc8w\xf4E]\xcb?'
p879
tp880
Rp881
tp882
a(S'cognitive models of information retrieval'
p883
g2
(g6
S'\xdc\xa1M\x91\xd8K\xcb?'
p884
tp885
Rp886
tp887
a(S'abraham alewijn'
p888
g2
(g6
S'\xed\xa9U[{H\xcb?'
p889
tp890
Rp891
tp892
a(S'cornelis van staveren'
p893
g2
(g6
S'\xd2\xa8N!\x8a;\xcb?'
p894
tp895
Rp896
tp897
a(S'modal share'
p898
g2
(g6
S'\x9fCmT\x7f\x12\xcb?'
p899
tp900
Rp901
tp902
a(S'phanos'
p903
g2
(g6
S'@\xdf*e0\x03\xcb?'
p904
tp905
Rp906
tp907
a(S'intensional logic'
p908
g2
(g6
S'B\xd8O<\xb2\xff\xca?'
p909
tp910
Rp911
tp912
a(S'saint martin'
p913
g2
(g6
S'\x83e\x0cI7\xfe\xca?'
p914
tp915
Rp916
tp917
a(S'normal modal logic'
p918
g2
(g6
S'T\x93~\xf6m\xfc\xca?'
p919
tp920
Rp921
tp922
a(S'human\xe2\x80\x93computer information retrieval'
p923
g2
(g6
S'q\xe2\x89\x88\x11\xfc\xca?'
p924
tp925
Rp926
tp927
a(S'max cresswell'
p928
g2
(g6
S'\xf4\xccS\x01\x03\xf3\xca?'
p929
tp930
Rp931
tp932
a(S'mary star of the sea church, simpson bay'
p933
g2
(g6
S'\xdap\xe3^N\xf2\xca?'
p934
tp935
Rp936
tp937
a(S'acm transactions on information systems'
p938
g2
(g6
S"\x1c\x86\x83#'\xf0\xca?"
p939
tp940
Rp941
tp942
a(S'martin l\xc3\xb6b'
p943
g2
(g6
S'f\xf012\x95\xe8\xca?'
p944
tp945
Rp946
tp947
a(S'epistemic modal logic'
p948
g2
(g6
S'\x1c\xc8\xea\xb7\xaa\xe6\xca?'
p949
tp950
Rp951
tp952
a(S'new netherland company'
p953
g2
(g6
S'\x16\x1f\xde\x8d\xef\xde\xca?'
p954
tp955
Rp956
tp957
a(S'stefan hertmans'
p958
g2
(g6
S'H6\x0b\xd1y\xda\xca?'
p959
tp960
Rp961
tp962
a(S'herman makkink'
p963
g2
(g6
S'\xb0V7\x02)\xd9\xca?'
p964
tp965
Rp966
tp967
a(S'peter colijn'
p968
g2
(g6
S't\x13\xf1\xfd\xcb\xd8\xca?'
p969
tp970
Rp971
tp972
a(S'amsterdam-zuidoost'
p973
g2
(g6
S's\x81PpG\xd4\xca?'
p974
tp975
Rp976
tp977
a(S'maarten dirk van renesse van duivenbode'
p978
g2
(g6
S'\xa8B\x81vG\xce\xca?'
p979
tp980
Rp981
tp982
a(S'provability logic'
p983
g2
(g6
S'\xca\xc9\x07\x1dI\xc8\xca?'
p984
tp985
Rp986
tp987
a(S'sint maarten general election, 1983'
p988
g2
(g6
S'\x16\xdb@\xd2u\xb4\xca?'
p989
tp990
Rp991
tp992
a(S'birdie amsterdam'
p993
g2
(g6
S'.\xe8\xf0\x93P\x9c\xca?'
p994
tp995
Rp996
tp997
a(S'abortion in sint maarten'
p998
g2
(g6
S'\\\xb4\x03\xd0\n\x8b\xca?'
p999
tp1000
Rp1001
tp1002
a(S'sloterdijk'
p1003
g2
(g6
S'\xf1\xd7 \xcf\x13\x8a\xca?'
p1004
tp1005
Rp1006
tp1007
a(S'mike lesk'
p1008
g2
(g6
S'\xebw\x7f+\xf0\x85\xca?'
p1009
tp1010
Rp1011
tp1012
a(S'samuel sarphati'
p1013
g2
(g6
S'-\xc1\x85\x01\xf9\x81\xca?'
p1014
tp1015
Rp1016
tp1017
a(S'oud-oost'
p1018
g2
(g6
S'\t\n\xfeY\xebz\xca?'
p1019
tp1020
Rp1021
tp1022
a(S'frans koppelaar'
p1023
g2
(g6
S'DJ\x1f\xfa\x0fy\xca?'
p1024
tp1025
Rp1026
tp1027
a(S'sherwin peters'
p1028
g2
(g6
S'\xd1\xf0$\x8a\x16q\xca?'
p1029
tp1030
Rp1031
tp1032
a(S'third wescot-williams cabinet'
p1033
g2
(g6
S'[\xad\xa1UXh\xca?'
p1034
tp1035
Rp1036
tp1037
a(S'music information retrieval'
p1038
g2
(g6
S'\xf9Y@\x9e:g\xca?'
p1039
tp1040
Rp1041
tp1042
a(S'james garson'
p1043
g2
(g6
S'\xf89W\x8e\xdbe\xca?'
p1044
tp1045
Rp1046
tp1047
a(S'alteratie'
p1048
g2
(g6
S'S}\xd1\x02zc\xca?'
p1049
tp1050
Rp1051
tp1052
a(S'the smallest house in amsterdam'
p1053
g2
(g6
S'\xbdi\x82.D^\xca?'
p1054
tp1055
Rp1056
tp1057
a(S'pepijn aardewijn'
p1058
g2
(g6
S'\xb6t\xfd\x9bE\\\xca?'
p1059
tp1060
Rp1061
tp1062
a(S'spaklerweg metro station'
p1063
g2
(g6
S'\x8bX\xff\xa1\x0bZ\xca?'
p1064
tp1065
Rp1066
tp1067
a(S'jacob tirado'
p1068
g2
(g6
S'j\xca\xbcjpX\xca?'
p1069
tp1070
Rp1071
tp1072
a(S'international society for music information retrieval'
p1073
g2
(g6
S'\xd0\x87\xb2@sR\xca?'
p1074
tp1075
Rp1076
tp1077
a(S'list of painters in the collection of the rijksmuseum'
p1078
g2
(g6
S'e\xb1q4IN\xca?'
p1079
tp1080
Rp1081
tp1082
a(S'1987 korfball world championship'
p1083
g2
(g6
S'\xcb\x155K\xbeG\xca?'
p1084
tp1085
Rp1086
tp1087
a(S'amsterdam city archives'
p1088
g2
(g6
S'\xe0\xafZ\x85\x0bE\xca?'
p1089
tp1090
Rp1091
tp1092
a(S'area code 721'
p1093
g2
(g6
S'\x1b&\x99\xb4\x9eC\xca?'
p1094
tp1095
Rp1096
tp1097
a(S'six days of amsterdam'
p1098
g2
(g6
S'\x8e\xd9w\xf4oB\xca?'
p1099
tp1100
Rp1101
tp1102
a(S'lambertus doedes'
p1103
g2
(g6
S'|\xcf\x0eN4<\xca?'
p1104
tp1105
Rp1106
tp1107
a(S'nieuwmarkt metro station'
p1108
g2
(g6
S'\xe6\x18\x18z\x849\xca?'
p1109
tp1110
Rp1111
tp1112
a(S'jason farradane'
p1113
g2
(g6
S'1\xa0\xee\xfcD7\xca?'
p1114
tp1115
Rp1116
tp1117
a(S'michael lew'
p1118
g2
(g6
S'6\xfa?h\xf62\xca?'
p1119
tp1120
Rp1121
tp1122
a(S'erik kessels'
p1123
g2
(g6
S'\x0b5Ojj\x1b\xca?'
p1124
tp1125
Rp1126
tp1127
a(S'sxm'
p1128
g2
(g6
S'\xf8\x15\xe9\xfe\xc3\r\xca?'
p1129
tp1130
Rp1131
tp1132
a(S'joan huydecoper van maarsseveen (1599\xe2\x80\x931661)'
p1133
g2
(g6
S'|\x1aAbf\x06\xca?'
p1134
tp1135
Rp1136
tp1137
a(S'zunderdorp'
p1138
g2
(g6
S'\xbcUl\xeb\xf0\x04\xca?'
p1139
tp1140
Rp1141
tp1142
a(S'willem de keyser (architect)'
p1143
g2
(g6
S'\xed\xf1\xa3\xaf~\xfb\xc9?'
p1144
tp1145
Rp1146
tp1147
a(S'kinkerbuurt'
p1148
g2
(g6
S'\xfb);\n\x9e\xf9\xc9?'
p1149
tp1150
Rp1151
tp1152
a(S'jan hillebrand wijsmuller'
p1153
g2
(g6
S'\x8a\x98\\\x9dD\xf9\xc9?'
p1154
tp1155
Rp1156
tp1157
a(S'1998 amsterdam admirals season'
p1158
g2
(g6
S'\x11\xbd9I\x8e\xea\xc9?'
p1159
tp1160
Rp1161
tp1162
a(S'nivio ziviani'
p1163
g2
(g6
S'\xb0\x14\xa6\x01X\xe5\xc9?'
p1164
tp1165
Rp1166
tp1167
a(S'amsterdam crusaders'
p1168
g2
(g6
S'\xaa%E\x07\x8e\xe0\xc9?'
p1169
tp1170
Rp1171
tp1172
a(S'eva pel'
p1173
g2
(g6
S'\xf9\xde(e\xb1\xdf\xc9?'
p1174
tp1175
Rp1176
tp1177
a(S'intermediate logic'
p1178
g2
(g6
S'7U\x13\xe6\xd9\xd9\xc9?'
p1179
tp1180
Rp1181
tp1182
a(S'2008 holland series'
p1183
g2
(g6
S'2\xadmq\xed\xd8\xc9?'
p1184
tp1185
Rp1186
tp1187
a(S'window operator'
p1188
g2
(g6
S'@\x99\xb26\xf0\xd6\xc9?'
p1189
tp1190
Rp1191
tp1192
a(S'sherwyn noble'
p1193
g2
(g6
S'\xa8\\C\xdb\xcc\xd1\xc9?'
p1194
tp1195
Rp1196
tp1197
a(S'bijlmermeer'
p1198
g2
(g6
S'\xe61\xa6\xf7\xaa\xca\xc9?'
p1199
tp1200
Rp1201
tp1202
a(S'piet kramer'
p1203
g2
(g6
S'\r\xf6\x13\xfb\x8c\xc8\xc9?'
p1204
tp1205
Rp1206
tp1207
a(S'modal case'
p1208
g2
(g6
S'\x94\xd3H"{\xc5\xc9?'
p1209
tp1210
Rp1211
tp1212
a(S'amsterdam (town), new york'
p1213
g2
(g6
S'"\x0ceAB\xb7\xc9?'
p1214
tp1215
Rp1216
tp1217
a(S'frederik ruysch'
p1218
g2
(g6
S'\xb4\x0cnN\xe6\xb5\xc9?'
p1219
tp1220
Rp1221
tp1222
a(S'non-classical logic'
p1223
g2
(g6
S'$m\xd9C\xbc\xa1\xc9?'
p1224
tp1225
Rp1226
tp1227
a(S'amsterdam-centrum'
p1228
g2
(g6
S'c\x0b64`\x9f\xc9?'
p1229
tp1230
Rp1231
tp1232
a(S'cyril cleverdon'
p1233
g2
(g6
S'\xaa=\x96\xce\xf6\x9c\xc9?'
p1234
tp1235
Rp1236
tp1237
a(S'ajaxjournaal'
p1238
g2
(g6
S'\xc1\x15\xdf\xc6\xfd\x9a\xc9?'
p1239
tp1240
Rp1241
tp1242
a(S'johannes van hoolwerff'
p1243
g2
(g6
S'V\xb2\xb4\xc1\xc8\x96\xc9?'
p1244
tp1245
Rp1246
tp1247
a(S'sint maarten general election, 1995'
p1248
g2
(g6
S'FI\x83\xc2/\x91\xc9?'
p1249
tp1250
Rp1251
tp1252
a(S'jurjen ferdinand koksma'
p1253
g2
(g6
S'\xd0\xb0\x1e\x10M\x90\xc9?'
p1254
tp1255
Rp1256
tp1257
a(S"johannes d'outrein"
p1258
g2
(g6
S'Ukq\xfe\x16\x88\xc9?'
p1259
tp1260
Rp1261
tp1262
a(S'amsterdam science park'
p1263
g2
(g6
S'\x08\x95\xfb\x08?\x83\xc9?'
p1264
tp1265
Rp1266
tp1267
a(S'nicolaes tulp'
p1268
g2
(g6
S'\xca\x16~\xc6\xf0p\xc9?'
p1269
tp1270
Rp1271
tp1272
a(S'coymanshuis'
p1273
g2
(g6
S'\n\xfc{\x1a\xdc[\xc9?'
p1274
tp1275
Rp1276
tp1277
a(S'akwasi mensah'
p1278
g2
(g6
S'\x8fr\xc3\xec\xadX\xc9?'
p1279
tp1280
Rp1281
tp1282
a(S'marjan borsjes'
p1283
g2
(g6
S'z\x8b\xe4\xab+P\xc9?'
p1284
tp1285
Rp1286
tp1287
a(S'capital of the netherlands'
p1288
g2
(g6
S'\xd2\x86+3\x0eH\xc9?'
p1289
tp1290
Rp1291
tp1292
a(S'christ crowned with thorns (heemskerck)'
p1293
g2
(g6
S'\x1b7\x9b\xe3\x16.\xc9?'
p1294
tp1295
Rp1296
tp1297
a(S'lead retrieval'
p1298
g2
(g6
S'\xdc\x01\xa3\x85\xd8,\xc9?'
p1299
tp1300
Rp1301
tp1302
a(S'henk kersken'
p1303
g2
(g6
S'\xbc:\xa2\x01\xec#\xc9?'
p1304
tp1305
Rp1306
tp1307
a(S'maarten van rossem'
p1308
g2
(g6
S'\xcc\xb8yj\xfc\x0f\xc9?'
p1309
tp1310
Rp1311
tp1312
a(S'dani\xc3\xabl stalpaert'
p1313
g2
(g6
S'4>31\xce\x0b\xc9?'
p1314
tp1315
Rp1316
tp1317
a(S'e. w. beth dissertation prize'
p1318
g2
(g6
S'c\xa7,\x94{\x0b\xc9?'
p1319
tp1320
Rp1321
tp1322
a(S'henk tijms'
p1323
g2
(g6
S'#d\x1cN\xa3\t\xc9?'
p1324
tp1325
Rp1326
tp1327
a(S'concept-based image indexing'
p1328
g2
(g6
S'\x84\xebA0\x7f\x06\xc9?'
p1329
tp1330
Rp1331
tp1332
a(S'catharina julia roeters van lennep'
p1333
g2
(g6
S'\x8c1|\xa0\xdb\x04\xc9?'
p1334
tp1335
Rp1336
tp1337
a(S'maarten van der vleuten'
p1338
g2
(g6
S'\xcc;\xe8z\xfc\x03\xc9?'
p1339
tp1340
Rp1341
tp1342
a(S'\xc3\x8ele amsterdam'
p1343
g2
(g6
S"]\xe8\x9e\xff'\xff\xc8?"
p1344
tp1345
Rp1346
tp1347
a(S'neighborhood semantics'
p1348
g2
(g6
S'\xaf\xc6\xac\xbc\x1b\xfa\xc8?'
p1349
tp1350
Rp1351
tp1352
a(S'vera bergkamp'
p1353
g2
(g6
S'P\xc7\x81:\xcb\xf2\xc8?'
p1354
tp1355
Rp1356
tp1357
a(S'operational modal analysis'
p1358
g2
(g6
S'T\x16\xcct\xfb\xea\xc8?'
p1359
tp1360
Rp1361
tp1362
a(S'modal jazz'
p1363
g2
(g6
S'\x07\xf8EG\x9b\xe5\xc8?'
p1364
tp1365
Rp1366
tp1367
a(S'amsterdam university library'
p1368
g2
(g6
S'\xc4\x9d\xe5\xc6-\xe5\xc8?'
p1369
tp1370
Rp1371
tp1372
a(S'eugene holiday'
p1373
g2
(g6
S'\xe2 \xcb\x98\xca\xe2\xc8?'
p1374
tp1375
Rp1376
tp1377
a(S'westpoort'
p1378
g2
(g6
S'C\x0ei\xffQ\xdb\xc8?'
p1379
tp1380
Rp1381
tp1382
a(S'jacobus linthorst'
p1383
g2
(g6
S'\xe8gs\x8d\x97\xd9\xc8?'
p1384
tp1385
Rp1386
tp1387
a(S'history of the jews in amsterdam'
p1388
g2
(g6
S'\x87\x02O\x12_\xd7\xc8?'
p1389
tp1390
Rp1391
tp1392
a(S'amsterdam heritage museums'
p1393
g2
(g6
S'=\xb0}\x91\xe7\xd1\xc8?'
p1394
tp1395
Rp1396
tp1397
a(S'isabella henriette van eeghen'
p1398
g2
(g6
S'\x03f\xe7\xf3\x87\xcc\xc8?'
p1399
tp1400
Rp1401
tp1402
a(S'stad amsterdam'
p1403
g2
(g6
S'V\xc3\x96\x08\x93\xc6\xc8?'
p1404
tp1405
Rp1406
tp1407
a(S'cloaca (film)'
p1408
g2
(g6
S'\x06\xc5\x13\xf5\x1b\xc6\xc8?'
p1409
tp1410
Rp1411
tp1412
a(S'susan dumais'
p1413
g2
(g6
S'\xc4[^)n\xc5\xc8?'
p1414
tp1415
Rp1416
tp1417
a(S'sint maarten status referendum, 2000'
p1418
g2
(g6
S'lSP\xec\x9a\xc4\xc8?'
p1419
tp1420
Rp1421
tp1422
a(S'witkar'
p1423
g2
(g6
S'\xda\x1d\xc4\xbb\xe9\xc3\xc8?'
p1424
tp1425
Rp1426
tp1427
a(S'larry baptiste'
p1428
g2
(g6
S"\xe2'B0W\xb5\xc8?"
p1429
tp1430
Rp1431
tp1432
a(S'willem witsen'
p1433
g2
(g6
S'\xad\xf4t\xe3\xae\xb3\xc8?'
p1434
tp1435
Rp1436
tp1437
a(S'jet bussemaker'
p1438
g2
(g6
S'N\x83\x0cU\xeb\xab\xc8?'
p1439
tp1440
Rp1441
tp1442
a(S'robert kowalski'
p1443
g2
(g6
S'\x8a3\xf4X!\xab\xc8?'
p1444
tp1445
Rp1446
tp1447
a(S'pieter litjens'
p1448
g2
(g6
S'}\xdbO\xc3\x00\xa5\xc8?'
p1449
tp1450
Rp1451
tp1452
a(S'amsterdam muiderpoort railway station'
p1453
g2
(g6
S'A\x8a8\x10\x11\xa4\xc8?'
p1454
tp1455
Rp1456
tp1457
a(S'robert r. korfhage'
p1458
g2
(g6
S'\x82\x99\x98\x0b\x9f\x9b\xc8?'
p1459
tp1460
Rp1461
tp1462
a(S'lieven ferdinand de beaufort'
p1463
g2
(g6
S'\x02J\xe8\x8e?\x98\xc8?'
p1464
tp1465
Rp1466
tp1467
a(S'benthem crouwel architekten'
p1468
g2
(g6
S'Z\xe2D\x07\xc9\x94\xc8?'
p1469
tp1470
Rp1471
tp1472
a(S'john knox stewart'
p1473
g2
(g6
S'\x07\x1f\x93N\x00\x87\xc8?'
p1474
tp1475
Rp1476
tp1477
a(S'amsterdam (voc ship)'
p1478
g2
(g6
S'\xc8\x85|\xec8\x82\xc8?'
p1479
tp1480
Rp1481
tp1482
a(S'gijs van hall'
p1483
g2
(g6
S'\xf1\xbd\xe8\xae\x1a\x80\xc8?'
p1484
tp1485
Rp1486
tp1487
a(S'leonard van munster'
p1488
g2
(g6
S'\xd9\xfeV\xe9}~\xc8?'
p1489
tp1490
Rp1491
tp1492
a(S'reigersbos metro station'
p1493
g2
(g6
S'\xfa\xd1dk\xcc{\xc8?'
p1494
tp1495
Rp1496
tp1497
a(S'hans bruggeman'
p1498
g2
(g6
S'xH\xf9\xa3+w\xc8?'
p1499
tp1500
Rp1501
tp1502
a(S'michel de klerk'
p1503
g2
(g6
S'\xae\xf9\x17T\xf9t\xc8?'
p1504
tp1505
Rp1506
tp1507
a(S'lgbt rights in sint maarten'
p1508
g2
(g6
S'\xf4\xe4\xd8G\xe9s\xc8?'
p1509
tp1510
Rp1511
tp1512
a.