(lp0
(S'machine translation'
p1
cnumpy.core.multiarray
scalar
p2
(cnumpy
dtype
p3
(S'f8'
p4
I0
I1
tp5
Rp6
(I3
S'<'
p7
NNNI-1
I-1
I0
tp8
bS'\x01\x00\x00\x00\x00\x00\xf0?'
p9
tp10
Rp11
tp12
a(S'statistical machine translation'
p13
g2
(g6
S')K\x9a{d\xbc\xe9?'
p14
tp15
Rp16
tp17
a(S'dictionary-based machine translation'
p18
g2
(g6
S'\xaa\xa6h\xae@?\xe9?'
p19
tp20
Rp21
tp22
a(S'history of machine translation'
p23
g2
(g6
S'Ny]\x06I\x19\xe9?'
p24
tp25
Rp26
tp27
a(S'round-trip translation'
p28
g2
(g6
S'\xe5H\x91ZQE\xe8?'
p29
tp30
Rp31
tp32
a(S'google neural machine translation'
p33
g2
(g6
S'\xc5\x88\xee\xb9\x89\x02\xe8?'
p34
tp35
Rp36
tp37
a(S'hybrid machine translation'
p38
g2
(g6
S'\xff\xa7.\xdd=\xdf\xe7?'
p39
tp40
Rp41
tp42
a(S'translation'
p43
g2
(g6
S')\x7f!\xe9\x15\xb9\xe7?'
p44
tp45
Rp46
tp47
a(S'comparison of different machine translation approaches'
p48
g2
(g6
S'\x8d\xb51\xd4[\x82\xe7?'
p49
tp50
Rp51
tp52
a(S'interlingual machine translation'
p53
g2
(g6
S'\x1e\xbe\xdf\x15\xf3_\xe7?'
p54
tp55
Rp56
tp57
a(S'promt'
p58
g2
(g6
S'\x9f\xcfX\x7f4\xc7\xe6?'
p59
tp60
Rp61
tp62
a(S'example-based machine translation'
p63
g2
(g6
S'N\xeb\x97A1\x16\xe6?'
p64
tp65
Rp66
tp67
a(S'interactive machine translation'
p68
g2
(g6
S'\xb0\xbf\x9bip\xc5\xe5?'
p69
tp70
Rp71
tp72
a(S'translation studies'
p73
g2
(g6
S'\xcb\xd2\x90+\\=\xe5?'
p74
tp75
Rp76
tp77
a(S'european association for machine translation'
p78
g2
(g6
S'\xaa\xb5\x98\x86\x14)\xe5?'
p79
tp80
Rp81
tp82
a(S'translation project'
p83
g2
(g6
S'\x97f\x8f\x89@\xfe\xe4?'
p84
tp85
Rp86
tp87
a(S'timeline of machine translation'
p88
g2
(g6
S'\xcb\xcb\x8c\xdf\x10\xe7\xe4?'
p89
tp90
Rp91
tp92
a(S'caitra'
p93
g2
(g6
S'\x08)\x0e\x94\xe8\xc8\xe4?'
p94
tp95
Rp96
tp97
a(S'computer-assisted translation'
p98
g2
(g6
S'\xddI\xac@\xaf\xc1\xe4?'
p99
tp100
Rp101
tp102
a(S'translation changes everything'
p103
g2
(g6
S'D\x1bhpy\x88\xe4?'
p104
tp105
Rp106
tp107
a(S'technical translation'
p108
g2
(g6
S'\xde\xb7\xb9}Z\x85\xe4?'
p109
tp110
Rp111
tp112
a(S'translation criticism'
p113
g2
(g6
S"'\x92\xa5\xfc5,\xe4?"
p114
tp115
Rp116
tp117
a(S'philipp koehn'
p118
g2
(g6
S'\xf09\xea\xb5\xfc\xc5\xe3?'
p119
tp120
Rp121
tp122
a(S'literal translation'
p123
g2
(g6
S'(\x0f8Ur\xbd\xe3?'
p124
tp125
Rp126
tp127
a(S'translation (disambiguation)'
p128
g2
(g6
S'\xa7WBk\x00\xb6\xe3?'
p129
tp130
Rp131
tp132
a(S'transfer-based machine translation'
p133
g2
(g6
S'b!\xb0\x8b,\xac\xe3?'
p134
tp135
Rp136
tp137
a(S'stepes'
p138
g2
(g6
S'\xb8\n\xe4u\xd2\xab\xe3?'
p139
tp140
Rp141
tp142
a(S'translation memory'
p143
g2
(g6
S'\xb6\xdc\x11\xcfy\x85\xe3?'
p144
tp145
Rp146
tp147
a(S'machine translation software usability'
p148
g2
(g6
S'\x8bu\x89\xd4\xc3\x84\xe3?'
p149
tp150
Rp151
tp152
a(S'indirect translation'
p153
g2
(g6
S'\xd7\x0f\xdb\xc7\x89u\xe3?'
p154
tp155
Rp156
tp157
a(S'memoq'
p158
g2
(g6
S'\xb9\xefvJ-f\xe3?'
p159
tp160
Rp161
tp162
a(S'neural machine translation'
p163
g2
(g6
S'd\xc8(VhK\xe3?'
p164
tp165
Rp166
tp167
a(S'mobile translation'
p168
g2
(g6
S'iJ\xe9\x08\x8d\x17\xe3?'
p169
tp170
Rp171
tp172
a(S'pairaphrase'
p173
g2
(g6
S"\x86'\xde\x10\x06\x0e\xe3?"
p174
tp175
Rp176
tp177
a(S'euromatrix'
p178
g2
(g6
S'\xd1/\xbe\xdeM\xf8\xe2?'
p179
tp180
Rp181
tp182
a(S'meedan'
p183
g2
(g6
S'\x88\x90y\xbd\xb6\x8a\xe2?'
p184
tp185
Rp186
tp187
a(S'edwin gentzler'
p188
g2
(g6
S'\ru]\x01N\x84\xe2?'
p189
tp190
Rp191
tp192
a(S'lawrence venuti'
p193
g2
(g6
S'4cR\x9f\x19N\xe2?'
p194
tp195
Rp196
tp197
a(S'reformed systematic theology bibliography'
p198
g2
(g6
S'^\x86\xbb3\xaaM\xe2?'
p199
tp200
Rp201
tp202
a(S'translation-quality standards'
p203
g2
(g6
S'\xaf\x83\x9bj\xbeJ\xe2?'
p204
tp205
Rp206
tp207
a(S'alpac'
p208
g2
(g6
S'\xbb]z=bF\xe2?'
p209
tp210
Rp211
tp212
a(S'list of kalevala translations'
p213
g2
(g6
S'\xeb\xaa\xff\xe9\xc1(\xe2?'
p214
tp215
Rp216
tp217
a(S'list of english-language pop songs based on french-language songs'
p218
g2
(g6
S'\xaf\xcdx\x8e$\x17\xe2?'
p219
tp220
Rp221
tp222
a(S'translation unit'
p223
g2
(g6
S'-\x16\xdb\x88\x91\xee\xe1?'
p224
tp225
Rp226
tp227
a(S'legal translation'
p228
g2
(g6
S'M\xc4\xbd\t\x1b\xeb\xe1?'
p229
tp230
Rp231
tp232
a(S'openlogos'
p233
g2
(g6
S'o\xfb\x0f(\x03\xc6\xe1?'
p234
tp235
Rp236
tp237
a(S'machine translation in china'
p238
g2
(g6
S'3E`\xd4\xc6\xc1\xe1?'
p239
tp240
Rp241
tp242
a(S'evaluation of machine translation'
p243
g2
(g6
S'n\xdd\xdd\x8aX\xae\xe1?'
p244
tp245
Rp246
tp247
a(S'oxford-weidenfeld translation prize'
p248
g2
(g6
S'L"\x92\xe1q\x9c\xe1?'
p249
tp250
Rp251
tp252
a(S'vilen komissarov'
p253
g2
(g6
S'\xf2\xa3\xc8\x10|{\xe1?'
p254
tp255
Rp256
tp257
a(S'martin kay'
p258
g2
(g6
S'\xc8\x8b\xc3X\xd4q\xe1?'
p259
tp260
Rp261
tp262
a(S'speech translation'
p263
g2
(g6
S'L\x81\x93\x80E_\xe1?'
p264
tp265
Rp266
tp267
a(S'controlled language in machine translation'
p268
g2
(g6
S']\xf3a\x01:_\xe1?'
p269
tp270
Rp271
tp272
a(S'apertium'
p273
g2
(g6
S'\xc0&\x08\x07\xd5W\xe1?'
p274
tp275
Rp276
tp277
a(S'cultural translation'
p278
g2
(g6
S'P%Qe%T\xe1?'
p279
tp280
Rp281
tp282
a(S'collaborative translation'
p283
g2
(g6
S'\x9az\xd5W#T\xe1?'
p284
tp285
Rp286
tp287
a(S'yandex.translate'
p288
g2
(g6
S'7u\x963\x82F\xe1?'
p289
tp290
Rp291
tp292
a(S'lost in translation'
p293
g2
(g6
S'&\xb9\xe9\x94r=\xe1?'
p294
tp295
Rp296
tp297
a(S'umberto eco bibliography'
p298
g2
(g6
S'\x05 \x1d \xdd#\xe1?'
p299
tp300
Rp301
tp302
a(S'viivi luik'
p303
g2
(g6
S'\x85\xc552\x19\x1e\xe1?'
p304
tp305
Rp306
tp307
a(S'sense-for-sense translation'
p308
g2
(g6
S'@\x0b\x11\xe5\xfa\x1a\xe1?'
p309
tp310
Rp311
tp312
a(S'medical translation'
p313
g2
(g6
S'\x99\xc7\x1eV\x82\t\xe1?'
p314
tp315
Rp316
tp317
a(S'iso 17100:2015'
p318
g2
(g6
S'\x01\xc2\xd6W(\x07\xe1?'
p319
tp320
Rp321
tp322
a(S'palace of desire (tv series)'
p323
g2
(g6
S'K\xc7\xb5\x07\xad\xfb\xe0?'
p324
tp325
Rp326
tp327
a(S'postediting'
p328
g2
(g6
S'\xc6dO\x99\xb6\xf2\xe0?'
p329
tp330
Rp331
tp332
a(S'xtm international'
p333
g2
(g6
S'v\xc20\xa7\x92\xef\xe0?'
p334
tp335
Rp336
tp337
a(S'source language (translation)'
p338
g2
(g6
S'\x87\x0e\x07\x1d\xc0\xd8\xe0?'
p339
tp340
Rp341
tp342
a(S'europarl corpus'
p343
g2
(g6
S'\xfc^h\xe1%\xc6\xe0?'
p344
tp345
Rp346
tp347
a(S'lepor'
p348
g2
(g6
S'\x83\xc4\xb8\x08r\xc1\xe0?'
p349
tp350
Rp351
tp352
a(S'bruno osimo'
p353
g2
(g6
S'\x8a\x8e\xcb\xc1s\xbd\xe0?'
p354
tp355
Rp356
tp357
a(S'iranian center for translation studies'
p358
g2
(g6
S'\x88\xc2+\xad\xcf\xbc\xe0?'
p359
tp360
Rp361
tp362
a(S'self-translation'
p363
g2
(g6
S'\x10\xbbt\xd8\xe5p\xe0?'
p364
tp365
Rp366
tp367
a(S'distributed language translation'
p368
g2
(g6
S'\xbf\xd0\x86a\x8bo\xe0?'
p369
tp370
Rp371
tp372
a(S'peter newmark'
p373
g2
(g6
S'\xd5\x08\x85\xa2kl\xe0?'
p374
tp375
Rp376
tp377
a(S'national translation mission'
p378
g2
(g6
S'\xdd\x1a\xb0\xdc\xa0@\xe0?'
p379
tp380
Rp381
tp382
a(S'translation (geometry)'
p383
g2
(g6
S'VC\xa6\x8e\xaf/\xe0?'
p384
tp385
Rp386
tp387
a(S'automatic language translator'
p388
g2
(g6
S'b\xeas\xcd\xb1-\xe0?'
p389
tp390
Rp391
tp392
a(S'language industry'
p393
g2
(g6
S'\xc4y\x97<\xd4\x16\xe0?'
p394
tp395
Rp396
tp397
a(S'heidrun gerzymisch'
p398
g2
(g6
S'\xeb\xdb\xddg\xe8\x0c\xe0?'
p399
tp400
Rp401
tp402
a(S'systran'
p403
g2
(g6
S'E\xcd\xb4v\xbc\t\xe0?'
p404
tp405
Rp406
tp407
a(S'jollo'
p408
g2
(g6
S'~.\x03\xaf\xc3\xf4\xdf?'
p409
tp410
Rp411
tp412
a(S'new world translation of the holy scriptures'
p413
g2
(g6
S'U\xfa\xdc\x11%\xd7\xdf?'
p414
tp415
Rp416
tp417
a(S'japanese historical text initiative'
p418
g2
(g6
S'A<\x94\x14\xce\x90\xdf?'
p419
tp420
Rp421
tp422
a(S'anthony pym'
p423
g2
(g6
S'\x12\xfa\xff\r\xf8\x8d\xdf?'
p424
tp425
Rp426
tp427
a(S'language weaver'
p428
g2
(g6
S'\x03\xa4}+dV\xdf?'
p429
tp430
Rp431
tp432
a(S'retranslation'
p433
g2
(g6
S'e5\x87Y\xf9P\xdf?'
p434
tp435
Rp436
tp437
a(S'pootle'
p438
g2
(g6
S'g\xf9\xb7\xdb<%\xdf?'
p439
tp440
Rp441
tp442
a(S'moses (machine translation)'
p443
g2
(g6
S'\x9ev\xb5\x99\x8d$\xdf?'
p444
tp445
Rp446
tp447
a(S'globalsight'
p448
g2
(g6
S'>h\xd5\\\xb6\x1b\xdf?'
p449
tp450
Rp451
tp452
a(S'michael byrnes'
p453
g2
(g6
S'S\xa2\xdfp\xf9\x17\xdf?'
p454
tp455
Rp456
tp457
a(S'european society for translation studies'
p458
g2
(g6
S'\xfb\xa2\xda\xd4\xa0\x12\xdf?'
p459
tp460
Rp461
tp462
a(S'target text'
p463
g2
(g6
S'\x9d\t%}\xeb\x04\xdf?'
p464
tp465
Rp466
tp467
a(S'martha cheung'
p468
g2
(g6
S'\xa4`\xbd\xf4\xe9\xf9\xde?'
p469
tp470
Rp471
tp472
a(S'bible translations in norway'
p473
g2
(g6
S'c\x11\xc8\\G\xf2\xde?'
p474
tp475
Rp476
tp477
a(S'bleu'
p478
g2
(g6
S'\x900F\xe7\x90\xe1\xde?'
p479
tp480
Rp481
tp482
a(S'translate.com'
p483
g2
(g6
S'\xfd2\xf58\xf4\xdd\xde?'
p484
tp485
Rp486
tp487
a(S'peter bush (translator)'
p488
g2
(g6
S'\xb0P}\x98\xd6\xca\xde?'
p489
tp490
Rp491
tp492
a(S'omniscien technologies'
p493
g2
(g6
S'\xd5\\\x1e\x1aP\xc0\xde?'
p494
tp495
Rp496
tp497
a(S'john bester'
p498
g2
(g6
S'hA\xca\x942\xbf\xde?'
p499
tp500
Rp501
tp502
a(S'multimedia translation'
p503
g2
(g6
S']\xd2\xec\xe9\xf8\x99\xde?'
p504
tp505
Rp506
tp507
a(S'jody byrne (academic)'
p508
g2
(g6
S'\xedjHc1\x8b\xde?'
p509
tp510
Rp511
tp512
a(S'the journal of specialised translation'
p513
g2
(g6
S'2\xc7\xf0\x7f<2\xde?'
p514
tp515
Rp516
tp517
a(S'matecat'
p518
g2
(g6
S'(\xd9g\xbf""\xde?'
p519
tp520
Rp521
tp522
a(S'brian harris (translation researcher)'
p523
g2
(g6
S'@\x08q\xebC\x1d\xde?'
p524
tp525
Rp526
tp527
a(S'translation of neologisms into chinese'
p528
g2
(g6
S'9a\x12\x0cE\x15\xde?'
p529
tp530
Rp531
tp532
a(S'google translate'
p533
g2
(g6
S']\x88T$)\x02\xde?'
p534
tp535
Rp536
tp537
a(S'chinese translation theory'
p538
g2
(g6
S'\x8c(\x90\x88\xb5\xfd\xdd?'
p539
tp540
Rp541
tp542
a(S'directorate-general for translation'
p543
g2
(g6
S'\xdb\x8b_l\x0b\xf7\xdd?'
p544
tp545
Rp546
tp547
a(S"god's word translation"
p548
g2
(g6
S'bxZ\x0f\x95\x9a\xdd?'
p549
tp550
Rp551
tp552
a(S'lingvosoft'
p553
g2
(g6
S'n0i$\xa4\x8a\xdd?'
p554
tp555
Rp556
tp557
a(S'rule-based machine translation'
p558
g2
(g6
S'\xb0F\x8a\xefkr\xdd?'
p559
tp560
Rp561
tp562
a(S'quran translations'
p563
g2
(g6
S'H\x9d\x10K\x16l\xdd?'
p564
tp565
Rp566
tp567
a(S'anusaaraka'
p568
g2
(g6
S'\\\x1ci\xf6\x0bS\xdd?'
p569
tp570
Rp571
tp572
a(S'american literary translators association'
p573
g2
(g6
S'!\x15o?HN\xdd?'
p574
tp575
Rp576
tp577
a(S'translations of one thousand and one nights'
p578
g2
(g6
S'\xca\xa9;\xd7\xdc4\xdd?'
p579
tp580
Rp581
tp582
a(S'saudi king abdullah international award for translation'
p583
g2
(g6
S'\xe0\n\xd8^\x02-\xdd?'
p584
tp585
Rp586
tp587
a(S'synchronous context-free grammar'
p588
g2
(g6
S'\x94\x1b9\x88\xb0\t\xdd?'
p589
tp590
Rp591
tp592
a(S'annie brisset'
p593
g2
(g6
S'o\xc937Z\xf7\xdc?'
p594
tp595
Rp596
tp597
a(S'parinoush saniee'
p598
g2
(g6
S'\xa0\x13gzE\xe6\xdc?'
p599
tp600
Rp601
tp602
a(S'medslt'
p603
g2
(g6
S'\x10/W0\xcf\xc8\xdc?'
p604
tp605
Rp606
tp607
a(S'nicht um zu sterben'
p608
g2
(g6
S'\x0e\x88\xd7\xf0e\xc5\xdc?'
p609
tp610
Rp611
tp612
a(S'max weber bibliography'
p613
g2
(g6
S'1\x17\x0b\xe8 \xb5\xdc?'
p614
tp615
Rp616
tp617
a(S'microsoft translator'
p618
g2
(g6
S'|\xc3\x085\xe1\xb1\xdc?'
p619
tp620
Rp621
tp622
a(S'elanex'
p623
g2
(g6
S'\x18\x03k\x03\x87\x9b\xdc?'
p624
tp625
Rp626
tp627
a(S'history of natural language processing'
p628
g2
(g6
S'\xe8\xd7|\x9d,\x8f\xdc?'
p629
tp630
Rp631
tp632
a(S'en 15038'
p633
g2
(g6
S'\xf5\x18\x05Q\x02|\xdc?'
p634
tp635
Rp636
tp637
a(S'gideon toury'
p638
g2
(g6
S'#\xac\x89/\x0et\xdc?'
p639
tp640
Rp641
tp642
a(S'sae j2450'
p643
g2
(g6
S'j\xda\xf7\x83!f\xdc?'
p644
tp645
Rp646
tp647
a(S'svenska folkbibeln'
p648
g2
(g6
S'\xc0L8L\xd7\x18\xdc?'
p649
tp650
Rp651
tp652
a(S'maastricht school of translation and interpreting'
p653
g2
(g6
S"y\xdd'\xb6Q\x0f\xdc?"
p654
tp655
Rp656
tp657
a(S"the translator's invisibility"
p658
g2
(g6
S'\xb3\xf6n\x14\xb9\x0c\xdc?'
p659
tp660
Rp661
tp662
a(S'comparison of machine translation applications'
p663
g2
(g6
S'\xd1\x10\xf2\xf4\xbe\xf9\xdb?'
p664
tp665
Rp666
tp667
a(S'georgetown\xe2\x80\x93ibm experiment'
p668
g2
(g6
S'\\\xcax\x87\xec\xca\xdb?'
p669
tp670
Rp671
tp672
a(S'after babel'
p673
g2
(g6
S'\xb6\x8fw\xd6E\xbf\xdb?'
p674
tp675
Rp676
tp677
a(S'corpora in translation studies'
p678
g2
(g6
S'\xa2c\xc2#\x02\xb9\xdb?'
p679
tp680
Rp681
tp682
a(S"beck's american translation"
p683
g2
(g6
S'\xc3\x1fR\xd7w\xa9\xdb?'
p684
tp685
Rp686
tp687
a(S'regulatory translation'
p688
g2
(g6
S'\x7f\xc3\x12\x03\xe8\xa3\xdb?'
p689
tp690
Rp691
tp692
a(S'lex mahumet pseudoprophete'
p693
g2
(g6
S'\x08\xb09x.m\xdb?'
p694
tp695
Rp696
tp697
a(S'crowdsourcing as human-machine translation'
p698
g2
(g6
S'\x7f\x0c\xdbA4i\xdb?'
p699
tp700
Rp701
tp702
a(S'fan translation'
p703
g2
(g6
S'\xca\x8a\xb7Y\x06c\xdb?'
p704
tp705
Rp706
tp707
a(S'skopos theory'
p708
g2
(g6
S'\xeb\xe6&\xb8kY\xdb?'
p709
tp710
Rp711
tp712
a(S'logoport'
p713
g2
(g6
S'\x87\xd9\x92Q\x95\x1b\xdb?'
p714
tp715
Rp716
tp717
a(S'the interpretive theory of translation'
p718
g2
(g6
S'6\xd3\x88>\xc0\x11\xdb?'
p719
tp720
Rp721
tp722
a(S'domestication and foreignization'
p723
g2
(g6
S'\x1eVfv<\xfa\xda?'
p724
tp725
Rp726
tp727
a(S'linguee'
p728
g2
(g6
S'\x9eT\xc6\xf0g\xf5\xda?'
p729
tp730
Rp731
tp732
a(S'outline of natural language processing'
p733
g2
(g6
S'\xa3u(\x0b \xa4\xda?'
p734
tp735
Rp736
tp737
a(S'fan translation of video games'
p738
g2
(g6
S'\x19\xabI\x0c\xe1\x8c\xda?'
p739
tp740
Rp741
tp742
a(S'bible translations into the languages of russia'
p743
g2
(g6
S'\xe6\xbe\xc0X\xbc}\xda?'
p744
tp745
Rp746
tp747
a(S'noble quran (hilali-khan)'
p748
g2
(g6
S'\x02?No\x0cy\xda?'
p749
tp750
Rp751
tp752
a(S'translation and literature'
p753
g2
(g6
S'\xde\x92!J\xa9p\xda?'
p754
tp755
Rp756
tp757
a(S'translation project (disambiguation)'
p758
g2
(g6
S'N\x1cI\xf6\x9a`\xda?'
p759
tp760
Rp761
tp762
a(S'english translations of the quran'
p763
g2
(g6
S'\x8f\x15\r\x83g]\xda?'
p764
tp765
Rp766
tp767
a(S"european master's in translation"
p768
g2
(g6
S'\x19\x98*\x1e\x88S\xda?'
p769
tp770
Rp771
tp772
a(S'hindi-to-punjabi machine translation system'
p773
g2
(g6
S'k\x93l\xe2\x93J\xda?'
p774
tp775
Rp776
tp777
a(S'ji\xc5\x99\xc3\xad lev\xc3\xbd'
p778
g2
(g6
S'\xd5\xb5;G\xe8H\xda?'
p779
tp780
Rp781
tp782
a(S'grammar\xe2\x80\x93translation method'
p783
g2
(g6
S'\x1cr\x0e\xc6J6\xda?'
p784
tp785
Rp786
tp787
a(S'avenue of mysteries'
p788
g2
(g6
S'r\xc1\x00t\xb6\x1f\xda?'
p789
tp790
Rp791
tp792
a(S'kephale'
p793
g2
(g6
S'\xc7\xc9_C\xba\x17\xda?'
p794
tp795
Rp796
tp797
a(S'said faiq'
p798
g2
(g6
S'|\xb8.\x04\xd1\t\xda?'
p799
tp800
Rp801
tp802
a(S'linguatec'
p803
g2
(g6
S'\x05\xec)\xff\xca\x07\xda?'
p804
tp805
Rp806
tp807
a(S'bible translations into burmese'
p808
g2
(g6
S'I\xec]\xa7\xf8\xf9\xd9?'
p809
tp810
Rp811
tp812
a(S'new living translation'
p813
g2
(g6
S')~{\xa3\xa5\xef\xd9?'
p814
tp815
Rp816
tp817
a(S'yrsa sigur\xc3\xb0ard\xc3\xb3ttir'
p818
g2
(g6
S'J\xac\\\x1a\x9b\xe8\xd9?'
p819
tp820
Rp821
tp822
a(S'carole fr\xc3\xa9chette'
p823
g2
(g6
S'V\x92\x9fk\xf6\xde\xd9?'
p824
tp825
Rp826
tp827
a(S'chinese new living translation'
p828
g2
(g6
S'\xa0\x10x\xad5\xd4\xd9?'
p829
tp830
Rp831
tp832
a(S'l\xc3\xa9on dostert'
p833
g2
(g6
S'_W]y-\xb6\xd9?'
p834
tp835
Rp836
tp837
a(S'bible translations into ukrainian'
p838
g2
(g6
S'\x8e\x1e5\x9b\x9b\xa8\xd9?'
p839
tp840
Rp841
tp842
a(S'empire of the ants (novel)'
p843
g2
(g6
S'i\xb0\xc5<\xaa\xa2\xd9?'
p844
tp845
Rp846
tp847
a(S'image translation'
p848
g2
(g6
S'\xb3Y;\xde\xd9\xa1\xd9?'
p849
tp850
Rp851
tp852
a(S'jaime carbonell'
p853
g2
(g6
S'\xcc\xdd\x9d\xba\x00\xa0\xd9?'
p854
tp855
Rp856
tp857
a(S'alex waibel'
p858
g2
(g6
S'\x7f\x94\xbcR\xac\x9f\xd9?'
p859
tp860
Rp861
tp862
a(S'google translator toolkit'
p863
g2
(g6
S'^\xf6~\x14\xc0\x8a\xd9?'
p864
tp865
Rp866
tp867
a(S'apptek'
p868
g2
(g6
S'\xed\xf1\rY\x96|\xd9?'
p869
tp870
Rp871
tp872
a(S'virtaal'
p873
g2
(g6
S'T\xb3\x83e\\g\xd9?'
p874
tp875
Rp876
tp877
a(S'list of research laboratories for machine translation'
p878
g2
(g6
S'\xa9\x86\x1eM\x12]\xd9?'
p879
tp880
Rp881
tp882
a(S'idiomax'
p883
g2
(g6
S'\x01\x16\xb6\x08bW\xd9?'
p884
tp885
Rp886
tp887
a(S'popescu prize'
p888
g2
(g6
S'\x08\x92\xc7\xd2\x1aQ\xd9?'
p889
tp890
Rp891
tp892
a(S'andr\xc3\xa9 lefevere'
p893
g2
(g6
S'\xf5\x03\xd8\x9a\x1fP\xd9?'
p894
tp895
Rp896
tp897
a(S'ferdydurke'
p898
g2
(g6
S'\xf9\xb5A\xa2!>\xd9?'
p899
tp900
Rp901
tp902
a(S'anton popovi\xc4\x8d'
p903
g2
(g6
S'G\xa3\xd6l\xec9\xd9?'
p904
tp905
Rp906
tp907
a(S'urkraft'
p908
g2
(g6
S'3Q\xa9\x06;\x13\xd9?'
p909
tp910
Rp911
tp912
a(S'mother tongue mirroring'
p913
g2
(g6
S'\xc7\xe2\x1a\xb6\x93\t\xd9?'
p914
tp915
Rp916
tp917
a(S'russian synodal bible'
p918
g2
(g6
S'\xa1\x9b\xb4R\x9e\x01\xd9?'
p919
tp920
Rp921
tp922
a(S'translation operator (quantum mechanics)'
p923
g2
(g6
S'.\xac)\xa6\xbc\xf8\xd8?'
p924
tp925
Rp926
tp927
a(S'from jewish folk poetry'
p928
g2
(g6
S'\x0ex\xd2\x15\xd1\xf2\xd8?'
p929
tp930
Rp931
tp932
a(S'list of genetic codes'
p933
g2
(g6
S'm \xefT\x8d\xeb\xd8?'
p934
tp935
Rp936
tp937
a(S'translators association'
p938
g2
(g6
S'\x1a\xb1G\xe4\xe8\xc3\xd8?'
p939
tp940
Rp941
tp942
a(S'makoto nagao'
p943
g2
(g6
S'\xddm\xa3\x03k\xc0\xd8?'
p944
tp945
Rp946
tp947
a(S'euromatrixplus'
p948
g2
(g6
S']y \xa7*\xbc\xd8?'
p949
tp950
Rp951
tp952
a(S'meteo system'
p953
g2
(g6
S'\x87I\x89\xf2\xc8\xb3\xd8?'
p954
tp955
Rp956
tp957
a(S'elliott macklovitch'
p958
g2
(g6
S'\x16\xf6p\xcb\x1a\xa4\xd8?'
p959
tp960
Rp961
tp962
a(S'vorlage'
p963
g2
(g6
S'\tY\xffKd\x93\xd8?'
p964
tp965
Rp966
tp967
a(S'david rowland (translator)'
p968
g2
(g6
S'\xb9\xb9\x0b\xde\xc2\x92\xd8?'
p969
tp970
Rp971
tp972
a(S'bible translations into kazakh'
p973
g2
(g6
S'\xdc\x97\x90d\x9e\x87\xd8?'
p974
tp975
Rp976
tp977
a(S'humour in translation'
p978
g2
(g6
S'\x18\xc7\x0e\x81\x93\x82\xd8?'
p979
tp980
Rp981
tp982
a(S'meghad\xc5\xabta'
p983
g2
(g6
S'\x00Ru\xdf\x0c|\xd8?'
p984
tp985
Rp986
tp987
a(S"bitter ist's dem tod zu dienen"
p988
g2
(g6
S'v\x987=\xdak\xd8?'
p989
tp990
Rp991
tp992
a(S'bible version debate'
p993
g2
(g6
S'\n\xfaO\xea\xfbh\xd8?'
p994
tp995
Rp996
tp997
a(S'san pellegrino university foundation'
p998
g2
(g6
S'P\xac\x0c!K\\\xd8?'
p999
tp1000
Rp1001
tp1002
a(S'nikolay karamzin'
p1003
g2
(g6
S'\x08\xb2\x97\x8a-G\xd8?'
p1004
tp1005
Rp1006
tp1007
a(S'the weird'
p1008
g2
(g6
S'\x88\xad\x9ea|/\xd8?'
p1009
tp1010
Rp1011
tp1012
a(S'kahitna'
p1013
g2
(g6
S'\xdf!\x11\xea)*\xd8?'
p1014
tp1015
Rp1016
tp1017
a(S'bible translations into indonesian'
p1018
g2
(g6
S'\xed\x08w\x17\x92$\xd8?'
p1019
tp1020
Rp1021
tp1022
a(S'bible de port-royal'
p1023
g2
(g6
S'\x00\xe3w\xb2i\x16\xd8?'
p1024
tp1025
Rp1026
tp1027
a(S'juvenes translatores'
p1028
g2
(g6
S'\xaa\xc2A=\x11\xf8\xd7?'
p1029
tp1030
Rp1031
tp1032
a(S'gaston leroux'
p1033
g2
(g6
S'r\x1d\x1b\x0e\xa4\xf7\xd7?'
p1034
tp1035
Rp1036
tp1037
a(S'julia e. smith parker translation'
p1038
g2
(g6
S'\x9av\xed\xe06\xe8\xd7?'
p1039
tp1040
Rp1041
tp1042
a(S'richard pevear and larissa volokhonsky'
p1043
g2
(g6
S'\xc0\xce/\xf53\xe8\xd7?'
p1044
tp1045
Rp1046
tp1047
a(S'journalistic translation'
p1048
g2
(g6
S'=1}z\x02\xd3\xd7?'
p1049
tp1050
Rp1051
tp1052
a(S'open english bible'
p1053
g2
(g6
S'@\xd9\xbf\xaf\xe6\xd1\xd7?'
p1054
tp1055
Rp1056
tp1057
a(S'pivot language'
p1058
g2
(g6
S'\xc0Uq\xb2\x91\xcb\xd7?'
p1059
tp1060
Rp1061
tp1062
a(S'giuseppe scaraffia'
p1063
g2
(g6
S'\x07Lo\xb1\x82\xc6\xd7?'
p1064
tp1065
Rp1066
tp1067
a(S'proglas'
p1068
g2
(g6
S'\xfa\xb0\xf3g\x17\xc6\xd7?'
p1069
tp1070
Rp1071
tp1072
a(S'chris langewis'
p1073
g2
(g6
S'\xe7\xed\n\xc0\xb6\xc4\xd7?'
p1074
tp1075
Rp1076
tp1077
a(S'facultad de traducci\xc3\xb3n e interpretaci\xc3\xb3n de granada (spain)'
p1078
g2
(g6
S'\xdb,\xb3\x14\xe5\xc0\xd7?'
p1079
tp1080
Rp1081
tp1082
a(S'yeminli s\xc3\xb6zl\xc3\xbck'
p1083
g2
(g6
S'\xfe\xfc\x8f\xbe\xbf\xb8\xd7?'
p1084
tp1085
Rp1086
tp1087
a(S'universal translator'
p1088
g2
(g6
S'\xc2Gb\xd5\xd7\xad\xd7?'
p1089
tp1090
Rp1091
tp1092
a(S'target language (translation)'
p1093
g2
(g6
S'~\xa8mV\xaa\xaa\xd7?'
p1094
tp1095
Rp1096
tp1097
a(S'globalization management system'
p1098
g2
(g6
S'\x842{6\xc2\xa7\xd7?'
p1099
tp1100
Rp1101
tp1102
a(S'andrey kistyakovsky'
p1103
g2
(g6
S'.\xf0\xae\xf1\xf3\x7f\xd7?'
p1104
tp1105
Rp1106
tp1107
a(S'nancy huston'
p1108
g2
(g6
S'\xef\xdei\xc6;v\xd7?'
p1109
tp1110
Rp1111
tp1112
a(S'wordfast'
p1113
g2
(g6
S'28=p\x07t\xd7?'
p1114
tp1115
Rp1116
tp1117
a(S'bible translations into finnish'
p1118
g2
(g6
S'\xee\xa2\x03K\x0fa\xd7?'
p1119
tp1120
Rp1121
tp1122
a(S'sumerian literature'
p1123
g2
(g6
S'VS\xa2>\xab`\xd7?'
p1124
tp1125
Rp1126
tp1127
a(S'alexandre exquemelin'
p1128
g2
(g6
S'#M\x90\x94\tB\xd7?'
p1129
tp1130
Rp1131
tp1132
a(S'the parts of animals'
p1133
g2
(g6
S'X\xdb\xc5\x11\xa3>\xd7?'
p1134
tp1135
Rp1136
tp1137
a(S'japan-u.s. friendship commission prize for the translation of japanese literature'
p1138
g2
(g6
S'\xbf\x8e\x07\x8d\xc7.\xd7?'
p1139
tp1140
Rp1141
tp1142
a(S'babylonian chronicles'
p1143
g2
(g6
S'\x16\x91\xdc2f"\xd7?'
p1144
tp1145
Rp1146
tp1147
a(S'hans vermeer'
p1148
g2
(g6
S'\xb4\xf6\xdd6\x86\x1d\xd7?'
p1149
tp1150
Rp1151
tp1152
a(S'douglas robinson (academic)'
p1153
g2
(g6
S'\\\x87\x95\x8d\xba\x1b\xd7?'
p1154
tp1155
Rp1156
tp1157
a(S'k. p. sasidharan'
p1158
g2
(g6
S's=\xce\xadL\x1a\xd7?'
p1159
tp1160
Rp1161
tp1162
a(S'flitto'
p1163
g2
(g6
S'\x86\x08\xb5\xf3\x15\x11\xd7?'
p1164
tp1165
Rp1166
tp1167
a(S'fuzzy matching (computer-assisted translation)'
p1168
g2
(g6
S"\x05\x80R\xce'\n\xd7?"
p1169
tp1170
Rp1171
tp1172
a(S'radical translation'
p1173
g2
(g6
S'\xe3\x1a\x14\xec\x07\xf6\xd6?'
p1174
tp1175
Rp1176
tp1177
a(S'eurotra'
p1178
g2
(g6
S'\xcc\xe8J\xd5\xff\xf5\xd6?'
p1179
tp1180
Rp1181
tp1182
a(S'gothic 3: the beginning'
p1183
g2
(g6
S'\xf7\xd6\x0b\x8a\xaa\xdf\xd6?'
p1184
tp1185
Rp1186
tp1187
a(S'\xc3\x84\xc3\xa4ni\xc3\xa4 y\xc3\xb6ss\xc3\xa4'
p1188
g2
(g6
S'\xb0\x93|bw\xd6\xd6?'
p1189
tp1190
Rp1191
tp1192
a(S'convenience translation'
p1193
g2
(g6
S'\xd1JWf\xf2\xb9\xd6?'
p1194
tp1195
Rp1196
tp1197
a(S'bible translations into native american languages'
p1198
g2
(g6
S't\xbc\xc5\x16\xac\xb9\xd6?'
p1199
tp1200
Rp1201
tp1202
a(S'institute of translation and arabization'
p1203
g2
(g6
S'\xfb[\xc7W\xc1\xaa\xd6?'
p1204
tp1205
Rp1206
tp1207
a(S'virtual translation conference'
p1208
g2
(g6
S"\t{'\xf5\xbf\x94\xd6?"
p1209
tp1210
Rp1211
tp1212
a(S'bible translations into manchu'
p1213
g2
(g6
S'\xc4/A\xae\xfe|\xd6?'
p1214
tp1215
Rp1216
tp1217
a(S'easy-to-read version'
p1218
g2
(g6
S'\x88\xec \x08\xcfx\xd6?'
p1219
tp1220
Rp1221
tp1222
a(S'james e. falen'
p1223
g2
(g6
S'\x85E`WWu\xd6?'
p1224
tp1225
Rp1226
tp1227
a(S'weidner communications'
p1228
g2
(g6
S'e\x8d%8\xddt\xd6?'
p1229
tp1230
Rp1231
tp1232
a(S'michael cronin (academic)'
p1233
g2
(g6
S'N\xc9O\xb9Te\xd6?'
p1234
tp1235
Rp1236
tp1237
a(S'bible translations'
p1238
g2
(g6
S'\xb8\xdd\x1d\xb9}c\xd6?'
p1239
tp1240
Rp1241
tp1242
a(S'andreas feininger'
p1243
g2
(g6
S'\x05\x86\xce\x8e\xba_\xd6?'
p1244
tp1245
Rp1246
tp1247
a(S'grundrisse'
p1248
g2
(g6
S'\x16\xc6\xa4\xbb\xb9^\xd6?'
p1249
tp1250
Rp1251
tp1252
a(S'amir hamzah bibliography'
p1253
g2
(g6
S'\xfe\xc7yL\x82X\xd6?'
p1254
tp1255
Rp1256
tp1257
a(S'niutrans'
p1258
g2
(g6
S'x\xe0S\xb1\xa7K\xd6?'
p1259
tp1260
Rp1261
tp1262
a(S'westernised chinese language'
p1263
g2
(g6
S'\x8aQ\xed\x846C\xd6?'
p1264
tp1265
Rp1266
tp1267
a(S'varujan vosganian'
p1268
g2
(g6
S'\xf3L=m\xcf?\xd6?'
p1269
tp1270
Rp1271
tp1272
a(S'gospel riots'
p1273
g2
(g6
S'\x87\xc7Z\x10 ?\xd6?'
p1274
tp1275
Rp1276
tp1277
a(S'adsotrans'
p1278
g2
(g6
S'|oO\xbb\xa6:\xd6?'
p1279
tp1280
Rp1281
tp1282
a(S'darby bible'
p1283
g2
(g6
S'\xec\x00\xf4\xaau9\xd6?'
p1284
tp1285
Rp1286
tp1287
a(S'frank wynne'
p1288
g2
(g6
S'W\xd0Qm\xd15\xd6?'
p1289
tp1290
Rp1291
tp1292
a(S'the egyptian'
p1293
g2
(g6
S'\x8f\xee\xc8\x8f\x8c(\xd6?'
p1294
tp1295
Rp1296
tp1297
a(S'lingotek'
p1298
g2
(g6
S'\x06\xe1\xd2\xec\x9f\x15\xd6?'
p1299
tp1300
Rp1301
tp1302
a(S'alexander lyudskanov'
p1303
g2
(g6
S'w\xc8\xd8\xae^\xfe\xd5?'
p1304
tp1305
Rp1306
tp1307
a(S'iraqcomm'
p1308
g2
(g6
S'\x80\xffS\xea\x95\xf2\xd5?'
p1309
tp1310
Rp1311
tp1312
a(S"the holy qur'an: text, translation and commentary"
p1313
g2
(g6
S'>\xb6:\\\\\xee\xd5?'
p1314
tp1315
Rp1316
tp1317
a(S'nay hannawi'
p1318
g2
(g6
S'}\x85q7+\xeb\xd5?'
p1319
tp1320
Rp1321
tp1322
a(S'natural language processing'
p1323
g2
(g6
S'`\xfd\xcfB\xdf\xe7\xd5?'
p1324
tp1325
Rp1326
tp1327
a(S'bible translations into persian'
p1328
g2
(g6
S'\x93(n\n\xfd\xdf\xd5?'
p1329
tp1330
Rp1331
tp1332
a(S'bible translations into azerbaijani'
p1333
g2
(g6
S'\xe1*\xc9\xfe\x9a\xdf\xd5?'
p1334
tp1335
Rp1336
tp1337
a(S'phraseapp'
p1338
g2
(g6
S'\xc1wu\x1b\xa6\xd7\xd5?'
p1339
tp1340
Rp1341
tp1342
a(S"god's new covenant: a new testament translation"
p1343
g2
(g6
S'W\xb1\xdaB\xee\xd4\xd5?'
p1344
tp1345
Rp1346
tp1347
a(S'jane brierley'
p1348
g2
(g6
S'F\x08\xb9O\xcb\xcb\xd5?'
p1349
tp1350
Rp1351
tp1352
a(S'purified translation of the bible'
p1353
g2
(g6
S'\x85\xa0\xa4F\xa6\xc7\xd5?'
p1354
tp1355
Rp1356
tp1357
a(S'bitext word alignment'
p1358
g2
(g6
S'8\x959\xf5\xe1\xc0\xd5?'
p1359
tp1360
Rp1361
tp1362
a(S'chronicon (eusebius)'
p1363
g2
(g6
S'\xdf\x9f\xc2\x15\xe7\xb6\xd5?'
p1364
tp1365
Rp1366
tp1367
a(S'mitsukazu mihara'
p1368
g2
(g6
S'\x96\xa0e]\xb8\xa5\xd5?'
p1369
tp1370
Rp1371
tp1372
a(S'balachandra shastri'
p1373
g2
(g6
S'w\xfa\x12\x81\xa9\xa4\xd5?'
p1374
tp1375
Rp1376
tp1377
a(S'bible translations into the languages of indonesia and malaysia'
p1378
g2
(g6
S'\xf6?a\x03\x0b\xa1\xd5?'
p1379
tp1380
Rp1381
tp1382
a(S'lr swamy'
p1383
g2
(g6
S'c\xd4\x98\xbf\x85\xa0\xd5?'
p1384
tp1385
Rp1386
tp1387
a(S'theo hermans'
p1388
g2
(g6
S'\xeb\x0c\x1d\xa1e\xa0\xd5?'
p1389
tp1390
Rp1391
tp1392
a(S'bible translations into kyrgyz'
p1393
g2
(g6
S'\x10\xebj\x1d\x94\x88\xd5?'
p1394
tp1395
Rp1396
tp1397
a(S'omegat'
p1398
g2
(g6
S']\n\x90\x1a+\x86\xd5?'
p1399
tp1400
Rp1401
tp1402
a(S'dindsenchas'
p1403
g2
(g6
S'c.\xc3\xa5\x95n\xd5?'
p1404
tp1405
Rp1406
tp1407
a(S'mdic'
p1408
g2
(g6
S'C$W\xd4\xa9k\xd5?'
p1409
tp1410
Rp1411
tp1412
a(S'knowledge utilization research center'
p1413
g2
(g6
S'm\xa7\x1d\xfc\x9d]\xd5?'
p1414
tp1415
Rp1416
tp1417
a(S'open language tools'
p1418
g2
(g6
S'\xe1\x07+\xaa\xb7@\xd5?'
p1419
tp1420
Rp1421
tp1422
a(S'bible translations into german'
p1423
g2
(g6
S'\x18\x08+h\x1a>\xd5?'
p1424
tp1425
Rp1426
tp1427
a(S'andrew chesterman'
p1428
g2
(g6
S'I\xd7\xb3G\x1c1\xd5?'
p1429
tp1430
Rp1431
tp1432
a(S'fritz k\xc3\xbcnkel'
p1433
g2
(g6
S'\xdf\xb4\x9dX\xf3/\xd5?'
p1434
tp1435
Rp1436
tp1437
a(S'william f. beck'
p1438
g2
(g6
S'\xd9Q\x94\xc7\xee.\xd5?'
p1439
tp1440
Rp1441
tp1442
a(S'tahereh saffarzadeh'
p1443
g2
(g6
S'\x8b\xae\x9c\xdd\xbb*\xd5?'
p1444
tp1445
Rp1446
tp1447
a(S'unlimited (f.i.r. album)'
p1448
g2
(g6
S'3\xcfd8\xdc\x1e\xd5?'
p1449
tp1450
Rp1451
tp1452
a(S'konstantine gamsakhurdia'
p1453
g2
(g6
S'\xd3^\xbc.\x86\x1d\xd5?'
p1454
tp1455
Rp1456
tp1457
a(S'walter owen'
p1458
g2
(g6
S'\xac\x17\xd7\x8e\xcd\x19\xd5?'
p1459
tp1460
Rp1461
tp1462
a(S'\xc5\x9aatakatraya'
p1463
g2
(g6
S'&j\x85\x1a\xaf\x14\xd5?'
p1464
tp1465
Rp1466
tp1467
a(S'peter sandrini'
p1468
g2
(g6
S'\xcb\x93Mx\xe9\x13\xd5?'
p1469
tp1470
Rp1471
tp1472
a(S'bible translations into portuguese'
p1473
g2
(g6
S'e\xbf3\x1a\xa9\t\xd5?'
p1474
tp1475
Rp1476
tp1477
a(S'jewish english bible translations'
p1478
g2
(g6
S'\xa0l\xee\xa2\x0c\x04\xd5?'
p1479
tp1480
Rp1481
tp1482
a(S'list of translations of the quran'
p1483
g2
(g6
S'\xc6\x17e\xee6\x01\xd5?'
p1484
tp1485
Rp1486
tp1487
a(S'cap-independent translation element'
p1488
g2
(g6
S'/H\xe6\r3\xff\xd4?'
p1489
tp1490
Rp1491
tp1492
a(S'bible translations into japanese'
p1493
g2
(g6
S"2O)'\x9d\xf4\xd4?"
p1494
tp1495
Rp1496
tp1497
a(S'epiousios'
p1498
g2
(g6
S'\xbfY\x11%|\xf3\xd4?'
p1499
tp1500
Rp1501
tp1502
a(S'translations of the lord of the rings into russian'
p1503
g2
(g6
S'\x13yWd\xab\xec\xd4?'
p1504
tp1505
Rp1506
tp1507
a(S'bible translations into greek'
p1508
g2
(g6
S'~\xde\xee\xc9H\xe6\xd4?'
p1509
tp1510
Rp1511
tp1512
a.