(lp0
(S'mathematics'
p1
cnumpy.core.multiarray
scalar
p2
(cnumpy
dtype
p3
(S'f8'
p4
I0
I1
tp5
Rp6
(I3
S'<'
p7
NNNI-1
I-1
I0
tp8
bS'\xf7\xff\xff\xff\xff\xff\xef?'
p9
tp10
Rp11
tp12
a(S'outline of mathematics'
p13
g2
(g6
S'@\xbdi\xb1\xcd\xfa\xea?'
p14
tp15
Rp16
tp17
a(S'history of mathematics'
p18
g2
(g6
S'\xfa\xe9\x8a\x9e\t\xa1\xe9?'
p19
tp20
Rp21
tp22
a(S'applied mathematics'
p23
g2
(g6
S's\x91\xd4\x06\x82\xe6\xe8?'
p24
tp25
Rp26
tp27
a(S'philosophy of mathematics'
p28
g2
(g6
S"&2'\xb0\x86\xab\xe8?"
p29
tp30
Rp31
tp32
a(S'mathematics education'
p33
g2
(g6
S'\xa3o-I\x98\x08\xe7?'
p34
tp35
Rp36
tp37
a(S'language of mathematics'
p38
g2
(g6
S'\x0b\xaac\xbfE_\xe6?'
p39
tp40
Rp41
tp42
a(S'ethnomathematics'
p43
g2
(g6
S'q`~{}V\xe6?'
p44
tp45
Rp46
tp47
a(S'future of mathematics'
p48
g2
(g6
S'\x0f\xc5\xe5\x96c$\xe6?'
p49
tp50
Rp51
tp52
a(S'joint mathematical council'
p53
g2
(g6
S'{\x89\xb3\x1b\x18\x0f\xe6?'
p54
tp55
Rp56
tp57
a(S'foundations of mathematics'
p58
g2
(g6
S'\xf5\x1c\xae\xa2a\x07\xe6?'
p59
tp60
Rp61
tp62
a(S'relationship between mathematics and physics'
p63
g2
(g6
S"\xff'\xfc\x95#\xea\xe5?"
p64
tp65
Rp66
tp67
a(S'list of mathematics education journals'
p68
g2
(g6
S'8\xf7\xd8uz\xdc\xe5?'
p69
tp70
Rp71
tp72
a(S'pure mathematics'
p73
g2
(g6
S'M\xa46\x87\xe2\x93\xe5?'
p74
tp75
Rp76
tp77
a(S'areas of mathematics'
p78
g2
(g6
S'K\xd4\xf8\x18\x92\x0c\xe5?'
p79
tp80
Rp81
tp82
a(S'list of mathematics history topics'
p83
g2
(g6
S'\xb8\xc5q0[\xf7\xe4?'
p84
tp85
Rp86
tp87
a(S'classical mathematics'
p88
g2
(g6
S',=\x94\x04(\xe3\xe4?'
p89
tp90
Rp91
tp92
a(S'edward g. begle'
p93
g2
(g6
S'\xbb\xce\xde\xea\x9a\xd0\xe4?'
p94
tp95
Rp96
tp97
a(S'where mathematics comes from'
p98
g2
(g6
S'\x822\xf5\x04\xa9\xb4\xe4?'
p99
tp100
Rp101
tp102
a(S'mathematician'
p103
g2
(g6
S'\xadf\xb8\xb8T\xaf\xe4?'
p104
tp105
Rp106
tp107
a(S'mathematics (disambiguation)'
p108
g2
(g6
S'^\x86\xc5_~\x81\xe4?'
p109
tp110
Rp111
tp112
a(S'advisory committee on mathematics education'
p113
g2
(g6
S'\x9e\xc1\xd8\xe6\x16h\xe4?'
p114
tp115
Rp116
tp117
a(S'mathematical beauty'
p118
g2
(g6
S'\xd5\t\xd9\xbd\x95M\xe4?'
p119
tp120
Rp121
tp122
a(S'popular mathematics'
p123
g2
(g6
S'\xee\x18\xab\x8f\xe2/\xe4?'
p124
tp125
Rp126
tp127
a(S'philosophy of mathematics education'
p128
g2
(g6
S'9\x90=[L\x01\xe4?'
p129
tp130
Rp131
tp132
a(S'the princeton companion to mathematics'
p133
g2
(g6
S')\xef\xb4~z\xf7\xe3?'
p134
tp135
Rp136
tp137
a(S'engineering mathematics'
p138
g2
(g6
S'\xbeTi\xa0\xd0\xb2\xe3?'
p139
tp140
Rp141
tp142
a(S'school of mathematics, university of manchester'
p143
g2
(g6
S'\xdb"<J\xb1\xae\xe3?'
p144
tp145
Rp146
tp147
a(S'judith roitman'
p148
g2
(g6
S'1\x9f+O\x12O\xe3?'
p149
tp150
Rp151
tp152
a(S'definitions of mathematics'
p153
g2
(g6
S'\x12\x04\x89\x18\x1cC\xe3?'
p154
tp155
Rp156
tp157
a(S'lynn steen'
p158
g2
(g6
S'=\xe0\x1f\x16\xf31\xe3?'
p159
tp160
Rp161
tp162
a(S'mathematics magazine'
p163
g2
(g6
S'-9r|\x1d/\xe3?'
p164
tp165
Rp166
tp167
a(S'university of sydney school of mathematics and statistics'
p168
g2
(g6
S'\xd7-q.Y-\xe3?'
p169
tp170
Rp171
tp172
a(S'jo boaler'
p173
g2
(g6
S's \xc7\xd9\x17+\xe3?'
p174
tp175
Rp176
tp177
a(S'the mathematical experience'
p178
g2
(g6
S'qD>\xa6\xc9\x05\xe3?'
p179
tp180
Rp181
tp182
a(S'paul glaister'
p183
g2
(g6
S'KFg\x15\xe6\xed\xe2?'
p184
tp185
Rp186
tp187
a(S'informal mathematics'
p188
g2
(g6
S'\xeb\xeaD\xd1\xd7\xeb\xe2?'
p189
tp190
Rp191
tp192
a(S"a mathematician's apology"
p193
g2
(g6
S'%a\x7fJ\xf0\xe8\xe2?'
p194
tp195
Rp196
tp197
a(S'critical mathematics pedagogy'
p198
g2
(g6
S'\x89\xa9\xec\x1c\x15\xd2\xe2?'
p199
tp200
Rp201
tp202
a(S'mathematics education in australia'
p203
g2
(g6
S'?{V\x134\xc9\xe2?'
p204
tp205
Rp206
tp207
a(S'faculty of mathematical sciences, alzahra university'
p208
g2
(g6
S'\xd2P\xb3\xf8~\xa5\xe2?'
p209
tp210
Rp211
tp212
a(S'list of mathematics journals'
p213
g2
(g6
S'\x1f\xb8V\xaa\xf0\x9e\xe2?'
p214
tp215
Rp216
tp217
a(S'richard g. brown'
p218
g2
(g6
S'\xc8\xe4\xd9\x82R\x9e\xe2?'
p219
tp220
Rp221
tp222
a(S'core-plus mathematics project'
p223
g2
(g6
S'\xcd\xf0t\x92\xe2f\xe2?'
p224
tp225
Rp226
tp227
a(S'genetic method'
p228
g2
(g6
S'\xb9\xb6\x0f\xa7\xa6e\xe2?'
p229
tp230
Rp231
tp232
a(S'modern elementary mathematics'
p233
g2
(g6
S'\x82\t_\xf3\xb3E\xe2?'
p234
tp235
Rp236
tp237
a(S'recreational mathematics'
p238
g2
(g6
S'\xfc\x90\xb2\xc5\x1f<\xe2?'
p239
tp240
Rp241
tp242
a(S'luis davidson san juan'
p243
g2
(g6
S'\x15\x1f\x9c\x0b\x87/\xe2?'
p244
tp245
Rp246
tp247
a(S'glenda lappan'
p248
g2
(g6
S'\x02\xbe\xc4\r\x80.\xe2?'
p249
tp250
Rp251
tp252
a(S'kim plofker'
p253
g2
(g6
S't\xd9o\x7fU&\xe2?'
p254
tp255
Rp256
tp257
a(S'hse faculty of mathematics'
p258
g2
(g6
S'\x00V\xdf\xf8\xc9\x10\xe2?'
p259
tp260
Rp261
tp262
a(S'mathematics in education and industry'
p263
g2
(g6
S'\xc6\x91!\xb3\x92\n\xe2?'
p264
tp265
Rp266
tp267
a(S'international commission on mathematical instruction'
p268
g2
(g6
S'\xef\\\x03>\x90\x05\xe2?'
p269
tp270
Rp271
tp272
a(S'institute of mathematics'
p273
g2
(g6
S'\xe0\xabm{\x81\xf3\xe1?'
p274
tp275
Rp276
tp277
a(S'jackie stedall'
p278
g2
(g6
S'N\xccQ\x1c\xd4\xee\xe1?'
p279
tp280
Rp281
tp282
a(S'karen parshall'
p283
g2
(g6
S'\xcf\xce\xaa\xb02\xec\xe1?'
p284
tp285
Rp286
tp287
a(S'joint policy board for mathematics'
p288
g2
(g6
S'X\xd8\x83\x89\xa3\xeb\xe1?'
p289
tp290
Rp291
tp292
a(S'morris kline'
p293
g2
(g6
S'\xb3Z\x13x7\xeb\xe1?'
p294
tp295
Rp296
tp297
a(S'australian association of mathematics teachers'
p298
g2
(g6
S'\x8a\x83\xa9\x9f\xa1\xe6\xe1?'
p299
tp300
Rp301
tp302
a(S'experimental mathematics (journal)'
p303
g2
(g6
S'\xc3\xa7v\xa6]\xcf\xe1?'
p304
tp305
Rp306
tp307
a(S'miggy biller'
p308
g2
(g6
S'J8\xf1t\xf1\xc5\xe1?'
p309
tp310
Rp311
tp312
a(S'applicable mathematics'
p313
g2
(g6
S'{\xb0\x8aj\x97\xc2\xe1?'
p314
tp315
Rp316
tp317
a(S'mangala narlikar'
p318
g2
(g6
S'\xe2.W(%\xb6\xe1?'
p319
tp320
Rp321
tp322
a(S'conference board of the mathematical sciences'
p323
g2
(g6
S'\xe6\x82\xdb7,\xa0\xe1?'
p324
tp325
Rp326
tp327
a(S'fredholm'
p328
g2
(g6
S'y\x14d=\x01\xa0\xe1?'
p329
tp330
Rp331
tp332
a(S'david eugene smith'
p333
g2
(g6
S'9RU=C\x96\xe1?'
p334
tp335
Rp336
tp337
a(S'mathematical sciences publishers'
p338
g2
(g6
S"_+a'\x1f\x93\xe1?"
p339
tp340
Rp341
tp342
a(S'australian mathematical sciences institute'
p343
g2
(g6
S'\xbb\x17&r\x95\x90\xe1?'
p344
tp345
Rp346
tp347
a(S'n.i. lobachevsky institute of mathematics and mechanics'
p348
g2
(g6
S'\xf0.\x9bvd\x90\xe1?'
p349
tp350
Rp351
tp352
a(S'mathematics, form and function'
p353
g2
(g6
S'\x00p\xec\xb2|\x8e\xe1?'
p354
tp355
Rp356
tp357
a(S'introduction to mathematical philosophy'
p358
g2
(g6
S'0s>\xcd\xe8y\xe1?'
p359
tp360
Rp361
tp362
a(S'sylvester medal'
p363
g2
(g6
S'X\xa8\xec;\xa6l\xe1?'
p364
tp365
Rp366
tp367
a(S'steven strogatz'
p368
g2
(g6
S'\xdc\x91oT|k\xe1?'
p369
tp370
Rp371
tp372
a(S'gregory kriegsmann'
p373
g2
(g6
S'\xd5A\x03|{R\xe1?'
p374
tp375
Rp376
tp377
a(S'outline of discrete mathematics'
p378
g2
(g6
S'\xa9\xd8\xc5N\xfeK\xe1?'
p379
tp380
Rp381
tp382
a(S'paul ernest'
p383
g2
(g6
S'\x93$\xe6\x1f\xe9K\xe1?'
p384
tp385
Rp386
tp387
a(S'the mathematics educator'
p388
g2
(g6
S'c\x94S\x85\x16C\xe1?'
p389
tp390
Rp391
tp392
a(S'mathematical practice'
p393
g2
(g6
S'^\x02\xf7y|>\xe1?'
p394
tp395
Rp396
tp397
a(S'james tanton'
p398
g2
(g6
S'\x19\x80\xa9a2>\xe1?'
p399
tp400
Rp401
tp402
a(S'faculty of mathematics, university of cambridge'
p403
g2
(g6
S'y\xab\xa2\xc6\xa2\x16\xe1?'
p404
tp405
Rp406
tp407
a(S'quasi-empiricism in mathematics'
p408
g2
(g6
S'\xed\xfb\x88\xdb\x85\x14\xe1?'
p409
tp410
Rp411
tp412
a(S'british society for the history of mathematics'
p413
g2
(g6
S'\xee\xaf\t`/\x12\xe1?'
p414
tp415
Rp416
tp417
a(S'tony gardiner'
p418
g2
(g6
S'\x8a^\xb8\x0b\x06\t\xe1?'
p419
tp420
Rp421
tp422
a(S'additional mathematics'
p423
g2
(g6
S'Ec\xdb\xef"\x08\xe1?'
p424
tp425
Rp426
tp427
a(S'mathematics education in the united states'
p428
g2
(g6
S'\xb3\xf5\xf3\xf7!\x05\xe1?'
p429
tp430
Rp431
tp432
a(S'school mathematics study group'
p433
g2
(g6
S'&\xf6Qj\x1a\x03\xe1?'
p434
tp435
Rp436
tp437
a(S'jonathan borwein'
p438
g2
(g6
S'\xf9\xb5\x05\x1f\xc4\xe9\xe0?'
p439
tp440
Rp441
tp442
a(S'unifying theories in mathematics'
p443
g2
(g6
S'\x8bSSK\xae\xe5\xe0?'
p444
tp445
Rp446
tp447
a(S'leroy p. steele prize'
p448
g2
(g6
S'\xd9\xe8\xc6\x11\x0c\xe1\xe0?'
p449
tp450
Rp451
tp452
a(S'weinan e'
p453
g2
(g6
S'm\xac\xc4\x8ao\xe0\xe0?'
p454
tp455
Rp456
tp457
a(S'michiel hazewinkel'
p458
g2
(g6
S'\x13\x7f\xb2\xdcl\xdc\xe0?'
p459
tp460
Rp461
tp462
a(S'norman j. pullman'
p463
g2
(g6
S'rg/?\xe8\xd9\xe0?'
p464
tp465
Rp466
tp467
a(S'unreasonable ineffectiveness of mathematics'
p468
g2
(g6
S'9P\xdd\xaa*\xc8\xe0?'
p469
tp470
Rp471
tp472
a(S'israel kleiner (mathematician)'
p473
g2
(g6
S'LlL\xce\x19\xc7\xe0?'
p474
tp475
Rp476
tp477
a(S'lists of mathematics topics'
p478
g2
(g6
S'\x04\xd9\xd9K*\xc5\xe0?'
p479
tp480
Rp481
tp482
a(S'further mathematics'
p483
g2
(g6
S'Z\xee\xb4\xed.\xbe\xe0?'
p484
tp485
Rp486
tp487
a(S'bharath sriraman'
p488
g2
(g6
S'\x80S\x91\xa5\xb7\x8e\xe0?'
p489
tp490
Rp491
tp492
a(S'alice rogers'
p493
g2
(g6
S' _\xfcn\xd6\x8b\xe0?'
p494
tp495
Rp496
tp497
a(S'mathematical society of the philippines'
p498
g2
(g6
S'2\xb3\xc4\xb0\xed\x8a\xe0?'
p499
tp500
Rp501
tp502
a(S'august davidov'
p503
g2
(g6
S't,:\x06 w\xe0?'
p504
tp505
Rp506
tp507
a(S'mathematics education in the united kingdom'
p508
g2
(g6
S'\x19\xa7\xb7\x98Tr\xe0?'
p509
tp510
Rp511
tp512
a(S'institute of applied mathematics'
p513
g2
(g6
S'\x1c\xc0\xdf\x83\xe1l\xe0?'
p514
tp515
Rp516
tp517
a(S'experimental mathematics'
p518
g2
(g6
S'<\x9e\x81V\xfed\xe0?'
p519
tp520
Rp521
tp522
a(S'mara neusel'
p523
g2
(g6
S'\x12_ \xa8\xca[\xe0?'
p524
tp525
Rp526
tp527
a(S'chinese annals of mathematics, series b'
p528
g2
(g6
S'\xd7\xdd*\x11\x90Y\xe0?'
p529
tp530
Rp531
tp532
a(S'william g. mccallum'
p533
g2
(g6
S';\x94=\x8f-W\xe0?'
p534
tp535
Rp536
tp537
a(S'revolutions in mathematics'
p538
g2
(g6
S'\x8c\x83\xb8V\xfdT\xe0?'
p539
tp540
Rp541
tp542
a(S'paul halmos'
p543
g2
(g6
S'N%^\xc2\xa5R\xe0?'
p544
tp545
Rp546
tp547
a(S'british society for research into learning mathematics'
p548
g2
(g6
S'xD\x03T\xf9O\xe0?'
p549
tp550
Rp551
tp552
a(S'polish school of mathematics'
p553
g2
(g6
S'\x0b{d\xbc\xbdO\xe0?'
p554
tp555
Rp556
tp557
a(S'mactutor history of mathematics archive'
p558
g2
(g6
S'\xd4C\x16\x85\x13D\xe0?'
p559
tp560
Rp561
tp562
a(S'david tall'
p563
g2
(g6
S'\xa5\xf7\x94\x88fB\xe0?'
p564
tp565
Rp566
tp567
a(S'mathematical theory'
p568
g2
(g6
S'\xb4\\\xb0Y\x9a<\xe0?'
p569
tp570
Rp571
tp572
a(S'murray s. klamkin'
p573
g2
(g6
S's\n\x98\xbd\x93;\xe0?'
p574
tp575
Rp576
tp577
a(S'gonit sora'
p578
g2
(g6
S'\xb0F\xab\xd474\xe0?'
p579
tp580
Rp581
tp582
a(S'florian cajori'
p583
g2
(g6
S'\xb2\x93\xcc^/&\xe0?'
p584
tp585
Rp586
tp587
a(S'mathpath'
p588
g2
(g6
S'\x853\xf6Cx\x16\xe0?'
p589
tp590
Rp591
tp592
a(S'ingrid daubechies'
p593
g2
(g6
S'[\xfe.q3\x16\xe0?'
p594
tp595
Rp596
tp597
a(S'andrea bertozzi'
p598
g2
(g6
S'\x97\x03\xb2\xdf\xcb\r\xe0?'
p599
tp600
Rp601
tp602
a(S'hung cheng'
p603
g2
(g6
S'\xb4\x82\xc3-R\x04\xe0?'
p604
tp605
Rp606
tp607
a(S'greek mathematics'
p608
g2
(g6
S'1w\xb2\x10d\x02\xe0?'
p609
tp610
Rp611
tp612
a(S'ivor grattan-guinness'
p613
g2
(g6
S'\xb3\xd6\xa0 \x01\xdb\xdf?'
p614
tp615
Rp616
tp617
a(S'council for the mathematical sciences'
p618
g2
(g6
S'\xc3\xfd\xb1ky\xda\xdf?'
p619
tp620
Rp621
tp622
a(S'karine chemla'
p623
g2
(g6
S'\x8e\xaa\x1b\xa6f\xd9\xdf?'
p624
tp625
Rp626
tp627
a(S'the crest of the peacock: non-european roots of mathematics'
p628
g2
(g6
S'\xf8\xa8w\xc72\xc4\xdf?'
p629
tp630
Rp631
tp632
a(S'messenger of mathematics'
p633
g2
(g6
S'bU\x87<z\xc2\xdf?'
p634
tp635
Rp636
tp637
a(S'national council of teachers of mathematics'
p638
g2
(g6
S'\xf6 \xa3\xeel\xc2\xdf?'
p639
tp640
Rp641
tp642
a(S'reform mathematics'
p643
g2
(g6
S'Khy\x95\xf0\xbf\xdf?'
p644
tp645
Rp646
tp647
a(S'alan davies (mathematician)'
p648
g2
(g6
S'\xe1\xf1\x12\x1e\x98\xbd\xdf?'
p649
tp650
Rp651
tp652
a(S'glasgow mathematical journal'
p653
g2
(g6
S'\xd4.\xcf\x1e\r\xb5\xdf?'
p654
tp655
Rp656
tp657
a(S'jan hogendijk'
p658
g2
(g6
S'\xdf2\x82)\x89\xa9\xdf?'
p659
tp660
Rp661
tp662
a(S'mathematical logic'
p663
g2
(g6
S'=\xf7\xbe\xacN\xa9\xdf?'
p664
tp665
Rp666
tp667
a(S'national mathematics year'
p668
g2
(g6
S'|o\x15\xe6P\xa6\xdf?'
p669
tp670
Rp671
tp672
a(S'george p\xc3\xb3lya'
p673
g2
(g6
S'\x14k{\x85\xa1\xa1\xdf?'
p674
tp675
Rp676
tp677
a(S'nancy hingston'
p678
g2
(g6
S'\x1a\x93\xb39<\xa0\xdf?'
p679
tp680
Rp681
tp682
a(S'walter warwick sawyer'
p683
g2
(g6
S'\x8d\xd8\xdd\xee\xc7\x9e\xdf?'
p684
tp685
Rp686
tp687
a(S'richardson professor of applied mathematics'
p688
g2
(g6
S'6\xeb\xd7r\x8c\x93\xdf?'
p689
tp690
Rp691
tp692
a(S'australian mathematical society'
p693
g2
(g6
S'\xc5\x14\x89\xe9\xceo\xdf?'
p694
tp695
Rp696
tp697
a(S'list of women in mathematics'
p698
g2
(g6
S'\x94\nO\xd0!h\xdf?'
p699
tp700
Rp701
tp702
a(S'dikran tahta'
p703
g2
(g6
S'\xfd_ i"c\xdf?'
p704
tp705
Rp706
tp707
a(S'timeline of women in mathematics in the united states'
p708
g2
(g6
S'\x0f\r=7%`\xdf?'
p709
tp710
Rp711
tp712
a(S'cathy kessel'
p713
g2
(g6
S"\x1b\x8c\xeb'\x0fV\xdf?"
p714
tp715
Rp716
tp717
a(S'jill pipher'
p718
g2
(g6
S'\xd4\x13\xb6\xecJP\xdf?'
p719
tp720
Rp721
tp722
a(S'fundamenta mathematicae'
p723
g2
(g6
S'\xf7\xb5H\\\x1bO\xdf?'
p724
tp725
Rp726
tp727
a(S"ubirat\xc3\xa0n d'ambrosio"
p728
g2
(g6
S'\xa6\x1cS\x0c\xc4N\xdf?'
p729
tp730
Rp731
tp732
a(S'philosophy of mathematics education journal'
p733
g2
(g6
S'\xcf\x16/\x8e"N\xdf?'
p734
tp735
Rp736
tp737
a(S'international mathematics and design association'
p738
g2
(g6
S'\xe7\xa1\x90\xc8hH\xdf?'
p739
tp740
Rp741
tp742
a(S'msu faculty of mechanics and mathematics'
p743
g2
(g6
S'\x9ah\xf0e\xcdF\xdf?'
p744
tp745
Rp746
tp747
a(S'sava grozdev'
p748
g2
(g6
S'\x98\x02\x81\x8a\x89D\xdf?'
p749
tp750
Rp751
tp752
a(S'national centre for excellence in the teaching of mathematics'
p753
g2
(g6
S'\xe7&]\xcbq?\xdf?'
p754
tp755
Rp756
tp757
a(S'rachel kuske'
p758
g2
(g6
S'\xf76m\x90\t;\xdf?'
p759
tp760
Rp761
tp762
a(S't. christine stevens'
p763
g2
(g6
S'L\x9d\xc4\x03\x8f:\xdf?'
p764
tp765
Rp766
tp767
a(S'kathleen adebola okikiolu'
p768
g2
(g6
S'l\xde(\xae\xc78\xdf?'
p769
tp770
Rp771
tp772
a(S'anna zofia krygowska'
p773
g2
(g6
S'=v\xde\xe9\xc02\xdf?'
p774
tp775
Rp776
tp777
a(S'sybilla beckmann'
p778
g2
(g6
S'\xbc\xa3Z\xb9\x9c2\xdf?'
p779
tp780
Rp781
tp782
a(S'peter winkler'
p783
g2
(g6
S'3p\xdf6\xea*\xdf?'
p784
tp785
Rp786
tp787
a(S'gesellschaft f\xc3\xbcr didaktik der mathematik'
p788
g2
(g6
S'4\xc2\x0f\x06,(\xdf?'
p789
tp790
Rp791
tp792
a(S'carl b. allendoerfer'
p793
g2
(g6
S'V&\xcd\x14\x10#\xdf?'
p794
tp795
Rp796
tp797
a(S'taiwanese journal of mathematics'
p798
g2
(g6
S'\x9bQ(Cq \xdf?'
p799
tp800
Rp801
tp802
a(S'outline of science'
p803
g2
(g6
S'\xe0\xfe\xf4T\xc8\x1b\xdf?'
p804
tp805
Rp806
tp807
a(S'mathematical object'
p808
g2
(g6
S'T\xf4\x1a\xfaM\xf6\xde?'
p809
tp810
Rp811
tp812
a(S'mathematical folklore'
p813
g2
(g6
S'r9\xd8\xf7\xb4\xe8\xde?'
p814
tp815
Rp816
tp817
a(S'robin wilson (mathematician)'
p818
g2
(g6
S'\x9c\t\xc1\x0b\xbd\xe0\xde?'
p819
tp820
Rp821
tp822
a(S'history of mathematical notation'
p823
g2
(g6
S'\x7f\xc4\xa0\xc0\xa8\xd8\xde?'
p824
tp825
Rp826
tp827
a(S'abigail thompson'
p828
g2
(g6
S'\xb8\xde\xfe\xd2\x15\xd1\xde?'
p829
tp830
Rp831
tp832
a(S'ars mathematica contemporanea'
p833
g2
(g6
S'\xe2\x9dw\x87\x8f\xc9\xde?'
p834
tp835
Rp836
tp837
a(S'center for women in mathematics'
p838
g2
(g6
S'S3b\x054\xc4\xde?'
p839
tp840
Rp841
tp842
a(S'griffith baley price'
p843
g2
(g6
S'\x19z\x10i\xda\xbb\xde?'
p844
tp845
Rp846
tp847
a(S'computers and mathematics with applications'
p848
g2
(g6
S'\x9f`\xc7`q\xb8\xde?'
p849
tp850
Rp851
tp852
a(S'peng yee lee'
p853
g2
(g6
S'\xa5=W\xd1d\xb2\xde?'
p854
tp855
Rp856
tp857
a(S'mathematical problem'
p858
g2
(g6
S'\xb9Y8\x9a\xc2\xaf\xde?'
p859
tp860
Rp861
tp862
a(S'deborah loewenberg ball'
p863
g2
(g6
S'w\xa4\xad\xd5\xf4\xa8\xde?'
p864
tp865
Rp866
tp867
a(S'steve awodey'
p868
g2
(g6
S'\xc8\xf0\xa66\x9c\xa8\xde?'
p869
tp870
Rp871
tp872
a(S'jeremy avigad'
p873
g2
(g6
S'N.\xbd\x97\xd5\xa5\xde?'
p874
tp875
Rp876
tp877
a(S'vladimir dragovi\xc4\x87'
p878
g2
(g6
S'G\xdc\x9a\xa2\x87\xa4\xde?'
p879
tp880
Rp881
tp882
a(S'sheldon axler'
p883
g2
(g6
S'\x9b|\xe5\x04\x08\x9a\xde?'
p884
tp885
Rp886
tp887
a(S"king's college london mathematics school"
p888
g2
(g6
S'\xc4\xe2[\x81\xa1\x97\xde?'
p889
tp890
Rp891
tp892
a(S'mit mathematics department'
p893
g2
(g6
S'\xf8\xda2\xd6\x13\x94\xde?'
p894
tp895
Rp896
tp897
a(S'p\xc3\xa9ter kiss (mathematician)'
p898
g2
(g6
S'\xfa\xa5UIm\x8e\xde?'
p899
tp900
Rp901
tp902
a(S'canadian mathematical society'
p903
g2
(g6
S'\x9d}c\xa2C\x8e\xde?'
p904
tp905
Rp906
tp907
a(S'richard johnsonbaugh'
p908
g2
(g6
S'\xbd\xcf\xd8\xdeF}\xde?'
p909
tp910
Rp911
tp912
a(S'khanindra chandra chowdhury'
p913
g2
(g6
S'\xf3\xf7W\xe6\xabv\xde?'
p914
tp915
Rp916
tp917
a(S'rethinking mathematics'
p918
g2
(g6
S'.\xa0a;\xcaq\xde?'
p919
tp920
Rp921
tp922
a(S'making mathematics count'
p923
g2
(g6
S'\xe7\xb1\x04Snm\xde?'
p924
tp925
Rp926
tp927
a(S'vladimir rokhlin, jr.'
p928
g2
(g6
S'6\x16HO\xdc_\xde?'
p929
tp930
Rp931
tp932
a(S'garden of archimedes'
p933
g2
(g6
S'\x87\xb5\xbbY\x8e\\\xde?'
p934
tp935
Rp936
tp937
a(S'pavel gevorgyan'
p938
g2
(g6
S'2\xdf\xfa\xcf\x9fL\xde?'
p939
tp940
Rp941
tp942
a(S'jeremy gray'
p943
g2
(g6
S'_"q\xdbpH\xde?'
p944
tp945
Rp946
tp947
a(S'lucasian professor of mathematics'
p948
g2
(g6
S's\xbc\xce\xe9\xd69\xde?'
p949
tp950
Rp951
tp952
a(S'intuitionism'
p953
g2
(g6
S'P`f\xeb[7\xde?'
p954
tp955
Rp956
tp957
a(S'alice t. schafer'
p958
g2
(g6
S'sd\x18t%/\xde?'
p959
tp960
Rp961
tp962
a(S'lee albert rubel'
p963
g2
(g6
S'\xf4s\xad\xd9^)\xde?'
p964
tp965
Rp966
tp967
a(S'ultrafinitism'
p968
g2
(g6
S'^H\xab\xaf\x01!\xde?'
p969
tp970
Rp971
tp972
a(S'frank j. ayres'
p973
g2
(g6
S'\x1d\xe3\xd3\x10e\x1b\xde?'
p974
tp975
Rp976
tp977
a(S'bhaskaracharya pratishthana'
p978
g2
(g6
S'\xaa\xb1F.\xd2\x17\xde?'
p979
tp980
Rp981
tp982
a(S'chartered mathematician'
p983
g2
(g6
S'k\x8c\xec\x80X\x17\xde?'
p984
tp985
Rp986
tp987
a(S'chinese mathematics'
p988
g2
(g6
S'\rI\x10A\x81\x15\xde?'
p989
tp990
Rp991
tp992
a(S'kenneth i. gross'
p993
g2
(g6
S'5N\x94w\x99\x0b\xde?'
p994
tp995
Rp996
tp997
a(S'celia hoyles'
p998
g2
(g6
S'C`!V\xe5\x06\xde?'
p999
tp1000
Rp1001
tp1002
a(S'prasad v. tetali'
p1003
g2
(g6
S'\xf2\x86\xa0O\xe2\x04\xde?'
p1004
tp1005
Rp1006
tp1007
a(S'ami radunskaya'
p1008
g2
(g6
S'\xfb\xb4.(m\x00\xde?'
p1009
tp1010
Rp1011
tp1012
a(S'edward burger'
p1013
g2
(g6
S'\xd9\xa98\xb6\xc2\xfa\xdd?'
p1014
tp1015
Rp1016
tp1017
a(S'dorothy lewis bernstein'
p1018
g2
(g6
S'\x8e\xf7\xa3\x84\x7f\xf6\xdd?'
p1019
tp1020
Rp1021
tp1022
a(S'marang centre for mathematics and science education'
p1023
g2
(g6
S"\xfc\xe1\xfc\xf8'\xf0\xdd?"
p1024
tp1025
Rp1026
tp1027
a(S'arieh iserles'
p1028
g2
(g6
S'5vc\x07f\xdb\xdd?'
p1029
tp1030
Rp1031
tp1032
a(S'the mathematics of life'
p1033
g2
(g6
S'\x9e-\xec\xda\x12\xdb\xdd?'
p1034
tp1035
Rp1036
tp1037
a(S'timothy kanold'
p1038
g2
(g6
S'\x13\x99ct\x86\xd8\xdd?'
p1039
tp1040
Rp1041
tp1042
a(S'institute of mathematics and its applications'
p1043
g2
(g6
S'B\xb5\x1c\xb9\x99\xd6\xdd?'
p1044
tp1045
Rp1046
tp1047
a(S'rhonda hughes'
p1048
g2
(g6
S'\xe6\x0fen\x0c\xd1\xdd?'
p1049
tp1050
Rp1051
tp1052
a(S'barbara keyfitz'
p1053
g2
(g6
S'h\x04F\x86g\xcb\xdd?'
p1054
tp1055
Rp1056
tp1057
a(S'deborah hughes hallett'
p1058
g2
(g6
S'\x05\x114\xee\xe0\xbc\xdd?'
p1059
tp1060
Rp1061
tp1062
a(S'thomas a. romberg'
p1063
g2
(g6
S'B\xe0KjZ\xbc\xdd?'
p1064
tp1065
Rp1066
tp1067
a(S'metamathematics'
p1068
g2
(g6
S'_\xf5pYE\xbc\xdd?'
p1069
tp1070
Rp1071
tp1072
a(S'discrete applied mathematics'
p1073
g2
(g6
S'-}\x12[\x9f\xbb\xdd?'
p1074
tp1075
Rp1076
tp1077
a(S'university of toronto department of mathematics'
p1078
g2
(g6
S'{Z"]T\xb9\xdd?'
p1079
tp1080
Rp1081
tp1082
a(S'computational mathematics'
p1083
g2
(g6
S'\xb9S\xdeP8\xb3\xdd?'
p1084
tp1085
Rp1086
tp1087
a(S'ioana dumitriu'
p1088
g2
(g6
S'\xc2\xa1\xb0Hw\xa9\xdd?'
p1089
tp1090
Rp1091
tp1092
a(S'orders of magnitude (numbers)'
p1093
g2
(g6
S'3\xd6\x9b\xda\xa7\xa6\xdd?'
p1094
tp1095
Rp1096
tp1097
a(S'formalism (philosophy of mathematics)'
p1098
g2
(g6
S'Q\xec\xfd4\xf5\x8e\xdd?'
p1099
tp1100
Rp1101
tp1102
a(S'rocky mountain journal of mathematics'
p1103
g2
(g6
S'i\x0c\xf1f\xe2\x8e\xdd?'
p1104
tp1105
Rp1106
tp1107
a(S'mary p. dolciani'
p1108
g2
(g6
S'\x97o\x0feFv\xdd?'
p1109
tp1110
Rp1111
tp1112
a(S'izvestiya: mathematics'
p1113
g2
(g6
S'\rj\x9bfTk\xdd?'
p1114
tp1115
Rp1116
tp1117
a(S'mathematical knowledge management'
p1118
g2
(g6
S'l\xff\xb4\xcf\xddj\xdd?'
p1119
tp1120
Rp1121
tp1122
a(S'dominique de caen'
p1123
g2
(g6
S'\xad\xe6\xb0\xe7\x97h\xdd?'
p1124
tp1125
Rp1126
tp1127
a(S'james franklin (philosopher)'
p1128
g2
(g6
S'\x83\x03\x96\x93\x8dd\xdd?'
p1129
tp1130
Rp1131
tp1132
a(S'lee stiff'
p1133
g2
(g6
S'\xff\x89\x8e\x0c\x01Z\xdd?'
p1134
tp1135
Rp1136
tp1137
a(S'fern hunt'
p1138
g2
(g6
S'\xe2\xb2\x95\x80\xd2X\xdd?'
p1139
tp1140
Rp1141
tp1142
a(S'john allen paulos'
p1143
g2
(g6
S'\x0f\xd3\xfb\xda\xc8T\xdd?'
p1144
tp1145
Rp1146
tp1147
a(S'list of important publications in mathematics'
p1148
g2
(g6
S'#\x92\xe1\xfa\xaaS\xdd?'
p1149
tp1150
Rp1151
tp1152
a(S'secondary school mathematics curriculum improvement study'
p1153
g2
(g6
S'\x94f\xd3\xcc\xa2R\xdd?'
p1154
tp1155
Rp1156
tp1157
a(S'communications on pure and applied mathematics'
p1158
g2
(g6
S'\x94\x80\xf1?\x02O\xdd?'
p1159
tp1160
Rp1161
tp1162
a(S'moon duchin'
p1163
g2
(g6
S'\xee\x85\x9e\xfd\xb6I\xdd?'
p1164
tp1165
Rp1166
tp1167
a(S'amy cohen-corwin'
p1168
g2
(g6
S'\x18l\xd8\x02\x82H\xdd?'
p1169
tp1170
Rp1171
tp1172
a(S'traditional mathematics'
p1173
g2
(g6
S'\x15\x8e}N\x8d,\xdd?'
p1174
tp1175
Rp1176
tp1177
a(S'finitism'
p1178
g2
(g6
S"\xd5\x0b\xfe\xd6s'\xdd?"
p1179
tp1180
Rp1181
tp1182
a(S'lisa fauci'
p1183
g2
(g6
S'p\x9e\xb9\x15a\x1c\xdd?'
p1184
tp1185
Rp1186
tp1187
a(S'nyc hold'
p1188
g2
(g6
S'N"\x92\xe6i\x18\xdd?'
p1189
tp1190
Rp1191
tp1192
a(S'mathematical sciences research institute'
p1193
g2
(g6
S'\xa8~\xd4\xd1V\x18\xdd?'
p1194
tp1195
Rp1196
tp1197
a(S'university of waterloo faculty of mathematics'
p1198
g2
(g6
S'\x1e\xdf\xfa\x8a\xfd\x10\xdd?'
p1199
tp1200
Rp1201
tp1202
a(S'hyman bass'
p1203
g2
(g6
S'\xc1Ni\x0f\x8c\x0f\xdd?'
p1204
tp1205
Rp1206
tp1207
a(S'the mathematical gazette'
p1208
g2
(g6
S'\xce\x95\x0c\x8d\x9d\x0b\xdd?'
p1209
tp1210
Rp1211
tp1212
a(S'floyd williams'
p1213
g2
(g6
S'\\\x85@6\xdf\x04\xdd?'
p1214
tp1215
Rp1216
tp1217
a(S'szeged faculty of sciences'
p1218
g2
(g6
S'\x98\x88\xfc\xb0\xce\x03\xdd?'
p1219
tp1220
Rp1221
tp1222
a(S'david corfield'
p1223
g2
(g6
S'\xa1\x8a\xbc\xc7\t\xfa\xdc?'
p1224
tp1225
Rp1226
tp1227
a(S'stephen cole kleene'
p1228
g2
(g6
S'QC\x069S\xdf\xdc?'
p1229
tp1230
Rp1231
tp1232
a(S'reuben goodstein'
p1233
g2
(g6
S'\x8b\xb2\xf3\xc9\xa5\xce\xdc?'
p1234
tp1235
Rp1236
tp1237
a(S'joseph ehrenfried hofmann'
p1238
g2
(g6
S'\x8a.\x1f\xe2\\\xcc\xdc?'
p1239
tp1240
Rp1241
tp1242
a(S'national board for higher mathematics'
p1243
g2
(g6
S'\x01\xca\x07\xa0k\xc8\xdc?'
p1244
tp1245
Rp1246
tp1247
a(S'national institute for science and mathematics education development'
p1248
g2
(g6
S'\xbe\xd3Z\xec\x8c\xc6\xdc?'
p1249
tp1250
Rp1251
tp1252
a(S'zalman usiskin'
p1253
g2
(g6
S'\xdc\xd9\xbd\xb8\xfe\xc4\xdc?'
p1254
tp1255
Rp1256
tp1257
a(S'gerald b. whitham'
p1258
g2
(g6
S'\\\xbc8\xc1z\xc1\xdc?'
p1259
tp1260
Rp1261
tp1262
a(S'canadian society for history and philosophy of mathematics'
p1263
g2
(g6
S'\xa0\xaa\x81d\xed\xbe\xdc?'
p1264
tp1265
Rp1266
tp1267
a(S'mathematical universe hypothesis'
p1268
g2
(g6
S'/\xc3V?\xb6\xb9\xdc?'
p1269
tp1270
Rp1271
tp1272
a(S'mathematical sciences foundation'
p1273
g2
(g6
S'd7\xc6wh\xb3\xdc?'
p1274
tp1275
Rp1276
tp1277
a(S'pavel etingof'
p1278
g2
(g6
S'\x05\x0c\x0bG&\xb3\xdc?'
p1279
tp1280
Rp1281
tp1282
a(S'andrew majda'
p1283
g2
(g6
S'f\x87\t\xe8\x88\x95\xdc?'
p1284
tp1285
Rp1286
tp1287
a(S'ppgmap'
p1288
g2
(g6
S'\x92\xaf\xf3\xd0\x9c\x8e\xdc?'
p1289
tp1290
Rp1291
tp1292
a(S'romanian master of mathematics and sciences'
p1293
g2
(g6
S'\x93E\x06^F\x8d\xdc?'
p1294
tp1295
Rp1296
tp1297
a(S'concrete mathematics'
p1298
g2
(g6
S'\x18c\x013\xf3\x87\xdc?'
p1299
tp1300
Rp1301
tp1302
a(S'institute of mathematics and informatics (bulgarian academy of sciences)'
p1303
g2
(g6
S'~S\n\x04_\x85\xdc?'
p1304
tp1305
Rp1306
tp1307
a(S'sediq afghan'
p1308
g2
(g6
S'\xa9\xceKw\x89v\xdc?'
p1309
tp1310
Rp1311
tp1312
a(S't. thrivikraman'
p1313
g2
(g6
S'\xfc\xaf\x04\xe1\xaat\xdc?'
p1314
tp1315
Rp1316
tp1317
a(S'mathematical challenges'
p1318
g2
(g6
S'$\xa3\x9c\x93fn\xdc?'
p1319
tp1320
Rp1321
tp1322
a(S'association for women in mathematics'
p1323
g2
(g6
S'Q\xa4\xcb\xee-e\xdc?'
p1324
tp1325
Rp1326
tp1327
a(S'nathalie sinclair'
p1328
g2
(g6
S'@\xe2\xe3\xd0<c\xdc?'
p1329
tp1330
Rp1331
tp1332
a(S'michael shelley (mathematician)'
p1333
g2
(g6
S'C!%\xe7Db\xdc?'
p1334
tp1335
Rp1336
tp1337
a(S'sergey yablonsky'
p1338
g2
(g6
S'\x16\xbbe\x06\xcba\xdc?'
p1339
tp1340
Rp1341
tp1342
a(S'graham hilford pollard'
p1343
g2
(g6
S'\xfc\xfd^:\x01a\xdc?'
p1344
tp1345
Rp1346
tp1347
a(S'joyce mclaughlin'
p1348
g2
(g6
S'\x8c\xc2\xdd\x12\xd8`\xdc?'
p1349
tp1350
Rp1351
tp1352
a(S'siberian mathematical journal'
p1353
g2
(g6
S'\xd3@\xe169]\xdc?'
p1354
tp1355
Rp1356
tp1357
a(S'ivars peterson'
p1358
g2
(g6
S'\xb5\x12\x18R:N\xdc?'
p1359
tp1360
Rp1361
tp1362
a(S'marjorie lee browne'
p1363
g2
(g6
S'm\xc0\xf8\x13dL\xdc?'
p1364
tp1365
Rp1366
tp1367
a(S'henry o. pollak'
p1368
g2
(g6
S'\xdc -WC@\xdc?'
p1369
tp1370
Rp1371
tp1372
a(S'joan hutchinson'
p1373
g2
(g6
S'G\x19\xf0\x92v<\xdc?'
p1374
tp1375
Rp1376
tp1377
a(S'applied mathematics panel'
p1378
g2
(g6
S'Rb\xa6\n\xc89\xdc?'
p1379
tp1380
Rp1381
tp1382
a(S'p. k. srinivasan'
p1383
g2
(g6
S'\xe2\x18\x83\xf1>6\xdc?'
p1384
tp1385
Rp1386
tp1387
a(S'david emmanuel (mathematician)'
p1388
g2
(g6
S"O\x1d\xf9\xb1'5\xdc?"
p1389
tp1390
Rp1391
tp1392
a(S'e. sampathkumar'
p1393
g2
(g6
S'f\xc0\x8d\xefi4\xdc?'
p1394
tp1395
Rp1396
tp1397
a(S'international council for industrial and applied mathematics'
p1398
g2
(g6
S'\xce\x90H\xcf\x1e/\xdc?'
p1399
tp1400
Rp1401
tp1402
a(S'national consortium for specialized secondary schools of mathematics, science and technology'
p1403
g2
(g6
S'"\x81\x88\xbb\x1d-\xdc?'
p1404
tp1405
Rp1406
tp1407
a(S'institute of mathematics and applications, bhubaneswar'
p1408
g2
(g6
S'E\x05E\x0eF(\xdc?'
p1409
tp1410
Rp1411
tp1412
a(S'mathematics subject classification'
p1413
g2
(g6
S'\x88\xb1[\xb8\xc8!\xdc?'
p1414
tp1415
Rp1416
tp1417
a(S'discrete mathematics'
p1418
g2
(g6
S'\xac\xe6\xa8D\n \xdc?'
p1419
tp1420
Rp1421
tp1422
a(S'thaleia zariphopoulou'
p1423
g2
(g6
S'N\x1f\r\x83\xb7\x1b\xdc?'
p1424
tp1425
Rp1426
tp1427
a(S'russel e. caflisch'
p1428
g2
(g6
S'?\x020Y\xb6\x19\xdc?'
p1429
tp1430
Rp1431
tp1432
a(S'william thomas fletcher'
p1433
g2
(g6
S'\\\x17.-:\x12\xdc?'
p1434
tp1435
Rp1436
tp1437
a(S'joseph madachy'
p1438
g2
(g6
S'\x8c\xe0\xb9aD\n\xdc?'
p1439
tp1440
Rp1441
tp1442
a(S'christoph scriba'
p1443
g2
(g6
S'\x85)\xbeN\x83\x07\xdc?'
p1444
tp1445
Rp1446
tp1447
a(S'henry louis rietz'
p1448
g2
(g6
S'\xd2\x1bS\x06i\xfe\xdb?'
p1449
tp1450
Rp1451
tp1452
a(S'alexey stakhov'
p1453
g2
(g6
S'M\x1b\xaa\x01;\xfe\xdb?'
p1454
tp1455
Rp1456
tp1457
a(S'amy ellis'
p1458
g2
(g6
S'7\xd9W\x15\xc8\xf5\xdb?'
p1459
tp1460
Rp1461
tp1462
a(S'david crighton'
p1463
g2
(g6
S'\xf8\xe6\x89z(\xeb\xdb?'
p1464
tp1465
Rp1466
tp1467
a(S'kazimierz kuratowski'
p1468
g2
(g6
S'%\xc5\xb7\xd3\xec\xe8\xdb?'
p1469
tp1470
Rp1471
tp1472
a(S'marty golubitsky'
p1473
g2
(g6
S'\xadY\x8bBU\xe1\xdb?'
p1474
tp1475
Rp1476
tp1477
a(S'seema nanda'
p1478
g2
(g6
S' \xe8\xf2p\xbb\xdf\xdb?'
p1479
tp1480
Rp1481
tp1482
a(S'bozenna pasik-duncan'
p1483
g2
(g6
S'\\\\J\xcda\xd9\xdb?'
p1484
tp1485
Rp1486
tp1487
a(S'raymond clare archibald'
p1488
g2
(g6
S'\x18\xa8A\x01e\xd8\xdb?'
p1489
tp1490
Rp1491
tp1492
a(S'business mathematics'
p1493
g2
(g6
S'4\x10\xa8\x85}\xd5\xdb?'
p1494
tp1495
Rp1496
tp1497
a(S'peter hilton'
p1498
g2
(g6
S'\x97\xfaL<\n\xb9\xdb?'
p1499
tp1500
Rp1501
tp1502
a(S'robert osserman'
p1503
g2
(g6
S'\xfe4\xde\x1f\xcc\xb8\xdb?'
p1504
tp1505
Rp1506
tp1507
a(S'sanford l. segal'
p1508
g2
(g6
S'2\xde\xe3\xe0\xad\xb8\xdb?'
p1509
tp1510
Rp1511
tp1512
a.