(lp0
(S'mathematical logic'
p1
cnumpy.core.multiarray
scalar
p2
(cnumpy
dtype
p3
(S'f8'
p4
I0
I1
tp5
Rp6
(I3
S'<'
p7
NNNI-1
I-1
I0
tp8
bS'\x03\x00\x00\x00\x00\x00\xf0?'
p9
tp10
Rp11
tp12
a(S'foundations of mathematics'
p13
g2
(g6
S'\x00\xef;_ex\xe6?'
p14
tp15
Rp16
tp17
a(S'metamathematics'
p18
g2
(g6
S'=\x816\xf3\xab\xe8\xe5?'
p19
tp20
Rp21
tp22
a(S'list of mathematical logic topics'
p23
g2
(g6
S'\xde\x81|\x05/\xcb\xe5?'
p24
tp25
Rp26
tp27
a(S'proof theory'
p28
g2
(g6
S'\xa5\xba\x16\x05\xe0\xba\xe5?'
p29
tp30
Rp31
tp32
a(S'history of logic'
p33
g2
(g6
S'br3\x13\rE\xe5?'
p34
tp35
Rp36
tp37
a(S'outline of logic'
p38
g2
(g6
S'\xd5\x8dQ\xf1]}\xe4?'
p39
tp40
Rp41
tp42
a(S'logic'
p43
g2
(g6
S'H\xe3\xbbxbS\xe4?'
p44
tp45
Rp46
tp47
a(S'thoralf skolem'
p48
g2
(g6
S'\xef0R\xb8\xba\xf4\xe3?'
p49
tp50
Rp51
tp52
a(S'george boolos'
p53
g2
(g6
S'\x12\xb0A6\xe2\xe9\xe3?'
p54
tp55
Rp56
tp57
a(S'consistency'
p58
g2
(g6
S'x\x93N\x9c\xf6\xdf\xe3?'
p59
tp60
Rp61
tp62
a(S'set theory'
p63
g2
(g6
S'\xc2uF\x13\x87\xfd\xe2?'
p64
tp65
Rp66
tp67
a(S'intuitionistic logic'
p68
g2
(g6
S'r\xb7\xd8\xb2g\xb9\xe2?'
p69
tp70
Rp71
tp72
a(S'second-order logic'
p73
g2
(g6
S'\xac\x02\x8b\xbc\xe5\xb5\xe2?'
p74
tp75
Rp76
tp77
a(S'first-order logic'
p78
g2
(g6
S'\xffv\x0b\xb1\xd9\xad\xe2?'
p79
tp80
Rp81
tp82
a(S'model theory'
p83
g2
(g6
S'%\x0c\x95A\xed\x98\xe2?'
p84
tp85
Rp86
tp87
a(S'infinitary logic'
p88
g2
(g6
S'\xeaD\xb7\x1e\xbf\x83\xe2?'
p89
tp90
Rp91
tp92
a(S'intuitionism'
p93
g2
(g6
S'4\x8bd\xe9\xfc\x1c\xe2?'
p94
tp95
Rp96
tp97
a(S'logic in computer science'
p98
g2
(g6
S'\x15Q\xe6\x06D\x1a\xe2?'
p99
tp100
Rp101
tp102
a(S'john lane bell'
p103
g2
(g6
S'\xbc3\xa7s~\xf7\xe1?'
p104
tp105
Rp106
tp107
a(S'index of logic articles'
p108
g2
(g6
S'\x88\xe2T\x8e\xa6\xea\xe1?'
p109
tp110
Rp111
tp112
a(S"hilbert's program"
p113
g2
(g6
S'\x06\x8f\xa0!+\xb6\xe1?'
p114
tp115
Rp116
tp117
a(S'melvin fitting'
p118
g2
(g6
S'\xe5\x94E5E\xad\xe1?'
p119
tp120
Rp121
tp122
a(S'provability logic'
p123
g2
(g6
S'h\xb3h\x82\xcc\x8c\xe1?'
p124
tp125
Rp126
tp127
a(S'higher-order logic'
p128
g2
(g6
S'Pk\x08\n>\x84\xe1?'
p129
tp130
Rp131
tp132
a(S'giorgi japaridze'
p133
g2
(g6
S'\x8e$\x12\n\xab}\xe1?'
p134
tp135
Rp136
tp137
a(S'dimiter skordev'
p138
g2
(g6
S'\x19Ma\xde8m\xe1?'
p139
tp140
Rp141
tp142
a(S'paraconsistent logic'
p143
g2
(g6
S'\x935qoHb\xe1?'
p144
tp145
Rp146
tp147
a(S'timeline of mathematical logic'
p148
g2
(g6
S'\xc9Y\x13ig!\xe1?'
p149
tp150
Rp151
tp152
a(S'complete theory'
p153
g2
(g6
S'7\x8bq\x11\xdf\x00\xe1?'
p154
tp155
Rp156
tp157
a(S'list of first-order theories'
p158
g2
(g6
S'\xaa\x84\xea\xa8\x01\xb3\xe0?'
p159
tp160
Rp161
tp162
a(S'joseph r. shoenfield'
p163
g2
(g6
S'\xa3\xf6\xc7\x87\xfc\x92\xe0?'
p164
tp165
Rp166
tp167
a(S'classical logic'
p168
g2
(g6
S'\xe4\\:\xfa\xf7c\xe0?'
p169
tp170
Rp171
tp172
a(S'decidability'
p173
g2
(g6
S'\xd8He\xda\x08K\xe0?'
p174
tp175
Rp176
tp177
a(S'theory (mathematical logic)'
p178
g2
(g6
S'S\x81\x85\x87OH\xe0?'
p179
tp180
Rp181
tp182
a(S'richard zach'
p183
g2
(g6
S'|@\x9cP\x9dC\xe0?'
p184
tp185
Rp186
tp187
a(S'introduction to mathematical philosophy'
p188
g2
(g6
S'\xd3\x905\xd6\x87C\xe0?'
p189
tp190
Rp191
tp192
a(S'axiom'
p193
g2
(g6
S'\xa69\x81?\xcf<\xe0?'
p194
tp195
Rp196
tp197
a(S'double-negation translation'
p198
g2
(g6
S'w\xd1}A\xc1)\xe0?'
p199
tp200
Rp201
tp202
a(S"hilbert's second problem"
p203
g2
(g6
S'2\xb6\xa9\x1e\xf5\x1a\xe0?'
p204
tp205
Rp206
tp207
a(S"skolem's paradox"
p208
g2
(g6
S't\x91g\x04\x81\xfc\xdf?'
p209
tp210
Rp211
tp212
a(S'non-classical logic'
p213
g2
(g6
S'\xb3\xa8\xfc\x83\x08\xfb\xdf?'
p214
tp215
Rp216
tp217
a(S'game semantics'
p218
g2
(g6
S'\x92\xaad\x90K\xef\xdf?'
p219
tp220
Rp221
tp222
a(S"g\xc3\xb6del's incompleteness theorems"
p223
g2
(g6
S'\xeb\xf8\x8d\xffi\xe4\xdf?'
p224
tp225
Rp226
tp227
a(S'philosophy of logic'
p228
g2
(g6
S'\xe8\xd0i\xef+\xc2\xdf?'
p229
tp230
Rp231
tp232
a(S'mathematics'
p233
g2
(g6
S'=\xf7\xbe\xacN\xa9\xdf?'
p234
tp235
Rp236
tp237
a(S'robinson arithmetic'
p238
g2
(g6
S'0\xc5\x8a\xcd\xad\xa5\xdf?'
p239
tp240
Rp241
tp242
a(S'cointerpretability'
p243
g2
(g6
S'\x0b\xf7\xf1\xe38~\xdf?'
p244
tp245
Rp246
tp247
a(S'computability logic'
p248
g2
(g6
S',\x84\xcc\x8dA{\xdf?'
p249
tp250
Rp251
tp252
a(S'class logic'
p253
g2
(g6
S'\xa6d"B\xe0b\xdf?'
p254
tp255
Rp256
tp257
a(S'johan van benthem (logician)'
p258
g2
(g6
S'?Bu\x12\x98;\xdf?'
p259
tp260
Rp261
tp262
a(S'intermediate logic'
p263
g2
(g6
S'x\x07\xd7i\xd67\xdf?'
p264
tp265
Rp266
tp267
a(S'philosophy of mathematics'
p268
g2
(g6
S"I\x89\xd6~\xa2'\xdf?"
p269
tp270
Rp271
tp272
a(S'logic (disambiguation)'
p273
g2
(g6
S'\xcb\xda\x08\x15 \x10\xdf?'
p274
tp275
Rp276
tp277
a(S'ernst zermelo'
p278
g2
(g6
S'B170X\xff\xde?'
p279
tp280
Rp281
tp282
a(S'elementary theory'
p283
g2
(g6
S'B\x9d\xd6\x9e\xac\xed\xde?'
p284
tp285
Rp286
tp287
a(S'jon barwise'
p288
g2
(g6
S'\xa8\xa7\xd5\x9a:\xe6\xde?'
p289
tp290
Rp291
tp292
a(S'hybrid logic'
p293
g2
(g6
S'g\x89a\x87\xb0\xb7\xde?'
p294
tp295
Rp296
tp297
a(S"g\xc3\xb6del's completeness theorem"
p298
g2
(g6
S'\\\xf4\x12G\xb4\x9d\xde?'
p299
tp300
Rp301
tp302
a(S'areas of mathematics'
p303
g2
(g6
S'\xa9"\xcd\x8cq\x81\xde?'
p304
tp305
Rp306
tp307
a(S'dynamic logic (modal logic)'
p308
g2
(g6
S'\x949h\x19Ps\xde?'
p309
tp310
Rp311
tp312
a(S'metatheorem'
p313
g2
(g6
S'~\xca,\x97c_\xde?'
p314
tp315
Rp316
tp317
a(S'automated theorem proving'
p318
g2
(g6
S'\xf3%\xdb\x8f\xfe]\xde?'
p319
tp320
Rp321
tp322
a(S'l\xc3\xb6wenheim number'
p323
g2
(g6
S'~.$\xad\x1aT\xde?'
p324
tp325
Rp326
tp327
a(S'stephen cole kleene'
p328
g2
(g6
S'cX\xd4s\xe2\x15\xde?'
p329
tp330
Rp331
tp332
a(S'logics for computability'
p333
g2
(g6
S'y\xc8\x95\x8e&\x15\xde?'
p334
tp335
Rp336
tp337
a(S'list of important publications in mathematics'
p338
g2
(g6
S'\x9dT\xff<}\x01\xde?'
p339
tp340
Rp341
tp342
a(S'metalogic'
p343
g2
(g6
S'8\x01\xcaY\xce\xfe\xdd?'
p344
tp345
Rp346
tp347
a(S'many-valued logic'
p348
g2
(g6
S'\x93\xf2\xb8"\xcc\xf1\xdd?'
p349
tp350
Rp351
tp352
a(S'institutional model theory'
p353
g2
(g6
S'\xbe\xed\x18[\xa1\xf1\xdd?'
p354
tp355
Rp356
tp357
a(S'dialectical logic'
p358
g2
(g6
S'\xbb\x9f(p\x9e\xd4\xdd?'
p359
tp360
Rp361
tp362
a(S'sergei n. artemov'
p363
g2
(g6
S'\x01\xc7\x1c\x83\xe2\xc9\xdd?'
p364
tp365
Rp366
tp367
a(S'free logic'
p368
g2
(g6
S'*\xa8\r\xd5\x82\xc6\xdd?'
p369
tp370
Rp371
tp372
a(S'elementary sentence'
p373
g2
(g6
S'b\x9f\x1b\xcbl\xbf\xdd?'
p374
tp375
Rp376
tp377
a(S'decidability (logic)'
p378
g2
(g6
S'\xd5\xc0\xd7|\x97\xbd\xdd?'
p379
tp380
Rp381
tp382
a(S'combinational logic'
p383
g2
(g6
S'\xe3\xb0\x02I\xf2r\xdd?'
p384
tp385
Rp386
tp387
a(S'minimal logic'
p388
g2
(g6
S'uB\xf3t\xcdp\xdd?'
p389
tp390
Rp391
tp392
a(S'cirquent calculus'
p393
g2
(g6
S'\xfbd\x1e]dp\xdd?'
p394
tp395
Rp396
tp397
a(S'dana scott'
p398
g2
(g6
S'\x05\x8d\xe5\xc8`X\xdd?'
p399
tp400
Rp401
tp402
a(S'affine logic'
p403
g2
(g6
S'c\x0bS\xdb&>\xdd?'
p404
tp405
Rp406
tp407
a(S'f-logic'
p408
g2
(g6
S'\xbfo@\x98/8\xdd?'
p409
tp410
Rp411
tp412
a(S'martin l\xc3\xb6b'
p413
g2
(g6
S'_Bn\xbez3\xdd?'
p414
tp415
Rp416
tp417
a(S'algebraic logic'
p418
g2
(g6
S'\xf2\xbd\xc1\xebN3\xdd?'
p419
tp420
Rp421
tp422
a(S'nuel belnap'
p423
g2
(g6
S'\x81u=\x01D0\xdd?'
p424
tp425
Rp426
tp427
a(S'saharon shelah'
p428
g2
(g6
S'3\x18\x81yL\x01\xdd?'
p429
tp430
Rp431
tp432
a(S'john corcoran (logician)'
p433
g2
(g6
S'\xb5\xf7L\xcbB\xf2\xdc?'
p434
tp435
Rp436
tp437
a(S'jacques herbrand'
p438
g2
(g6
S'\xca\x06\xdc\xec\x0f\xea\xdc?'
p439
tp440
Rp441
tp442
a(S'curry\xe2\x80\x93howard correspondence'
p443
g2
(g6
S'%q\x88\xf8\xba\xe9\xdc?'
p444
tp445
Rp446
tp447
a(S'ruy de queiroz'
p448
g2
(g6
S'\x07\xbf\xce\xd5:\xe5\xdc?'
p449
tp450
Rp451
tp452
a(S'formalism (philosophy of mathematics)'
p453
g2
(g6
S'\xc8\xe7\x95\x88D\xd9\xdc?'
p454
tp455
Rp456
tp457
a(S'anne sjerp troelstra'
p458
g2
(g6
S',\xb1Bd\x13\xd9\xdc?'
p459
tp460
Rp461
tp462
a(S'history of mathematics'
p463
g2
(g6
S'\x07\n\x96x\n\xd9\xdc?'
p464
tp465
Rp466
tp467
a(S'set-theoretic definition of natural numbers'
p468
g2
(g6
S'\x12M\xfd\xbeS\xc6\xdc?'
p469
tp470
Rp471
tp472
a(S'term logic'
p473
g2
(g6
S'T\xfb\xb7\xc5\x1a\xc1\xdc?'
p474
tp475
Rp476
tp477
a(S'axiomatic system'
p478
g2
(g6
S'\xedo\xff\xfeT\xb5\xdc?'
p479
tp480
Rp481
tp482
a(S'theory'
p483
g2
(g6
S'\xd3\xd1?,Z\xb1\xdc?'
p484
tp485
Rp486
tp487
a(S"proof sketch for g\xc3\xb6del's first incompleteness theorem"
p488
g2
(g6
S'\xfe\x81\t\xc7\x1a\x97\xdc?'
p489
tp490
Rp491
tp492
a(S'vienna summer of logic'
p493
g2
(g6
S'U\x00\xed&\x14\x95\xdc?'
p494
tp495
Rp496
tp497
a(S'rival conceptions of logic'
p498
g2
(g6
S'\xaf\x97\xdb\xd0\xe5{\xdc?'
p499
tp500
Rp501
tp502
a(S'stewart shapiro'
p503
g2
(g6
S'\x82\x15\xf9\x00-y\xdc?'
p504
tp505
Rp506
tp507
a(S'conservativity theorem'
p508
g2
(g6
S'O\x8d\xa7]\x8bx\xdc?'
p509
tp510
Rp511
tp512
a(S'equiconsistency'
p513
g2
(g6
S'\xb4\x0c\x17z\x9fl\xdc?'
p514
tp515
Rp516
tp517
a(S'axiom of reducibility'
p518
g2
(g6
S'\xf8{i\xb2A]\xdc?'
p519
tp520
Rp521
tp522
a(S'deontic logic'
p523
g2
(g6
S'3\x9a\xa6\xd67N\xdc?'
p524
tp525
Rp526
tp527
a(S'history of type theory'
p528
g2
(g6
S'\nRE\x98\xe7H\xdc?'
p529
tp530
Rp531
tp532
a(S'indian logic'
p533
g2
(g6
S'\x93\xdb\xdc3\xaf@\xdc?'
p534
tp535
Rp536
tp537
a(S'hilbert system'
p538
g2
(g6
S'\xc2?\xf9\x91\x972\xdc?'
p539
tp540
Rp541
tp542
a(S'is logic empirical?'
p543
g2
(g6
S'\xda\xf4\xb1\x1fI\x1c\xdc?'
p544
tp545
Rp546
tp547
a(S'rohit jivanlal parikh'
p548
g2
(g6
S' \xd8D\x87b\x05\xdc?'
p549
tp550
Rp551
tp552
a(S'logicism'
p553
g2
(g6
S'u2M-\xf5\xfc\xdb?'
p554
tp555
Rp556
tp557
a(S'\xce\xa9-logic'
p558
g2
(g6
S'+Tj\x04\xea\xeb\xdb?'
p559
tp560
Rp561
tp562
a(S'finitary'
p563
g2
(g6
S'\xfftb\x90M\xdf\xdb?'
p564
tp565
Rp566
tp567
a(S'naive set theory'
p568
g2
(g6
S'HX\x11U\xd1\xd8\xdb?'
p569
tp570
Rp571
tp572
a(S'walter carnielli'
p573
g2
(g6
S'\xc2\x0c\x0eU\xeb\xd0\xdb?'
p574
tp575
Rp576
tp577
a(S'universal logic'
p578
g2
(g6
S'@(\xc3\x89]\xcd\xdb?'
p579
tp580
Rp581
tp582
a(S'zermelo\xe2\x80\x93fraenkel set theory'
p583
g2
(g6
S'\xd7\xce\x19\x82\xf3\xa9\xdb?'
p584
tp585
Rp586
tp587
a(S'abstract logic'
p588
g2
(g6
S'Kv\xa2}\x15\x80\xdb?'
p589
tp590
Rp591
tp592
a(S'dependence logic'
p593
g2
(g6
S'z\x06h\xd0\x86U\xdb?'
p594
tp595
Rp596
tp597
a(S'ordinal logic'
p598
g2
(g6
S'H5^\x1c\xfa(\xdb?'
p599
tp600
Rp601
tp602
a(S'solomon feferman'
p603
g2
(g6
S'\x88:qEl\r\xdb?'
p604
tp605
Rp606
tp607
a(S'akihiro kanamori'
p608
g2
(g6
S'\xc1\xfbH;(\xfa\xda?'
p609
tp610
Rp611
tp612
a(S'sylvester medal'
p613
g2
(g6
S'\xd1Q-\xdf\xc4\xf7\xda?'
p614
tp615
Rp616
tp617
a(S'herbert enderton'
p618
g2
(g6
S'\xcc\x93\x96Gf\xee\xda?'
p619
tp620
Rp621
tp622
a(S'peter koellner'
p623
g2
(g6
S'\xc1\xd0j\xc8^\xe6\xda?'
p624
tp625
Rp626
tp627
a(S'bunched logic'
p628
g2
(g6
S'O.m\xb2c\xdf\xda?'
p629
tp630
Rp631
tp632
a(S'law of thought'
p633
g2
(g6
S'\xdcPn\x0c7\xd0\xda?'
p634
tp635
Rp636
tp637
a(S'l\xc3\xb6wenheim\xe2\x80\x93skolem theorem'
p638
g2
(g6
S'\x92\xa6\xfbd\\\xc6\xda?'
p639
tp640
Rp641
tp642
a(S'intensional logic'
p643
g2
(g6
S';\xaf\xb6\x0f4\xba\xda?'
p644
tp645
Rp646
tp647
a(S'abstract algebraic logic'
p648
g2
(g6
S'\xfbF\xa8\xe5;\xb8\xda?'
p649
tp650
Rp651
tp652
a(S'logic programming'
p653
g2
(g6
S'+\xaa\xe8\xeb\x1a\xb7\xda?'
p654
tp655
Rp656
tp657
a(S'stanis\xc5\x82aw ja\xc5\x9bkowski'
p658
g2
(g6
S'C\xfcWi\xb9\xad\xda?'
p659
tp660
Rp661
tp662
a(S'\xc5\x81o\xc5\x9b\xe2\x80\x93vaught test'
p663
g2
(g6
S'\xa6\xa5\xde\xf9<\xa8\xda?'
p664
tp665
Rp666
tp667
a(S'logic in islamic philosophy'
p668
g2
(g6
S'\xf8\xb4k,s\x99\xda?'
p669
tp670
Rp671
tp672
a(S'outline of mathematics'
p673
g2
(g6
S'\xa5\xc3\xcaKS\x8d\xda?'
p674
tp675
Rp676
tp677
a(S'metatheory'
p678
g2
(g6
S'\x19\xb33\x1al\x8b\xda?'
p679
tp680
Rp681
tp682
a(S"gentzen's consistency proof"
p683
g2
(g6
S'\xc8\xbc\xeb\x87\x89\x86\xda?'
p684
tp685
Rp686
tp687
a(S'abstract model theory'
p688
g2
(g6
S'j\x0b@\xf3\xe2\x80\xda?'
p689
tp690
Rp691
tp692
a(S'modal logic'
p693
g2
(g6
S'\xd3\xb3\xd1\x96\xebh\xda?'
p694
tp695
Rp696
tp697
a(S'outline of discrete mathematics'
p698
g2
(g6
S"c\xc4dq'a\xda?"
p699
tp700
Rp701
tp702
a(S'karel lambert'
p703
g2
(g6
S'\xfc\x06u\xd8\xffQ\xda?'
p704
tp705
Rp706
tp707
a(S'elementary definition'
p708
g2
(g6
S'\xc4\xbf_{\xe6Q\xda?'
p709
tp710
Rp711
tp712
a(S'ivor grattan-guinness'
p713
g2
(g6
S'\xdc\xef1\xab\xb9Q\xda?'
p714
tp715
Rp716
tp717
a(S'history of the church\xe2\x80\x93turing thesis'
p718
g2
(g6
S'6\xdbK\x1f<N\xda?'
p719
tp720
Rp721
tp722
a(S'moses sch\xc3\xb6nfinkel'
p723
g2
(g6
S'g\x1e\x9f\x16\x05N\xda?'
p724
tp725
Rp726
tp727
a(S'entscheidungsproblem'
p728
g2
(g6
S'\xa2\xb6\x13\xf4\xbfG\xda?'
p729
tp730
Rp731
tp732
a(S'computational logic'
p733
g2
(g6
S'"\x1e\x15\x81\x99C\xda?'
p734
tp735
Rp736
tp737
a(S'brouwer\xe2\x80\x93hilbert controversy'
p738
g2
(g6
S'\x80\x98%(\x14/\xda?'
p739
tp740
Rp741
tp742
a(S'interpretability'
p743
g2
(g6
S'\xactY\xf9=#\xda?'
p744
tp745
Rp746
tp747
a(S'michael makkai'
p748
g2
(g6
S'q\xf0\x9b8\x85!\xda?'
p749
tp750
Rp751
tp752
a(S'logic in china'
p753
g2
(g6
S'[\xa3y\xe0\x85\x13\xda?'
p754
tp755
Rp756
tp757
a(S'logic (musician)'
p758
g2
(g6
S'Z\xd0\xcboi\x11\xda?'
p759
tp760
Rp761
tp762
a(S'anti-psychologism'
p763
g2
(g6
S'S\x07\xce\x06\xcf\xf2\xd9?'
p764
tp765
Rp766
tp767
a(S'informal logic'
p768
g2
(g6
S'\xc0\xad\xe6\xf5\x98\xf1\xd9?'
p769
tp770
Rp771
tp772
a(S'unifying theories in mathematics'
p773
g2
(g6
S'\xfe&\xe5\xd2y\xe0\xd9?'
p774
tp775
Rp776
tp777
a(S'\xce\xa9-consistent theory'
p778
g2
(g6
S'-\xfe\xb8\xf4\xe8\xde\xd9?'
p779
tp780
Rp781
tp782
a(S'leon henkin'
p783
g2
(g6
S'\xd7\x89\x08\x94\xd9\xd3\xd9?'
p784
tp785
Rp786
tp787
a(S'systems of logic based on ordinals'
p788
g2
(g6
S',\xc3\x16Z}\xcf\xd9?'
p789
tp790
Rp791
tp792
a(S'fragment (logic)'
p793
g2
(g6
S'\x15\x1d\xf6Ny\xcf\xd9?'
p794
tp795
Rp796
tp797
a(S'diagonal lemma'
p798
g2
(g6
S'y\xab\x0e\xaa\xdf\xc4\xd9?'
p799
tp800
Rp801
tp802
a(S'metamath'
p803
g2
(g6
S'&\xbd\xaeP6\xb7\xd9?'
p804
tp805
Rp806
tp807
a(S'alan ross anderson'
p808
g2
(g6
S'\x8c\t\xb7\xf4F\xac\xd9?'
p809
tp810
Rp811
tp812
a(S'steven kuhn'
p813
g2
(g6
S'X\xb3\x9e\xc0\xf6\x8c\xd9?'
p814
tp815
Rp816
tp817
a(S'satisfiability'
p818
g2
(g6
S'\x052/\xa5\xbc\x8b\xd9?'
p819
tp820
Rp821
tp822
a(S'raymond smullyan'
p823
g2
(g6
S'\x91\xafO\x82\xfbt\xd9?'
p824
tp825
Rp826
tp827
a(S'buddhist logic'
p828
g2
(g6
S'\xfe\xfd\x1e\x16\xbct\xd9?'
p829
tp830
Rp831
tp832
a(S'axiom schema'
p833
g2
(g6
S'\xe5\xa7>C_l\xd9?'
p834
tp835
Rp836
tp837
a(S'mathematical proof'
p838
g2
(g6
S'\x97\xd8\xbbr\xe4k\xd9?'
p839
tp840
Rp841
tp842
a(S'logic gate'
p843
g2
(g6
S'\x89Q ;Sh\xd9?'
p844
tp845
Rp846
tp847
a(S'set theory: an introduction to independence proofs'
p848
g2
(g6
S'\xa1\xa23\xa6\xb5g\xd9?'
p849
tp850
Rp851
tp852
a(S'tolerant sequence'
p853
g2
(g6
S'F\x8c\xfd\xc0\x8f\\\xd9?'
p854
tp855
Rp856
tp857
a(S'joan moschovakis'
p858
g2
(g6
S'$*\xf9\xd1\x9bI\xd9?'
p859
tp860
Rp861
tp862
a(S'a. h. lightstone'
p863
g2
(g6
S'\x19\x99T~\x17I\xd9?'
p864
tp865
Rp866
tp867
a(S'peano axioms'
p868
g2
(g6
S'\xa7\xa8\x063vH\xd9?'
p869
tp870
Rp871
tp872
a(S'constructivism (mathematics)'
p873
g2
(g6
S'f\xb7\x1b1XF\xd9?'
p874
tp875
Rp876
tp877
a(S'principia mathematica'
p878
g2
(g6
S'\xf1Z\x8a\xf7\xc6D\xd9?'
p879
tp880
Rp881
tp882
a(S'jean-yves b\xc3\xa9ziau'
p883
g2
(g6
S'$\x93M~4C\xd9?'
p884
tp885
Rp886
tp887
a(S'journal of philosophical logic'
p888
g2
(g6
S'/4Q\xda\x00;\xd9?'
p889
tp890
Rp891
tp892
a(S'logic pro'
p893
g2
(g6
S'q>\x9cE\xfb7\xd9?'
p894
tp895
Rp896
tp897
a(S'independence-friendly logic'
p898
g2
(g6
S'[b\xdd\x18\x012\xd9?'
p899
tp900
Rp901
tp902
a(S'categorical logic'
p903
g2
(g6
S'\x95\xdc\xbc\xe6\xd3+\xd9?'
p904
tp905
Rp906
tp907
a(S'joel david hamkins'
p908
g2
(g6
S'\xe2\xdb\xc1[_#\xd9?'
p909
tp910
Rp911
tp912
a(S'lennart \xc3\x85qvist'
p913
g2
(g6
S'\x93?\xf6\xe5\x97 \xd9?'
p914
tp915
Rp916
tp917
a(S'linear logic'
p918
g2
(g6
S'\x1a\x03\xbb\x1a^\x1b\xd9?'
p919
tp920
Rp921
tp922
a(S'johann makowsky'
p923
g2
(g6
S'\xbb\x818\xce\x10\x18\xd9?'
p924
tp925
Rp926
tp927
a(S'second-order propositional logic'
p928
g2
(g6
S'\xfe9\xf7\\\xca\x14\xd9?'
p929
tp930
Rp931
tp932
a(S'scott\xe2\x80\x93potter set theory'
p933
g2
(g6
S'\x1b\xd9\x97\x80\xa4\x14\xd9?'
p934
tp935
Rp936
tp937
a(S'jouko v\xc3\xa4\xc3\xa4n\xc3\xa4nen'
p938
g2
(g6
S'\xa4F\xa3P\x97\x0e\xd9?'
p939
tp940
Rp941
tp942
a(S'abstract logic (disambiguation)'
p943
g2
(g6
S'0\xff\xcc\xf7\x9f\xf8\xd8?'
p944
tp945
Rp946
tp947
a(S'philosophical logic'
p948
g2
(g6
S'\\\xdc\x1d&\xc2\xe2\xd8?'
p949
tp950
Rp951
tp952
a(S'kurt g\xc3\xb6del'
p953
g2
(g6
S'T\xc6\x9du\xac\xda\xd8?'
p954
tp955
Rp956
tp957
a(S'alasdair urquhart'
p958
g2
(g6
S'\x9b\xd3D\x8c\x89\xcf\xd8?'
p959
tp960
Rp961
tp962
a(S'theory (disambiguation)'
p963
g2
(g6
S'\x0ei7\xc5I\xbf\xd8?'
p964
tp965
Rp966
tp967
a(S'jan \xc5\x81ukasiewicz'
p968
g2
(g6
S'\xff\x1aX\xf2\xd5\xae\xd8?'
p969
tp970
Rp971
tp972
a(S'spectrum of a sentence'
p973
g2
(g6
S'_\xb8\xbe\xce+\xac\xd8?'
p974
tp975
Rp976
tp977
a(S'irving copi'
p978
g2
(g6
S'x\xccr\xbb\xcc\x9e\xd8?'
p979
tp980
Rp981
tp982
a(S'von neumann\xe2\x80\x93bernays\xe2\x80\x93g\xc3\xb6del set theory'
p983
g2
(g6
S'\xb5\xed\x8c!\x17\x9d\xd8?'
p984
tp985
Rp986
tp987
a(S'computability theory'
p988
g2
(g6
S'\xecN\xd8\xe5\x12\x99\xd8?'
p989
tp990
Rp991
tp992
a(S'reverse mathematics'
p993
g2
(g6
S'\xce\x13\x17\x93\x07\x99\xd8?'
p994
tp995
Rp996
tp997
a(S'grigore moisil'
p998
g2
(g6
S'\x18\xa4&k\xef\x97\xd8?'
p999
tp1000
Rp1001
tp1002
a(S'logic family'
p1003
g2
(g6
S'~\xc4\xf4\x97\xa1\x92\xd8?'
p1004
tp1005
Rp1006
tp1007
a(S'service-dominant logic'
p1008
g2
(g6
S'\x1d\xf3\xd9\x1ck\x8f\xd8?'
p1009
tp1010
Rp1011
tp1012
a(S'descriptive complexity theory'
p1013
g2
(g6
S"\xe2L\xf1\xa4'\x84\xd8?"
p1014
tp1015
Rp1016
tp1017
a(S'formal system'
p1018
g2
(g6
S'\x88T"\xd6\x14p\xd8?'
p1019
tp1020
Rp1021
tp1022
a(S'ernest nagel'
p1023
g2
(g6
S'\xb6\xa9\xc4A\xb9k\xd8?'
p1024
tp1025
Rp1026
tp1027
a(S'logic express'
p1028
g2
(g6
S'\x01%\x9c\x04Zk\xd8?'
p1029
tp1030
Rp1031
tp1032
a(S'logic level'
p1033
g2
(g6
S'D\xf5\x16\x92\x8fj\xd8?'
p1034
tp1035
Rp1036
tp1037
a(S'possibility theory'
p1038
g2
(g6
S'\xb9\xd7\x8f\x03\xb8f\xd8?'
p1039
tp1040
Rp1041
tp1042
a(S'logic (song)'
p1043
g2
(g6
S'\x02\xca\xfe-\xc7b\xd8?'
p1044
tp1045
Rp1046
tp1047
a(S'truth value'
p1048
g2
(g6
S'/\x13\x8b6^]\xd8?'
p1049
tp1050
Rp1051
tp1052
a(S'reuben goodstein'
p1053
g2
(g6
S'\x94 \xc7\xa6@\\\xd8?'
p1054
tp1055
Rp1056
tp1057
a(S'edward nelson'
p1058
g2
(g6
S'\xff\x98l\xf7CW\xd8?'
p1059
tp1060
Rp1061
tp1062
a(S'structural rule'
p1063
g2
(g6
S'\xfcu\xfa\\-T\xd8?'
p1064
tp1065
Rp1066
tp1067
a(S'mathematical theory'
p1068
g2
(g6
S'\xe0\x1c\xd7\x89WR\xd8?'
p1069
tp1070
Rp1071
tp1072
a(S'constructive set theory'
p1073
g2
(g6
S'\xe3\xd7\xfb\xca\xa4J\xd8?'
p1074
tp1075
Rp1076
tp1077
a(S"lindenbaum's lemma"
p1078
g2
(g6
S'\xa1\xd44\xb4\x83H\xd8?'
p1079
tp1080
Rp1081
tp1082
a(S'mereology'
p1083
g2
(g6
S'\xd1%A2\xdeF\xd8?'
p1084
tp1085
Rp1086
tp1087
a(S'dov gabbay'
p1088
g2
(g6
S'\xf1\\\xb3\x97#=\xd8?'
p1089
tp1090
Rp1091
tp1092
a(S'axiom of adjunction'
p1093
g2
(g6
S'#\x11\xb6d\x822\xd8?'
p1094
tp1095
Rp1096
tp1097
a(S'paraconsistent mathematics'
p1098
g2
(g6
S'\xa8\xf0\xbe\xb2\xe11\xd8?'
p1099
tp1100
Rp1101
tp1102
a(S'peter b. andrews'
p1103
g2
(g6
S'\xcc\x93\xef\xc8\x8b/\xd8?'
p1104
tp1105
Rp1106
tp1107
a(S'alternative set theory'
p1108
g2
(g6
S"\xa1\xfa\xe9\x90\x96'\xd8?"
p1109
tp1110
Rp1111
tp1112
a(S'ivan orlov (philosopher)'
p1113
g2
(g6
S'\xea=a\xf2\xe0&\xd8?'
p1114
tp1115
Rp1116
tp1117
a(S'digital electronics'
p1118
g2
(g6
S'\x13vk\n*%\xd8?'
p1119
tp1120
Rp1121
tp1122
a(S'g\xc3\xb6del logic'
p1123
g2
(g6
S'\xb1\x14\x81\x87\x8d"\xd8?'
p1124
tp1125
Rp1126
tp1127
a(S'evert willem beth'
p1128
g2
(g6
S'\xe1\xf9r\xdea\x0e\xd8?'
p1129
tp1130
Rp1131
tp1132
a(S'theory of computation'
p1133
g2
(g6
S'\xb8\xf5\xec\t?\x0c\xd8?'
p1134
tp1135
Rp1136
tp1137
a(S'two-variable logic'
p1138
g2
(g6
S'_\x8cy\n\xfd\xfc\xd7?'
p1139
tp1140
Rp1141
tp1142
a(S'type theory'
p1143
g2
(g6
S'U\t\x866\xed\xf8\xd7?'
p1144
tp1145
Rp1146
tp1147
a(S'epistemic modal logic'
p1148
g2
(g6
S'IQ\x11a\x02\xeb\xd7?'
p1149
tp1150
Rp1151
tp1152
a(S'axiom of constructibility'
p1153
g2
(g6
S'\xc7\x18 \xd4\xac\xe5\xd7?'
p1154
tp1155
Rp1156
tp1157
a(S'state logic'
p1158
g2
(g6
S'\xd6\xeco6X\xdc\xd7?'
p1159
tp1160
Rp1161
tp1162
a(S'dialectica interpretation'
p1163
g2
(g6
S'k\xef\xfd\xf7A\xda\xd7?'
p1164
tp1165
Rp1166
tp1167
a(S'under pressure (album)'
p1168
g2
(g6
S'n\xb6\x90\xcf<\xd8\xd7?'
p1169
tp1170
Rp1171
tp1172
a(S'logical framework'
p1173
g2
(g6
S'5\x1e\xfd\xa9\x90\xd0\xd7?'
p1174
tp1175
Rp1176
tp1177
a(S'continuum hypothesis'
p1178
g2
(g6
S'a\xd7\xa1\xb4\xf0\xc9\xd7?'
p1179
tp1180
Rp1181
tp1182
a(S'zeroth-order logic'
p1183
g2
(g6
S'"SA\xb7\xf8\xc8\xd7?'
p1184
tp1185
Rp1186
tp1187
a(S'hans hermes'
p1188
g2
(g6
S'\xb5\xeac\xe3\x1c\xc5\xd7?'
p1189
tp1190
Rp1191
tp1192
a(S'st type theory'
p1193
g2
(g6
S'\x1bH\x9b\x1c\xc4\xba\xd7?'
p1194
tp1195
Rp1196
tp1197
a(S'defeasible logic'
p1198
g2
(g6
S'6\xef\xfe\xc7!\xa8\xd7?'
p1199
tp1200
Rp1201
tp1202
a(S'undecidable problem'
p1203
g2
(g6
S'~\xb20\xf4\x97\xa4\xd7?'
p1204
tp1205
Rp1206
tp1207
a(S'finitism'
p1208
g2
(g6
S'{\x97M\xf3\x10\xa2\xd7?'
p1209
tp1210
Rp1211
tp1212
a(S'theory of pure equality'
p1213
g2
(g6
S'm\x10WWU\x99\xd7?'
p1214
tp1215
Rp1216
tp1217
a(S'rules of passage (logic)'
p1218
g2
(g6
S'\x88\x86\xe7\x0bE\x97\xd7?'
p1219
tp1220
Rp1221
tp1222
a(S'formal science'
p1223
g2
(g6
S'H\xf5\x03\xb5\xd9\x94\xd7?'
p1224
tp1225
Rp1226
tp1227
a(S'noise-based logic'
p1228
g2
(g6
S'2.,\xb9\xfd\x92\xd7?'
p1229
tp1230
Rp1231
tp1232
a(S'carlo dalla pozza'
p1233
g2
(g6
S'\x8f\x17\xac\x17\xd3\x8f\xd7?'
p1234
tp1235
Rp1236
tp1237
a(S'noncommutative logic'
p1238
g2
(g6
S'\x81\x0f\xf2\xef3\x8d\xd7?'
p1239
tp1240
Rp1241
tp1242
a(S'proof calculus'
p1243
g2
(g6
S'\xa1\xaf\x95\xbb\xa8\x80\xd7?'
p1244
tp1245
Rp1246
tp1247
a(S'association for logic, language and information'
p1248
g2
(g6
S'\x91]\x16\x8cNw\xd7?'
p1249
tp1250
Rp1251
tp1252
a(S'common logic'
p1253
g2
(g6
S']\x0e~I\xa8s\xd7?'
p1254
tp1255
Rp1256
tp1257
a(S'absoluteness'
p1258
g2
(g6
S'^\x95\r]mq\xd7?'
p1259
tp1260
Rp1261
tp1262
a(S'axiom of extensionality'
p1263
g2
(g6
S'\x08\xd6\x9a\x16\x99p\xd7?'
p1264
tp1265
Rp1266
tp1267
a(S'deviant logic'
p1268
g2
(g6
S"Kc\xb2'Pl\xd7?"
p1269
tp1270
Rp1271
tp1272
a(S'discrete mathematics'
p1273
g2
(g6
S'\x16"\x90\xa92f\xd7?'
p1274
tp1275
Rp1276
tp1277
a(S'glossary of areas of mathematics'
p1278
g2
(g6
S'\x90+a\xcb\xb1L\xd7?'
p1279
tp1280
Rp1281
tp1282
a(S'b, c, k, w system'
p1283
g2
(g6
S'\x9aA\xa3\xa4\x11H\xd7?'
p1284
tp1285
Rp1286
tp1287
a(S'monadic second-order logic'
p1288
g2
(g6
S'o\xf7\xed\x0f\x11H\xd7?'
p1289
tp1290
Rp1291
tp1292
a(S'richard shore'
p1293
g2
(g6
S'[\xee5UXG\xd7?'
p1294
tp1295
Rp1296
tp1297
a(S'algorithmic logic'
p1298
g2
(g6
S'#\xec\xf7^\xe9?\xd7?'
p1299
tp1300
Rp1301
tp1302
a(S'high threshold logic'
p1303
g2
(g6
S'\x00\xc7*\xafi1\xd7?'
p1304
tp1305
Rp1306
tp1307
a(S'\xc5\x81ukasiewicz logic'
p1308
g2
(g6
S'\xcf\x86\xdb?\x8d/\xd7?'
p1309
tp1310
Rp1311
tp1312
a(S'propositional calculus'
p1313
g2
(g6
S'Q\xb4\xd7f\x1f.\xd7?'
p1314
tp1315
Rp1316
tp1317
a(S'paul halmos'
p1318
g2
(g6
S'\n\xd1\x97r\xe9+\xd7?'
p1319
tp1320
Rp1321
tp1322
a(S'zermelo set theory'
p1323
g2
(g6
S'@\xc8\x89p\xaf)\xd7?'
p1324
tp1325
Rp1326
tp1327
a(S'leibniz operator'
p1328
g2
(g6
S'"\xef\xf9\xdaS(\xd7?'
p1329
tp1330
Rp1331
tp1332
a(S'temporal logic'
p1333
g2
(g6
S"\x8f'\x10\xce\xf6#\xd7?"
p1334
tp1335
Rp1336
tp1337
a(S'list of logic symbols'
p1338
g2
(g6
S'\xa6\x08\xdc\x18\x11\x1b\xd7?'
p1339
tp1340
Rp1341
tp1342
a(S"tarski's undefinability theorem"
p1343
g2
(g6
S'vd\x0bU2\x10\xd7?'
p1344
tp1345
Rp1346
tp1347
a(S'boyan petkanchin'
p1348
g2
(g6
S'\xe5`\x99Td\r\xd7?'
p1349
tp1350
Rp1351
tp1352
a(S'on formally undecidable propositions of principia mathematica and related systems'
p1353
g2
(g6
S'!\xd9\xd0\x1b\xd1\x0b\xd7?'
p1354
tp1355
Rp1356
tp1357
a(S'probabilistic logic'
p1358
g2
(g6
S'\xc4\xe3"\xa92\x0b\xd7?'
p1359
tp1360
Rp1361
tp1362
a(S'algebraic theory'
p1363
g2
(g6
S'\x0e-\x82nM\x08\xd7?'
p1364
tp1365
Rp1366
tp1367
a(S'number theory'
p1368
g2
(g6
S'\xc7\xdf}f\xe8\x04\xd7?'
p1369
tp1370
Rp1371
tp1372
a(S'principle of bivalence'
p1373
g2
(g6
S'1\x85\x1a\\\x11\xfc\xd6?'
p1374
tp1375
Rp1376
tp1377
a(S'to mock a mockingbird'
p1378
g2
(g6
S'?\\\xf7\xad \xf5\xd6?'
p1379
tp1380
Rp1381
tp1382
a(S'anil nerode'
p1383
g2
(g6
S'^h\xb7\xe7\xdf\xf1\xd6?'
p1384
tp1385
Rp1386
tp1387
a(S'mathematical beauty'
p1388
g2
(g6
S'\xfa\x8b|u\xec\xd7\xd6?'
p1389
tp1390
Rp1391
tp1392
a(S'proof assistant'
p1393
g2
(g6
S'\xcdU\x99))\xd0\xd6?'
p1394
tp1395
Rp1396
tp1397
a(S'lars svenonius'
p1398
g2
(g6
S';O\xafz\x18\xd0\xd6?'
p1399
tp1400
Rp1401
tp1402
a(S'paradoxes of set theory'
p1403
g2
(g6
S'\xb9\xe1}\x836\xce\xd6?'
p1404
tp1405
Rp1406
tp1407
a(S'logic model'
p1408
g2
(g6
S'\xa9\xb6C\xac`\xcb\xd6?'
p1409
tp1410
Rp1411
tp1412
a(S'institute for logic, language and computation'
p1413
g2
(g6
S'w\x90\x9e\xf4~\xca\xd6?'
p1414
tp1415
Rp1416
tp1417
a(S'natural deduction'
p1418
g2
(g6
S'Fn\x97\x9c\x01\xca\xd6?'
p1419
tp1420
Rp1421
tp1422
a(S"curry's paradox"
p1423
g2
(g6
S'Gw\xd1F\xfd\xc8\xd6?'
p1424
tp1425
Rp1426
tp1427
a(S'carveth read'
p1428
g2
(g6
S'\xda\x86\xd9\xdd\xef\xc4\xd6?'
p1429
tp1430
Rp1431
tp1432
a(S'resolvent'
p1433
g2
(g6
S'\xe9\x9a\x9f\x95\xe1\xc2\xd6?'
p1434
tp1435
Rp1436
tp1437
a(S'outline of science'
p1438
g2
(g6
S'\xc0>\xb2\x92u\xb7\xd6?'
p1439
tp1440
Rp1441
tp1442
a(S'three-valued logic'
p1443
g2
(g6
S'\xc1Z\xbb\x95q\xb7\xd6?'
p1444
tp1445
Rp1446
tp1447
a(S'theorem'
p1448
g2
(g6
S'},\xa0\x19*\xb4\xd6?'
p1449
tp1450
Rp1451
tp1452
a(S"lindstr\xc3\xb6m's theorem"
p1453
g2
(g6
S'N\xc3\xf4s\x18\xb3\xd6?'
p1454
tp1455
Rp1456
tp1457
a(S'ackermann set theory'
p1458
g2
(g6
S'\x9c\x0e\\j9\xae\xd6?'
p1459
tp1460
Rp1461
tp1462
a(S'true arithmetic'
p1463
g2
(g6
S'\xdcS\xca\x8e\xda\xaa\xd6?'
p1464
tp1465
Rp1466
tp1467
a(S'ucla logic center'
p1468
g2
(g6
S'\xfd\xf9\xdf\x90M\xaa\xd6?'
p1469
tp1470
Rp1471
tp1472
a(S'6d (2,0) superconformal field theory'
p1473
g2
(g6
S'X\xe67\x82)\xa7\xd6?'
p1474
tp1475
Rp1476
tp1477
a(S'where mathematics comes from'
p1478
g2
(g6
S'S\xf8\xec4\xbd\x95\xd6?'
p1479
tp1480
Rp1481
tp1482
a(S'order (mathematics)'
p1483
g2
(g6
S'\xe4\x9b\xe3*G\x95\xd6?'
p1484
tp1485
Rp1486
tp1487
a(S'new foundations'
p1488
g2
(g6
S'\x05\xdf\xee\xa9\x1c\x93\xd6?'
p1489
tp1490
Rp1491
tp1492
a(S'impredicativity'
p1493
g2
(g6
S'\xce\x8b\xfc\x8c/\x91\xd6?'
p1494
tp1495
Rp1496
tp1497
a(S'second-order arithmetic'
p1498
g2
(g6
S'\x98\xe6\xc6t\xc7\x90\xd6?'
p1499
tp1500
Rp1501
tp1502
a(S'modal companion'
p1503
g2
(g6
S'\x0e\xec\x9b%j\x8f\xd6?'
p1504
tp1505
Rp1506
tp1507
a(S'logic probe'
p1508
g2
(g6
S'\xae\xa0a\xca\xd1\x8d\xd6?'
p1509
tp1510
Rp1511
tp1512
a.