(lp0
(S'matlab'
p1
cnumpy.core.multiarray
scalar
p2
(cnumpy
dtype
p3
(S'f8'
p4
I0
I1
tp5
Rp6
(I3
S'<'
p7
NNNI-1
I-1
I0
tp8
bS'\x03\x00\x00\x00\x00\x00\xf0?'
p9
tp10
Rp11
tp12
a(S'matlab (bangladesh)'
p13
g2
(g6
S'8\x00\x80E\xf3\xea\xe8?'
p14
tp15
Rp16
tp17
a(S'matlab uttar upazila'
p18
g2
(g6
S'\xed\t\x86\x81\xca\x9e\xe8?'
p19
tp20
Rp21
tp22
a(S'robotics toolbox for matlab'
p23
g2
(g6
S'\x1f\xe2\xeeH\x04\xad\xe7?'
p24
tp25
Rp26
tp27
a(S'matlab dakshin upazila'
p28
g2
(g6
S'\x92-_\x91\x8a)\xe7?'
p29
tp30
Rp31
tp32
a(S'thingspeak'
p33
g2
(g6
S'\xab\x1c\xa0\x957\xad\xe1?'
p34
tp35
Rp36
tp37
a(S'mathworks'
p38
g2
(g6
S'/\nr}\xe6W\xe1?'
p39
tp40
Rp41
tp42
a(S'freemat'
p43
g2
(g6
S'\xe5*\xad\xda\x8cP\xe0?'
p44
tp45
Rp46
tp47
a(S'comsol script'
p48
g2
(g6
S'\xd7_\xcf\x0f{*\xe0?'
p49
tp50
Rp51
tp52
a(S'list of functional connectivity software'
p53
g2
(g6
S'h9\xf1%\x16Q\xde?'
p54
tp55
Rp56
tp57
a(S'rlab'
p58
g2
(g6
S'\x85O\x1d!\xb2\x1f\xdd?'
p59
tp60
Rp61
tp62
a(S'list of numerical analysis software'
p63
g2
(g6
S'>h5wd\x03\xdd?'
p64
tp65
Rp66
tp67
a(S'mex file'
p68
g2
(g6
S'L&\x8b\x82V\x94\xdc?'
p69
tp70
Rp71
tp72
a(S'chronux'
p73
g2
(g6
S'\xc1N\xc7/\xa0\x11\xdc?'
p74
tp75
Rp76
tp77
a(S'scilab'
p78
g2
(g6
S'"{k\x8b\xf1\xa9\xda?'
p79
tp80
Rp81
tp82
a(S'chebfun'
p83
g2
(g6
S'\xa3\x0c$\xd1\xae\xca\xd9?'
p84
tp85
Rp86
tp87
a(S'psychtoolbox for matlab'
p88
g2
(g6
S'\x17u\xf9\x7f\xde\xb5\xd8?'
p89
tp90
Rp91
tp92
a(S'opencrg'
p93
g2
(g6
S'}t\xd7`\xc0\x84\xd8?'
p94
tp95
Rp96
tp97
a(S'tomlab'
p98
g2
(g6
S'\x91;\xb3\xd9\xe8\xdf\xd7?'
p99
tp100
Rp101
tp102
a(S'gnu octave'
p103
g2
(g6
S'\xe7\xd3\xaek\xb4\xdd\xd7?'
p104
tp105
Rp106
tp107
a(S'tomsym'
p108
g2
(g6
S'\x02v\x05"\xcf\xc8\xd7?'
p109
tp110
Rp111
tp112
a(S'jlab'
p113
g2
(g6
S'\xef\xf1)\x01\xddT\xd7?'
p114
tp115
Rp116
tp117
a(S'verilator'
p118
g2
(g6
S'$\xeb_\x1d\xc2[\xd6?'
p119
tp120
Rp121
tp122
a(S'umfpack'
p123
g2
(g6
S'\xcd\xba\x1c#\x9f%\xd6?'
p124
tp125
Rp126
tp127
a(S'comparison of numerical analysis software'
p128
g2
(g6
S'?\xe5\xa5\xdd\x11\x90\xd5?'
p129
tp130
Rp131
tp132
a(S'jean-yves bouguet'
p133
g2
(g6
S'\x97\xe1\x99\xdb\xc2{\xd5?'
p134
tp135
Rp136
tp137
a(S'john n. little'
p138
g2
(g6
S'U-G\xd2\xf5Y\xd5?'
p139
tp140
Rp141
tp142
a(S'rudra pratap'
p143
g2
(g6
S'\xff[t\xd3w\xac\xd4?'
p144
tp145
Rp146
tp147
a(S'array programming'
p148
g2
(g6
S'\x14v4\xf4}\x97\xd4?'
p149
tp150
Rp151
tp152
a(S'xfoil'
p153
g2
(g6
S']U\xe0\xe1\x0f\x00\xd4?'
p154
tp155
Rp156
tp157
a(S'hans bruun nielsen'
p158
g2
(g6
S'\x96\xd8A\xa9\x90\xa4\xd3?'
p159
tp160
Rp161
tp162
a(S'dormand\xe2\x80\x93prince method'
p163
g2
(g6
S'\x91\x8cc\x8b\x95s\xd3?'
p164
tp165
Rp166
tp167
a(S'fieldtrip'
p168
g2
(g6
S'\xa0\xb4L\x89\xc92\xd3?'
p169
tp170
Rp171
tp172
a(S'comparison of free geophysics software'
p173
g2
(g6
S'\xc7\xa2=\xbaN\xa4\xd2?'
p174
tp175
Rp176
tp177
a(S'optimization toolbox'
p178
g2
(g6
S'P\xa0\xdaQ\xae<\xd2?'
p179
tp180
Rp181
tp182
a(S'apopt'
p183
g2
(g6
S'?\xd3l\xf7\xa0\xff\xd1?'
p184
tp185
Rp186
tp187
a(S'matplotlib'
p188
g2
(g6
S'<\xaa<^<\xb2\xd1?'
p189
tp190
Rp191
tp192
a(S'o-matrix'
p193
g2
(g6
S'\x11\xb8\xcf\xdcx\x91\xd1?'
p194
tp195
Rp196
tp197
a(S'mupad'
p198
g2
(g6
S'\xa9\xffq\x7f{\xfb\xd0?'
p199
tp200
Rp201
tp202
a(S'simulink'
p203
g2
(g6
S'\xb5\x8eXxW\xf1\xd0?'
p204
tp205
Rp206
tp207
a(S'time warp edit distance'
p208
g2
(g6
S'\xbfI\x07\x17%\xae\xd0?'
p209
tp210
Rp211
tp212
a(S'quantian'
p213
g2
(g6
S'\x9b\xb2\xc9k\xf29\xd0?'
p214
tp215
Rp216
tp217
a(S'simevents'
p218
g2
(g6
S'\xd7\xee\x939\xd7\x0c\xd0?'
p219
tp220
Rp221
tp222
a(S'quadratic programming'
p223
g2
(g6
S'\xb7\xc4\x02\x1a}\x9a\xcf?'
p224
tp225
Rp226
tp227
a(S'bandelet (computer science)'
p228
g2
(g6
S'\xd2\xe4S\x9e\x13\x04\xcf?'
p229
tp230
Rp231
tp232
a(S'set theoretic programming'
p233
g2
(g6
S'l\xa0]A\x9b\xe2\xcd?'
p234
tp235
Rp236
tp237
a(S'chessboard detection'
p238
g2
(g6
S'n\xce\x7f\xedB\xcb\xcd?'
p239
tp240
Rp241
tp242
a(S'comparison of optimization software'
p243
g2
(g6
S'\xa9\xf7\xb1\xeb\xf5}\xcd?'
p244
tp245
Rp246
tp247
a(S'lloyd n. trefethen'
p248
g2
(g6
S'I4\x1a\xce\\u\xcd?'
p249
tp250
Rp251
tp252
a(S'echo state network'
p253
g2
(g6
S'{l\xeea\xba\xfa\xcc?'
p254
tp255
Rp256
tp257
a(S'isogeometric analysis'
p258
g2
(g6
S'[\xd3\x9b\xec\x01\xa7\xcc?'
p259
tp260
Rp261
tp262
a(S'electrical impedance and diffuse optical tomography reconstruction software'
p263
g2
(g6
S'\xc6?\x18/\x8f\x88\xcc?'
p264
tp265
Rp266
tp267
a(S'modelsim'
p268
g2
(g6
S'\xc0\xb2)\x83<^\xcc?'
p269
tp270
Rp271
tp272
a(S'faddeeva function'
p273
g2
(g6
S'\xd6mr/(H\xcc?'
p274
tp275
Rp276
tp277
a(S'plecs'
p278
g2
(g6
S'\\]Iy~3\xcc?'
p279
tp280
Rp281
tp282
a(S'gretl'
p283
g2
(g6
S'\xcb\x08T\x8f"%\xcc?'
p284
tp285
Rp286
tp287
a(S'limited-memory bfgs'
p288
g2
(g6
S'\xd9\xf3\x90\xfb\xae\xae\xcb?'
p289
tp290
Rp291
tp292
a(S'rrqr factorization'
p293
g2
(g6
S'\x8f\x92\xac^vF\xcb?'
p294
tp295
Rp296
tp297
a(S'potterswheel'
p298
g2
(g6
S'\x90\xc2\xa6_\x068\xcb?'
p299
tp300
Rp301
tp302
a(S'sysquake'
p303
g2
(g6
S'c\x83\xd6:\xe0\x15\xcb?'
p304
tp305
Rp306
tp307
a(S'active appearance model'
p308
g2
(g6
S'Dn8F\xcf\x10\xcb?'
p309
tp310
Rp311
tp312
a(S'it++'
p313
g2
(g6
S'\x13^=\xb2b\xfe\xca?'
p314
tp315
Rp316
tp317
a(S'asghar sodai'
p318
g2
(g6
S'\xe5Q\xe6\x92\xe0\xde\xca?'
p319
tp320
Rp321
tp322
a(S'libsvm'
p323
g2
(g6
S'u\xff5\n\x04\xa5\xca?'
p324
tp325
Rp326
tp327
a(S'gauss\xe2\x80\x93laguerre quadrature'
p328
g2
(g6
S'a\xe1\xd0\x07\xe8K\xca?'
p329
tp330
Rp331
tp332
a(S'plotly'
p333
g2
(g6
S'X}X\x7f57\xca?'
p334
tp335
Rp336
tp337
a(S'blitz++'
p338
g2
(g6
S'\xf5\xb8\x07-i\xf0\xc9?'
p339
tp340
Rp341
tp342
a(S'usb-6008'
p343
g2
(g6
S'\x1abT\xda\x02\x92\xc9?'
p344
tp345
Rp346
tp347
a(S'kriging'
p348
g2
(g6
S'{\xb6d\x9e\xebt\xc9?'
p349
tp350
Rp351
tp352
a(S'arrayfire'
p353
g2
(g6
S'\x9bF\x18\xd3\xf3p\xc9?'
p354
tp355
Rp356
tp357
a(S'java astrodynamics toolkit'
p358
g2
(g6
S'\xef\xb7t\xb9\xf6@\xc9?'
p359
tp360
Rp361
tp362
a(S'warppls'
p363
g2
(g6
S',1\x9b\xeb5\xfb\xc8?'
p364
tp365
Rp366
tp367
a(S'domain coloring'
p368
g2
(g6
S'\xf6\xfcu\x00\xf2\xed\xc8?'
p369
tp370
Rp371
tp372
a(S'conj'
p373
g2
(g6
S'\xb9\xbb\x12\xa0\xac\xe4\xc8?'
p374
tp375
Rp376
tp377
a(S'cleve moler'
p378
g2
(g6
S"\x83\xfb\xd2'\xb3\xcf\xc8?"
p379
tp380
Rp381
tp382
a(S'scicoslab'
p383
g2
(g6
S'\x8d\xa1d\xb2\xb1\xcc\xc8?'
p384
tp385
Rp386
tp387
a(S'optimal control'
p388
g2
(g6
S'\xfd\xaa$\x16v\xaa\xc8?'
p389
tp390
Rp391
tp392
a(S'etas'
p393
g2
(g6
S'|\xf6\x1c\xad\xdf\xf6\xc7?'
p394
tp395
Rp396
tp397
a(S'moving horizon estimation'
p398
g2
(g6
S'!\x88\xed\xc7\xc9\xec\xc7?'
p399
tp400
Rp401
tp402
a(S'pakistan ka matlab kia'
p403
g2
(g6
S']\x8f\x1d\x89\x9f\xc2\xc7?'
p404
tp405
Rp406
tp407
a(S'charles f. van loan'
p408
g2
(g6
S'\xdeB\xe5\x90o\xb6\xc7?'
p409
tp410
Rp411
tp412
a(S'list of uncertainty propagation software'
p413
g2
(g6
S'\xc4E\x87\xdc1\x92\xc7?'
p414
tp415
Rp416
tp417
a(S'levenberg\xe2\x80\x93marquardt algorithm'
p418
g2
(g6
S"\ni\x18\xb1'\x89\xc7?"
p419
tp420
Rp421
tp422
a(S'list of numerical libraries'
p423
g2
(g6
S'\xec\xfc\xcd\x17kr\xc7?'
p424
tp425
Rp426
tp427
a(S'probabilistic programming language'
p428
g2
(g6
S'F\x93g\x9fZA\xc7?'
p429
tp430
Rp431
tp432
a(S'propt'
p433
g2
(g6
S'\x16jt\x05\xa04\xc7?'
p434
tp435
Rp436
tp437
a(S"owen's t function"
p438
g2
(g6
S'\tM\x1c\xdc\xa4$\xc7?'
p439
tp440
Rp441
tp442
a(S'list of optimization software'
p443
g2
(g6
S'Z\xa0-\x05@!\xc7?'
p444
tp445
Rp446
tp447
a(S'numpy'
p448
g2
(g6
S'\xd5M\x10\xf6\xcb\xfb\xc6?'
p449
tp450
Rp451
tp452
a(S'stephen c. johnson'
p453
g2
(g6
S'\xf1E\x95P!\xf9\xc6?'
p454
tp455
Rp456
tp457
a(S'robotics simulator'
p458
g2
(g6
S'\xd10s\\\xf3\xef\xc6?'
p459
tp460
Rp461
tp462
a(S'mxnet'
p463
g2
(g6
S'\xbd!\x8ee\x08\xc2\xc6?'
p464
tp465
Rp466
tp467
a(S'cornell university center for advanced computing'
p468
g2
(g6
S'\x1d\xea\xbc\x86\x05\xc2\xc6?'
p469
tp470
Rp471
tp472
a(S'dnanalytics'
p473
g2
(g6
S'\xff\xf0\x02\x10}\xb1\xc6?'
p474
tp475
Rp476
tp477
a(S'transfer entropy'
p478
g2
(g6
S'/y\\\xfdl\x99\xc6?'
p479
tp480
Rp481
tp482
a(S'discrete chebyshev transform'
p483
g2
(g6
S'\xc5f\xec\x18\xca\x85\xc6?'
p484
tp485
Rp486
tp487
a(S'cgns'
p488
g2
(g6
S';G\xc1\xb7^>\xc6?'
p489
tp490
Rp491
tp492
a(S'maple (software)'
p493
g2
(g6
S'\xe7\x0c\xbakf\x1b\xc6?'
p494
tp495
Rp496
tp497
a(S'random sample consensus'
p498
g2
(g6
S'\r\xacs\xa8e\xff\xc5?'
p499
tp500
Rp501
tp502
a(S'lag windowing'
p503
g2
(g6
S'`\x84\x94\xc8\x8e\xf4\xc5?'
p504
tp505
Rp506
tp507
a(S'emso simulator'
p508
g2
(g6
S'01\x9a\xdbD\xf0\xc5?'
p509
tp510
Rp511
tp512
a(S'ecolego'
p513
g2
(g6
S'\xea\x83=\x83\x0c\xdb\xc5?'
p514
tp515
Rp516
tp517
a(S'rational arrival process'
p518
g2
(g6
S'F\x8b\x0e\xd6\xe1\xd6\xc5?'
p519
tp520
Rp521
tp522
a(S'arpack'
p523
g2
(g6
S'E<\xf1\xfa$\x8b\xc5?'
p524
tp525
Rp526
tp527
a(S'polar code (coding theory)'
p528
g2
(g6
S'\x99T8l\t\x83\xc5?'
p529
tp530
Rp531
tp532
a(S'r (programming language)'
p533
g2
(g6
S'\xe0X$\xbb\x8fw\xc5?'
p534
tp535
Rp536
tp537
a(S'keysight vee'
p538
g2
(g6
S'\r\xf1\x8e(\x01g\xc5?'
p539
tp540
Rp541
tp542
a(S'p-code'
p543
g2
(g6
S'\x03\xc4D\xdc\x1db\xc5?'
p544
tp545
Rp546
tp547
a(S'functional mock-up interface'
p548
g2
(g6
S',d\xff\x90\x1aV\xc5?'
p549
tp550
Rp551
tp552
a(S'davies\xe2\x80\x93bouldin index'
p553
g2
(g6
S'r\x94\x84+\xf7U\xc5?'
p554
tp555
Rp556
tp557
a(S'nicholas higham'
p558
g2
(g6
S'w\t?\xb9\xe2U\xc5?'
p559
tp560
Rp561
tp562
a(S'comparison of programming languages (syntax)'
p563
g2
(g6
S'tT\x91\xd4.U\xc5?'
p564
tp565
Rp566
tp567
a(S'structure from motion'
p568
g2
(g6
S'+\xea\xe4\xd1\xe1R\xc5?'
p569
tp570
Rp571
tp572
a(S'econnectome'
p573
g2
(g6
S'@NWf\xc4H\xc5?'
p574
tp575
Rp576
tp577
a(S'iterator'
p578
g2
(g6
S'\xa9k\x14\xa3>C\xc5?'
p579
tp580
Rp581
tp582
a(S'arnaud delorme'
p583
g2
(g6
S'\xf3d8\xbf\xf5 \xc5?'
p584
tp585
Rp586
tp587
a(S'hosvd-based canonical form of tp functions and qlpv models'
p588
g2
(g6
S'\xb4\xd8"_\xfd\xf4\xc4?'
p589
tp590
Rp591
tp592
a(S'hierarchical data format'
p593
g2
(g6
S'\xb6\xc0\xea\xfa\x8c\xe1\xc4?'
p594
tp595
Rp596
tp597
a(S'color wheel graphs of complex functions'
p598
g2
(g6
S'1\xadk1\x0e\xdc\xc4?'
p599
tp600
Rp601
tp602
a(S'rapid control prototyping'
p603
g2
(g6
S'EXF\xd6\x1e\xda\xc4?'
p604
tp605
Rp606
tp607
a(S'snopt'
p608
g2
(g6
S'\x9e\xe6\xfc]\xb3\xcf\xc4?'
p609
tp610
Rp611
tp612
a(S'intermuscular coherence'
p613
g2
(g6
S'\x90\x87\x1c\xf6\x90\xb1\xc4?'
p614
tp615
Rp616
tp617
a(S'kernel regression'
p618
g2
(g6
S'o\xf1\xfe\xaa\x9d\x91\xc4?'
p619
tp620
Rp621
tp622
a(S'andar baahar'
p623
g2
(g6
S'\xcb~\x9b\xe6\xa7\x8d\xc4?'
p624
tp625
Rp626
tp627
a(S'gurobi'
p628
g2
(g6
S'\xe8\xd3\xc9\n\xa1t\xc4?'
p629
tp630
Rp631
tp632
a(S'iss khamoshi ka matlab'
p633
g2
(g6
S'\xfag\x06\x15\xdck\xc4?'
p634
tp635
Rp636
tp637
a(S'ipopt'
p638
g2
(g6
S'n\xef\xcf\x84\x91j\xc4?'
p639
tp640
Rp641
tp642
a(S'list of open-source software for mathematics'
p643
g2
(g6
S'1\xeb\xe8[\x88e\xc4?'
p644
tp645
Rp646
tp647
a(S'notebook interface'
p648
g2
(g6
S'\xcb\x04O\xaeYa\xc4?'
p649
tp650
Rp651
tp652
a(S'minimum polynomial extrapolation'
p653
g2
(g6
S's\xd9"e\xd7R\xc4?'
p654
tp655
Rp656
tp657
a(S'datamelt'
p658
g2
(g6
S'j8\x1d7\xbcH\xc4?'
p659
tp660
Rp661
tp662
a(S'sensitivity analysis of an energyplus model'
p663
g2
(g6
S'\xbc\xd3\x1c\xa0|;\xc4?'
p664
tp665
Rp666
tp667
a(S'jarque\xe2\x80\x93bera test'
p668
g2
(g6
S'\xec4\xc1Sf8\xc4?'
p669
tp670
Rp671
tp672
a(S'lili-128'
p673
g2
(g6
S'I\xe5D\x18t\xff\xc3?'
p674
tp675
Rp676
tp677
a(S'genius (mathematics software)'
p678
g2
(g6
S'\xaea\xda\xb6\xee\xfd\xc3?'
p679
tp680
Rp681
tp682
a(S'eviews'
p683
g2
(g6
S'\xaf\xa07\xac\xcf\xfa\xc3?'
p684
tp685
Rp686
tp687
a(S'nutaq'
p688
g2
(g6
S'\x8cIB_\xfd\xc8\xc3?'
p689
tp690
Rp691
tp692
a(S"steffensen's method"
p693
g2
(g6
S'-\xe5_+\xa5\xa6\xc3?'
p694
tp695
Rp696
tp697
a(S'list of computer algebra systems'
p698
g2
(g6
S"\xea'(N\xfd\x9a\xc3?"
p699
tp700
Rp701
tp702
a(S'automated anatomical labeling'
p703
g2
(g6
S'e?\xa9/\xfc\x97\xc3?'
p704
tp705
Rp706
tp707
a(S'hypot'
p708
g2
(g6
S'W\xda\xe84\xd1\x96\xc3?'
p709
tp710
Rp711
tp712
a(S'abdul azim al-deeb'
p713
g2
(g6
S'y\xb7#\x93@\x91\xc3?'
p714
tp715
Rp716
tp717
a(S'international centre for diarrhoeal disease research, bangladesh'
p718
g2
(g6
S'd\x82\x0b\xbfE\x88\xc3?'
p719
tp720
Rp721
tp722
a(S'iterative closest point'
p723
g2
(g6
S'\x13\xec/9\x19~\xc3?'
p724
tp725
Rp726
tp727
a(S'list of statistical packages'
p728
g2
(g6
S'2\xc0\x8e\xdb\x06h\xc3?'
p729
tp730
Rp731
tp732
a(S'neurophysiological biomarker toolbox'
p733
g2
(g6
S'\xf1e\xeb\xb7\xbda\xc3?'
p734
tp735
Rp736
tp737
a(S'bispectrum'
p738
g2
(g6
S'\x81>\xfc\x8cP^\xc3?'
p739
tp740
Rp741
tp742
a(S'rosenbrock methods'
p743
g2
(g6
S'lb\xee<cX\xc3?'
p744
tp745
Rp746
tp747
a(S'bisque (bioimage analysis and management platform)'
p748
g2
(g6
S'\x9aG\x0c\xb4}U\xc3?'
p749
tp750
Rp751
tp752
a(S'galactic bridges and tails'
p753
g2
(g6
S'\xf5\x87\xb9\xaa\t\x1a\xc3?'
p754
tp755
Rp756
tp757
a(S'tracy\xe2\x80\x93widom distribution'
p758
g2
(g6
S'\xeb3\xa3k\xb5\x17\xc3?'
p759
tp760
Rp761
tp762
a(S'rosenbrock system matrix'
p763
g2
(g6
S'\xfe\x1f\x0c&R\xd7\xc2?'
p764
tp765
Rp766
tp767
a(S'field trip (disambiguation)'
p768
g2
(g6
S"q\xb1W'\x91\xc1\xc2?"
p769
tp770
Rp771
tp772
a(S'elastic net regularization'
p773
g2
(g6
S'D\xd3b\x9d2\x8b\xc2?'
p774
tp775
Rp776
tp777
a(S'clinical data management system'
p778
g2
(g6
S'\xa1\\^\xdct\x84\xc2?'
p779
tp780
Rp781
tp782
a(S'walter gautschi'
p783
g2
(g6
S'\xb1\xb1\xa1\xa9\xd6V\xc2?'
p784
tp785
Rp786
tp787
a(S'fran\xc3\xa7oise tisseur'
p788
g2
(g6
S'\xcd\xbf\xad\xddQT\xc2?'
p789
tp790
Rp791
tp792
a(S'apmonitor'
p793
g2
(g6
S'\\\x04\x8fX\xc1P\xc2?'
p794
tp795
Rp796
tp797
a(S'sammon mapping'
p798
g2
(g6
S'\xa1\xd4\x80\xaa\xebO\xc2?'
p799
tp800
Rp801
tp802
a(S'labelme'
p803
g2
(g6
S'%12\x02\x9fE\xc2?'
p804
tp805
Rp806
tp807
a(S'comparison of deep learning software/resources'
p808
g2
(g6
S'a\xa8\xd8J\xac<\xc2?'
p809
tp810
Rp811
tp812
a(S'labview'
p813
g2
(g6
S'\xa2\x81\xba\xc8\xf1.\xc2?'
p814
tp815
Rp816
tp817
a(S'inca (software)'
p818
g2
(g6
S'2JJ\xf3\xd2,\xc2?'
p819
tp820
Rp821
tp822
a(S'dspace gmbh'
p823
g2
(g6
S'\xa5\xd6\xe9\x11\x8b+\xc2?'
p824
tp825
Rp826
tp827
a(S'quadratically constrained quadratic program'
p828
g2
(g6
S'A_<A5\x1c\xc2?'
p829
tp830
Rp831
tp832
a(S'peppermint (editor)'
p833
g2
(g6
S')\xdb\x83P\x8d\x16\xc2?'
p834
tp835
Rp836
tp837
a(S'multivariate stable distribution'
p838
g2
(g6
S'-\x16\xea\xfa\x99\x15\xc2?'
p839
tp840
Rp841
tp842
a(S'comsol multiphysics'
p843
g2
(g6
S'(\xcf][(\xaf\xc1?'
p844
tp845
Rp846
tp847
a(S'dynamic bayesian network'
p848
g2
(g6
S'\xd3\xcb?U\x83\xae\xc1?'
p849
tp850
Rp851
tp852
a(S'crout matrix decomposition'
p853
g2
(g6
S'\x12\xdf\xa20\xee\x9f\xc1?'
p854
tp855
Rp856
tp857
a(S'alpha generation platform'
p858
g2
(g6
S'\xdc\xf9x\xe5\x86\x80\xc1?'
p859
tp860
Rp861
tp862
a(S'parker\xe2\x80\x93sochacki method'
p863
g2
(g6
S')\xae0\xf5\x08w\xc1?'
p864
tp865
Rp866
tp867
a(S'ictal-interictal spect analysis by spm'
p868
g2
(g6
S'\x061\r$\xc2c\xc1?'
p869
tp870
Rp871
tp872
a(S'bayesian optimization'
p873
g2
(g6
S'\xfd\xcb8\xa5\xc2T\xc1?'
p874
tp875
Rp876
tp877
a(S'gnuplot'
p878
g2
(g6
S'\x1b\xa0\xfdMQT\xc1?'
p879
tp880
Rp881
tp882
a(S'dept. of computer science, university of delhi'
p883
g2
(g6
S'~Y\xc3\xb8\x0cR\xc1?'
p884
tp885
Rp886
tp887
a(S'scip (optimization software)'
p888
g2
(g6
S'y\xde\x8f\x19\xf0E\xc1?'
p889
tp890
Rp891
tp892
a(S'list of object-oriented programming languages'
p893
g2
(g6
S'\n&\xf1H\xab)\xc1?'
p894
tp895
Rp896
tp897
a(S'idl (programming language)'
p898
g2
(g6
S'\xae+\x1d\x10:)\xc1?'
p899
tp900
Rp901
tp902
a(S'brace notation'
p903
g2
(g6
S'\xe9\xf1\xb1qw\x15\xc1?'
p904
tp905
Rp906
tp907
a(S'ilnumerics'
p908
g2
(g6
S'>\x8e,\x94\xef\x11\xc1?'
p909
tp910
Rp911
tp912
a(S'ggplot2'
p913
g2
(g6
S'\xd7\xb1h\x16\x1d\x0b\xc1?'
p914
tp915
Rp916
tp917
a(S'generalized linear mixed model'
p918
g2
(g6
S'=\xb6\x0b\xd6-\xfb\xc0?'
p919
tp920
Rp921
tp922
a(S'list of free geology software'
p923
g2
(g6
S'4\xcd\xd2\xa3\xac\xf3\xc0?'
p924
tp925
Rp926
tp927
a(S'ipt'
p928
g2
(g6
S'X\xad\xa2\x98\x03\xee\xc0?'
p929
tp930
Rp931
tp932
a(S'orbital mechanics for engineering students'
p933
g2
(g6
S'\x81\x0f\x1bk\x0e\xea\xc0?'
p934
tp935
Rp936
tp937
a(S'quandl'
p938
g2
(g6
S'\xa5U\x80\xe3\xfc\xe0\xc0?'
p939
tp940
Rp941
tp942
a(S'fame (database)'
p943
g2
(g6
S'\x8b\xd7\xd7\xd1[\xdf\xc0?'
p944
tp945
Rp946
tp947
a(S'chapel (programming language)'
p948
g2
(g6
S'\x11\xfd\xb0\x0f\x1f\xc4\xc0?'
p949
tp950
Rp951
tp952
a(S'fred optical engineering software'
p953
g2
(g6
S'K\x9d@\x1cL\xc0\xc0?'
p954
tp955
Rp956
tp957
a(S'cantera (software)'
p958
g2
(g6
S'`s\xcd$(\xb3\xc0?'
p959
tp960
Rp961
tp962
a(S'comparison of statistical packages'
p963
g2
(g6
S'\xce\xc7e}\x9e\xaf\xc0?'
p964
tp965
Rp966
tp967
a(S'instrument control'
p968
g2
(g6
S'\x81j\xad\xb51\xa6\xc0?'
p969
tp970
Rp971
tp972
a(S'eeglab'
p973
g2
(g6
S'\xab\x84\xc4\xb6\\\x97\xc0?'
p974
tp975
Rp976
tp977
a(S'data store'
p978
g2
(g6
S'5=\x7f\xb8O\x94\xc0?'
p979
tp980
Rp981
tp982
a(S'one-pass compiler'
p983
g2
(g6
S'\x1e\xfa\x08L\xa0\x8e\xc0?'
p984
tp985
Rp986
tp987
a(S'scipy'
p988
g2
(g6
S'llH\xbb\x8e\x8d\xc0?'
p989
tp990
Rp991
tp992
a(S'octree'
p993
g2
(g6
S'M\xfdG:{\x89\xc0?'
p994
tp995
Rp996
tp997
a(S'bogacki\xe2\x80\x93shampine method'
p998
g2
(g6
S'\xf5W\x0f\xc6\xddi\xc0?'
p999
tp1000
Rp1001
tp1002
a(S'conditional random field'
p1003
g2
(g6
S'\x99\xb2\xb1=ug\xc0?'
p1004
tp1005
Rp1006
tp1007
a(S'hopsan'
p1008
g2
(g6
S'\x8c\x91\x04\x93)a\xc0?'
p1009
tp1010
Rp1011
tp1012
a(S'euler (software)'
p1013
g2
(g6
S'\x94/+\x8a\xdc_\xc0?'
p1014
tp1015
Rp1016
tp1017
a(S'comparison of deep learning software'
p1018
g2
(g6
S'\xb9&\xac\x13\xe3Y\xc0?'
p1019
tp1020
Rp1021
tp1022
a(S'tophat beam'
p1023
g2
(g6
S'\x83\x85\xcb\xe22;\xc0?'
p1024
tp1025
Rp1026
tp1027
a(S'model predictive control'
p1028
g2
(g6
S'Y\xd2u\x13\xeb%\xc0?'
p1029
tp1030
Rp1031
tp1032
a(S'gauss\xe2\x80\x93hermite quadrature'
p1033
g2
(g6
S'\x96\xc8\x8bk\xdd#\xc0?'
p1034
tp1035
Rp1036
tp1037
a(S'math.net numerics'
p1038
g2
(g6
S':]\x05\xf3<\x1e\xc0?'
p1039
tp1040
Rp1041
tp1042
a(S'mex'
p1043
g2
(g6
S'\xf1\xa6\xcd\xeeQ\x17\xc0?'
p1044
tp1045
Rp1046
tp1047
a(S'phidget'
p1048
g2
(g6
S'\x0f\x99\xb1\xcc\xf6\xfc\xbf?'
p1049
tp1050
Rp1051
tp1052
a(S'egon zakraj\xc5\xa1ek'
p1053
g2
(g6
S'\xdf\x0b_e\n\xe0\xbf?'
p1054
tp1055
Rp1056
tp1057
a(S'rainflow-counting algorithm'
p1058
g2
(g6
S'}\xc4$\xe1\xd4\xc1\xbf?'
p1059
tp1060
Rp1061
tp1062
a(S'lucas\xe2\x80\x93kanade method'
p1063
g2
(g6
S'U\xbf<\x1a\x1a\x86\xbf?'
p1064
tp1065
Rp1066
tp1067
a(S'lobpcg'
p1068
g2
(g6
S'\xd5\xbd\xb2\x87Y\x84\xbf?'
p1069
tp1070
Rp1071
tp1072
a(S'mushra'
p1073
g2
(g6
S'@C\xfb\xc32y\xbf?'
p1074
tp1075
Rp1076
tp1077
a(S'cellprofiler'
p1078
g2
(g6
S'`fi\x00\xe3p\xbf?'
p1079
tp1080
Rp1081
tp1082
a(S'targetlink'
p1083
g2
(g6
S'?W\xd9\x87\n^\xbf?'
p1084
tp1085
Rp1086
tp1087
a(S'history of programming languages'
p1088
g2
(g6
S'\xfc\xec\x1d\x89\nH\xbf?'
p1089
tp1090
Rp1091
tp1092
a(S'united states air force stability and control digital datcom'
p1093
g2
(g6
S'Fi\xdcu\xc0:\xbf?'
p1094
tp1095
Rp1096
tp1097
a(S'factor oracle'
p1098
g2
(g6
S'\x8e\xfc\xbc\x9d\xea4\xbf?'
p1099
tp1100
Rp1101
tp1102
a(S'high-level synthesis'
p1103
g2
(g6
S'\xad\xcf\x83Pi\x0e\xbf?'
p1104
tp1105
Rp1106
tp1107
a(S'getfem++'
p1108
g2
(g6
S'\xeb\xd9\xe7\x05\xc1\xfe\xbe?'
p1109
tp1110
Rp1111
tp1112
a(S'1.96'
p1113
g2
(g6
S'\xb2\xc3\x12\r\x95\xfb\xbe?'
p1114
tp1115
Rp1116
tp1117
a(S'variation of information'
p1118
g2
(g6
S'\xd5\x0b\xb5\x04\x9e\xf6\xbe?'
p1119
tp1120
Rp1121
tp1122
a(S'visualsim architect'
p1123
g2
(g6
S'\x94W\xe6\x831\xee\xbe?'
p1124
tp1125
Rp1126
tp1127
a(S'artelys knitro'
p1128
g2
(g6
S'\xbe\xb9@\x11f\xea\xbe?'
p1129
tp1130
Rp1131
tp1132
a(S'gpulib'
p1133
g2
(g6
S'\xae\xb0\x9f\x17\xba\xe3\xbe?'
p1134
tp1135
Rp1136
tp1137
a(S'comparison of multi-paradigm programming languages'
p1138
g2
(g6
S'\x9a\x8c\x1e/>\xb9\xbe?'
p1139
tp1140
Rp1141
tp1142
a(S'matrix-exponential distribution'
p1143
g2
(g6
S'\xce(7\xf1\x11\xad\xbe?'
p1144
tp1145
Rp1146
tp1147
a(S'trilinos'
p1148
g2
(g6
S'\xf5\xb7\x8d\xef\xeb\x9b\xbe?'
p1149
tp1150
Rp1151
tp1152
a(S'altera quartus'
p1153
g2
(g6
S'2\x1eI4\xb8\x92\xbe?'
p1154
tp1155
Rp1156
tp1157
a(S'list of information graphics software'
p1158
g2
(g6
S'\x8cq\x96m\xa7v\xbe?'
p1159
tp1160
Rp1161
tp1162
a(S'bhikanpur, moradabad'
p1163
g2
(g6
S'%.7\n\xd6t\xbe?'
p1164
tp1165
Rp1166
tp1167
a(S'opencv'
p1168
g2
(g6
S'\xc4\xb9\xb7M\x94r\xbe?'
p1169
tp1170
Rp1171
tp1172
a(S'list of programming languages by type'
p1173
g2
(g6
S'\x8c\xee\x8di\x8b7\xbe?'
p1174
tp1175
Rp1176
tp1177
a(S'constantine pozrikidis'
p1178
g2
(g6
S'\xcb]\xef"\x12\x1e\xbe?'
p1179
tp1180
Rp1181
tp1182
a(S'eli (programming language)'
p1183
g2
(g6
S'\xe5\xc1\x11\xf9\x9e\x1b\xbe?'
p1184
tp1185
Rp1186
tp1187
a(S'dr. jivraj mehta institute of technology, anand'
p1188
g2
(g6
S'\xee\xbd\x91p\x0c\x06\xbe?'
p1189
tp1190
Rp1191
tp1192
a(S'pac-car ii'
p1193
g2
(g6
S'/nn\xe0\xea\xf4\xbd?'
p1194
tp1195
Rp1196
tp1197
a(S'libsbml'
p1198
g2
(g6
S'B\xccxk\xb6\xed\xbd?'
p1199
tp1200
Rp1201
tp1202
a(S'inverse laplace transform'
p1203
g2
(g6
S'l\x00X2\x99\xcf\xbd?'
p1204
tp1205
Rp1206
tp1207
a(S'q-function'
p1208
g2
(g6
S'\x91\xab\xe2\xddv\xb6\xbd?'
p1209
tp1210
Rp1211
tp1212
a(S'multilinear principal component analysis'
p1213
g2
(g6
S'%\xec\xd6\x99N\xb5\xbd?'
p1214
tp1215
Rp1216
tp1217
a(S'robotino'
p1218
g2
(g6
S'\x0f$\xbbM\x9d\xae\xbd?'
p1219
tp1220
Rp1221
tp1222
a(S'lanczos algorithm'
p1223
g2
(g6
S'\x94\x85\xe3\x11\xb9\x8f\xbd?'
p1224
tp1225
Rp1226
tp1227
a(S'hibur'
p1228
g2
(g6
S'd4\x89F~p\xbd?'
p1229
tp1230
Rp1231
tp1232
a(S'active shape model'
p1233
g2
(g6
S'\xa0\x193\xc7Ud\xbd?'
p1234
tp1235
Rp1236
tp1237
a(S'ikeda map'
p1238
g2
(g6
S'\xa0\xbb&d\xd4O\xbd?'
p1239
tp1240
Rp1241
tp1242
a(S'sequential quadratic programming'
p1243
g2
(g6
S'\xf8e\xd0;\x1c<\xbd?'
p1244
tp1245
Rp1246
tp1247
a(S'nowcasting (economics)'
p1248
g2
(g6
S'\xd0\xb0yu\xd67\xbd?'
p1249
tp1250
Rp1251
tp1252
a(S'list of computer simulation software'
p1253
g2
(g6
S'\xb1\x90-\xb3\xb82\xbd?'
p1254
tp1255
Rp1256
tp1257
a(S'restricted maximum likelihood'
p1258
g2
(g6
S'\xc0\xeb\x99\xae\x9a\x15\xbd?'
p1259
tp1260
Rp1261
tp1262
a(S'c (programming language)'
p1263
g2
(g6
S'\xf7\x0f\x83=\x87\x01\xbd?'
p1264
tp1265
Rp1266
tp1267
a(S'technology transfer in computer science'
p1268
g2
(g6
S'\xbfz\xf5-P\xe5\xbc?'
p1269
tp1270
Rp1271
tp1272
a(S'statistical region merging'
p1273
g2
(g6
S'\x07F\xc5G\xf7\xcf\xbc?'
p1274
tp1275
Rp1276
tp1277
a(S'netcdf'
p1278
g2
(g6
S'\xc1\xf1\xf0\xec`\xcf\xbc?'
p1279
tp1280
Rp1281
tp1282
a(S'waterfall plot'
p1283
g2
(g6
S'\xafr\xfc\xefL\xc6\xbc?'
p1284
tp1285
Rp1286
tp1287
a(S'gaussian random field'
p1288
g2
(g6
S'\x9e\xa9\xa6C\x18\x97\xbc?'
p1289
tp1290
Rp1291
tp1292
a(S'first-class function'
p1293
g2
(g6
S'\xb0n\x1d\xe3\xc3\x90\xbc?'
p1294
tp1295
Rp1296
tp1297
a(S'engset formula'
p1298
g2
(g6
S'4 `)=\x83\xbc?'
p1299
tp1300
Rp1301
tp1302
a(S'configware/software-co-compilation'
p1303
g2
(g6
S'\xfbbD\xf3\xa1v\xbc?'
p1304
tp1305
Rp1306
tp1307
a(S'competing endogenous rna (cerna) databases and resources'
p1308
g2
(g6
S'&^f\n<b\xbc?'
p1309
tp1310
Rp1311
tp1312
a(S'shooting method'
p1313
g2
(g6
S'nK6d_E\xbc?'
p1314
tp1315
Rp1316
tp1317
a(S'chebyshev\xe2\x80\x93gauss quadrature'
p1318
g2
(g6
S'\xa7cJ\xad\xcf;\xbc?'
p1319
tp1320
Rp1321
tp1322
a(S'kaleybar, khoda afarin and hurand (electoral district)'
p1323
g2
(g6
S'\x02\x9c\x8c1\xb94\xbc?'
p1324
tp1325
Rp1326
tp1327
a(S'settling time'
p1328
g2
(g6
S'\xa6\x0f\xe8\xca\x040\xbc?'
p1329
tp1330
Rp1331
tp1332
a(S'visual modeling'
p1333
g2
(g6
S'\xa6\xe8b~\xcf&\xbc?'
p1334
tp1335
Rp1336
tp1337
a(S'comparison of general and generalized linear models'
p1338
g2
(g6
S'\xf2l^Yg\x1c\xbc?'
p1339
tp1340
Rp1341
tp1342
a(S'list of ambisonic software'
p1343
g2
(g6
S"\x1a\x06'\xccJ\x16\xbc?"
p1344
tp1345
Rp1346
tp1347
a(S'rprop'
p1348
g2
(g6
S'\x1fBHT`\x13\xbc?'
p1349
tp1350
Rp1351
tp1352
a(S'ross\xe2\x80\x93fahroo pseudospectral method'
p1353
g2
(g6
S'\x1f\xac0t\x85\xfc\xbb?'
p1354
tp1355
Rp1356
tp1357
a(S'kinetic preprocessor'
p1358
g2
(g6
S'#\xceJ\xdc\xce\xf7\xbb?'
p1359
tp1360
Rp1361
tp1362
a(S'heuristiclab'
p1363
g2
(g6
S'\x1d\xa52&Z\xea\xbb?'
p1364
tp1365
Rp1366
tp1367
a(S'list of programming languages for artificial intelligence'
p1368
g2
(g6
S'dR\xf6*h\xdb\xbb?'
p1369
tp1370
Rp1371
tp1372
a(S'temporal raster plot'
p1373
g2
(g6
S'~\x84\xfbk\x0b\xce\xbb?'
p1374
tp1375
Rp1376
tp1377
a(S'engineering code snippets project'
p1378
g2
(g6
S'V\x1f\x05f\x94\xbd\xbb?'
p1379
tp1380
Rp1381
tp1382
a(S'tensor software'
p1383
g2
(g6
S';(\x82\xf2\xd9\xba\xbb?'
p1384
tp1385
Rp1386
tp1387
a(S'slope field'
p1388
g2
(g6
S'\xe5K~w6\xb6\xbb?'
p1389
tp1390
Rp1391
tp1392
a(S'navigation function'
p1393
g2
(g6
S'Z\xfcG\xbd\xc1\xb5\xbb?'
p1394
tp1395
Rp1396
tp1397
a(S'hughes executable application for general-purpose optical analysis'
p1398
g2
(g6
S'p\x1bU?\xf6\x9f\xbb?'
p1399
tp1400
Rp1401
tp1402
a(S'andrei knyazev (mathematician)'
p1403
g2
(g6
S'\x9a\x9cc\xb1z\x9f\xbb?'
p1404
tp1405
Rp1406
tp1407
a(S'superparabola'
p1408
g2
(g6
S'4$:\x18\xc7\x91\xbb?'
p1409
tp1410
Rp1411
tp1412
a(S'oscillating merge sort'
p1413
g2
(g6
S'I\x9f\x85\xa0\x7f}\xbb?'
p1414
tp1415
Rp1416
tp1417
a(S'techvaganza'
p1418
g2
(g6
S'\xed\xf7\xc9y\xc2t\xbb?'
p1419
tp1420
Rp1421
tp1422
a(S'orfeo toolbox'
p1423
g2
(g6
S'n\x88\x00\xbchs\xbb?'
p1424
tp1425
Rp1426
tp1427
a(S'total variation denoising'
p1428
g2
(g6
S'\x1d\xf5\x1e\xc43s\xbb?'
p1429
tp1430
Rp1431
tp1432
a(S'astha raut'
p1433
g2
(g6
S'\xb3\x03\x1d\xd9\x1cs\xbb?'
p1434
tp1435
Rp1436
tp1437
a(S'hodrick\xe2\x80\x93prescott filter'
p1438
g2
(g6
S'\xbaY\xe0\x05\xf6k\xbb?'
p1439
tp1440
Rp1441
tp1442
a(S'ken kennedy (computer scientist)'
p1443
g2
(g6
S'\x95I\xb5\xeaob\xbb?'
p1444
tp1445
Rp1446
tp1447
a(S'array slicing'
p1448
g2
(g6
S'\xa3 \xaeE\x9da\xbb?'
p1449
tp1450
Rp1451
tp1452
a(S'movalyzer'
p1453
g2
(g6
S'z\xa4\xbc\x9a\x89P\xbb?'
p1454
tp1455
Rp1456
tp1457
a(S'comparison of programming languages (array)'
p1458
g2
(g6
S'\xe8\xfe\xb6\xae+M\xbb?'
p1459
tp1460
Rp1461
tp1462
a(S'ans'
p1463
g2
(g6
S'@\x11"\xd2\xedL\xbb?'
p1464
tp1465
Rp1466
tp1467
a(S'worhp'
p1468
g2
(g6
S'\r\xad\xb7x\x9aL\xbb?'
p1469
tp1470
Rp1471
tp1472
a(S'automatic programming'
p1473
g2
(g6
S'\x95K\x17\xb8\xecH\xbb?'
p1474
tp1475
Rp1476
tp1477
a(S'amaanat'
p1478
g2
(g6
S'\x85\xe1<\xda\xde>\xbb?'
p1479
tp1480
Rp1481
tp1482
a(S'simulation of transformer'
p1483
g2
(g6
S'\x08v9\xa205\xbb?'
p1484
tp1485
Rp1486
tp1487
a(S'trinity academy (portland, oregon)'
p1488
g2
(g6
S';\x02\xae\x10\xf9\x19\xbb?'
p1489
tp1490
Rp1491
tp1492
a(S'cordic'
p1493
g2
(g6
S'7\xe5\xd96\xb7\x18\xbb?'
p1494
tp1495
Rp1496
tp1497
a(S'biogeography-based optimization'
p1498
g2
(g6
S'0}\x9d@\x0e\x01\xbb?'
p1499
tp1500
Rp1501
tp1502
a(S'opensim (simulation toolkit)'
p1503
g2
(g6
S'\xac\xb8!.\x14\xff\xba?'
p1504
tp1505
Rp1506
tp1507
a(S'desmond higham'
p1508
g2
(g6
S';\xf0\xa6OU\xfb\xba?'
p1509
tp1510
Rp1511
tp1512
a.