(lp0
(S'medical diagnosis'
p1
cnumpy.core.multiarray
scalar
p2
(cnumpy
dtype
p3
(S'f8'
p4
I0
I1
tp5
Rp6
(I3
S'<'
p7
NNNI-1
I-1
I0
tp8
bS'\x00\x00\x00\x00\x00\x00\xf0?'
p9
tp10
Rp11
tp12
a(S'diagnosis of exclusion'
p13
g2
(g6
S'\x99\x1b\x16\xb6a\xa5\xe1?'
p14
tp15
Rp16
tp17
a(S'diagnosis'
p18
g2
(g6
S'\x94\xcb\x82\xdd&l\xe1?'
p19
tp20
Rp21
tp22
a(S'retrospective diagnosis'
p23
g2
(g6
S'\xaf26{,\x11\xe1?'
p24
tp25
Rp26
tp27
a(S'self-diagnosis'
p28
g2
(g6
S'\x90P\xd1q\x80\xe9\xdf?'
p29
tp30
Rp31
tp32
a(S'history of medical diagnosis'
p33
g2
(g6
S'\x9c\xf7\x06\xd7\xe0\xc7\xdf?'
p34
tp35
Rp36
tp37
a(S'wastebasket diagnosis'
p38
g2
(g6
S'\xd0\xb1\x8c\x8a}|\xdf?'
p39
tp40
Rp41
tp42
a(S'medical model'
p43
g2
(g6
S'\xd0zb\xda\x94\x15\xde?'
p44
tp45
Rp46
tp47
a(S'mystery diagnosis'
p48
g2
(g6
S'a\xe8R\x1ak\xac\xdd?'
p49
tp50
Rp51
tp52
a(S'energy field disturbance'
p53
g2
(g6
S'R\x8c\x1d\xf6\xc4`\xdc?'
p54
tp55
Rp56
tp57
a(S'nursing diagnosis'
p58
g2
(g6
S'\x8c_m>\x1a<\xdc?'
p59
tp60
Rp61
tp62
a(S'medical sign'
p63
g2
(g6
S'2\xe1\xe8\x18\x0fl\xdb?'
p64
tp65
Rp66
tp67
a(S'differential diagnosis'
p68
g2
(g6
S'\xfe\xd7\x92NGZ\xdb?'
p69
tp70
Rp71
tp72
a(S'neurasthenia'
p73
g2
(g6
S'+\x0f\x95q\x99U\xdb?'
p74
tp75
Rp76
tp77
a(S'abdominal migraine'
p78
g2
(g6
S'\x1ea\\\xdc\xf7\x0c\xdb?'
p79
tp80
Rp81
tp82
a(S'dxplain'
p83
g2
(g6
S'\x9d^\x98\xde\xcb\xe5\xda?'
p84
tp85
Rp86
tp87
a(S'cholemia'
p88
g2
(g6
S'\xcf<)e\x05\x9b\xda?'
p89
tp90
Rp91
tp92
a(S'diagnosis of asperger syndrome'
p93
g2
(g6
S'Rv\xc3\x0e\x97\x00\xd9?'
p94
tp95
Rp96
tp97
a(S'lead time bias'
p98
g2
(g6
S'\xd8&T\x07\n\xb3\xd8?'
p99
tp100
Rp101
tp102
a(S"sutton's law"
p103
g2
(g6
S'0\xd6odu?\xd8?'
p104
tp105
Rp106
tp107
a(S'erdheim\xe2\x80\x93chester disease'
p108
g2
(g6
S'78\xe2\xc0\x14\xf1\xd7?'
p109
tp110
Rp111
tp112
a(S'samuel guze'
p113
g2
(g6
S'\x1d\xd7`\x16|\xa3\xd7?'
p114
tp115
Rp116
tp117
a(S'scleredema'
p118
g2
(g6
S'\xfd\x89n4\x9f<\xd7?'
p119
tp120
Rp121
tp122
a(S'comorbidity'
p123
g2
(g6
S'\xfed\x04];3\xd7?'
p124
tp125
Rp126
tp127
a(S'national association for the dually diagnosed'
p128
g2
(g6
S'\xf7\x96\xe4c. \xd7?'
p129
tp130
Rp131
tp132
a(S'diagnosis (artificial intelligence)'
p133
g2
(g6
S'l\xa1\xb6`U\xf7\xd6?'
p134
tp135
Rp136
tp137
a(S'organizational diagnostics'
p138
g2
(g6
S"\xa7\xc6c'\xfa\xf3\xd6?"
p139
tp140
Rp141
tp142
a(S'schumacher criteria'
p143
g2
(g6
S't_\xfd\xcf%\x91\xd6?'
p144
tp145
Rp146
tp147
a(S'aortoenteric fistula'
p148
g2
(g6
S'\xbc\x02\x99\xab\xe6O\xd6?'
p149
tp150
Rp151
tp152
a(S'hemophagocytic lymphohistiocytosis'
p153
g2
(g6
S']\xfcG\x8eGE\xd6?'
p154
tp155
Rp156
tp157
a(S'dissociative identity disorder'
p158
g2
(g6
S'\xd7\xb2\x99\xdd\x8b9\xd6?'
p159
tp160
Rp161
tp162
a(S'cyberchondria'
p163
g2
(g6
S'\x1f\x9b\x12D\r*\xd6?'
p164
tp165
Rp166
tp167
a(S'medical history'
p168
g2
(g6
S'\x8b\xa1\xed\xa5\xd1\x13\xd6?'
p169
tp170
Rp171
tp172
a(S'computer-aided simple triage'
p173
g2
(g6
S'2\x89\x95\xbbS\x04\xd6?'
p174
tp175
Rp176
tp177
a(S'clinical decision support system'
p178
g2
(g6
S'\x8c\x17\xf7\x97\xfb\xc8\xd5?'
p179
tp180
Rp181
tp182
a(S'diagnosis code'
p183
g2
(g6
S'`\xf4\x83\xa7L\xa0\xd5?'
p184
tp185
Rp186
tp187
a(S'malingering'
p188
g2
(g6
S'\x1c\xcf8=\x04S\xd5?'
p189
tp190
Rp191
tp192
a(S'jandreau vs. nicholson'
p193
g2
(g6
S'b*\x11\x85\xf3P\xd5?'
p194
tp195
Rp196
tp197
a(S'pseudoangiomatous stromal hyperplasia'
p198
g2
(g6
S'\x94\xfb7\xec\xc2I\xd5?'
p199
tp200
Rp201
tp202
a(S'diagnostic robot'
p203
g2
(g6
S'+\x90\xa5\xd5\xebC\xd5?'
p204
tp205
Rp206
tp207
a(S'soap note'
p208
g2
(g6
S'}41\x7f\x14C\xd5?'
p209
tp210
Rp211
tp212
a(S'yamada k\xc5\x8drin'
p213
g2
(g6
S'\xaei\xa3\xe2\xb6@\xd5?'
p214
tp215
Rp216
tp217
a(S'major diagnostic category'
p218
g2
(g6
S'\xcb\x8b\xdd:\xc0>\xd5?'
p219
tp220
Rp221
tp222
a(S"doctor's visit"
p223
g2
(g6
S'\x81\xc4\x10\xfaI%\xd5?'
p224
tp225
Rp226
tp227
a(S'definitive diagnostic data'
p228
g2
(g6
S'\xd4W\xf9\x1dI$\xd5?'
p229
tp230
Rp231
tp232
a(S'mole map (dermatology)'
p233
g2
(g6
S'\xd0\x16\xdb\r]\x06\xd5?'
p234
tp235
Rp236
tp237
a(S'visualdx'
p238
g2
(g6
S'H\x94\xfb\xad]\xfc\xd4?'
p239
tp240
Rp241
tp242
a(S'medically unexplained physical symptoms'
p243
g2
(g6
S'\xa9\x1f\xc7\x05(\xf6\xd4?'
p244
tp245
Rp246
tp247
a(S'dysferlinopathy'
p248
g2
(g6
S',I\x16\xba\xe3\xe8\xd4?'
p249
tp250
Rp251
tp252
a(S'coordinated diagnostics'
p253
g2
(g6
S'\x02\xe9\x96\xacO\xe7\xd4?'
p254
tp255
Rp256
tp257
a(S'depression of alzheimer disease'
p258
g2
(g6
S'\x08\x05\xc3\xf7Y\xc6\xd4?'
p259
tp260
Rp261
tp262
a(S'gefek'
p263
g2
(g6
S'+?<\xb5\xff\x9a\xd4?'
p264
tp265
Rp266
tp267
a(S'chronic inflammatory demyelinating polyneuropathy'
p268
g2
(g6
S'!En\xf9\xbc\x95\xd4?'
p269
tp270
Rp271
tp272
a(S'chinese classification of mental disorders'
p273
g2
(g6
S'=\xf0\xd3]\x8f\x81\xd4?'
p274
tp275
Rp276
tp277
a(S'in absentia health care'
p278
g2
(g6
S'\xe0\xcapeFc\xd4?'
p279
tp280
Rp281
tp282
a(S'premenstrual dysphoric disorder'
p283
g2
(g6
S'\x8e\xd1\xad<rK\xd4?'
p284
tp285
Rp286
tp287
a(S'diagnostic electron microscopy'
p288
g2
(g6
S'\xc9\xbc\xe5,\x96.\xd4?'
p289
tp290
Rp291
tp292
a(S'model-based reasoning'
p293
g2
(g6
S'\xa9FU&b\x11\xd4?'
p294
tp295
Rp296
tp297
a(S'journal of diagnostic medical sonography'
p298
g2
(g6
S'4\x9c\xb7-\xb2\x0e\xd4?'
p299
tp300
Rp301
tp302
a(S'diagnostic classification of mental health and developmental disorders of infancy and early childhood'
p303
g2
(g6
S'\x0e.iX\x15\xf6\xd3?'
p304
tp305
Rp306
tp307
a(S'idiopathic pulmonary fibrosis'
p308
g2
(g6
S'\xadg\x07\xbe\x87\xca\xd3?'
p309
tp310
Rp311
tp312
a(S'sunquest information systems'
p313
g2
(g6
S'\x98\xeb\xa9\xf0\x9c\x95\xd3?'
p314
tp315
Rp316
tp317
a(S'peter szatmari'
p318
g2
(g6
S'\xb8\x85\xda\x0c\xcd\x91\xd3?'
p319
tp320
Rp321
tp322
a(S'controversy surrounding psychiatry'
p323
g2
(g6
S'\x01\xc2\xbf=C\x8e\xd3?'
p324
tp325
Rp326
tp327
a(S'overdiagnosis'
p328
g2
(g6
S'\x128\x13\xbf\xc6\x8b\xd3?'
p329
tp330
Rp331
tp332
a(S'dual-role transvestism'
p333
g2
(g6
S'U<\xf8\x8b\x13\x81\xd3?'
p334
tp335
Rp336
tp337
a(S'functional neurological symptom disorder'
p338
g2
(g6
S'E\x1a\xc3\x18\xc2{\xd3?'
p339
tp340
Rp341
tp342
a(S'vulvodynia'
p343
g2
(g6
S'\xf4\xd2\xff\x85\x9ew\xd3?'
p344
tp345
Rp346
tp347
a(S'case mix'
p348
g2
(g6
S'\xfb\x0c1\xa3Tw\xd3?'
p349
tp350
Rp351
tp352
a(S'readiness for enhanced spiritual well-being'
p353
g2
(g6
S'3\x1a\xb2\x02\x1bv\xd3?'
p354
tp355
Rp356
tp357
a(S'schizoaffective disorder'
p358
g2
(g6
S'\x99\x7f[_\x08b\xd3?'
p359
tp360
Rp361
tp362
a(S'enteric neuropathy'
p363
g2
(g6
S"\x04'\x93{\xc9Y\xd3?"
p364
tp365
Rp366
tp367
a(S'the deadly dinner party'
p368
g2
(g6
S'0\xc4\x17\x99\xff7\xd3?'
p369
tp370
Rp371
tp372
a(S'medical record'
p373
g2
(g6
S'\xc1\x16\xce\xf2\xfa3\xd3?'
p374
tp375
Rp376
tp377
a(S'idiographic image'
p378
g2
(g6
S'\xec\xb3\n\xc7_0\xd3?'
p379
tp380
Rp381
tp382
a(S'granulomatous\xe2\x80\x93lymphocytic interstitial lung disease'
p383
g2
(g6
S'7\xb7\x8c\xb9\xde,\xd3?'
p384
tp385
Rp386
tp387
a(S"adult-onset still's disease"
p388
g2
(g6
S'\x8b\x1dR\x0cU\x1e\xd3?'
p389
tp390
Rp391
tp392
a(S'clinical descriptions of chronic fatigue syndrome'
p393
g2
(g6
S'\x1c$\xdcEr\x1d\xd3?'
p394
tp395
Rp396
tp397
a(S'microvillous inclusion disease'
p398
g2
(g6
S'!\x82\xce!\xe8\x05\xd3?'
p399
tp400
Rp401
tp402
a(S'erasmus darwin hudson, jr.'
p403
g2
(g6
S'\x8f\xb4\xc5\xc0b\xf2\xd2?'
p404
tp405
Rp406
tp407
a(S'physical examination'
p408
g2
(g6
S'CG\x9c&\x85\xee\xd2?'
p409
tp410
Rp411
tp412
a(S'adjustment disorder'
p413
g2
(g6
S'k\x93\xd6N\x1f\xc4\xd2?'
p414
tp415
Rp416
tp417
a(S'zebra (medicine)'
p418
g2
(g6
S"n\x1b'\x97\x9b\xbe\xd2?"
p419
tp420
Rp421
tp422
a(S'hypotrichosis with juvenile macular dystrophy'
p423
g2
(g6
S'l\xd0\xce\xa1l\xb6\xd2?'
p424
tp425
Rp426
tp427
a(S'intussusception (medical disorder)'
p428
g2
(g6
S'\xc3-\xc5\x0cZ\xaf\xd2?'
p429
tp430
Rp431
tp432
a(S'cyclothymia'
p433
g2
(g6
S'\x15"\x17\'\x02\xa6\xd2?'
p434
tp435
Rp436
tp437
a(S'diagnosis of malaria'
p438
g2
(g6
S'\xf5\xe2\x8f\xcb\x15\x9f\xd2?'
p439
tp440
Rp441
tp442
a(S'medical equipment'
p443
g2
(g6
S'\xda\x13\xba\xb7\xe5\x89\xd2?'
p444
tp445
Rp446
tp447
a(S'butyrate esterase'
p448
g2
(g6
S'>\x98\x0b .v\xd2?'
p449
tp450
Rp451
tp452
a(S'medical findings'
p453
g2
(g6
S'\xd6E\xadn\xe6[\xd2?'
p454
tp455
Rp456
tp457
a(S'medicine'
p458
g2
(g6
S'\xd6\xfcY\xc5\xc2K\xd2?'
p459
tp460
Rp461
tp462
a(S'trypanosomiasis'
p463
g2
(g6
S'\x1f\xf6\x83\t\x98H\xd2?'
p464
tp465
Rp466
tp467
a(S'hydranencephaly'
p468
g2
(g6
S'?\xa2\xe3\xdf\xd89\xd2?'
p469
tp470
Rp471
tp472
a(S'not otherwise specified'
p473
g2
(g6
S'\xcb\xa5``\xbf)\xd2?'
p474
tp475
Rp476
tp477
a(S'bipolar disorder in children'
p478
g2
(g6
S'pE=\x17\x85%\xd2?'
p479
tp480
Rp481
tp482
a(S'chorea acanthocytosis'
p483
g2
(g6
S'H]V\xa1\x8a$\xd2?'
p484
tp485
Rp486
tp487
a(S'undifferentiated connective tissue disease'
p488
g2
(g6
S'w/\x91\x7f\xee \xd2?'
p489
tp490
Rp491
tp492
a(S'list of medical abbreviations: 0\xe2\x80\x939'
p493
g2
(g6
S'\xd0\x05{\xeb\xef\x14\xd2?'
p494
tp495
Rp496
tp497
a(S'mindray medical international limited'
p498
g2
(g6
S'\xf4\xc1J\xb8\xd2\x10\xd2?'
p499
tp500
Rp501
tp502
a(S'pervasive developmental disorder not otherwise specified'
p503
g2
(g6
S'G\xf4\x10\x0fy\x08\xd2?'
p504
tp505
Rp506
tp507
a(S'hypochondriasis'
p508
g2
(g6
S'\xcf\xc1\x08\xe9\x1a\xf8\xd1?'
p509
tp510
Rp511
tp512
a(S'feline cognitive dysfunction'
p513
g2
(g6
S'\xae\x11*\xbf\xf7\xf4\xd1?'
p514
tp515
Rp516
tp517
a(S'.cancerresearch'
p518
g2
(g6
S'R\xca\xa5\xc5;\xef\xd1?'
p519
tp520
Rp521
tp522
a(S'neuroradiology'
p523
g2
(g6
S'+\x8b\x8b\xd0Y\xe9\xd1?'
p524
tp525
Rp526
tp527
a(S'pathognomonic'
p528
g2
(g6
S':\xe3\x8a\xc5\x81\xd3\xd1?'
p529
tp530
Rp531
tp532
a(S'copenhagen diagnosis'
p533
g2
(g6
S'\xfb\x1b5\t\x7f\xd2\xd1?'
p534
tp535
Rp536
tp537
a(S'second opinion (tv series)'
p538
g2
(g6
S'L\xf4\xf0\xb4\xe5\xcf\xd1?'
p539
tp540
Rp541
tp542
a(S'symptom'
p543
g2
(g6
S'Y]\xf3\x9fL\xcc\xd1?'
p544
tp545
Rp546
tp547
a(S'alternating hemiplegia of childhood'
p548
g2
(g6
S'\x86\x9f\xb3\xa6j\xc7\xd1?'
p549
tp550
Rp551
tp552
a(S'brainstem death'
p553
g2
(g6
S'\xef$\x85\x90\xa5\xc1\xd1?'
p554
tp555
Rp556
tp557
a(S'canards sign'
p558
g2
(g6
S'}\xe1\xfd\x00\xc5\xb6\xd1?'
p559
tp560
Rp561
tp562
a(S'polyarteritis nodosa'
p563
g2
(g6
S'\xa2\xd05a\xc0\xaf\xd1?'
p564
tp565
Rp566
tp567
a(S'diagnosis: unknown'
p568
g2
(g6
S'\x9c\x86\xb9J\x98\xad\xd1?'
p569
tp570
Rp571
tp572
a(S'patient management software'
p573
g2
(g6
S'\x1c\xf3;\xe1\xde\x9c\xd1?'
p574
tp575
Rp576
tp577
a(S'rosenhan experiment'
p578
g2
(g6
S'S5\xb4\xc9\xc4\x97\xd1?'
p579
tp580
Rp581
tp582
a(S"dr. chud's x-ward"
p583
g2
(g6
S'[wf\xcc\x8e\x90\xd1?'
p584
tp585
Rp586
tp587
a(S'sally j. rogers'
p588
g2
(g6
S'\xc0B\x17\xa9\x19\x8f\xd1?'
p589
tp590
Rp591
tp592
a(S'presenting problem'
p593
g2
(g6
S'\x8b\xe7\xde\xc4}\x8e\xd1?'
p594
tp595
Rp596
tp597
a(S'que sera sera (house)'
p598
g2
(g6
S'k\x87f/\xcb\x8a\xd1?'
p599
tp600
Rp601
tp602
a(S'international society for clinical electrophysiology of vision'
p603
g2
(g6
S'I"\x82\x99\xb3\x89\xd1?'
p604
tp605
Rp606
tp607
a(S'somatic symptom disorder'
p608
g2
(g6
S'yk\x0c\xd4r\x89\xd1?'
p609
tp610
Rp611
tp612
a(S'gianotti\xe2\x80\x93crosti syndrome'
p613
g2
(g6
S'\xdeF\xc4\x05x\x80\xd1?'
p614
tp615
Rp616
tp617
a(S'natasha demkina'
p618
g2
(g6
S'\xb7}|\x02;\x80\xd1?'
p619
tp620
Rp621
tp622
a(S'nephroptosis'
p623
g2
(g6
S'\xe1\xd9\xa6q\xefq\xd1?'
p624
tp625
Rp626
tp627
a(S'david rosenhan'
p628
g2
(g6
S'\x04-\x9e\xa6\x08n\xd1?'
p629
tp630
Rp631
tp632
a(S'diagnostic criteria for ms'
p633
g2
(g6
S'\xe3\xa5\x98\xbd\xbbc\xd1?'
p634
tp635
Rp636
tp637
a(S'texas veterinary medical diagnostic laboratory'
p638
g2
(g6
S'5z\xcaK\x1e_\xd1?'
p639
tp640
Rp641
tp642
a(S'asperger syndrome'
p643
g2
(g6
S'\x96\xfd\xcb\xba\xee]\xd1?'
p644
tp645
Rp646
tp647
a(S'nosology'
p648
g2
(g6
S'\x90\xf5\x0e\xeal\\\xd1?'
p649
tp650
Rp651
tp652
a(S'family history (medicine)'
p653
g2
(g6
S'Z{r\x86\xd2[\xd1?'
p654
tp655
Rp656
tp657
a(S'hospital-acquired condition'
p658
g2
(g6
S'\xefI\xf2\xbc\x13T\xd1?'
p659
tp660
Rp661
tp662
a(S'myroslav slaboshpytskyi'
p663
g2
(g6
S'1H|j\xbeF\xd1?'
p664
tp665
Rp666
tp667
a(S'psychiatric history'
p668
g2
(g6
S'\xd4o6\xe4\xd0>\xd1?'
p669
tp670
Rp671
tp672
a(S'pemphigus vulgaris'
p673
g2
(g6
S'_\xc2\x08\n:9\xd1?'
p674
tp675
Rp676
tp677
a(S'jansky\xe2\x80\x93bielschowsky disease'
p678
g2
(g6
S'\x81a\xe0A\x187\xd1?'
p679
tp680
Rp681
tp682
a(S'mitochondrial neurogastrointestinal encephalopathy syndrome'
p683
g2
(g6
S'\xdb\x1bF\xff\xd95\xd1?'
p684
tp685
Rp686
tp687
a(S'penicilliosis'
p688
g2
(g6
S'\\\x84~c\x03&\xd1?'
p689
tp690
Rp691
tp692
a(S'adiposis dolorosa'
p693
g2
(g6
S'=\xa6\x8bK\x99\x0f\xd1?'
p694
tp695
Rp696
tp697
a(S'cerebral vasculitis'
p698
g2
(g6
S'\xfd\x89>\xab\x1c\x0b\xd1?'
p699
tp700
Rp701
tp702
a(S'cardiac tamponade'
p703
g2
(g6
S'\xc0=P\xd2\xc2\n\xd1?'
p704
tp705
Rp706
tp707
a(S'fev1/fvc ratio'
p708
g2
(g6
S'\x03\xba\xa8\xfeX\x06\xd1?'
p709
tp710
Rp711
tp712
a(S'disease'
p713
g2
(g6
S'o\xbdQ\x95\x8f\x04\xd1?'
p714
tp715
Rp716
tp717
a(S'israel doniach'
p718
g2
(g6
S"\xdel'\xfc\xc9\x03\xd1?"
p719
tp720
Rp721
tp722
a(S'dacryocystocele'
p723
g2
(g6
S'\x8a\x12M]\xde\x01\xd1?'
p724
tp725
Rp726
tp727
a(S'pathergy'
p728
g2
(g6
S')\xc0\xca\x97\xd4\xfb\xd0?'
p729
tp730
Rp731
tp732
a(S'gender-bias in medical diagnosis'
p733
g2
(g6
S'\xc65Q\x9b\xac\xf9\xd0?'
p734
tp735
Rp736
tp737
a(S'psychodynamic diagnostic manual'
p738
g2
(g6
S'\xb6\x146c\x16\xf2\xd0?'
p739
tp740
Rp741
tp742
a(S'interferon gamma release assay'
p743
g2
(g6
S'\x9e\x1b\xd8#\xa7\xeb\xd0?'
p744
tp745
Rp746
tp747
a(S'doctor\xe2\x80\x93patient relationship'
p748
g2
(g6
S'\x93926\x90\xe7\xd0?'
p749
tp750
Rp751
tp752
a(S'prognosis'
p753
g2
(g6
S'\xca\x91\xbe\xcb\xb4\xe5\xd0?'
p754
tp755
Rp756
tp757
a(S'pulmonary venoocclusive disease'
p758
g2
(g6
S'q\xde0\x9a\x9b\xdf\xd0?'
p759
tp760
Rp761
tp762
a(S'medical test'
p763
g2
(g6
S'\xcbz\xa2\xd5G\xdb\xd0?'
p764
tp765
Rp766
tp767
a(S'mycin'
p768
g2
(g6
S'\xe7@\xf1\xe8\x9d\xd5\xd0?'
p769
tp770
Rp771
tp772
a(S'risk of mortality'
p773
g2
(g6
S'\x1c\x02\xfdM\xeb\xd3\xd0?'
p774
tp775
Rp776
tp777
a(S'poser criteria'
p778
g2
(g6
S'-$\xa4J\xd6\xd1\xd0?'
p779
tp780
Rp781
tp782
a(S'dyscopia'
p783
g2
(g6
S'\xb4\x03\xc5\x05\x04\xd1\xd0?'
p784
tp785
Rp786
tp787
a(S'neuromyotonia'
p788
g2
(g6
S'\xef7+\xeb@\xbf\xd0?'
p789
tp790
Rp791
tp792
a(S'patient first'
p793
g2
(g6
S'0\x1f\x05\x00f\xbc\xd0?'
p794
tp795
Rp796
tp797
a(S"medical students' disease"
p798
g2
(g6
S'1\xb9\xeb!\x06\xa7\xd0?'
p799
tp800
Rp801
tp802
a(S'international lyme and associated diseases society'
p803
g2
(g6
S'zT\xf6i\x17\xa6\xd0?'
p804
tp805
Rp806
tp807
a(S'clinically isolated syndrome'
p808
g2
(g6
S'$-\x90\xfb\x17\xa4\xd0?'
p809
tp810
Rp811
tp812
a(S'peutz\xe2\x80\x93jeghers syndrome'
p813
g2
(g6
S'\x88\xd7u\x03\xec\xa1\xd0?'
p814
tp815
Rp816
tp817
a(S'sanchez-benitez vs west'
p818
g2
(g6
S'\x14*\xb7b\xf2\x89\xd0?'
p819
tp820
Rp821
tp822
a(S'ameboma'
p823
g2
(g6
S'\xae\xcd\xeb\x03\xe7\x82\xd0?'
p824
tp825
Rp826
tp827
a(S'preimplantation genetic diagnosis'
p828
g2
(g6
S"'vW\x1a\x1b\x80\xd0?"
p829
tp830
Rp831
tp832
a(S'porcine enzootic pneumonia'
p833
g2
(g6
S'\xa7\xbe\x10\x8day\xd0?'
p834
tp835
Rp836
tp837
a(S'medical intuitive'
p838
g2
(g6
S'%\x9cw!\xafv\xd0?'
p839
tp840
Rp841
tp842
a(S'floating\xe2\x80\x93harbor syndrome'
p843
g2
(g6
S']%Z\x85\x19n\xd0?'
p844
tp845
Rp846
tp847
a(S'asipu'
p848
g2
(g6
S'<\r\xb4\xd2\xeag\xd0?'
p849
tp850
Rp851
tp852
a(S"derzsy's disease"
p853
g2
(g6
S'\xf1\x94#\xbf\x88_\xd0?'
p854
tp855
Rp856
tp857
a(S'hulusi beh\xc3\xa7et'
p858
g2
(g6
S'\xc6\xcf\x98LVY\xd0?'
p859
tp860
Rp861
tp862
a(S'riemerella anatipestifer'
p863
g2
(g6
S'\xd3r\xce\xce\xa9T\xd0?'
p864
tp865
Rp866
tp867
a(S'catamnesis'
p868
g2
(g6
S'\x86\xc6\\A\xdfP\xd0?'
p869
tp870
Rp871
tp872
a(S'severe achondroplasia with developmental delay and acanthosis nigricans'
p873
g2
(g6
S'\xb9\x0e\xeaQ\xb9O\xd0?'
p874
tp875
Rp876
tp877
a(S'syndrome without a name'
p878
g2
(g6
S'y\xa0\xa7\xd3\x93O\xd0?'
p879
tp880
Rp881
tp882
a(S'epizootic ulcerative syndrome'
p883
g2
(g6
S'\xd9J\x85\xa0.O\xd0?'
p884
tp885
Rp886
tp887
a(S'crowdmed'
p888
g2
(g6
S'H]\x07@\x97E\xd0?'
p889
tp890
Rp891
tp892
a(S'mycosis fungoides'
p893
g2
(g6
S'V\x90\xd8\xd77=\xd0?'
p894
tp895
Rp896
tp897
a(S'medical advice'
p898
g2
(g6
S'h\n\x84:\xc9<\xd0?'
p899
tp900
Rp901
tp902
a(S'diagnostic and statistical manual of mental disorders'
p903
g2
(g6
S'\xea:\x0e\xb7J7\xd0?'
p904
tp905
Rp906
tp907
a(S'trichostasis spinulosa'
p908
g2
(g6
S'_\x95K\xc6Z6\xd0?'
p909
tp910
Rp911
tp912
a(S'enchondroma'
p913
g2
(g6
S'\xecGx\x9f\xc0)\xd0?'
p914
tp915
Rp916
tp917
a(S'medical error'
p918
g2
(g6
S'\xf2\x17\xcc\xfa\x98%\xd0?'
p919
tp920
Rp921
tp922
a(S'benign fasciculation syndrome'
p923
g2
(g6
S'\xf8\xe10\xd5\xf0#\xd0?'
p924
tp925
Rp926
tp927
a(S'heterogeneous condition'
p928
g2
(g6
S'\xa4\xb1\xbf\xa3y!\xd0?'
p929
tp930
Rp931
tp932
a(S'diagnostically acceptable irreversible compression'
p933
g2
(g6
S'c\xaa\xc9.\xf3\x0f\xd0?'
p934
tp935
Rp936
tp937
a(S'neuroborreliosis'
p938
g2
(g6
S']\xb2Lp\xe5\x01\xd0?'
p939
tp940
Rp941
tp942
a(S'medical literature'
p943
g2
(g6
S'\xc9u\xdbC$\xff\xcf?'
p944
tp945
Rp946
tp947
a(S'precede-proceed model'
p948
g2
(g6
S'<n\xf3\x7fA\xfc\xcf?'
p949
tp950
Rp951
tp952
a(S'depression (differential diagnoses)'
p953
g2
(g6
S'\xa0F\xc9P\x13\xfa\xcf?'
p954
tp955
Rp956
tp957
a(S'biocartis sa'
p958
g2
(g6
S'\xb0^\xb5C\xbb\xe6\xcf?'
p959
tp960
Rp961
tp962
a(S'alternating hemiplegia'
p963
g2
(g6
S'\x91\xa3\xd9j\xd2\xd5\xcf?'
p964
tp965
Rp966
tp967
a(S'pulmonary pathology'
p968
g2
(g6
S'\x1f\x13\x97]H\xc9\xcf?'
p969
tp970
Rp971
tp972
a(S'carotidynia'
p973
g2
(g6
S'\xf9\xad\xa8%`\xc1\xcf?'
p974
tp975
Rp976
tp977
a(S'how doctors think'
p978
g2
(g6
S'h\x82\xef\xf6\xc7\xbd\xcf?'
p979
tp980
Rp981
tp982
a(S'paternity (house)'
p983
g2
(g6
S'\x1dbRy\x03\xab\xcf?'
p984
tp985
Rp986
tp987
a(S'terminal complement pathway deficiency'
p988
g2
(g6
S'\xee\xef\x92Y\x9f\x9e\xcf?'
p989
tp990
Rp991
tp992
a(S'krabbe disease'
p993
g2
(g6
S'\x05@`\xfa\x13\x9b\xcf?'
p994
tp995
Rp996
tp997
a(S'fibromyalgia'
p998
g2
(g6
S'jb5G\x9f\x96\xcf?'
p999
tp1000
Rp1001
tp1002
a(S'brachylaima'
p1003
g2
(g6
S'O\x1d\x08O\xcf\x8e\xcf?'
p1004
tp1005
Rp1006
tp1007
a(S'schooliosis'
p1008
g2
(g6
S'\xa9K\x10a\x8f\x8b\xcf?'
p1009
tp1010
Rp1011
tp1012
a(S'philip scheltens'
p1013
g2
(g6
S'\x1d\xa8\xed\x82"\x8a\xcf?'
p1014
tp1015
Rp1016
tp1017
a(S'frozen section procedure'
p1018
g2
(g6
S'\x96f\xcb\xe7\x81\x88\xcf?'
p1019
tp1020
Rp1021
tp1022
a(S'medical physicist'
p1023
g2
(g6
S'\xd4\xbf\xd6\xc5\xb8\x80\xcf?'
p1024
tp1025
Rp1026
tp1027
a(S'laboratory specimen'
p1028
g2
(g6
S'5"]\x8d\xa6~\xcf?'
p1029
tp1030
Rp1031
tp1032
a(S'hamburger sign'
p1033
g2
(g6
S'\xfb\xe78D\x13}\xcf?'
p1034
tp1035
Rp1036
tp1037
a(S'diagnostic medical sonography'
p1038
g2
(g6
S'#\x9c\xd1\xe3\x1dv\xcf?'
p1039
tp1040
Rp1041
tp1042
a(S'national veterinary services laboratory'
p1043
g2
(g6
S'\xa8)R\xd8tp\xcf?'
p1044
tp1045
Rp1046
tp1047
a(S'classification of mental disorders'
p1048
g2
(g6
S'\x84\xe8\xea\xcb.c\xcf?'
p1049
tp1050
Rp1051
tp1052
a(S'medical genetics'
p1053
g2
(g6
S'Y\x0c@\xf2\xd2b\xcf?'
p1054
tp1055
Rp1056
tp1057
a(S'psittacosis'
p1058
g2
(g6
S'\xddz\xf3\xe9o_\xcf?'
p1059
tp1060
Rp1061
tp1062
a(S'bilious fever'
p1063
g2
(g6
S'.1\xef\x80\xc2Q\xcf?'
p1064
tp1065
Rp1066
tp1067
a(S'diagnostic odds ratio'
p1068
g2
(g6
S'\t\xe1\xc5+qH\xcf?'
p1069
tp1070
Rp1071
tp1072
a(S'antibodies from lymphocyte secretions'
p1073
g2
(g6
S'\xe9\xd3\x8fk\x97E\xcf?'
p1074
tp1075
Rp1076
tp1077
a(S'ichthyosis follicularis with alopecia and photophobia syndrome'
p1078
g2
(g6
S'\x9d\x18\x06oz&\xcf?'
p1079
tp1080
Rp1081
tp1082
a(S'pathology'
p1083
g2
(g6
S'\xf3\x12\x8c\x99/%\xcf?'
p1084
tp1085
Rp1086
tp1087
a(S'george winokur'
p1088
g2
(g6
S'|\xfb`W_#\xcf?'
p1089
tp1090
Rp1091
tp1092
a(S'aortography'
p1093
g2
(g6
S'\xfeS\xd49\xe2\x1a\xcf?'
p1094
tp1095
Rp1096
tp1097
a(S'functional weakness'
p1098
g2
(g6
S'YV\x9d\xeb\xb0\x19\xcf?'
p1099
tp1100
Rp1101
tp1102
a(S'urachal cancer'
p1103
g2
(g6
S'\x81o\xf09R\xfc\xce?'
p1104
tp1105
Rp1106
tp1107
a(S'canine chiari-like malformation'
p1108
g2
(g6
S'\x81\x17\x10I\xbc\xfb\xce?'
p1109
tp1110
Rp1111
tp1112
a(S'patient education'
p1113
g2
(g6
S'\xe3!(0N\xf7\xce?'
p1114
tp1115
Rp1116
tp1117
a(S'noonan syndrome with multiple lentigines'
p1118
g2
(g6
S'\xa3\x81Z\xe5j\xd5\xce?'
p1119
tp1120
Rp1121
tp1122
a(S'teledermatology'
p1123
g2
(g6
S'\x90\xdf7\xfaG\xcf\xce?'
p1124
tp1125
Rp1126
tp1127
a(S'dysautonomia'
p1128
g2
(g6
S'\x07+T2&\xcf\xce?'
p1129
tp1130
Rp1131
tp1132
a(S'primary polydipsia'
p1133
g2
(g6
S'\x91P\x01n\x17\xc7\xce?'
p1134
tp1135
Rp1136
tp1137
a(S'expert opinion on medical diagnostics'
p1138
g2
(g6
S'=\xa6\x0f\x1cZ\xba\xce?'
p1139
tp1140
Rp1141
tp1142
a(S'juan mezzich'
p1143
g2
(g6
S'\xaa\xff.\x0bk\xb9\xce?'
p1144
tp1145
Rp1146
tp1147
a(S'much-holzmann reaction'
p1148
g2
(g6
S';\xf5D\x98\x01\xa0\xce?'
p1149
tp1150
Rp1151
tp1152
a(S'psychoeducation'
p1153
g2
(g6
S'{$8\x0c\xf4\x8e\xce?'
p1154
tp1155
Rp1156
tp1157
a(S'skyland trail'
p1158
g2
(g6
S'\x95\xf3\xc15\xf5\x8c\xce?'
p1159
tp1160
Rp1161
tp1162
a(S'medical ethics'
p1163
g2
(g6
S'\x8c\xd5g\x8e\xe0\x8a\xce?'
p1164
tp1165
Rp1166
tp1167
a(S'bovine coronavirus'
p1168
g2
(g6
S'gKpN\xa6\x82\xce?'
p1169
tp1170
Rp1171
tp1172
a(S'myelopathy'
p1173
g2
(g6
S'\xa5Y6\x077u\xce?'
p1174
tp1175
Rp1176
tp1177
a(S'alone (house)'
p1178
g2
(g6
S'\x88&\xb2l!j\xce?'
p1179
tp1180
Rp1181
tp1182
a(S'vulvar myiasis'
p1183
g2
(g6
S'\xe6\xc5ox\xe7b\xce?'
p1184
tp1185
Rp1186
tp1187
a(S'gynoroentgenology'
p1188
g2
(g6
S'\xe05\xaa\xceS`\xce?'
p1189
tp1190
Rp1191
tp1192
a(S'diphyllobothriasis'
p1193
g2
(g6
S'*\xb0\x88\xf3?`\xce?'
p1194
tp1195
Rp1196
tp1197
a(S'feighner criteria'
p1198
g2
(g6
S'\xd4\x82\xbd\xf0\xa2N\xce?'
p1199
tp1200
Rp1201
tp1202
a(S'clinical case definition'
p1203
g2
(g6
S'\x81\x10\xdf\xaf\x06C\xce?'
p1204
tp1205
Rp1206
tp1207
a(S'idiopathic sclerosing mesenteritis'
p1208
g2
(g6
S'4\xfd\x99\xccoB\xce?'
p1209
tp1210
Rp1211
tp1212
a(S'iatrogenesis'
p1213
g2
(g6
S'\x83\x7f\xef\x9b(;\xce?'
p1214
tp1215
Rp1216
tp1217
a(S'pythiosis'
p1218
g2
(g6
S'\x9b\xe7\xf9=\x01:\xce?'
p1219
tp1220
Rp1221
tp1222
a(S'leptospirosis'
p1223
g2
(g6
S'\xc8\xbaJ\xde\xfe*\xce?'
p1224
tp1225
Rp1226
tp1227
a(S'alpha-mannosidosis'
p1228
g2
(g6
S'O\x1f\xe0"\xd2\x1b\xce?'
p1229
tp1230
Rp1231
tp1232
a(S'sluggish schizophrenia'
p1233
g2
(g6
S'#-\xa2T\x89\x0f\xce?'
p1234
tp1235
Rp1236
tp1237
a(S'trauma team'
p1238
g2
(g6
S'\xbamM\xb5\xa2\x0b\xce?'
p1239
tp1240
Rp1241
tp1242
a(S'lymphangiomatosis'
p1243
g2
(g6
S'\xf8\\\xfd\xad\x83\x06\xce?'
p1244
tp1245
Rp1246
tp1247
a(S'mobile stroke unit'
p1248
g2
(g6
S'\x80\xeau\x1dv\xfe\xcd?'
p1249
tp1250
Rp1251
tp1252
a(S"alzheimer's disease"
p1253
g2
(g6
S'\x13\xb9|\xae\x00\xe4\xcd?'
p1254
tp1255
Rp1256
tp1257
a(S'barbara j. bain'
p1258
g2
(g6
S'\xdf\x908\x95{\xe1\xcd?'
p1259
tp1260
Rp1261
tp1262
a(S'effortfulness'
p1263
g2
(g6
S'\xae&\x9ckT\xd7\xcd?'
p1264
tp1265
Rp1266
tp1267
a(S'software diagnosis'
p1268
g2
(g6
S'\xf7\x19\xa8\xaf\x10\xc6\xcd?'
p1269
tp1270
Rp1271
tp1272
a(S"beh\xc3\xa7et's disease"
p1273
g2
(g6
S'\xfc\xdfmxD\xb6\xcd?'
p1274
tp1275
Rp1276
tp1277
a(S'sandifer syndrome'
p1278
g2
(g6
S'\xc5g#\x88\x96\x95\xcd?'
p1279
tp1280
Rp1281
tp1282
a(S'intranodal palisaded myofibroblastoma'
p1283
g2
(g6
S'F*\xbe\x1fp\x8d\xcd?'
p1284
tp1285
Rp1286
tp1287
a(S'lagging (epidemiology)'
p1288
g2
(g6
S'\xa2!b\x85\xa1\x80\xcd?'
p1289
tp1290
Rp1291
tp1292
a(S'florbetaben (18f)'
p1293
g2
(g6
S'\xfa\xe3{\xd1-\x80\xcd?'
p1294
tp1295
Rp1296
tp1297
a(S'northwell health'
p1298
g2
(g6
S'\xbc\xa1fX\xd5\x7f\xcd?'
p1299
tp1300
Rp1301
tp1302
a(S'radiographer'
p1303
g2
(g6
S'\ru\xc2\\\x93~\xcd?'
p1304
tp1305
Rp1306
tp1307
a(S'national coalition for quality diagnostic imaging services'
p1308
g2
(g6
S'\x93\xf6T\xd9\xee{\xcd?'
p1309
tp1310
Rp1311
tp1312
a(S'tropical theileriosis'
p1313
g2
(g6
S'\x83\x0f\x15\x175w\xcd?'
p1314
tp1315
Rp1316
tp1317
a(S'allen frances'
p1318
g2
(g6
S'\x96\xf8\xda\x16cv\xcd?'
p1319
tp1320
Rp1321
tp1322
a(S'sandhoff disease'
p1323
g2
(g6
S'y\xc5\xb9\x17)u\xcd?'
p1324
tp1325
Rp1326
tp1327
a(S'ornithobacterium rhinotracheale'
p1328
g2
(g6
S'\x9a\xba\x0b?\x9dq\xcd?'
p1329
tp1330
Rp1331
tp1332
a(S'manning criteria'
p1333
g2
(g6
S'\xba7\xec\xe9Qo\xcd?'
p1334
tp1335
Rp1336
tp1337
a(S'pervasive developmental disorder'
p1338
g2
(g6
S'DM\xbf&\x02o\xcd?'
p1339
tp1340
Rp1341
tp1342
a(S'urbach\xe2\x80\x93wiethe disease'
p1343
g2
(g6
S'Z\x9d\xd2\xa2\xa6l\xcd?'
p1344
tp1345
Rp1346
tp1347
a(S'epidemiology of attention deficit hyperactive disorder'
p1348
g2
(g6
S'\x03my\x95\xc1k\xcd?'
p1349
tp1350
Rp1351
tp1352
a(S'aquagenic pruritus'
p1353
g2
(g6
S'\xa5u\x1bX\x81g\xcd?'
p1354
tp1355
Rp1356
tp1357
a(S'medical state'
p1358
g2
(g6
S'\x9d\xc9\xd0*}g\xcd?'
p1359
tp1360
Rp1361
tp1362
a(S'patient advocacy'
p1363
g2
(g6
S'\x1b\x8f\xa2&\x9fb\xcd?'
p1364
tp1365
Rp1366
tp1367
a(S'schedule for affective disorders and schizophrenia'
p1368
g2
(g6
S'}S\xef)\x85b\xcd?'
p1369
tp1370
Rp1371
tp1372
a(S'sonographer'
p1373
g2
(g6
S'\xb3CQ\xddo]\xcd?'
p1374
tp1375
Rp1376
tp1377
a(S'health 2.0'
p1378
g2
(g6
S'\x08\x80\xaa\xbb\xe0V\xcd?'
p1379
tp1380
Rp1381
tp1382
a(S'history of medicine'
p1383
g2
(g6
S'\x01A\x02\x81\\Q\xcd?'
p1384
tp1385
Rp1386
tp1387
a(S'true health diagnostics'
p1388
g2
(g6
S'\x1b_\x16UcN\xcd?'
p1389
tp1390
Rp1391
tp1392
a(S'breath counter'
p1393
g2
(g6
S'\xf7\x80;]\xb0M\xcd?'
p1394
tp1395
Rp1396
tp1397
a(S'elisha bartlett'
p1398
g2
(g6
S'\x1b\x06\x92\xcf/M\xcd?'
p1399
tp1400
Rp1401
tp1402
a(S'molien v. kaiser foundation hospitals'
p1403
g2
(g6
S'\r\x7f\x0b5<I\xcd?'
p1404
tp1405
Rp1406
tp1407
a(S'epizootic lymphangitis'
p1408
g2
(g6
S'\xcf-s\xae{H\xcd?'
p1409
tp1410
Rp1411
tp1412
a(S'oligoastrocytoma'
p1413
g2
(g6
S'\x15\x01\x0c=\x07@\xcd?'
p1414
tp1415
Rp1416
tp1417
a(S'blue eye disease'
p1418
g2
(g6
S'\xc8=AR$;\xcd?'
p1419
tp1420
Rp1421
tp1422
a(S'relapsing polychondritis'
p1423
g2
(g6
S'\xafE\x19\x0cx4\xcd?'
p1424
tp1425
Rp1426
tp1427
a(S'multiple sclerosis'
p1428
g2
(g6
S'G7\xb5d\xa4.\xcd?'
p1429
tp1430
Rp1431
tp1432
a(S'stereotypic movement disorder'
p1433
g2
(g6
S'\x84%\x13\x81Z-\xcd?'
p1434
tp1435
Rp1436
tp1437
a(S'pleomorphic xanthoastrocytoma'
p1438
g2
(g6
S'\x0b\xfd\t\x01F$\xcd?'
p1439
tp1440
Rp1441
tp1442
a(S'psychopathology'
p1443
g2
(g6
S'\x11\xc9f\x87\x94#\xcd?'
p1444
tp1445
Rp1446
tp1447
a(S'externalizing disorders'
p1448
g2
(g6
S'(\xd2:\x1b\x14!\xcd?'
p1449
tp1450
Rp1451
tp1452
a(S'ankylosing spondylitis'
p1453
g2
(g6
S'\x16\xf6\xc6gK \xcd?'
p1454
tp1455
Rp1456
tp1457
a(S'society of diagnostic medical sonography'
p1458
g2
(g6
S'\xd7h\x83\\a\x10\xcd?'
p1459
tp1460
Rp1461
tp1462
a(S'research diagnostic criteria'
p1463
g2
(g6
S'\xc1U#\x0eY\t\xcd?'
p1464
tp1465
Rp1466
tp1467
a(S'kalai strode'
p1468
g2
(g6
S'\xfe\xac_\xf6\xcd\x05\xcd?'
p1469
tp1470
Rp1471
tp1472
a(S'restless legs syndrome'
p1473
g2
(g6
S'\xb7\r$\xe6\x8e\x00\xcd?'
p1474
tp1475
Rp1476
tp1477
a(S'enteric redmouth disease'
p1478
g2
(g6
S'\xa3\xb3\xfcP\xee\xec\xcc?'
p1479
tp1480
Rp1481
tp1482
a(S'under my skin (house)'
p1483
g2
(g6
S'\xb2\xdd\xc6\xe1\xda\xe9\xcc?'
p1484
tp1485
Rp1486
tp1487
a(S'schizophreniform disorder'
p1488
g2
(g6
S'h\xa0\x12Ln\xe2\xcc?'
p1489
tp1490
Rp1491
tp1492
a(S"whipple's disease"
p1493
g2
(g6
S't\xc5\xbfk>\xe2\xcc?'
p1494
tp1495
Rp1496
tp1497
a(S'common variable immunodeficiency'
p1498
g2
(g6
S'?\x90\xd4L\xa1\xdf\xcc?'
p1499
tp1500
Rp1501
tp1502
a(S'pantothenate kinase-associated neurodegeneration'
p1503
g2
(g6
S'\xcb\xa1\x1d\xc2q\xd9\xcc?'
p1504
tp1505
Rp1506
tp1507
a(S'china medical technologies'
p1508
g2
(g6
S'm\x90#\xa6 \xd9\xcc?'
p1509
tp1510
Rp1511
tp1512
a.