(lp0
(S'medical imaging'
p1
cnumpy.core.multiarray
scalar
p2
(cnumpy
dtype
p3
(S'f8'
p4
I0
I1
tp5
Rp6
(I3
S'<'
p7
NNNI-1
I-1
I0
tp8
bS'\x0b\x00\x00\x00\x00\x00\xf0?'
p9
tp10
Rp11
tp12
a(S'biological imaging'
p13
g2
(g6
S'\x83\xbc\xda\x07`\xf8\xe6?'
p14
tp15
Rp16
tp17
a(S'imaging'
p18
g2
(g6
S'\xed\xfe8\xc4\xda\xb3\xe6?'
p19
tp20
Rp21
tp22
a(S'functional imaging'
p23
g2
(g6
S'w\xe7:V\x95\x16\xe6?'
p24
tp25
Rp26
tp27
a(S'molecular imaging'
p28
g2
(g6
S'\xbc\xf7\xb6t\xc3i\xe5?'
p29
tp30
Rp31
tp32
a(S'radiology'
p33
g2
(g6
S'O\x96\x8d\x93\xa2n\xe4?'
p34
tp35
Rp36
tp37
a(S'imaging science'
p38
g2
(g6
S'\xa9&L\xbb|O\xe4?'
p39
tp40
Rp41
tp42
a(S'the imaging science journal'
p43
g2
(g6
S'\xc1\xa8\x15&\xfa\xe2\xe3?'
p44
tp45
Rp46
tp47
a(S'preclinical imaging'
p48
g2
(g6
S'\xfaD\x1f\r|\xd5\xe3?'
p49
tp50
Rp51
tp52
a(S'micad'
p53
g2
(g6
S'lq\xf8\xec\x13k\xe3?'
p54
tp55
Rp56
tp57
a(S'radiopharmaceutical'
p58
g2
(g6
S'\xdbv\x077L\x12\xe3?'
p59
tp60
Rp61
tp62
a(S'international imaging industry association'
p63
g2
(g6
S'yn%g\xc9\x06\xe3?'
p64
tp65
Rp66
tp67
a(S'elscint'
p68
g2
(g6
S'~^\x12\xb6\xa1\xe2\xe2?'
p69
tp70
Rp71
tp72
a(S'elbit imaging'
p73
g2
(g6
S'+\x8ccO\x1e\x86\xe2?'
p74
tp75
Rp76
tp77
a(S'imaging agent'
p78
g2
(g6
S'6\x84\xf4,Bj\xe2?'
p79
tp80
Rp81
tp82
a(S'multispectral optoacoustic tomography'
p83
g2
(g6
S'\x1e\xdb\xbf:\x8a\x18\xe2?'
p84
tp85
Rp86
tp87
a(S'image-guided radiation therapy'
p88
g2
(g6
S'\xd6\x8a\xfb}\xc8\x12\xe2?'
p89
tp90
Rp91
tp92
a(S'imaging phantom'
p93
g2
(g6
S'`-v}\xa5\x01\xe2?'
p94
tp95
Rp96
tp97
a(S'medical optical imaging'
p98
g2
(g6
S'\x87*\x1e\x1b\t\xbb\xe1?'
p99
tp100
Rp101
tp102
a(S'dynamic imaging'
p103
g2
(g6
S'\xb2{ kO\xad\xe1?'
p104
tp105
Rp106
tp107
a(S'whole-body nuclear scanning'
p108
g2
(g6
S'\x13\xc1Tw\x9a\xac\xe1?'
p109
tp110
Rp111
tp112
a(S'international cancer imaging society'
p113
g2
(g6
S'\xf1\xd5\t"J\x9d\xe1?'
p114
tp115
Rp116
tp117
a(S'xiaoyuan (shawn) chen'
p118
g2
(g6
S'`#\x89\xe7QQ\xe1?'
p119
tp120
Rp121
tp122
a(S'magnetic resonance imaging'
p123
g2
(g6
S'\xc5H\x06\x8d}L\xe1?'
p124
tp125
Rp126
tp127
a(S'history of neuroimaging'
p128
g2
(g6
S'.+\xa7\x02\x99\x17\xe1?'
p129
tp130
Rp131
tp132
a(S'stereo imaging'
p133
g2
(g6
S'\x82\x1c\\\x9a\xa2\x11\xe1?'
p134
tp135
Rp136
tp137
a(S'physician self-referral'
p138
g2
(g6
S'\xb6\xb7V\x0c\x0b\x0f\xe1?'
p139
tp140
Rp141
tp142
a(S'society for imaging science and technology'
p143
g2
(g6
S'\xe5\xcd(fY\xfa\xe0?'
p144
tp145
Rp146
tp147
a(S'digital imaging'
p148
g2
(g6
S'e\xf7\xc1\xb0p\xcb\xe0?'
p149
tp150
Rp151
tp152
a(S'cardiac imaging'
p153
g2
(g6
S'Z\x84\x1f\xe7\x89\xba\xe0?'
p154
tp155
Rp156
tp157
a(S'chemical imaging'
p158
g2
(g6
S'\x93HX\xcf.\xaa\xe0?'
p159
tp160
Rp161
tp162
a(S'elastography'
p163
g2
(g6
S'\xa3\x9dx\xf9F\xa1\xe0?'
p164
tp165
Rp166
tp167
a(S'neuroimaging'
p168
g2
(g6
S'\x85<\x91\xad\x8dY\xe0?'
p169
tp170
Rp171
tp172
a(S'nuclear medicine physician'
p173
g2
(g6
S'\xe3\xc4\xeb\xd0\xba2\xe0?'
p174
tp175
Rp176
tp177
a(S'medical image computing'
p178
g2
(g6
S'y\xd8~\xa2\x7f\x19\xe0?'
p179
tp180
Rp181
tp182
a(S'radiographer'
p183
g2
(g6
S'\xf8\xa7\x96I\x8f\x17\xe0?'
p184
tp185
Rp186
tp187
a(S'robarts research institute'
p188
g2
(g6
S'\x1d\x83s\\\xac\x12\xe0?'
p189
tp190
Rp191
tp192
a(S'imaging informatics'
p193
g2
(g6
S'\xcd\xa8\xff\xe7\xff\xf5\xdf?'
p194
tp195
Rp196
tp197
a(S'russell a. brown'
p198
g2
(g6
S']b\x19H\xef\xe2\xdf?'
p199
tp200
Rp201
tp202
a(S'acoustic radiation force impulse imaging'
p203
g2
(g6
S'\xd3\xd9\xd1\x8e\x82\xdb\xdf?'
p204
tp205
Rp206
tp207
a(S'preclinical spect'
p208
g2
(g6
S'\x02v\x08\n\x06\xdb\xdf?'
p209
tp210
Rp211
tp212
a(S'imaging instruments'
p213
g2
(g6
S'\xc8+\x98Hr\xc2\xdf?'
p214
tp215
Rp216
tp217
a(S'computed tomography laser mammography'
p218
g2
(g6
S'\xfdE\x90J]<\xdf?'
p219
tp220
Rp221
tp222
a(S'tomosynthesis'
p223
g2
(g6
S'S\x13\xe5\x1cO\x04\xdf?'
p224
tp225
Rp226
tp227
a(S'single-photon emission computed tomography'
p228
g2
(g6
S'\x84\xe8hr?\xfd\xde?'
p229
tp230
Rp231
tp232
a(S'lasersoft imaging'
p233
g2
(g6
S'\xbb"\xc2\xe7\xab\xef\xde?'
p234
tp235
Rp236
tp237
a(S'dicom'
p238
g2
(g6
S'\x1c\xd7\x07^D\xe7\xde?'
p239
tp240
Rp241
tp242
a(S'wolfson molecular imaging centre'
p243
g2
(g6
S'\xb7\xa0\x8dU`\xc9\xde?'
p244
tp245
Rp246
tp247
a(S'european institute for biomedical imaging research'
p248
g2
(g6
S'\xaa\xdavG\xb9\xa5\xde?'
p249
tp250
Rp251
tp252
a(S'frank natterer'
p253
g2
(g6
S'\xc4\xa1\xa6\xae\xc3\x94\xde?'
p254
tp255
Rp256
tp257
a(S'maxim dl'
p258
g2
(g6
S'\x91`\xb38\x95i\xde?'
p259
tp260
Rp261
tp262
a(S'snapshot hyperspectral imaging'
p263
g2
(g6
S'8\x97\xcf(>Z\xde?'
p264
tp265
Rp266
tp267
a(S'analogic corporation'
p268
g2
(g6
S' \xd5\x11\xf6\xb2Q\xde?'
p269
tp270
Rp271
tp272
a(S'imaging for windows'
p273
g2
(g6
S'Q\xb6\x10\xb4\x85D\xde?'
p274
tp275
Rp276
tp277
a(S'ultrasound computer tomography'
p278
g2
(g6
S'`\xf3\x9f\xcd\x7f4\xde?'
p279
tp280
Rp281
tp282
a(S'center for biomedical imaging'
p283
g2
(g6
S';\x12:\xefh\x19\xde?'
p284
tp285
Rp286
tp287
a(S'positron emission tomography'
p288
g2
(g6
S'\xc7S=YT\x16\xde?'
p289
tp290
Rp291
tp292
a(S'hyperspectral imaging'
p293
g2
(g6
S'Qdd\xbe$\x15\xde?'
p294
tp295
Rp296
tp297
a(S'positron emission tomography\xe2\x80\x93magnetic resonance imaging'
p298
g2
(g6
S'\xae\xfe\x0bht\x0e\xde?'
p299
tp300
Rp301
tp302
a(S'institute for biodiagnostics (atlantic)'
p303
g2
(g6
S'\x81\xef\xd4\xf7&\x07\xde?'
p304
tp305
Rp306
tp307
a(S'pet-ct'
p308
g2
(g6
S'\xad\x10\xb2\x9c\x94\x06\xde?'
p309
tp310
Rp311
tp312
a(S'cherenkov luminescence imaging'
p313
g2
(g6
S'dK\x94\xdf\x1d\xd8\xdd?'
p314
tp315
Rp316
tp317
a(S'microwave imaging'
p318
g2
(g6
S'@\xaf=\x1eK\xd7\xdd?'
p319
tp320
Rp321
tp322
a(S'lucky imaging'
p323
g2
(g6
S'\x80\xcf`\t\xfd\xb6\xdd?'
p324
tp325
Rp326
tp327
a(S'biodistribution'
p328
g2
(g6
S':y\x11\x84\xb8\xac\xdd?'
p329
tp330
Rp331
tp332
a(S'fluoroscopy'
p333
g2
(g6
S'\xf3\x8a\x17\x92\x81\x89\xdd?'
p334
tp335
Rp336
tp337
a(S'hybrid operating room'
p338
g2
(g6
S']m\xe8\xb6\xc7Y\xdd?'
p339
tp340
Rp341
tp342
a(S'magnetic resonance imaging of the brain'
p343
g2
(g6
S'u\x14Il\xb9>\xdd?'
p344
tp345
Rp346
tp347
a(S'ferenc a. jolesz'
p348
g2
(g6
S'C2\x0e\xa0;-\xdd?'
p349
tp350
Rp351
tp352
a(S'albert macovski'
p353
g2
(g6
S'\r\\\xbe\xef\x9c \xdd?'
p354
tp355
Rp356
tp357
a(S'whole body imaging'
p358
g2
(g6
S'A\x1f\xba\x17\x88\xe8\xdc?'
p359
tp360
Rp361
tp362
a(S'magnetic resonance spectroscopic imaging'
p363
g2
(g6
S'\x8a\x8a\xe4\xcfW\xb0\xdc?'
p364
tp365
Rp366
tp367
a(S'synthetic aperture ultrasound'
p368
g2
(g6
S'\xc3\xb7\x86\x84M\x9a\xdc?'
p369
tp370
Rp371
tp372
a(S'visualsonics'
p373
g2
(g6
S'i\xed4\xa3i\x94\xdc?'
p374
tp375
Rp376
tp377
a(S'osirix'
p378
g2
(g6
S'\x1d\xfd.\x83\xcb\x87\xdc?'
p379
tp380
Rp381
tp382
a(S'ct scan'
p383
g2
(g6
S'4Se\xbe\xe1j\xdc?'
p384
tp385
Rp386
tp387
a(S'spectral imaging'
p388
g2
(g6
S'\x81\x92\xb9X\x07A\xdc?'
p389
tp390
Rp391
tp392
a(S'radiogenomics'
p393
g2
(g6
S'\x9c\x91,o\x0e\x0e\xdc?'
p394
tp395
Rp396
tp397
a(S'bruce rosen'
p398
g2
(g6
S'\xe37\xae\xbf\xcc\xf5\xdb?'
p399
tp400
Rp401
tp402
a(S'time stretch quantitative phase imaging'
p403
g2
(g6
S'\x9d\xee\xe3\xf9\xf7\xe8\xdb?'
p404
tp405
Rp406
tp407
a(S'athinoula a. martinos center for biomedical imaging'
p408
g2
(g6
S'\xf7\xf1\x8c\x13\xfb\x89\xdb?'
p409
tp410
Rp411
tp412
a(S'imaging advantage'
p413
g2
(g6
S'U8l\xc5\x87[\xdb?'
p414
tp415
Rp416
tp417
a(S'imris'
p418
g2
(g6
S'\x13W\x9ce\xa5U\xdb?'
p419
tp420
Rp421
tp422
a(S'medical physics'
p423
g2
(g6
S'\x88\xd9\x13\xbe\x18O\xdb?'
p424
tp425
Rp426
tp427
a(S'richard l. wahl'
p428
g2
(g6
S'\xc5\x1e3K\xa1*\xdb?'
p429
tp430
Rp431
tp432
a(S'mathias fink'
p433
g2
(g6
S"3\xc42\x8aS'\xdb?"
p434
tp435
Rp436
tp437
a(S'photoacoustic imaging'
p438
g2
(g6
S'\x0bv\xfb\x98\x93$\xdb?'
p439
tp440
Rp441
tp442
a(S'sestamibi scan'
p443
g2
(g6
S'\x99\xce\xefA\x80\x10\xdb?'
p444
tp445
Rp446
tp447
a(S'emix'
p448
g2
(g6
S'l\x13,\x89H\x0e\xdb?'
p449
tp450
Rp451
tp452
a(S'ordered subset expectation maximization'
p453
g2
(g6
S'\x13\xf2\xbe\xca\x1f\xd4\xda?'
p454
tp455
Rp456
tp457
a(S'elliot mcveigh'
p458
g2
(g6
S'\xb2\xe2\x1e\xa2\x07\xbe\xda?'
p459
tp460
Rp461
tp462
a(S'national coalition for quality diagnostic imaging services'
p463
g2
(g6
S'\xe3/g\r\xbc\xb6\xda?'
p464
tp465
Rp466
tp467
a(S'sanjiv sam gambhir'
p468
g2
(g6
S'\x7fM!\x1e\xc6\x8f\xda?'
p469
tp470
Rp471
tp472
a(S'magnetic resonance imaging (journal)'
p473
g2
(g6
S'\\KJ\xda\x84\x86\xda?'
p474
tp475
Rp476
tp477
a(S'space imaging'
p478
g2
(g6
S"'\x98\x88\xcf\xb1\x85\xda?"
p479
tp480
Rp481
tp482
a(S'imaging spectroscopy'
p483
g2
(g6
S'P\xc0\xa65o\x85\xda?'
p484
tp485
Rp486
tp487
a(S'strain\xe2\x80\x93encoded magnetic resonance imaging'
p488
g2
(g6
S'd\r6\xe4\x05w\xda?'
p489
tp490
Rp491
tp492
a(S'g-arm medical imaging'
p493
g2
(g6
S'Q\x15\r\x13\xb7v\xda?'
p494
tp495
Rp496
tp497
a(S'society of nuclear medicine and molecular imaging'
p498
g2
(g6
S"'\x83d\xd5\x02k\xda?"
p499
tp500
Rp501
tp502
a(S'palpation'
p503
g2
(g6
S'\xe7\x1e\x82g\xd1j\xda?'
p504
tp505
Rp506
tp507
a(S'vista imaging'
p508
g2
(g6
S'\x85\xc1\xfa\xbd\x9aU\xda?'
p509
tp510
Rp511
tp512
a(S'magnetic induction tomography'
p513
g2
(g6
S'd\xdcx\xd2\x15J\xda?'
p514
tp515
Rp516
tp517
a(S'nuclear medicine'
p518
g2
(g6
S'\x1e\x88G\xd0AH\xda?'
p519
tp520
Rp521
tp522
a(S'centre for magnetic resonance investigations'
p523
g2
(g6
S'\xa3#\x89\xf9\xb5?\xda?'
p524
tp525
Rp526
tp527
a(S'harsh mahajan (radiologist)'
p528
g2
(g6
S'\xe801\xfao>\xda?'
p529
tp530
Rp531
tp532
a(S'thermal imaging camera'
p533
g2
(g6
S'\xcc\x86;\x91(/\xda?'
p534
tp535
Rp536
tp537
a(S'medical ultrasound'
p538
g2
(g6
S'\xba\xed\xa4\t\xf8 \xda?'
p539
tp540
Rp541
tp542
a(S'geophysical imaging'
p543
g2
(g6
S'\xbb\xb2\xb0\x94\x9e\x17\xda?'
p544
tp545
Rp546
tp547
a(S'imaging in medicine'
p548
g2
(g6
S'\xed\xe1TY\xba\r\xda?'
p549
tp550
Rp551
tp552
a(S'partial volume (imaging)'
p553
g2
(g6
S'y\x91!\x16\x04\xf5\xd9?'
p554
tp555
Rp556
tp557
a(S'mri robot'
p558
g2
(g6
S'\x95Upq\x13\xe6\xd9?'
p559
tp560
Rp561
tp562
a(S'tornwaldt cyst'
p563
g2
(g6
S'u/\x9b\x91\x91\xde\xd9?'
p564
tp565
Rp566
tp567
a(S'armen sarvazyan'
p568
g2
(g6
S'\x92!gia\xde\xd9?'
p569
tp570
Rp571
tp572
a(S'celsense'
p573
g2
(g6
S'\n[\xae:\xd2\xd4\xd9?'
p574
tp575
Rp576
tp577
a(S'instruments used in radiology'
p578
g2
(g6
S'\x05/\x93h\r\xc0\xd9?'
p579
tp580
Rp581
tp582
a(S'reconstruction from projections'
p583
g2
(g6
S'1\xf1\x92\xf3e\xa9\xd9?'
p584
tp585
Rp586
tp587
a(S'contrast media & molecular imaging'
p588
g2
(g6
S'D\xf4\x8as\x05\x89\xd9?'
p589
tp590
Rp591
tp592
a(S'specific ventilation'
p593
g2
(g6
S'jA\xe5\xc8\xd8R\xd9?'
p594
tp595
Rp596
tp597
a(S'vieworks'
p598
g2
(g6
S'^p\xdd\xe8N-\xd9?'
p599
tp600
Rp601
tp602
a(S'imaging biomarker'
p603
g2
(g6
S"\xc3\xf6\x03I\xe1'\xd9?"
p604
tp605
Rp606
tp607
a(S'jayaram k udupa'
p608
g2
(g6
S'N\xc1s\xee\x8e$\xd9?'
p609
tp610
Rp611
tp612
a(S'magnetic particle imaging'
p613
g2
(g6
S'\xa0\x88\xecE\x1e\x14\xd9?'
p614
tp615
Rp616
tp617
a(S'paediatric radiology'
p618
g2
(g6
S'\xda\xf6\x82\xda\x06\x14\xd9?'
p619
tp620
Rp621
tp622
a(S'outline of brain mapping'
p623
g2
(g6
S'\xfc\xb6\x99\xe6\xe5\x13\xd9?'
p624
tp625
Rp626
tp627
a(S'tomography'
p628
g2
(g6
S'\xbe\xe7\xa1\x97\xd4\x0b\xd9?'
p629
tp630
Rp631
tp632
a(S'x-ray microtomography'
p633
g2
(g6
S'\xbe\xa2d\x0b\xa8\xfa\xd8?'
p634
tp635
Rp636
tp637
a(S'radio imaging'
p638
g2
(g6
S' \xa5N\x92\x90\xc9\xd8?'
p639
tp640
Rp641
tp642
a(S'mark s. cohen'
p643
g2
(g6
S'\xf4u\x96\x0e\x15\xc6\xd8?'
p644
tp645
Rp646
tp647
a(S'alexander klibanov (biologist)'
p648
g2
(g6
S'\x88\x97\xfb\xba\x12\xa8\xd8?'
p649
tp650
Rp651
tp652
a(S'given imaging'
p653
g2
(g6
S'\xf5\xd6\x00\xbd%\x8b\xd8?'
p654
tp655
Rp656
tp657
a(S'acoustic radiation force'
p658
g2
(g6
S'\xa1-B\x9c\xa4\x87\xd8?'
p659
tp660
Rp661
tp662
a(S'scintimammography'
p663
g2
(g6
S'K\xcbz\xc0\x06\x82\xd8?'
p664
tp665
Rp666
tp667
a(S'william h. oldendorf'
p668
g2
(g6
S':]\x96\xa2\xc2\x80\xd8?'
p669
tp670
Rp671
tp672
a(S'computed tomography imaging spectrometer'
p673
g2
(g6
S'h6q\x1f\xaaq\xd8?'
p674
tp675
Rp676
tp677
a(S'medical image sharing'
p678
g2
(g6
S'*p\xce\x03\xeca\xd8?'
p679
tp680
Rp681
tp682
a(S'video spectroscopy'
p683
g2
(g6
S'\x18!\x81\x94Q[\xd8?'
p684
tp685
Rp686
tp687
a(S'process tomography'
p688
g2
(g6
S'8&$\xb8\x84G\xd8?'
p689
tp690
Rp691
tp692
a(S'giovanni j. ughi'
p693
g2
(g6
S't>0\x1e%E\xd8?'
p694
tp695
Rp696
tp697
a(S'medical radiography'
p698
g2
(g6
S'\xc6ggM\xd3:\xd8?'
p699
tp700
Rp701
tp702
a(S'fiducial marker'
p703
g2
(g6
S',\xb3\xd7T\x9c8\xd8?'
p704
tp705
Rp706
tp707
a(S'perfusion scanning'
p708
g2
(g6
S'A\xd27\x1ba*\xd8?'
p709
tp710
Rp711
tp712
a(S'cardiac pet'
p713
g2
(g6
S'\x0cv\xdd\xe4\xad(\xd8?'
p714
tp715
Rp716
tp717
a(S'physics of magnetic resonance imaging'
p718
g2
(g6
S'\xf8(\xf3u#\n\xd8?'
p719
tp720
Rp721
tp722
a(S'tactile imaging'
p723
g2
(g6
S'\xb3\xba\xe4S \xfe\xd7?'
p724
tp725
Rp726
tp727
a(S'detective quantum efficiency'
p728
g2
(g6
S'\x92\xde\xce`p\xfd\xd7?'
p729
tp730
Rp731
tp732
a(S'dr. ronald p. guzman medical center'
p733
g2
(g6
S'\xa7\x80@\x8d\xcb\xf2\xd7?'
p734
tp735
Rp736
tp737
a(S'teraview'
p738
g2
(g6
S'\xc8\xc4\x94\xbcT\xec\xd7?'
p739
tp740
Rp741
tp742
a(S'hyperpolarized carbon-13 mri'
p743
g2
(g6
S'\x05R\x05\x8ed\xe4\xd7?'
p744
tp745
Rp746
tp747
a(S'optical coherence tomography'
p748
g2
(g6
S'7\xe6\x07%\x9e\xd2\xd7?'
p749
tp750
Rp751
tp752
a(S'narrow-band imaging'
p753
g2
(g6
S'\xa1{\x89\xe5\xeb\xaa\xd7?'
p754
tp755
Rp756
tp757
a(S'national biomedical imaging archive'
p758
g2
(g6
S'\tc-P\xbf\xaa\xd7?'
p759
tp760
Rp761
tp762
a(S'biofield'
p763
g2
(g6
S"4\xa1\n\xa1'\xa9\xd7?"
p764
tp765
Rp766
tp767
a(S'scientifica'
p768
g2
(g6
S'\xea^p\xf1\x94\x8a\xd7?'
p769
tp770
Rp771
tp772
a(S'fast low angle shot magnetic resonance imaging'
p773
g2
(g6
S'k\x12\x83\xcb\xbbx\xd7?'
p774
tp775
Rp776
tp777
a(S'terahertz tomography'
p778
g2
(g6
S'E\xbe\xe5\n\xb9v\xd7?'
p779
tp780
Rp781
tp782
a(S'mesa imaging'
p783
g2
(g6
S'@\xde\xe4u\x05v\xd7?'
p784
tp785
Rp786
tp787
a(S'multispectral image'
p788
g2
(g6
S'm1\x12\xf4Fo\xd7?'
p789
tp790
Rp791
tp792
a(S'magnetic resonance elastography'
p793
g2
(g6
S'\x8a,\x8aL*i\xd7?'
p794
tp795
Rp796
tp797
a(S'mri (disambiguation)'
p798
g2
(g6
S'>\xdc\x17\x02\xcch\xd7?'
p799
tp800
Rp801
tp802
a(S'photon etc.'
p803
g2
(g6
S'\x98hVZ\x8e_\xd7?'
p804
tp805
Rp806
tp807
a(S'industrial process imaging'
p808
g2
(g6
S'9\xb5._\xf5U\xd7?'
p809
tp810
Rp811
tp812
a(S'john fitzallen moore'
p813
g2
(g6
S'\xea\xfd\x19\xc0\xbbT\xd7?'
p814
tp815
Rp816
tp817
a(S'computed tomography of the head'
p818
g2
(g6
S'(\x00v\xd6NP\xd7?'
p819
tp820
Rp821
tp822
a(S'suh jin-suck'
p823
g2
(g6
S'`\x83^\xda\x19E\xd7?'
p824
tp825
Rp826
tp827
a(S'christopher j. hardy'
p828
g2
(g6
S'\xde\x87\x83\xe0\xc7@\xd7?'
p829
tp830
Rp831
tp832
a(S'wolfson brain imaging centre'
p833
g2
(g6
S'd\xd1\x9f\x9f\xac>\xd7?'
p834
tp835
Rp836
tp837
a(S'raymond vahan damadian'
p838
g2
(g6
S'\x17\x8fa\x8aQ$\xd7?'
p839
tp840
Rp841
tp842
a(S'abass alavi'
p843
g2
(g6
S'W\xbb\xba\x85\x8e\x15\xd7?'
p844
tp845
Rp846
tp847
a(S'robert turner (scientist)'
p848
g2
(g6
S'\xae\xeawF\x8d\n\xd7?'
p849
tp850
Rp851
tp852
a(S'arthrogram'
p853
g2
(g6
S'0\x8dP\xc3\xdc\x05\xd7?'
p854
tp855
Rp856
tp857
a(S'real-time mri'
p858
g2
(g6
S'\x9bWy\x91I\xf5\xd6?'
p859
tp860
Rp861
tp862
a(S'imaging spectrometer'
p863
g2
(g6
S'\xb5\x18\xdc\xd6u\xf2\xd6?'
p864
tp865
Rp866
tp867
a(S'photofragment-ion imaging'
p868
g2
(g6
S'\xd8mQ\xb5\x91\xe7\xd6?'
p869
tp870
Rp871
tp872
a(S'bistatic imaging'
p873
g2
(g6
S'\x98\xcf\xa06\r\xcb\xd6?'
p874
tp875
Rp876
tp877
a(S'magnetic resonance microscopy'
p878
g2
(g6
S'\xab\x9b\xae\xb1\xd0\xc5\xd6?'
p879
tp880
Rp881
tp882
a(S'opus imaging research building'
p883
g2
(g6
S'U\xef~\xb9\xe2\xc1\xd6?'
p884
tp885
Rp886
tp887
a(S'lifeimage'
p888
g2
(g6
S'(2\x06i\xc0\xc1\xd6?'
p889
tp890
Rp891
tp892
a(S'internet imaging protocol'
p893
g2
(g6
S'\xab\xfe\xa7[\xab\xb8\xd6?'
p894
tp895
Rp896
tp897
a(S'siui'
p898
g2
(g6
S"A'\x93\xb8\x1f\xa8\xd6?"
p899
tp900
Rp901
tp902
a(S'jens frahm'
p903
g2
(g6
S'\xbc1\xd3\xe9P\xa7\xd6?'
p904
tp905
Rp906
tp907
a(S'list of directly imaged exoplanets'
p908
g2
(g6
S'\x8f\xdbE<\x86\xa6\xd6?'
p909
tp910
Rp911
tp912
a(S'computed radiography'
p913
g2
(g6
S'\xca\xe0\x925D\xa6\xd6?'
p914
tp915
Rp916
tp917
a(S'terahertz radiation'
p918
g2
(g6
S'\xc1&o\xda\xac\x9c\xd6?'
p919
tp920
Rp921
tp922
a(S'phase-contrast imaging'
p923
g2
(g6
S'\xe2\xcc\x0fU\x02\x95\xd6?'
p924
tp925
Rp926
tp927
a(S'dieter matthaei'
p928
g2
(g6
S'\xc1\x0cVu0\x80\xd6?'
p929
tp930
Rp931
tp932
a(S'stuart meeson'
p933
g2
(g6
S'3\xf9\x96\xba\xf9{\xd6?'
p934
tp935
Rp936
tp937
a(S'terahertz nondestructive evaluation'
p938
g2
(g6
S'\xe6\x87\x0c\xdb\xb1v\xd6?'
p939
tp940
Rp941
tp942
a(S'x-ray ct scan'
p943
g2
(g6
S'\x9f\xb9\xfc;\xa4a\xd6?'
p944
tp945
Rp946
tp947
a(S'szilard voros'
p948
g2
(g6
S'\t\x079\xc8\xc6[\xd6?'
p949
tp950
Rp951
tp952
a(S'carestream health'
p953
g2
(g6
S'\xd6\xd9\x1c\x82\x0fH\xd6?'
p954
tp955
Rp956
tp957
a(S'ronald j. ross'
p958
g2
(g6
S'N*\xf6VW7\xd6?'
p959
tp960
Rp961
tp962
a(S'radar imaging'
p963
g2
(g6
S'\xb6lO\xfa\x05)\xd6?'
p964
tp965
Rp966
tp967
a(S'neuroradiology'
p968
g2
(g6
S'q~C\x80\xb3\x1f\xd6?'
p969
tp970
Rp971
tp972
a(S'x-ray motion analysis'
p973
g2
(g6
S'\x05[A\xcf=\x19\xd6?'
p974
tp975
Rp976
tp977
a(S'anders dale'
p978
g2
(g6
S'\x10~\xd6\x136\x0e\xd6?'
p979
tp980
Rp981
tp982
a(S'index of biomedical engineering articles'
p983
g2
(g6
S'\x07\xf3tZ\x94\n\xd6?'
p984
tp985
Rp986
tp987
a(S'eos (medical imaging)'
p988
g2
(g6
S'~@\x0c\xe1\x8a\x08\xd6?'
p989
tp990
Rp991
tp992
a(S'biomedical spectroscopy'
p993
g2
(g6
S'\xb9x\x81\xfe\xe8\xf7\xd5?'
p994
tp995
Rp996
tp997
a(S'full spectral imaging'
p998
g2
(g6
S'\x9a\xe8L=0\xf3\xd5?'
p999
tp1000
Rp1001
tp1002
a(S'multiscale motion mapping'
p1003
g2
(g6
S'\xfa\xfd\x1d\x83\x92\xe4\xd5?'
p1004
tp1005
Rp1006
tp1007
a(S'edward j. giorgianni'
p1008
g2
(g6
S'\x06\xbbs;\xd3\xe2\xd5?'
p1009
tp1010
Rp1011
tp1012
a(S'raad mohiaddin'
p1013
g2
(g6
S'\xeej\x8aN\xc6\xdd\xd5?'
p1014
tp1015
Rp1016
tp1017
a(S'fusionviewer'
p1018
g2
(g6
S'\xaeR\x9f\xc6l\xd9\xd5?'
p1019
tp1020
Rp1021
tp1022
a(S'james k. min'
p1023
g2
(g6
S'\xf7\xbc\x1d\xfe\x1a\xcf\xd5?'
p1024
tp1025
Rp1026
tp1027
a(S'imaging technology news'
p1028
g2
(g6
S'\xa3D\x86J\xc6\xc8\xd5?'
p1029
tp1030
Rp1031
tp1032
a(S'indian journal of radiology and imaging'
p1033
g2
(g6
S'\xdc\xe3\xea`\x11\xc4\xd5?'
p1034
tp1035
Rp1036
tp1037
a(S'david r. elmaleh'
p1038
g2
(g6
S'\xb0\x8fA\x88c\xb4\xd5?'
p1039
tp1040
Rp1041
tp1042
a(S'val murray runge'
p1043
g2
(g6
S'\x17Wz\xa2\xc3\xb2\xd5?'
p1044
tp1045
Rp1046
tp1047
a(S'zebra imaging'
p1048
g2
(g6
S'\xc9I\x02r\xc0\xb0\xd5?'
p1049
tp1050
Rp1051
tp1052
a(S'ampronix'
p1053
g2
(g6
S'P)\x9d\x9c\x0f\xb0\xd5?'
p1054
tp1055
Rp1056
tp1057
a(S'nikos logothetis'
p1058
g2
(g6
S'\x9e\xc5\xcd\x8a0\x9e\xd5?'
p1059
tp1060
Rp1061
tp1062
a(S'machine vision'
p1063
g2
(g6
S'a\x1f-?4\x9c\xd5?'
p1064
tp1065
Rp1066
tp1067
a(S'foveated imaging'
p1068
g2
(g6
S'\x13\x8a\xee\x8fi}\xd5?'
p1069
tp1070
Rp1071
tp1072
a(S'cho zang-hee'
p1073
g2
(g6
S'\x18Qj!Xx\xd5?'
p1074
tp1075
Rp1076
tp1077
a(S'clinical physiology'
p1078
g2
(g6
S'\x11O\xfb4bt\xd5?'
p1079
tp1080
Rp1081
tp1082
a(S'the journal of nuclear medicine'
p1083
g2
(g6
S'm\x86\xd6\xfb\xccs\xd5?'
p1084
tp1085
Rp1086
tp1087
a(S'gadoteric acid'
p1088
g2
(g6
S'OS\x1d9vq\xd5?'
p1089
tp1090
Rp1091
tp1092
a(S'john mallard'
p1093
g2
(g6
S'\xcf\\\x80\x1bIh\xd5?'
p1094
tp1095
Rp1096
tp1097
a(S'imaging particle analysis'
p1098
g2
(g6
S'"\xc3dq\x1ch\xd5?'
p1099
tp1100
Rp1101
tp1102
a(S'ryan b. schwope'
p1103
g2
(g6
S'\xf4{j\xd6\x0eg\xd5?'
p1104
tp1105
Rp1106
tp1107
a(S'cardiac magnetic resonance imaging'
p1108
g2
(g6
S'\xd0M\xb7T\xdee\xd5?'
p1109
tp1110
Rp1111
tp1112
a(S'multispectral segmentation'
p1113
g2
(g6
S'\xefL\xc0W\x0f\\\xd5?'
p1114
tp1115
Rp1116
tp1117
a(S'neuronavigation'
p1118
g2
(g6
S'\x06\x0e=\x978[\xd5?'
p1119
tp1120
Rp1121
tp1122
a(S'icam (color appearance model)'
p1123
g2
(g6
S'\x992\xbacYT\xd5?'
p1124
tp1125
Rp1126
tp1127
a(S'medical radiation scientist'
p1128
g2
(g6
S'\xe3Y\xd7\xc4\xabL\xd5?'
p1129
tp1130
Rp1131
tp1132
a(S'ultrasound-modulated optical tomography'
p1133
g2
(g6
S'\x19\xa1\xd7I\x03I\xd5?'
p1134
tp1135
Rp1136
tp1137
a(S'insightec'
p1138
g2
(g6
S'\x9f\xba%/\xdfB\xd5?'
p1139
tp1140
Rp1141
tp1142
a(S'itk-snap'
p1143
g2
(g6
S'\xf4T#\xdd45\xd5?'
p1144
tp1145
Rp1146
tp1147
a(S'optical tomography'
p1148
g2
(g6
S'\xa3\xaa\xa8\xca\x0c2\xd5?'
p1149
tp1150
Rp1151
tp1152
a(S'diffuse optical imaging'
p1153
g2
(g6
S'\x84"\x1f\x92`(\xd5?'
p1154
tp1155
Rp1156
tp1157
a(S'national institute of biomedical imaging and bioengineering'
p1158
g2
(g6
S'\x0e\xfd\n3C&\xd5?'
p1159
tp1160
Rp1161
tp1162
a(S'electrical impedance and diffuse optical tomography reconstruction software'
p1163
g2
(g6
S'\xa2\xda\x91\xd5C\x11\xd5?'
p1164
tp1165
Rp1166
tp1167
a(S'mass spectrometry imaging'
p1168
g2
(g6
S'\xd4\xe6A.\xdd\r\xd5?'
p1169
tp1170
Rp1171
tp1172
a(S'blood-oxygen-level dependent'
p1173
g2
(g6
S'\n7!\xd2\xda\x04\xd5?'
p1174
tp1175
Rp1176
tp1177
a(S'magnetic resonance neurography'
p1178
g2
(g6
S'&,\xcf4\xf5\xf7\xd4?'
p1179
tp1180
Rp1181
tp1182
a(S'shear wave elasticity imaging'
p1183
g2
(g6
S'\xb1\x8ds\xef\xa3\xdd\xd4?'
p1184
tp1185
Rp1186
tp1187
a(S'laser direct infrared (ldir) imaging'
p1188
g2
(g6
S"\x084\xbc\xb4'\xda\xd4?"
p1189
tp1190
Rp1191
tp1192
a(S'magnetic resonance cholangiopancreatography'
p1193
g2
(g6
S"\xb2W'\x95\xef\xd3\xd4?"
p1194
tp1195
Rp1196
tp1197
a(S'scientific working group \xe2\x80\x93 imaging technology'
p1198
g2
(g6
S'b\xe3\x19m\x82\xd3\xd4?'
p1199
tp1200
Rp1201
tp1202
a(S'electron beam tomography'
p1203
g2
(g6
S'\xbe\xabP\xb7\x1f\xd2\xd4?'
p1204
tp1205
Rp1206
tp1207
a(S'philip batchelor'
p1208
g2
(g6
S'V\x8cbpP\xb7\xd4?'
p1209
tp1210
Rp1211
tp1212
a(S'teleophthalmology'
p1213
g2
(g6
S'\rH\xb9\xb3\xc4\xb2\xd4?'
p1214
tp1215
Rp1216
tp1217
a(S'digital autopsy'
p1218
g2
(g6
S'\x8d\xdaS\x8d\x89\xb0\xd4?'
p1219
tp1220
Rp1221
tp1222
a(S'image-guided surgery'
p1223
g2
(g6
S'b\xba\x85\xd8L\xad\xd4?'
p1224
tp1225
Rp1226
tp1227
a(S'quality assurance review center'
p1228
g2
(g6
S'\x9d\xeaQ\xa5\xaf\xa6\xd4?'
p1229
tp1230
Rp1231
tp1232
a(S'scintigraphy'
p1233
g2
(g6
S'2\xdc\x16\x8b\xca\x9e\xd4?'
p1234
tp1235
Rp1236
tp1237
a(S'schlieren imaging'
p1238
g2
(g6
S'\xa6SrN\x9d\x9c\xd4?'
p1239
tp1240
Rp1241
tp1242
a(S'school of medical science and technology'
p1243
g2
(g6
S'\xd4Q\xa6_Ot\xd4?'
p1244
tp1245
Rp1246
tp1247
a(S'mark schnitzer'
p1248
g2
(g6
S'\x15\x82\xf4a\xffa\xd4?'
p1249
tp1250
Rp1251
tp1252
a(S'daniel kopans'
p1253
g2
(g6
S'\x83A$Q\xb0[\xd4?'
p1254
tp1255
Rp1256
tp1257
a(S'teledyne dalsa'
p1258
g2
(g6
S'r\x8a\xa2\x07\xd7S\xd4?'
p1259
tp1260
Rp1261
tp1262
a(S'jeff duyn'
p1263
g2
(g6
S'?kS=\xf9L\xd4?'
p1264
tp1265
Rp1266
tp1267
a(S'paul thompson (neuroscientist)'
p1268
g2
(g6
S'\xa7G\x91\xde\xecF\xd4?'
p1269
tp1270
Rp1271
tp1272
a(S'imaging genetics'
p1273
g2
(g6
S'\xb0_0\xab\xd4D\xd4?'
p1274
tp1275
Rp1276
tp1277
a(S'pancreatic mass'
p1278
g2
(g6
S'\xebN\x910XB\xd4?'
p1279
tp1280
Rp1281
tp1282
a(S'lead technologies'
p1283
g2
(g6
S'4\x01\x01\xc1\xdf;\xd4?'
p1284
tp1285
Rp1286
tp1287
a(S'thermoteknix systems ltd'
p1288
g2
(g6
S'cp\x9a\xd9x\x1c\xd4?'
p1289
tp1290
Rp1291
tp1292
a(S'liquid crystal tunable filter'
p1293
g2
(g6
S'[q\x92\x8fb\x1c\xd4?'
p1294
tp1295
Rp1296
tp1297
a(S'journal of medical imaging and radiation oncology'
p1298
g2
(g6
S'UR\x85\xc3.\x14\xd4?'
p1299
tp1300
Rp1301
tp1302
a(S'frank bengel'
p1303
g2
(g6
S'\xb5\x83yHy\r\xd4?'
p1304
tp1305
Rp1306
tp1307
a(S'gabor herman'
p1308
g2
(g6
S'\xe8K\x1ah\xdd\n\xd4?'
p1309
tp1310
Rp1311
tp1312
a(S'orthogonal polarization spectral imaging'
p1313
g2
(g6
S'WV5\xff\xed\t\xd4?'
p1314
tp1315
Rp1316
tp1317
a(S'william e. glenn'
p1318
g2
(g6
S'2\xb8\xf9A\xbc\x08\xd4?'
p1319
tp1320
Rp1321
tp1322
a(S'journal of electronic imaging'
p1323
g2
(g6
S'x\xbb\xa1\xe4V\x07\xd4?'
p1324
tp1325
Rp1326
tp1327
a(S'thermography'
p1328
g2
(g6
S"\xcf*~'\x9f\x00\xd4?"
p1329
tp1330
Rp1331
tp1332
a(S'nikos paragios'
p1333
g2
(g6
S'\xe2+\xcaa\xff\xfd\xd3?'
p1334
tp1335
Rp1336
tp1337
a(S'the cancer imaging archive (tcia)'
p1338
g2
(g6
S'\xa9\xf9"\xebZ\xfd\xd3?'
p1339
tp1340
Rp1341
tp1342
a(S'emission computed tomography'
p1343
g2
(g6
S'l\xfc\xa6\\\x1b\xfa\xd3?'
p1344
tp1345
Rp1346
tp1347
a(S'dr systems'
p1348
g2
(g6
S'\xab9\xf2F\\\xf6\xd3?'
p1349
tp1350
Rp1351
tp1352
a(S'in vivo magnetic resonance spectroscopy'
p1353
g2
(g6
S'\x84\xcc\xc6\x074\xf2\xd3?'
p1354
tp1355
Rp1356
tp1357
a(S'college of radiology, academy of medicine malaysia'
p1358
g2
(g6
S'\xaf\x16\x99c\x9e\xf1\xd3?'
p1359
tp1360
Rp1361
tp1362
a(S'analyze (imaging software)'
p1363
g2
(g6
S'\x85B\xf5FZ\xf0\xd3?'
p1364
tp1365
Rp1366
tp1367
a(S'magnetic resonance'
p1368
g2
(g6
S'HX\xa0\x81\x13\xef\xd3?'
p1369
tp1370
Rp1371
tp1372
a(S'windber research institute'
p1373
g2
(g6
S'\xff\xec\x16\xac\xf9\xec\xd3?'
p1374
tp1375
Rp1376
tp1377
a(S'madan m. rehani'
p1378
g2
(g6
S'e\x18\xab\x1b\xdd\xc5\xd3?'
p1379
tp1380
Rp1381
tp1382
a(S'bernard marshall gordon'
p1383
g2
(g6
S'\xc4\xa0\x1b\x84\xaf\xc1\xd3?'
p1384
tp1385
Rp1386
tp1387
a(S'virtopsy'
p1388
g2
(g6
S'\x03\x14j0\xed\xbf\xd3?'
p1389
tp1390
Rp1391
tp1392
a(S'interventional magnetic resonance imaging'
p1393
g2
(g6
S'S,\x80\xf5\x8f\xb8\xd3?'
p1394
tp1395
Rp1396
tp1397
a(S'cone beam computed tomography'
p1398
g2
(g6
S'\xb4\xb4\x8f\x9d\xa3\xb0\xd3?'
p1399
tp1400
Rp1401
tp1402
a(S'clarity'
p1403
g2
(g6
S'M\xeeB\x1d\xe7\xaf\xd3?'
p1404
tp1405
Rp1406
tp1407
a(S'n-localizer'
p1408
g2
(g6
S'\x8c\x9f_\xa9"\xa9\xd3?'
p1409
tp1410
Rp1411
tp1412
a(S'contrast resolution'
p1413
g2
(g6
S'\xd4c\xe9$U\xa6\xd3?'
p1414
tp1415
Rp1416
tp1417
a(S'kenneth kwong'
p1418
g2
(g6
S'\xad\x83\xc0\x9aO\xa5\xd3?'
p1419
tp1420
Rp1421
tp1422
a(S'technetium (99mtc) sestamibi'
p1423
g2
(g6
S'\x8fP\x08\x14>\xa4\xd3?'
p1424
tp1425
Rp1426
tp1427
a(S'electrical impedance tomography'
p1428
g2
(g6
S'\xf2\xc21\x03\x18\x83\xd3?'
p1429
tp1430
Rp1431
tp1432
a(S'list of mesh codes (e01)'
p1433
g2
(g6
S'Q\xb7\xf0\xb4$\x80\xd3?'
p1434
tp1435
Rp1436
tp1437
a(S'pet radiotracer'
p1438
g2
(g6
S'\xd3\xa6\xd7\xf7\x93~\xd3?'
p1439
tp1440
Rp1441
tp1442
a(S'reconstruction algorithm'
p1443
g2
(g6
S'V\x1d\xcf@\x06u\xd3?'
p1444
tp1445
Rp1446
tp1447
a(S'avijit lahiri'
p1448
g2
(g6
S'\x92&C.\xe5q\xd3?'
p1449
tp1450
Rp1451
tp1452
a(S'investigative radiology'
p1453
g2
(g6
S'\xa1\xa8\xfel\xadk\xd3?'
p1454
tp1455
Rp1456
tp1457
a(S'strategic explorations of exoplanets and disks with subaru'
p1458
g2
(g6
S'e\xb5A\x00xj\xd3?'
p1459
tp1460
Rp1461
tp1462
a(S'anissa abi-dargham'
p1463
g2
(g6
S'\x9f\x13c\x8fPi\xd3?'
p1464
tp1465
Rp1466
tp1467
a(S'maldi imaging'
p1468
g2
(g6
S'\x88\xbe\xc3`\xcah\xd3?'
p1469
tp1470
Rp1471
tp1472
a(S'digital radiography'
p1473
g2
(g6
S'QL\x96\xef\xb0f\xd3?'
p1474
tp1475
Rp1476
tp1477
a(S'ultrasound transmission tomography'
p1478
g2
(g6
S'\xeeI<\xe2\xe2^\xd3?'
p1479
tp1480
Rp1481
tp1482
a(S'world health imaging, telemedicine, and informatics alliance'
p1483
g2
(g6
S'D\x98/\xcc\x1a\\\xd3?'
p1484
tp1485
Rp1486
tp1487
a(S"reid's base line"
p1488
g2
(g6
S'c\xf7\xa377X\xd3?'
p1489
tp1490
Rp1491
tp1492
a(S'contrast-enhanced ultrasound'
p1493
g2
(g6
S'w\xbf.\x87\xd7M\xd3?'
p1494
tp1495
Rp1496
tp1497
a(S'j\xc3\xbcrgen hennig'
p1498
g2
(g6
S'<\xabj\x8d7D\xd3?'
p1499
tp1500
Rp1501
tp1502
a(S'arno villringer'
p1503
g2
(g6
S'b\x92#|h9\xd3?'
p1504
tp1505
Rp1506
tp1507
a(S'x-ray image intensifier'
p1508
g2
(g6
S'\x16y3\x0b27\xd3?'
p1509
tp1510
Rp1511
tp1512
a.