(lp0
(S'multispectral image'
p1
cnumpy.core.multiarray
scalar
p2
(cnumpy
dtype
p3
(S'f8'
p4
I0
I1
tp5
Rp6
(I3
S'<'
p7
NNNI-1
I-1
I0
tp8
bS'\x07\x00\x00\x00\x00\x00\xf0?'
p9
tp10
Rp11
tp12
a(S'infrared'
p13
g2
(g6
S'\xaaY\x9b\x02\x00\xf2\xe0?'
p14
tp15
Rp16
tp17
a(S'vnir'
p18
g2
(g6
S'\xa1Fgn\xacr\xe0?'
p19
tp20
Rp21
tp22
a(S'chemical imaging'
p23
g2
(g6
S't\x9agHEm\xe0?'
p24
tp25
Rp26
tp27
a(S'hyperspectral imaging'
p28
g2
(g6
S'[s\x97\xec\x946\xe0?'
p29
tp30
Rp31
tp32
a(S'spectral imaging'
p33
g2
(g6
S':\x95"\x1c\xe4\x12\xdd?'
p34
tp35
Rp36
tp37
a(S'thermography'
p38
g2
(g6
S'\x9awr1\xe2\xda\xdc?'
p39
tp40
Rp41
tp42
a(S'imaging spectroscopy'
p43
g2
(g6
S'8\xa31\xad\xb4\xb3\xdc?'
p44
tp45
Rp46
tp47
a(S'full-spectrum photography'
p48
g2
(g6
S'\nU{~\xafz\xdc?'
p49
tp50
Rp51
tp52
a(S'infrared vision'
p53
g2
(g6
S'\x03,\x00\xc1o$\xdc?'
p54
tp55
Rp56
tp57
a(S'normalized difference vegetation index'
p58
g2
(g6
S'\xe068x\x92\x18\xdc?'
p59
tp60
Rp61
tp62
a(S'full spectral imaging'
p63
g2
(g6
S"\xbf'\xa0-M\xed\xdb?"
p64
tp65
Rp66
tp67
a(S'multispectral pattern recognition'
p68
g2
(g6
S'\x88Vv|\x06\xd1\xdb?'
p69
tp70
Rp71
tp72
a(S'infrared photography'
p73
g2
(g6
S'\xeaa\x9fHt\xbe\xdb?'
p74
tp75
Rp76
tp77
a(S'shalom (satellite)'
p78
g2
(g6
S'"\x9a\xdd\xd2T\t\xdb?'
p79
tp80
Rp81
tp82
a(S'thermographic camera'
p83
g2
(g6
S'\xc8\x13\x9f@\xe2\x00\xdb?'
p84
tp85
Rp86
tp87
a(S'imaging'
p88
g2
(g6
S'im\xcf 2\xff\xda?'
p89
tp90
Rp91
tp92
a(S'list of infrared articles'
p93
g2
(g6
S'e\x8e\xc5z\xc1\xf7\xda?'
p94
tp95
Rp96
tp97
a(S'forward looking infrared'
p98
g2
(g6
S'\xf0\xd8Q\xdd\xe8D\xda?'
p99
tp100
Rp101
tp102
a(S'near-infrared spectroscopy'
p103
g2
(g6
S'\x19\xf9\xa6\xd8\x0cB\xda?'
p104
tp105
Rp106
tp107
a(S'far infrared'
p108
g2
(g6
S'c\x9d*\x96\xa4q\xd9?'
p109
tp110
Rp111
tp112
a(S'infrared (disambiguation)'
p113
g2
(g6
S'\x87\xa0Aw\xdd\x05\xd9?'
p114
tp115
Rp116
tp117
a(S'imaging science'
p118
g2
(g6
S'\xdf\xd2\x1a\xa8\xed\xbf\xd8?'
p119
tp120
Rp121
tp122
a(S'biological imaging'
p123
g2
(g6
S'\xb7\xceq.\xe8\xb9\xd8?'
p124
tp125
Rp126
tp127
a(S'lead selenide'
p128
g2
(g6
S'E\xcb\xd8&\x8c=\xd8?'
p129
tp130
Rp131
tp132
a(S'molecular imaging'
p133
g2
(g6
S'VQ\x9d\xb1\x07\x04\xd8?'
p134
tp135
Rp136
tp137
a(S'remote sensing'
p138
g2
(g6
S'>\xa7\xdd\xfb\xfa\xb6\xd7?'
p139
tp140
Rp141
tp142
a(S'infrared lamp'
p143
g2
(g6
S'}\xd2*\x98o\x88\xd7?'
p144
tp145
Rp146
tp147
a(S'infrared astronomy'
p148
g2
(g6
S'\xe7^\xd3\xb6\xd4r\xd7?'
p149
tp150
Rp151
tp152
a(S'medical imaging'
p153
g2
(g6
S'm1\x12\xf4Fo\xd7?'
p154
tp155
Rp156
tp157
a(S'spectral signature'
p158
g2
(g6
S'\xfc\x1eS\xfc"O\xd7?'
p159
tp160
Rp161
tp162
a(S'video spectroscopy'
p163
g2
(g6
S'\x08\xa2\xf4\xca<\xed\xd6?'
p164
tp165
Rp166
tp167
a(S'infrared cleaning'
p168
g2
(g6
S'J\x1a\xf0\t\xbea\xd6?'
p169
tp170
Rp171
tp172
a(S'the imaging science journal'
p173
g2
(g6
S'@v@\x10b@\xd6?'
p174
tp175
Rp176
tp177
a(S'infrared signature'
p178
g2
(g6
S'\xb2\xee\x96\xd5\xaf,\xd6?'
p179
tp180
Rp181
tp182
a(S'normalized difference water index'
p183
g2
(g6
S'\x84\xf0>\x9b\x8e\x1b\xd6?'
p184
tp185
Rp186
tp187
a(S'low light level television'
p188
g2
(g6
S'[\xce\x87\x92c\x15\xd6?'
p189
tp190
Rp191
tp192
a(S'hot mirror'
p193
g2
(g6
S"\x90\xc6'\x0f\xee\xd4\xd5?"
p194
tp195
Rp196
tp197
a(S'snapshot hyperspectral imaging'
p198
g2
(g6
S'\xe5h\x08\xa9\xc7\x91\xd5?'
p199
tp200
Rp201
tp202
a(S'red edge'
p203
g2
(g6
S'\x85>]\xd5D\x8f\xd5?'
p204
tp205
Rp206
tp207
a(S'infrared telescope'
p208
g2
(g6
S'\xdbi8\xa1\xa2r\xd5?'
p209
tp210
Rp211
tp212
a(S'canadian national association of infrared imaging technologists'
p213
g2
(g6
S'\xce\xeaV}QY\xd5?'
p214
tp215
Rp216
tp217
a(S'hdri (data format)'
p218
g2
(g6
S'\xe9\xaa\xc5\x81lF\xd5?'
p219
tp220
Rp221
tp222
a(S'medical optical imaging'
p223
g2
(g6
S'\x10_\x93\xc8j8\xd5?'
p224
tp225
Rp226
tp227
a(S'thermographic inspection'
p228
g2
(g6
S'\x9c8]\x00$\x1d\xd5?'
p229
tp230
Rp231
tp232
a(S'optical window'
p233
g2
(g6
S'\xfd\xcb\x8bv\x9b\x0c\xd5?'
p234
tp235
Rp236
tp237
a(S'diffuse infrared background experiment'
p238
g2
(g6
S'\x895F\xcd\x8f\xf5\xd4?'
p239
tp240
Rp241
tp242
a(S'multispectral optoacoustic tomography'
p243
g2
(g6
S'\xbe\x18\xba\xe2\x1c\xe0\xd4?'
p244
tp245
Rp246
tp247
a(S'china\xe2\x80\x93brazil earth resources satellite program'
p248
g2
(g6
S'\xaf]\x92FI\xcd\xd4?'
p249
tp250
Rp251
tp252
a(S'false color'
p253
g2
(g6
S'\xc0\xba\xe0\xdeB\xc9\xd4?'
p254
tp255
Rp256
tp257
a(S'multi-spectral camouflage'
p258
g2
(g6
S'+\x1cB\xb7#\xb9\xd4?'
p259
tp260
Rp261
tp262
a(S'international imaging industry association'
p263
g2
(g6
S';V\xb1\xc9\xd0\xa5\xd4?'
p264
tp265
Rp266
tp267
a(S'lucky imaging'
p268
g2
(g6
S' .Ac\xa8\x9f\xd4?'
p269
tp270
Rp271
tp272
a(S'digital imaging'
p273
g2
(g6
S'OW\xcc_J\x91\xd4?'
p274
tp275
Rp276
tp277
a(S'far-infrared astronomy'
p278
g2
(g6
S"'\x02\x18\x85|\x8a\xd4?"
p279
tp280
Rp281
tp282
a(S'thermoteknix systems ltd'
p283
g2
(g6
S'g\xe79+\x8e\x89\xd4?'
p284
tp285
Rp286
tp287
a(S'imaging spectrometer'
p288
g2
(g6
S'a\x06\xe8\x07\xa3d\xd4?'
p289
tp290
Rp291
tp292
a(S'remote sensing application'
p293
g2
(g6
S'm;f\x12\x8dC\xd4?'
p294
tp295
Rp296
tp297
a(S'frank j. low'
p298
g2
(g6
S'\x8b\x89\xab\xd5\xfb6\xd4?'
p299
tp300
Rp301
tp302
a(S'radiopharmaceutical'
p303
g2
(g6
S'\xda\x93wX\xf42\xd4?'
p304
tp305
Rp306
tp307
a(S'near infrared camera and multi-object spectrometer'
p308
g2
(g6
S'2\x811\x1d\xf8\x07\xd4?'
p309
tp310
Rp311
tp312
a(S'dynamic imaging'
p313
g2
(g6
S'N\xc0@L\x0f\xe4\xd3?'
p314
tp315
Rp316
tp317
a(S'night vision'
p318
g2
(g6
S'.\n"\xfaL\xe2\xd3?'
p319
tp320
Rp321
tp322
a(S'thermal infrared spectroscopy'
p323
g2
(g6
S"\xf7\xd9'C\xa6\xe0\xd3?"
p324
tp325
Rp326
tp327
a(S'infrared cirrus'
p328
g2
(g6
S'+\x05\x8e]\xe5\xbe\xd3?'
p329
tp330
Rp331
tp332
a(S'cosmic infrared background'
p333
g2
(g6
S'\x16\xce\xe6\x1c\x9a\xbb\xd3?'
p334
tp335
Rp336
tp337
a(S'thermal imaging camera'
p338
g2
(g6
S',/\x98"\xc3\xaa\xd3?'
p339
tp340
Rp341
tp342
a(S'nasa infrared telescope facility'
p343
g2
(g6
S'\xa3\x9f\x81y\xd6\x9d\xd3?'
p344
tp345
Rp346
tp347
a(S'lasersoft imaging'
p348
g2
(g6
S'\xd4\xe4\x80b\xac\x9b\xd3?'
p349
tp350
Rp351
tp352
a(S'infrared science archive'
p353
g2
(g6
S'\xae\xe8\xad\xe6\xfb\x99\xd3?'
p354
tp355
Rp356
tp357
a(S'x-sat'
p358
g2
(g6
S'\x01\xf8\x90\x81\x80\x96\xd3?'
p359
tp360
Rp361
tp362
a(S'visible spectrum'
p363
g2
(g6
S'\x94z8\xab\x06\x89\xd3?'
p364
tp365
Rp366
tp367
a(S'liquid crystal tunable filter'
p368
g2
(g6
S'\xc4\x85\xadr\x1c\x7f\xd3?'
p369
tp370
Rp371
tp372
a(S'infrared heater'
p373
g2
(g6
S'w5\xc1-\x06|\xd3?'
p374
tp375
Rp376
tp377
a(S'airborne real-time cueing hyperspectral enhanced reconnaissance'
p378
g2
(g6
S'mX\xd0Z\xaav\xd3?'
p379
tp380
Rp381
tp382
a(S'infrared spectroscopy'
p383
g2
(g6
S'Fj\x97\x94\xc3l\xd3?'
p384
tp385
Rp386
tp387
a(S'stereo imaging'
p388
g2
(g6
S'\x877,*\xaa[\xd3?'
p389
tp390
Rp391
tp392
a(S'seafloor mapping'
p393
g2
(g6
S'\xaf\x08C!\x94N\xd3?'
p394
tp395
Rp396
tp397
a(S'high-definition thermal imaging'
p398
g2
(g6
S'#\xff\x10\xd9/6\xd3?'
p399
tp400
Rp401
tp402
a(S'terahertz radiation'
p403
g2
(g6
S'\xe0\xad\x80\x00\xfb\xf0\xd2?'
p404
tp405
Rp406
tp407
a(S'imaging agent'
p408
g2
(g6
S'\x94^\xde{n\xec\xd2?'
p409
tp410
Rp411
tp412
a(S'resurs-p'
p413
g2
(g6
S'\xb4?\x96\xafD\xe6\xd2?'
p414
tp415
Rp416
tp417
a(S'electro-optical masint'
p418
g2
(g6
S'Tf\x8dk\xc0\xb4\xd2?'
p419
tp420
Rp421
tp422
a(S'an/aaq-26'
p423
g2
(g6
S'\x7f\x10+~\x86\xa0\xd2?'
p424
tp425
Rp426
tp427
a(S'photon etc.'
p428
g2
(g6
S'\xbd/\xf8m\xdc\x92\xd2?'
p429
tp430
Rp431
tp432
a(S'staring array'
p433
g2
(g6
S'TD\x86\x02\x0cs\xd2?'
p434
tp435
Rp436
tp437
a(S'society for imaging science and technology'
p438
g2
(g6
S'\x1d\x9f\xc0\x1ahq\xd2?'
p439
tp440
Rp441
tp442
a(S'narrow-band imaging'
p443
g2
(g6
S"'\xadL\xb0\x98n\xd2?"
p444
tp445
Rp446
tp447
a(S'electromagnetic spectrum'
p448
g2
(g6
S't\xe2j"x8\xd2?'
p449
tp450
Rp451
tp452
a(S'wratten number'
p453
g2
(g6
S'Y\x1e\xdf\x80\xed\x1c\xd2?'
p454
tp455
Rp456
tp457
a(S'laser direct infrared (ldir) imaging'
p458
g2
(g6
S'9er\x138\x00\xd2?'
p459
tp460
Rp461
tp462
a(S'functional imaging'
p463
g2
(g6
S'M\xb96\xa4\x06\xfc\xd1?'
p464
tp465
Rp466
tp467
a(S'photometric system'
p468
g2
(g6
S'\x8d.cU!\xf8\xd1?'
p469
tp470
Rp471
tp472
a(S'soil-adjusted vegetation index'
p473
g2
(g6
S'*\xcb\x00*\xd3\xcd\xd1?'
p474
tp475
Rp476
tp477
a(S'maxim dl'
p478
g2
(g6
S'<0l\x8e\x85\xc8\xd1?'
p479
tp480
Rp481
tp482
a(S'medical image computing'
p483
g2
(g6
S'GlU\x8a\xa7\xc1\xd1?'
p484
tp485
Rp486
tp487
a(S'calorescence'
p488
g2
(g6
S'Z\xdfe\xe3*\xa2\xd1?'
p489
tp490
Rp491
tp492
a(S'resurs-dk no.1'
p493
g2
(g6
S'\x97\x9dE\xd9\x18\x9b\xd1?'
p494
tp495
Rp496
tp497
a(S'photothermal microspectroscopy'
p498
g2
(g6
S'Z\xabx\xe4\xad\x89\xd1?'
p499
tp500
Rp501
tp502
a(S'airborne visible/infrared imaging spectrometer'
p503
g2
(g6
S'\xebogWg\x84\xd1?'
p504
tp505
Rp506
tp507
a(S'preclinical imaging'
p508
g2
(g6
S'\xb5\x8e\xd9\xe4\x18w\xd1?'
p509
tp510
Rp511
tp512
a(S'landsat 8'
p513
g2
(g6
S'\x99\xa9\xa4N\xa1n\xd1?'
p514
tp515
Rp516
tp517
a(S'imaging for windows'
p518
g2
(g6
S'\xafnA\x1b\x9b[\xd1?'
p519
tp520
Rp521
tp522
a(S'eric becklin'
p523
g2
(g6
S'\x07k\xc7\x18&J\xd1?'
p524
tp525
Rp526
tp527
a(S'clementine (spacecraft)'
p528
g2
(g6
S'^\xf3\xad\xe0.?\xd1?'
p529
tp530
Rp531
tp532
a(S'elbit imaging'
p533
g2
(g6
S'CzA\x89x;\xd1?'
p534
tp535
Rp536
tp537
a(S'normalized difference red edge index'
p538
g2
(g6
S'\xb4"<\x10\x93.\xd1?'
p539
tp540
Rp541
tp542
a(S'ikonos'
p543
g2
(g6
S'\xd2$n\x0fY\x1d\xd1?'
p544
tp545
Rp546
tp547
a(S'spectral color'
p548
g2
(g6
S'.\xf58\xd6\xa3\x10\xd1?'
p549
tp550
Rp551
tp552
a(S'tianhui 1b'
p553
g2
(g6
S'\xa5\x8a\x88\x08M\r\xd1?'
p554
tp555
Rp556
tp557
a(S'jovian infrared auroral mapper'
p558
g2
(g6
S'x7\xba\xd8\\\x00\xd1?'
p559
tp560
Rp561
tp562
a(S'george h. rieke'
p563
g2
(g6
S'c\xd7\x12\x85F\xf0\xd0?'
p564
tp565
Rp566
tp567
a(S'lirc'
p568
g2
(g6
S'\xa4\x98\x98i\xa9\xeb\xd0?'
p569
tp570
Rp571
tp572
a(S'afm-ir'
p573
g2
(g6
S'z\xdb\xc6\x8b@\xea\xd0?'
p574
tp575
Rp576
tp577
a(S'image analysis'
p578
g2
(g6
S' \xe8\n(3\xd9\xd0?'
p579
tp580
Rp581
tp582
a(S'resourcesat-1'
p583
g2
(g6
S'\x86\x1d1\xa6+\xd5\xd0?'
p584
tp585
Rp586
tp587
a(S'remote sensing (archaeology)'
p588
g2
(g6
S',%\xe4\xc4\x88\xc9\xd0?'
p589
tp590
Rp591
tp592
a(S'time stretch quantitative phase imaging'
p593
g2
(g6
S'\xaa\xca\x13g\\\xc0\xd0?'
p594
tp595
Rp596
tp597
a(S'infrared thermometer'
p598
g2
(g6
S';\xfd\x91^\x94\xb7\xd0?'
p599
tp600
Rp601
tp602
a(S'stereoscopic spectroscopy'
p603
g2
(g6
S'\xa7\x8d\xa7\x84\xc0\xb2\xd0?'
p604
tp605
Rp606
tp607
a(S'electromagnetic absorption by water'
p608
g2
(g6
S'\xf7\x8c\xd8j\xed\x97\xd0?'
p609
tp610
Rp611
tp612
a(S'microwave imaging'
p613
g2
(g6
S'\xf3\xe1$\x08\x9c\x95\xd0?'
p614
tp615
Rp616
tp617
a(S'unidentified infrared emission'
p618
g2
(g6
S'\x136]4f\x93\xd0?'
p619
tp620
Rp621
tp622
a(S'image fusion'
p623
g2
(g6
S'\x92fdm\xae\x84\xd0?'
p624
tp625
Rp626
tp627
a(S'thermoception'
p628
g2
(g6
S'ax\xf0\xddB\x80\xd0?'
p629
tp630
Rp631
tp632
a(S'hubble deep field south'
p633
g2
(g6
S'o\x8cr\xa6Z~\xd0?'
p634
tp635
Rp636
tp637
a(S'teraview'
p638
g2
(g6
S'\xa0\xf5\xfc\xe2\x1cp\xd0?'
p639
tp640
Rp641
tp642
a(S'proba-v'
p643
g2
(g6
S'J\xa8\xbb\x8e\x99o\xd0?'
p644
tp645
Rp646
tp647
a(S'safir'
p648
g2
(g6
S'\xa2\x17\xba\xf18`\xd0?'
p649
tp650
Rp651
tp652
a(S'cherenkov luminescence imaging'
p653
g2
(g6
S'\x861#<(\\\xd0?'
p654
tp655
Rp656
tp657
a(S'foveated imaging'
p658
g2
(g6
S'\xdf\xb5?X.N\xd0?'
p659
tp660
Rp661
tp662
a(S'water remote sensing'
p663
g2
(g6
S'!d|\xb3\x08G\xd0?'
p664
tp665
Rp666
tp667
a(S'space imaging'
p668
g2
(g6
S'\xd2\x9dO0\xbaC\xd0?'
p669
tp670
Rp671
tp672
a(S'near-infrared signature management technology'
p673
g2
(g6
S'[\xeb\x8b@4@\xd0?'
p674
tp675
Rp676
tp677
a(S'fluoroscopy'
p678
g2
(g6
S'\xc3\x1b(We%\xd0?'
p679
tp680
Rp681
tp682
a(S'satellite imagery'
p683
g2
(g6
S')\r]\xc6\xae \xd0?'
p684
tp685
Rp686
tp687
a(S'dicom'
p688
g2
(g6
S'\xdc\x9f\xc5U\x9a\x1d\xd0?'
p689
tp690
Rp691
tp692
a(S'xiaoyuan (shawn) chen'
p693
g2
(g6
S'\xc3\x96XD\x95\t\xd0?'
p694
tp695
Rp696
tp697
a(S'fluorescence image-guided surgery'
p698
g2
(g6
S'\xd2\xbf\xbdT\xe6\x04\xd0?'
p699
tp700
Rp701
tp702
a(S'micad'
p703
g2
(g6
S'\x0c\x15w\x19j\x04\xd0?'
p704
tp705
Rp706
tp707
a(S'u.s. national vegetation classification'
p708
g2
(g6
S'\xce\xa8\xc0\x85\xc8\xfc\xcf?'
p709
tp710
Rp711
tp712
a(S'machine vision'
p713
g2
(g6
S'\xefP\xdb\x9c\xc7\xf6\xcf?'
p714
tp715
Rp716
tp717
a(S'quill (satellite)'
p718
g2
(g6
S'Q\xa9\xddT\xce\xf1\xcf?'
p719
tp720
Rp721
tp722
a(S'radar imaging'
p723
g2
(g6
S'\xf2\xae\xe4.8\xf0\xcf?'
p724
tp725
Rp726
tp727
a(S'iras'
p728
g2
(g6
S'\x99\x04\x06\xa3\x13\xe4\xcf?'
p729
tp730
Rp731
tp732
a(S'compact reconnaissance imaging spectrometer for mars'
p733
g2
(g6
S'\x81{\xcf\x02\xa3\xb9\xcf?'
p734
tp735
Rp736
tp737
a(S'wide field camera 3'
p738
g2
(g6
S'\xa6\xbep\xbeS\xb6\xcf?'
p739
tp740
Rp741
tp742
a(S'fourier transform infrared spectroscopy'
p743
g2
(g6
S'!\x90\xcbhh\xb5\xcf?'
p744
tp745
Rp746
tp747
a(S'dylight fluor'
p748
g2
(g6
S'\xb2\xace\xad\xc3\x9f\xcf?'
p749
tp750
Rp751
tp752
a(S'spectral sciences incorporated'
p753
g2
(g6
S'\xfc\xd9\xea\xdb\x06\x9c\xcf?'
p754
tp755
Rp756
tp757
a(S'contextual image classification'
p758
g2
(g6
S'\xd2\xa5\xaf\xd2\xc8\x93\xcf?'
p759
tp760
Rp761
tp762
a(S'spectral slope'
p763
g2
(g6
S'X\xa6\n\x1a\xc7w\xcf?'
p764
tp765
Rp766
tp767
a(S'minimum resolvable temperature difference'
p768
g2
(g6
S'c\xbe\x8b[\x0eY\xcf?'
p769
tp770
Rp771
tp772
a(S'reststrahlen effect'
p773
g2
(g6
S'\xe3U\x9c\xea\x86D\xcf?'
p774
tp775
Rp776
tp777
a(S'image-guided radiation therapy'
p778
g2
(g6
S'F\xadYe\xf8:\xcf?'
p779
tp780
Rp781
tp782
a(S'internet imaging protocol'
p783
g2
(g6
S'T\x1c*\xaf\x1d1\xcf?'
p784
tp785
Rp786
tp787
a(S'ground truth'
p788
g2
(g6
S'\x9a\xf0\xcd\xb1\xc1 \xcf?'
p789
tp790
Rp791
tp792
a(S'imaging informatics'
p793
g2
(g6
S'JR/Q\x9c\r\xcf?'
p794
tp795
Rp796
tp797
a(S'infrared gas analyzer'
p798
g2
(g6
S'`\xd8\xf65\xda\xf0\xce?'
p799
tp800
Rp801
tp802
a(S'infrared excess'
p803
g2
(g6
S'6\t.\xde\xcb\xd8\xce?'
p804
tp805
Rp806
tp807
a(S'meteosat visible and infrared imager'
p808
g2
(g6
S'\x08x\xed\xa2\xbc\xc6\xce?'
p809
tp810
Rp811
tp812
a(S'mesa imaging'
p813
g2
(g6
S'\t\xa9}\x81\x94\xc3\xce?'
p814
tp815
Rp816
tp817
a(S'emissivity'
p818
g2
(g6
S'\x0b\x95\xf8\xe3\xd3\xbd\xce?'
p819
tp820
Rp821
tp822
a(S'midcourse space experiment'
p823
g2
(g6
S'C_\xa2\x83\x92\xba\xce?'
p824
tp825
Rp826
tp827
a(S'infrared data association'
p828
g2
(g6
S'\xfb+=\x02Q\xb9\xce?'
p829
tp830
Rp831
tp832
a(S'ugps j0521+3640'
p833
g2
(g6
S'`\xc1\xa3\xea\x18\xa3\xce?'
p834
tp835
Rp836
tp837
a(S'visible infrared imaging radiometer suite'
p838
g2
(g6
S'\xc2D\xef/\xfa\x91\xce?'
p839
tp840
Rp841
tp842
a(S'biofield'
p843
g2
(g6
S'",\xac\xad\xe5\x88\xce?'
p844
tp845
Rp846
tp847
a(S'preclinical spect'
p848
g2
(g6
S'\xe9|VG\x08{\xce?'
p849
tp850
Rp851
tp852
a(S'bistatic imaging'
p853
g2
(g6
S'\xf6\xeb\x9f\x9cgo\xce?'
p854
tp855
Rp856
tp857
a(S'arirang-2'
p858
g2
(g6
S'\xeb^S\x10BU\xce?'
p859
tp860
Rp861
tp862
a(S'megavision (cameras)'
p863
g2
(g6
S'\xda\x80\xa9b\xb0R\xce?'
p864
tp865
Rp866
tp867
a(S'ghost imaging'
p868
g2
(g6
S'\xd8\xa1X\x0c\xaeE\xce?'
p869
tp870
Rp871
tp872
a(S'envisat'
p873
g2
(g6
S'\xe6B\xc7T1D\xce?'
p874
tp875
Rp876
tp877
a(S'remote sensing center'
p878
g2
(g6
S'\x19\x1e\x86\xda\x14D\xce?'
p879
tp880
Rp881
tp882
a(S'resourcesat-2a'
p883
g2
(g6
S'\xb5\xc0,\xd58<\xce?'
p884
tp885
Rp886
tp887
a(S'infrared cut-off filter'
p888
g2
(g6
S'\xbe\x9fB\t\x13<\xce?'
p889
tp890
Rp891
tp892
a(S'bioimage informatics'
p893
g2
(g6
S'+\xa2\xf9\xe5#3\xce?'
p894
tp895
Rp896
tp897
a(S'spitzer space telescope'
p898
g2
(g6
S'\x18"\xd7\xc3V,\xce?'
p899
tp900
Rp901
tp902
a(S'imaging phantom'
p903
g2
(g6
S'h0\xd7r4\x11\xce?'
p904
tp905
Rp906
tp907
a(S'image mapping spectrometer'
p908
g2
(g6
S'\x02-\xce\xe7\xb3\x00\xce?'
p909
tp910
Rp911
tp912
a(S'safari imaging spectrometer'
p913
g2
(g6
S'\x97\x82\xf0RT\xe3\xcd?'
p914
tp915
Rp916
tp917
a(S'image processing'
p918
g2
(g6
S'\xa6,X\xcej\xdb\xcd?'
p919
tp920
Rp921
tp922
a(S'synthetic aperture ultrasound'
p923
g2
(g6
S'\x90N\x87r\xbc\xd9\xcd?'
p924
tp925
Rp926
tp927
a(S'ultraviolet astronomy'
p928
g2
(g6
S'\xc7\x87O\xd3X\xd9\xcd?'
p929
tp930
Rp931
tp932
a(S'elscint'
p933
g2
(g6
S'/z"\x9fy\xd7\xcd?'
p934
tp935
Rp936
tp937
a(S'nir'
p938
g2
(g6
S'\xf4\xa8\xdc\xbb\xf4\xd5\xcd?'
p939
tp940
Rp941
tp942
a(S'infrared countermeasure'
p943
g2
(g6
S'\xe4-\x85\x7f\xdd\xd3\xcd?'
p944
tp945
Rp946
tp947
a(S'civil aircraft missile protection system'
p948
g2
(g6
S"\x8a\xc5\xde'W\xcd\xcd?"
p949
tp950
Rp951
tp952
a(S'vegetation classification and mapping program'
p953
g2
(g6
S'\x83\xd3\x17\x8a\x01\xcd\xcd?'
p954
tp955
Rp956
tp957
a(S'remote sensing satellite and data overview'
p958
g2
(g6
S'" \xaa\x1a\x81\xc9\xcd?'
p959
tp960
Rp961
tp962
a(S'spectral envelope'
p963
g2
(g6
S'\x940Zv\x0b\xc0\xcd?'
p964
tp965
Rp966
tp967
a(S'zielger\xc3\xa4t 1229'
p968
g2
(g6
S'\xb0\x1baT\xd0\xbd\xcd?'
p969
tp970
Rp971
tp972
a(S'strategic explorations of exoplanets and disks with subaru'
p973
g2
(g6
S'\xb7\x88\xc7\x1c\xd3\xb4\xcd?'
p974
tp975
Rp976
tp977
a(S'orthogonal polarization spectral imaging'
p978
g2
(g6
S'\x1d\xa3\x17.K\x9f\xcd?'
p979
tp980
Rp981
tp982
a(S'photometer'
p983
g2
(g6
S'(\xd7\xbb\x88\xa3\x8c\xcd?'
p984
tp985
Rp986
tp987
a(S'fabriclive.13'
p988
g2
(g6
S']\xdf\xcd\x13yu\xcd?'
p989
tp990
Rp991
tp992
a(S'biomedical spectroscopy'
p993
g2
(g6
S'\xf8S\xc8n\xb0W\xcd?'
p994
tp995
Rp996
tp997
a(S'cosmic infrared background experiment'
p998
g2
(g6
S'\xc1\x93\x0e\x10\xb2Q\xcd?'
p999
tp1000
Rp1001
tp1002
a(S'shift-and-add'
p1003
g2
(g6
S'\xdf\xf5Ar\xcbN\xcd?'
p1004
tp1005
Rp1006
tp1007
a(S'hybrid operating room'
p1008
g2
(g6
S'\xfd\xaf/\xc8\xc3E\xcd?'
p1009
tp1010
Rp1011
tp1012
a(S'icam (color appearance model)'
p1013
g2
(g6
S'ey\xf9d\xec4\xcd?'
p1014
tp1015
Rp1016
tp1017
a(S'nircam'
p1018
g2
(g6
S'\xdeB}\x15L4\xcd?'
p1019
tp1020
Rp1021
tp1022
a(S'micro-spectrophotometry'
p1023
g2
(g6
S'\xa8c\x88\xed\xe5\x1e\xcd?'
p1024
tp1025
Rp1026
tp1027
a(S'vista imaging'
p1028
g2
(g6
S'e\x17\x999\xce\x12\xcd?'
p1029
tp1030
Rp1031
tp1032
a(S'optical spectrometer'
p1033
g2
(g6
S'\x0br\xa0\x19\xda\x0f\xcd?'
p1034
tp1035
Rp1036
tp1037
a(S'hubble deep field'
p1038
g2
(g6
S'\xa5r\xf0\x88\xed\x05\xcd?'
p1039
tp1040
Rp1041
tp1042
a(S'mercury cadmium telluride'
p1043
g2
(g6
S'\xb7\xa7\xa4Y\xd6\xf5\xcc?'
p1044
tp1045
Rp1046
tp1047
a(S'pixel'
p1048
g2
(g6
S">uf'\xad\xe2\xcc?"
p1049
tp1050
Rp1051
tp1052
a(S'digital ice'
p1053
g2
(g6
S'\xc2\xce\xa7\x85\xce\xce\xcc?'
p1054
tp1055
Rp1056
tp1057
a(S'spectro-polarimetric high-contrast exoplanet research'
p1058
g2
(g6
S'j\x8a\t-\xcb\xc3\xcc?'
p1059
tp1060
Rp1061
tp1062
a(S'pixel artist'
p1063
g2
(g6
S'\x06\xa2(J\xeb\xbc\xcc?'
p1064
tp1065
Rp1066
tp1067
a(S'globar'
p1068
g2
(g6
S'H\xb7w:\x18\xb5\xcc?'
p1069
tp1070
Rp1071
tp1072
a(S'femtolab'
p1073
g2
(g6
S'\xdeH\x1f\x19\xc4\xb4\xcc?'
p1074
tp1075
Rp1076
tp1077
a(S'robert brattain'
p1078
g2
(g6
S'\x96\xe9\xf0r5\xad\xcc?'
p1079
tp1080
Rp1081
tp1082
a(S'infrared processing and analysis center'
p1083
g2
(g6
S'\xb6J\x08)5\xab\xcc?'
p1084
tp1085
Rp1086
tp1087
a(S'incandescence'
p1088
g2
(g6
S'F~\xe2t\xf3\xa0\xcc?'
p1089
tp1090
Rp1091
tp1092
a(S'irisys'
p1093
g2
(g6
S'\x1f5\xc0\x98d\x9b\xcc?'
p1094
tp1095
Rp1096
tp1097
a(S'super-resolution imaging'
p1098
g2
(g6
S'h>\xd07\xf0\x97\xcc?'
p1099
tp1100
Rp1101
tp1102
a(S'operational land imager'
p1103
g2
(g6
S'\xbaO[\xf3\x8a\x80\xcc?'
p1104
tp1105
Rp1106
tp1107
a(S'european institute for biomedical imaging research'
p1108
g2
(g6
S'Jl\xf0\x98\xaas\xcc?'
p1109
tp1110
Rp1111
tp1112
a(S'infrared and thermal testing'
p1113
g2
(g6
S'#@\x00\x87<h\xcc?'
p1114
tp1115
Rp1116
tp1117
a(S'directional infrared counter measures'
p1118
g2
(g6
S'\x94%\xbaW%g\xcc?'
p1119
tp1120
Rp1121
tp1122
a(S'specim'
p1123
g2
(g6
S'\xd9\xcaq\xadne\xcc?'
p1124
tp1125
Rp1126
tp1127
a(S'okpedie'
p1128
g2
(g6
S'\xd8vL\xc84d\xcc?'
p1129
tp1130
Rp1131
tp1132
a(S'pyrotechnic colorant'
p1133
g2
(g6
S'=\x02X{\xeeX\xcc?'
p1134
tp1135
Rp1136
tp1137
a(S'international cancer imaging society'
p1138
g2
(g6
S'\x12*\x0b=\xbfB\xcc?'
p1139
tp1140
Rp1141
tp1142
a(S'james webb space telescope'
p1143
g2
(g6
S'\xe8\x1f:k\x92B\xcc?'
p1144
tp1145
Rp1146
tp1147
a(S'spectral rendering'
p1148
g2
(g6
S'\xef7\x03\x02\xa3;\xcc?'
p1149
tp1150
Rp1151
tp1152
a(S'detective quantum efficiency'
p1153
g2
(g6
S'\x7f\xb5\xd02i+\xcc?'
p1154
tp1155
Rp1156
tp1157
a(S'rapideye'
p1158
g2
(g6
S'q\xd6B\x128+\xcc?'
p1159
tp1160
Rp1161
tp1162
a(S'acoustic radiation force impulse imaging'
p1163
g2
(g6
S'\x13\xd1\xdb\xa11#\xcc?'
p1164
tp1165
Rp1166
tp1167
a(S'anaglyph 3d'
p1168
g2
(g6
S'j\x03\xad\x96m"\xcc?'
p1169
tp1170
Rp1171
tp1172
a(S'superlens'
p1173
g2
(g6
S'\xe5\x08O\xd1\x16"\xcc?'
p1174
tp1175
Rp1176
tp1177
a(S'polder'
p1178
g2
(g6
S'\x00\x18\xd8M\x9f\x1b\xcc?'
p1179
tp1180
Rp1181
tp1182
a(S'large uv optical infrared surveyor'
p1183
g2
(g6
S'\xc0\xd7\xc5j>\x14\xcc?'
p1184
tp1185
Rp1186
tp1187
a(S'computed tomography laser mammography'
p1188
g2
(g6
S'\x1f\xf1y\x19 \x10\xcc?'
p1189
tp1190
Rp1191
tp1192
a(S'imaging particle analysis'
p1193
g2
(g6
S'\xf0\t\x88\xd5\xe7\r\xcc?'
p1194
tp1195
Rp1196
tp1197
a(S'terahertz nondestructive evaluation'
p1198
g2
(g6
S'O\xfe\xe8\xb4\x15\x06\xcc?'
p1199
tp1200
Rp1201
tp1202
a(S'spectrophotometry'
p1203
g2
(g6
S'\x08K\x83\xc1\xd2\x01\xcc?'
p1204
tp1205
Rp1206
tp1207
a(S'artificial sunlight'
p1208
g2
(g6
S'\x0f\xee\x9f\x99\x02\xfb\xcb?'
p1209
tp1210
Rp1211
tp1212
a(S'remote sensing malaysia'
p1213
g2
(g6
S'\xab\xa8\xcf\xfe\xe1\xf5\xcb?'
p1214
tp1215
Rp1216
tp1217
a(S'robarts research institute'
p1218
g2
(g6
S'\x99P{\xcb\xf8\xf4\xcb?'
p1219
tp1220
Rp1221
tp1222
a(S'thermal radiation'
p1223
g2
(g6
S'[xisx\xf3\xcb?'
p1224
tp1225
Rp1226
tp1227
a(S'namkwi'
p1228
g2
(g6
S'\xe6\x917\x87;\xeb\xcb?'
p1229
tp1230
Rp1231
tp1232
a(S'gama, senegal'
p1233
g2
(g6
S'\xec}\x97\xc7q\xe8\xcb?'
p1234
tp1235
Rp1236
tp1237
a(S'fsc15307+3253'
p1238
g2
(g6
S'\xfa\x9cG\\e\xe8\xcb?'
p1239
tp1240
Rp1241
tp1242
a(S'heptamethine dyes'
p1243
g2
(g6
S'[@\x17\xc3\x1c\xe1\xcb?'
p1244
tp1245
Rp1246
tp1247
a(S'image resolution'
p1248
g2
(g6
S'\xcd\xbc\xf8?\xdb\xd7\xcb?'
p1249
tp1250
Rp1251
tp1252
a(S'visualsonics'
p1253
g2
(g6
S'\xce\xc0\x1a&\xe4\xcb\xcb?'
p1254
tp1255
Rp1256
tp1257
a(S'image editing'
p1258
g2
(g6
S'\xca\x7f\xab\xc4g\xcb\xcb?'
p1259
tp1260
Rp1261
tp1262
a(S'infrared space systems directorate'
p1263
g2
(g6
S'c\x82\x9c<\x86\xca\xcb?'
p1264
tp1265
Rp1266
tp1267
a(S'imaging technology'
p1268
g2
(g6
S'2\x11\n\xa2Z\xbf\xcb?'
p1269
tp1270
Rp1271
tp1272
a(S'institute for environmental solutions'
p1273
g2
(g6
S'C\xdb\x98\xec\xc8\xb5\xcb?'
p1274
tp1275
Rp1276
tp1277
a(S'classification'
p1278
g2
(g6
S'\xa3T\xa9\xd3#\xb1\xcb?'
p1279
tp1280
Rp1281
tp1282
a(S'national authority for remote sensing and space sciences'
p1283
g2
(g6
S'hj\x8b\xe3\x07\xb0\xcb?'
p1284
tp1285
Rp1286
tp1287
a(S'glossary of machine vision'
p1288
g2
(g6
S'\xce\x8b\xce\xac!\xac\xcb?'
p1289
tp1290
Rp1291
tp1292
a(S'list of national vegetation classification systems'
p1293
g2
(g6
S'\xcdT\x9d\xca\x83\xab\xcb?'
p1294
tp1295
Rp1296
tp1297
a(S'uniform-1'
p1298
g2
(g6
S'\x82\x19\x97\x16\x99\xa0\xcb?'
p1299
tp1300
Rp1301
tp1302
a(S'microscope image processing'
p1303
g2
(g6
S"\x94'\xa9\xc60\xa0\xcb?"
p1304
tp1305
Rp1306
tp1307
a(S'ulas j003402.77\xe2\x88\x92005206.7'
p1308
g2
(g6
S'\x17\xc0_k\x12\x9a\xcb?'
p1309
tp1310
Rp1311
tp1312
a(S'list of directly imaged exoplanets'
p1313
g2
(g6
S'\x86<[\x16\xd9\x92\xcb?'
p1314
tp1315
Rp1316
tp1317
a(S'physician self-referral'
p1318
g2
(g6
S'\xa4\xb2\x8f\x1e,\x91\xcb?'
p1319
tp1320
Rp1321
tp1322
a(S'dubaisat-1'
p1323
g2
(g6
S'\xd7 E\x14j\x89\xcb?'
p1324
tp1325
Rp1326
tp1327
a(S'sciamachy'
p1328
g2
(g6
S'-\xee\x9aw\x8f\x87\xcb?'
p1329
tp1330
Rp1331
tp1332
a(S'photofragment-ion imaging'
p1333
g2
(g6
S'\xef\xf2\xfa\xf7\xf1{\xcb?'
p1334
tp1335
Rp1336
tp1337
a(S'maximum-value composite procedure'
p1338
g2
(g6
S'ia\x14\x828y\xcb?'
p1339
tp1340
Rp1341
tp1342
a(S'miras'
p1343
g2
(g6
S'I\rE\xc1\xe8n\xcb?'
p1344
tp1345
Rp1346
tp1347
a(S'radiology'
p1348
g2
(g6
S'\x1c\xa5\xd2\xa6\xc1e\xcb?'
p1349
tp1350
Rp1351
tp1352
a(S'micromsi'
p1353
g2
(g6
S'>\x04X\xf8\x8aX\xcb?'
p1354
tp1355
Rp1356
tp1357
a(S'ndiayene bagana'
p1358
g2
(g6
S'\xd3\xc0\xe5\x18\xe3W\xcb?'
p1359
tp1360
Rp1361
tp1362
a(S'fengyun 2-07'
p1363
g2
(g6
S'\x87*\x92\x1b\x88W\xcb?'
p1364
tp1365
Rp1366
tp1367
a(S'speckle imaging'
p1368
g2
(g6
S'\xa0WQ\x07\x03U\xcb?'
p1369
tp1370
Rp1371
tp1372
a(S'zangogho'
p1373
g2
(g6
S'D\xaa\xe9\x00\\B\xcb?'
p1374
tp1375
Rp1376
tp1377
a(S'imaging instruments'
p1378
g2
(g6
S'\xa0\x906\x98\xd9)\xcb?'
p1379
tp1380
Rp1381
tp1382
a(S'luminous infrared galaxy'
p1383
g2
(g6
S'jo\xcb\xcf\x1d\x1f\xcb?'
p1384
tp1385
Rp1386
tp1387
a(S'vegetation index'
p1388
g2
(g6
S'\x94\xf11\x9c`\x1d\xcb?'
p1389
tp1390
Rp1391
tp1392
a(S'neodymium-doped yttrium orthovanadate'
p1393
g2
(g6
S'\x81E\x90<A\x1d\xcb?'
p1394
tp1395
Rp1396
tp1397
a(S'radio imaging'
p1398
g2
(g6
S'\xd5\xfc\x14k\xcf\x1a\xcb?'
p1399
tp1400
Rp1401
tp1402
a(S'khadzhykulluk'
p1403
g2
(g6
S'\x9e<\xe5Y+\x16\xcb?'
p1404
tp1405
Rp1406
tp1407
a(S'integral field spectrograph'
p1408
g2
(g6
S'\xc4+\xe3\xfb\xfc\x14\xcb?'
p1409
tp1410
Rp1411
tp1412
a(S'remote control'
p1413
g2
(g6
S'u\xa5\xcf"\x8f\x0f\xcb?'
p1414
tp1415
Rp1416
tp1417
a(S'cytoviva, inc'
p1418
g2
(g6
S'{\xbd\x02\x10o\x0b\xcb?'
p1419
tp1420
Rp1421
tp1422
a(S'osirix'
p1423
g2
(g6
S'\xf4y\xc6\x81o\t\xcb?'
p1424
tp1425
Rp1426
tp1427
a(S'infrared dark cloud'
p1428
g2
(g6
S'\xca\xf9\x0b\xb2\x17\xf8\xca?'
p1429
tp1430
Rp1431
tp1432
a(S'cold shield'
p1433
g2
(g6
S'\xc6y\xdb,\xd7\xee\xca?'
p1434
tp1435
Rp1436
tp1437
a(S'deimos-1'
p1438
g2
(g6
S'\xc6\x95Ot\xb7\xea\xca?'
p1439
tp1440
Rp1441
tp1442
a(S'demosaicing'
p1443
g2
(g6
S'6\x8fY![\xdb\xca?'
p1444
tp1445
Rp1446
tp1447
a(S'nirspec (near-infrared spectrograph)'
p1448
g2
(g6
S'{Ct\x8e\xa5\xda\xca?'
p1449
tp1450
Rp1451
tp1452
a(S'whole body imaging'
p1453
g2
(g6
S'\x90\x88\xfa\x14\x10\xda\xca?'
p1454
tp1455
Rp1456
tp1457
a(S'saiye, burma'
p1458
g2
(g6
S't\x89(\xe82\xca\xca?'
p1459
tp1460
Rp1461
tp1462
a(S'andin'
p1463
g2
(g6
S't\x89(\xe82\xca\xca?'
p1464
tp1465
Rp1466
tp1467
a(S'zuntalin'
p1468
g2
(g6
S'c\x92\xf2M#\xba\xca?'
p1469
tp1470
Rp1471
tp1472
a(S'geoeye'
p1473
g2
(g6
S'\xb1\xaf\xd2|\xbf\xa6\xca?'
p1474
tp1475
Rp1476
tp1477
a(S'mass spectrometry imaging'
p1478
g2
(g6
S'\t\xe3\xe4\xc1\x1d\xa4\xca?'
p1479
tp1480
Rp1481
tp1482
a(S'bohomandji'
p1483
g2
(g6
S'\xd7b\xf6\xb2<\xa0\xca?'
p1484
tp1485
Rp1486
tp1487
a(S'giovanni j. ughi'
p1488
g2
(g6
S'\x91`\x00K\x18\x9f\xca?'
p1489
tp1490
Rp1491
tp1492
a(S'national coalition for quality diagnostic imaging services'
p1493
g2
(g6
S'`<\xf8]g\x96\xca?'
p1494
tp1495
Rp1496
tp1497
a(S'spektr-uv'
p1498
g2
(g6
S'\x9a\xb2\xab(\xeb\x90\xca?'
p1499
tp1500
Rp1501
tp1502
a(S'serial time-encoded amplified microscopy'
p1503
g2
(g6
S'M\xab5*\xef\x8b\xca?'
p1504
tp1505
Rp1506
tp1507
a(S'biodistribution'
p1508
g2
(g6
S'\x03.\x87\xf7\x14\x8b\xca?'
p1509
tp1510
Rp1511
tp1512
a.