(lp0
(S'music genome project'
p1
cnumpy.core.multiarray
scalar
p2
(cnumpy
dtype
p3
(S'f8'
p4
I0
I1
tp5
Rp6
(I3
S'<'
p7
NNNI-1
I-1
I0
tp8
bS'\x00\x00\x00\x00\x00\x00\xf0?'
p9
tp10
Rp11
tp12
a(S'tim westergren'
p13
g2
(g6
S'\xf4\x19\xb0R\xfbK\xe0?'
p14
tp15
Rp16
tp17
a(S'pandora radio'
p18
g2
(g6
S'\xb6LJ\xa3\xf0J\xde?'
p19
tp20
Rp21
tp22
a(S'human genome project'
p23
g2
(g6
S'\x8d\xba\xe6\xb7h\xe0\xdc?'
p24
tp25
Rp26
tp27
a(S'pandora (disambiguation)'
p28
g2
(g6
S'`p =\xb2\xb6\xdc?'
p29
tp30
Rp31
tp32
a(S'genome project'
p33
g2
(g6
S'~c,_lp\xdc?'
p34
tp35
Rp36
tp37
a(S'movie genome'
p38
g2
(g6
S'\xa5\xcd6\xe8\xeb1\xdc?'
p39
tp40
Rp41
tp42
a(S'human genome project - write'
p43
g2
(g6
S'U\xcb\xf868\x90\xdb?'
p44
tp45
Rp46
tp47
a(S'genome evolution'
p48
g2
(g6
S'SR\x8aH\xc7~\xdb?'
p49
tp50
Rp51
tp52
a(S'pandora (comics)'
p53
g2
(g6
S'7\x01:+(n\xdb?'
p54
tp55
Rp56
tp57
a(S'genome'
p58
g2
(g6
S'\xa7\x9f?\x84eZ\xdb?'
p59
tp60
Rp61
tp62
a(S'genome (disambiguation)'
p63
g2
(g6
S'\x161\x9a\xdeEH\xdb?'
p64
tp65
Rp66
tp67
a(S'pan-genome'
p68
g2
(g6
S'\xe9\xdaY\xde\x98\xab\xda?'
p69
tp70
Rp71
tp72
a(S'pandoridae'
p73
g2
(g6
S'\xcf\xe3\xe6\xaeU\x86\xda?'
p74
tp75
Rp76
tp77
a(S'genome size'
p78
g2
(g6
S'\xc0\x86t=\x1eb\xda?'
p79
tp80
Rp81
tp82
a(S'the art genome project'
p83
g2
(g6
S',\xc1=f\x05b\xda?'
p84
tp85
Rp86
tp87
a(S'kxmz'
p88
g2
(g6
S'\x1fL\xf7\xd7\t\xdb\xd9?'
p89
tp90
Rp91
tp92
a(S"pandora's box (disambiguation)"
p93
g2
(g6
S's+\xe5\x87\x99!\xd9?'
p94
tp95
Rp96
tp97
a(S'$1,000 genome'
p98
g2
(g6
S'\x86\x00\x9dy\x03\x1f\xd9?'
p99
tp100
Rp101
tp102
a(S'beijing institute of genomics'
p103
g2
(g6
S'foO3\x9b\xf6\xd8?'
p104
tp105
Rp106
tp107
a(S'made for each other (1971 film)'
p108
g2
(g6
S'\xbaxY\x90\xc3\xc5\xd8?'
p109
tp110
Rp111
tp112
a(S'list of events in nhgri history'
p113
g2
(g6
S'\xfb\xe2\xdfJ\x8b\xae\xd8?'
p114
tp115
Rp116
tp117
a(S'pandora (singer)'
p118
g2
(g6
S'\xf3v\x89\x89>\x17\xd8?'
p119
tp120
Rp121
tp122
a(S'pandora moon'
p123
g2
(g6
S'/\x13\x19\xda\xcf\x15\xd8?'
p124
tp125
Rp126
tp127
a(S'reference genome'
p128
g2
(g6
S'\xc2y\xa4\xa1e\x13\xd8?'
p129
tp130
Rp131
tp132
a(S'genome canada'
p133
g2
(g6
S'\x1cXN\xc9\xf0\n\xd8?'
p134
tp135
Rp136
tp137
a(S'pandora (console)'
p138
g2
(g6
S'\xb0\xd6\x1a\xb6\x8d\xe5\xd7?'
p139
tp140
Rp141
tp142
a(S'pandora (moon)'
p143
g2
(g6
S'$\xc4d\x0f\xab\xdd\xd7?'
p144
tp145
Rp146
tp147
a(S'candidatus carsonella ruddii'
p148
g2
(g6
S'\x04Y\xb5qE\xc3\xd7?'
p149
tp150
Rp151
tp152
a(S'paleopolyploidy'
p153
g2
(g6
S'M\xcd\x97H\xd0\xad\xd7?'
p154
tp155
Rp156
tp157
a(S'minimal genome'
p158
g2
(g6
S'\xc4\x05)\x93\xc6\xa2\xd7?'
p159
tp160
Rp161
tp162
a(S'beijing genomics institute'
p163
g2
(g6
S'X\xc7\x9a[23\xd7?'
p164
tp165
Rp166
tp167
a(S'human genome'
p168
g2
(g6
S'\xec5q\xc5\xe2\xe1\xd6?'
p169
tp170
Rp171
tp172
a(S'pandora (musical group)'
p173
g2
(g6
S'\xe3\xc5\xc1X\xb3\x9f\xd6?'
p174
tp175
Rp176
tp177
a(S'genome browser'
p178
g2
(g6
S'f\xc5<\xdcB\x95\xd6?'
p179
tp180
Rp181
tp182
a(S'jon kraft'
p183
g2
(g6
S'\xec\xce\x8f\xaf\xeay\xd6?'
p184
tp185
Rp186
tp187
a(S'honey bee genome sequencing consortium'
p188
g2
(g6
S'\xba\x8e\x08\x041n\xd6?'
p189
tp190
Rp191
tp192
a(S'pandora (dc comics)'
p193
g2
(g6
S'\xbd8\xd2|_\x04\xd6?'
p194
tp195
Rp196
tp197
a(S'takifugu rubripes'
p198
g2
(g6
S'\xe5\x04h0\xef\xfe\xd5?'
p199
tp200
Rp201
tp202
a(S'selaginella moellendorffii'
p203
g2
(g6
S'\x87XQ]*\xe1\xd5?'
p204
tp205
Rp206
tp207
a(S'aquifex aeolicus'
p208
g2
(g6
S'\xc6\x82%\xcd\xfd\xcd\xd5?'
p209
tp210
Rp211
tp212
a(S'cancer genome project'
p213
g2
(g6
S'\xf7\xe5\xa2\x05\xdf\xc4\xd5?'
p214
tp215
Rp216
tp217
a(S"pandora's box"
p218
g2
(g6
S'\x9e\x1a\xe4\x90\x14\xa4\xd5?'
p219
tp220
Rp221
tp222
a(S"pandora's box (omd song)"
p223
g2
(g6
S'\n\x0fS\x89\x1c\xa1\xd5?'
p224
tp225
Rp226
tp227
a(S'bovine genome'
p228
g2
(g6
S'\x8b\xe7\x1e\xb9;\x9b\xd5?'
p229
tp230
Rp231
tp232
a(S'hms pandora (n42)'
p233
g2
(g6
S'\xe6\xda\x98\x18\xaf\x83\xd5?'
p234
tp235
Rp236
tp237
a(S'richard k. wilson'
p238
g2
(g6
S'\x9c\xdee\x7f\x05m\xd5?'
p239
tp240
Rp241
tp242
a(S'mcdonnell genome institute'
p243
g2
(g6
S'\x9d\td|\x91W\xd5?'
p244
tp245
Rp246
tp247
a(S'pandora'
p248
g2
(g6
S'\xe7\xa6\xaa\x8c^;\xd5?'
p249
tp250
Rp251
tp252
a(S'pandora (skins)'
p253
g2
(g6
S'\x92yM\xc6\xb0\x01\xd5?'
p254
tp255
Rp256
tp257
a(S'hms pandora (1779)'
p258
g2
(g6
S'H\xa5\x80\x06\x14\xf0\xd4?'
p259
tp260
Rp261
tp262
a(S'whole genome sequencing'
p263
g2
(g6
S'\x02\x03\xb8GT\xda\xd4?'
p264
tp265
Rp266
tp267
a(S'100k genome project'
p268
g2
(g6
S'%\xd8\xf4\x8e\x03\xc2\xd4?'
p269
tp270
Rp271
tp272
a(S'mammalian genome'
p273
g2
(g6
S'\xdb\xa2\xf1\x99\\\xa8\xd4?'
p274
tp275
Rp276
tp277
a(S'hms pandora (1806)'
p278
g2
(g6
S'\xc40e\x86\xf8\xa5\xd4?'
p279
tp280
Rp281
tp282
a(S'pandora (jewelry)'
p283
g2
(g6
S'\xca\x07\x9a$z\x98\xd4?'
p284
tp285
Rp286
tp287
a(S'genome@home'
p288
g2
(g6
S'2\x93ZD&\x8a\xd4?'
p289
tp290
Rp291
tp292
a(S'gene redundancy'
p293
g2
(g6
S'v\xe7\xf6N\xfd\x83\xd4?'
p294
tp295
Rp296
tp297
a(S'personal genomics'
p298
g2
(g6
S'v\x96\xcaCt|\xd4?'
p299
tp300
Rp301
tp302
a(S"because i'm the goddess"
p303
g2
(g6
S'\xb0u\xa6qfM\xd4?'
p304
tp305
Rp306
tp307
a(S'conjoined gene'
p308
g2
(g6
S'\xd3\xdc\x8e6\x88B\xd4?'
p309
tp310
Rp311
tp312
a(S'len a. pennacchio'
p313
g2
(g6
S'Ex5\xbc\x93\xf8\xd3?'
p314
tp315
Rp316
tp317
a(S'mycoplasma laboratorium'
p318
g2
(g6
S'%\xe1\xde\xd6a\xd9\xd3?'
p319
tp320
Rp321
tp322
a(S'chlorobium tepidum'
p323
g2
(g6
S'\xe8\xae\xbe\xcc\x07\xb9\xd3?'
p324
tp325
Rp326
tp327
a(S'pandora tv'
p328
g2
(g6
S'\xdc\t&\xde\xf4\xb8\xd3?'
p329
tp330
Rp331
tp332
a(S'gene density'
p333
g2
(g6
S'\xd8e_\xc91\xae\xd3?'
p334
tp335
Rp336
tp337
a(S'vectorbase'
p338
g2
(g6
S'\xc5\x8a\xdc\x19<\x95\xd3?'
p339
tp340
Rp341
tp342
a(S'george weinstock'
p343
g2
(g6
S'\xa1\xf7\xa4m\x9b\x90\xd3?'
p344
tp345
Rp346
tp347
a(S'thomas j. hudson'
p348
g2
(g6
S'`\x8b\x9d\xf1\xd3\x8a\xd3?'
p349
tp350
Rp351
tp352
a(S'generic model organism database'
p353
g2
(g6
S'\x01\x8d_\xa4\x8c\x83\xd3?'
p354
tp355
Rp356
tp357
a(S'ciona intestinalis'
p358
g2
(g6
S'U5A\xce\x9f\x82\xd3?'
p359
tp360
Rp361
tp362
a(S'genome reference consortium'
p363
g2
(g6
S'Oc@E1n\xd3?'
p364
tp365
Rp366
tp367
a(S'materials genome'
p368
g2
(g6
S'\xd6MT\x19}j\xd3?'
p369
tp370
Rp371
tp372
a(S'hypsibius dujardini'
p373
g2
(g6
S'_\xeb\x81\xdb|P\xd3?'
p374
tp375
Rp376
tp377
a(S'celera corporation'
p378
g2
(g6
S'*~\xe5\x1a\x88K\xd3?'
p379
tp380
Rp381
tp382
a(S'national human genome research institute'
p383
g2
(g6
S'\xd4G\xc9\xcf\xdfG\xd3?'
p384
tp385
Rp386
tp387
a(S'pandora (daughter of pyrrha)'
p388
g2
(g6
S'\xa7\x955\xa6bA\xd3?'
p389
tp390
Rp391
tp392
a(S'pandora (novel)'
p393
g2
(g6
S'\xf3\xbc\x95\xa7\xa8\xee\xd2?'
p394
tp395
Rp396
tp397
a(S'the woman in the moon'
p398
g2
(g6
S')\x10E\x1b\x9c\xd7\xd2?'
p399
tp400
Rp401
tp402
a(S'comparative genomics'
p403
g2
(g6
S'W\xf7\x0b\xebF\xcd\xd2?'
p404
tp405
Rp406
tp407
a(S'horse genome'
p408
g2
(g6
S'\x03\xae\xab\x07#\xc7\xd2?'
p409
tp410
Rp411
tp412
a(S'pandora, texas'
p413
g2
(g6
S'\xce\xb9\xa0P\xc4\xbf\xd2?'
p414
tp415
Rp416
tp417
a(S'xlox'
p418
g2
(g6
S'\xb8\xc7\xd8\x12[\xae\xd2?'
p419
tp420
Rp421
tp422
a(S'social genome'
p423
g2
(g6
S'\xcd\xcc\xfa\x9dM\xa7\xd2?'
p424
tp425
Rp426
tp427
a(S'hms pandora'
p428
g2
(g6
S'\xbe\x02\x99\r\xca\xa1\xd2?'
p429
tp430
Rp431
tp432
a(S'estonian genome project'
p433
g2
(g6
S'\xba]\xc4\xa0\x0f\x96\xd2?'
p434
tp435
Rp436
tp437
a(S'ucsc malaria genome browser'
p438
g2
(g6
S'm\xb0\x87\xbd\xa3s\xd2?'
p439
tp440
Rp441
tp442
a(S'bacterial genome'
p443
g2
(g6
S'qa\x01\xb9\xf6h\xd2?'
p444
tp445
Rp446
tp447
a(S'pandora archive'
p448
g2
(g6
S'N\xd6\x08\xc2\x03b\xd2?'
p449
tp450
Rp451
tp452
a(S'encode'
p453
g2
(g6
S'*\xfe\xb2\xea\x8bU\xd2?'
p454
tp455
Rp456
tp457
a(S"pandora's box (greek band)"
p458
g2
(g6
S'\x02T\xf8\xbf4N\xd2?'
p459
tp460
Rp461
tp462
a(S'pandora marie'
p463
g2
(g6
S'`\xa7\x06\x0f\x1dM\xd2?'
p464
tp465
Rp466
tp467
a(S'edico genome'
p468
g2
(g6
S'\x1c\xfd\r?\xf7C\xd2?'
p469
tp470
Rp471
tp472
a(S'nucleomorph'
p473
g2
(g6
S'\x14W-p\xa2>\xd2?'
p474
tp475
Rp476
tp477
a(S'deanna m. church'
p478
g2
(g6
S'{|\x83*\x134\xd2?'
p479
tp480
Rp481
tp482
a(S'thomas tomone'
p483
g2
(g6
S'\x02_\xf4K\xf53\xd2?'
p484
tp485
Rp486
tp487
a(S'duke university institute for genome sciences and policy'
p488
g2
(g6
S'\xeb\x80\x83SW2\xd2?'
p489
tp490
Rp491
tp492
a(S'ridge (biology)'
p493
g2
(g6
S'K\x8e\xa0\x85\xda,\xd2?'
p494
tp495
Rp496
tp497
a(S'genome therapeutics corporation'
p498
g2
(g6
S'\xde\x90\x92\xcd\x0b\x0e\xd2?'
p499
tp500
Rp501
tp502
a(S'x88 software'
p503
g2
(g6
S'\xf2n\x12\x0f\xec\x08\xd2?'
p504
tp505
Rp506
tp507
a(S'beebase'
p508
g2
(g6
S't\xbd$\x86l\x04\xd2?'
p509
tp510
Rp511
tp512
a(S'chimpanzee genome project'
p513
g2
(g6
S'Y\nK\xff[\xf6\xd1?'
p514
tp515
Rp516
tp517
a(S'polonator'
p518
g2
(g6
S'\xf7\xa5\x00\xcf4\xf1\xd1?'
p519
tp520
Rp521
tp522
a(S'strongylocentrotus purpuratus'
p523
g2
(g6
S'<\t$\x95\xd1\xee\xd1?'
p524
tp525
Rp526
tp527
a(S'gencode'
p528
g2
(g6
S'\xaa)\x93\xb8:\xee\xd1?'
p529
tp530
Rp531
tp532
a(S'pandora-gilboa high school'
p533
g2
(g6
S'\x18lM&_\xe6\xd1?'
p534
tp535
Rp536
tp537
a(S'list of sequenced eukaryotic genomes'
p538
g2
(g6
S'L\xb6XW;\xdb\xd1?'
p539
tp540
Rp541
tp542
a(S'george m. church'
p543
g2
(g6
S'\xbc\x0f\xd5Wc\xd7\xd1?'
p544
tp545
Rp546
tp547
a(S'mycoplasma genitalium'
p548
g2
(g6
S'T\x03\xfd\x16\xc4\xbd\xd1?'
p549
tp550
Rp551
tp552
a(S'bob waterston'
p553
g2
(g6
S'\x1a\xa3\x10!\x9a\xba\xd1?'
p554
tp555
Rp556
tp557
a(S'bbc genome project'
p558
g2
(g6
S'\xf4\xc5\xa4\xde8\xa5\xd1?'
p559
tp560
Rp561
tp562
a(S'sequence homology'
p563
g2
(g6
S'\x1d]\xd9\xea:\xa3\xd1?'
p564
tp565
Rp566
tp567
a(S'plant genome mapping laboratory'
p568
g2
(g6
S'X[\x85s\x0b\x94\xd1?'
p569
tp570
Rp571
tp572
a(S'project mine'
p573
g2
(g6
S'@\x98\x13\xecl\x8e\xd1?'
p574
tp575
Rp576
tp577
a(S'tandem chimerism'
p578
g2
(g6
S'\xb4uI\xbc\xfa\x82\xd1?'
p579
tp580
Rp581
tp582
a(S'animal genome size database'
p583
g2
(g6
S'R\x8e\xdd\t\xeet\xd1?'
p584
tp585
Rp586
tp587
a(S'meganuclease'
p588
g2
(g6
S'\x97xS\x93\x16`\xd1?'
p589
tp590
Rp591
tp592
a(S'phytopath'
p593
g2
(g6
S'\xe9|)N&U\xd1?'
p594
tp595
Rp596
tp597
a(S'chloroplast capture'
p598
g2
(g6
S'\x16\xcb\xd3uU=\xd1?'
p599
tp600
Rp601
tp602
a(S'candidate gene'
p603
g2
(g6
S'\xb5\xb6,S\x81;\xd1?'
p604
tp605
Rp606
tp607
a(S'1000 plant genomes project'
p608
g2
(g6
S'\xab5\xcf \x896\xd1?'
p609
tp610
Rp611
tp612
a(S'bathycoccus prasinos'
p613
g2
(g6
S'\x93S\x107\x0f5\xd1?'
p614
tp615
Rp616
tp617
a(S'concatemer'
p618
g2
(g6
S'\xf4t\xb3\x86\xa74\xd1?'
p619
tp620
Rp621
tp622
a(S'1000 genomes project'
p623
g2
(g6
S'\x91\xb1\n!}3\xd1?'
p624
tp625
Rp626
tp627
a(S'pandora and the flying dutchman'
p628
g2
(g6
S"o'\xfc\xaci0\xd1?"
p629
tp630
Rp631
tp632
a(S'genome-based peptide fingerprint scanning'
p633
g2
(g6
S'\xe7!\xc2CV,\xd1?'
p634
tp635
Rp636
tp637
a(S'genomic organization'
p638
g2
(g6
S'\xabpm\x00\xf4*\xd1?'
p639
tp640
Rp641
tp642
a(S'david haussler'
p643
g2
(g6
S"\xf4Dg\x00^'\xd1?"
p644
tp645
Rp646
tp647
a(S'bacillus alcalophilus'
p648
g2
(g6
S'\xc7\xa7S;\xf4\x1e\xd1?'
p649
tp650
Rp651
tp652
a(S'2r hypothesis'
p653
g2
(g6
S'\x82\x90\xc8\xedz\x19\xd1?'
p654
tp655
Rp656
tp657
a(S'cancer genome sequencing'
p658
g2
(g6
S'm\xb1%\xb4\xbe\x18\xd1?'
p659
tp660
Rp661
tp662
a(S'death, jr. and the science fair of doom'
p663
g2
(g6
S'\xd2f37\x8e\x07\xd1?'
p664
tp665
Rp666
tp667
a(S'pandora gibson'
p668
g2
(g6
S'\xc7V,\x15\xa7\x01\xd1?'
p669
tp670
Rp671
tp672
a(S'coccolithovirus'
p673
g2
(g6
S'\xc0\xf5\x8b\xd9\x7f\xfc\xd0?'
p674
tp675
Rp676
tp677
a(S'hybrid genome assembly'
p678
g2
(g6
S'\xcf\x07\xed\x90#\xe8\xd0?'
p679
tp680
Rp681
tp682
a(S'list of mesh codes (g14)'
p683
g2
(g6
S'\xbf\x12\x08\xfan\xe3\xd0?'
p684
tp685
Rp686
tp687
a(S'ensembl'
p688
g2
(g6
S'\xe7\xf1o\x89\xed\xe0\xd0?'
p689
tp690
Rp691
tp692
a(S"pandora's kiss"
p693
g2
(g6
S'\xf5P \xe9\x13\xdd\xd0?'
p694
tp695
Rp696
tp697
a(S'viral bioinformatics resource center'
p698
g2
(g6
S'\x19b\x04\x10\xe9\xc6\xd0?'
p699
tp700
Rp701
tp702
a(S'rhodoferax'
p703
g2
(g6
S'\xdf=\xa0\xc6\xff\xc1\xd0?'
p704
tp705
Rp706
tp707
a(S'genome compiler'
p708
g2
(g6
S'\xb2\xc8\xac\xa8\xfd\xbe\xd0?'
p709
tp710
Rp711
tp712
a(S'human genome organisation'
p713
g2
(g6
S'N\xec\xf9P\xbd\xae\xd0?'
p714
tp715
Rp716
tp717
a(S'dna annotation'
p718
g2
(g6
S'\xc3\x1e\xc6\x01\xe7\x81\xd0?'
p719
tp720
Rp721
tp722
a(S'floral genome project'
p723
g2
(g6
S'\x8f\x00536z\xd0?'
p724
tp725
Rp726
tp727
a(S'international mammalian genome society'
p728
g2
(g6
S'\xbd\xb5C\x8e\xd8y\xd0?'
p729
tp730
Rp731
tp732
a(S'overlapping gene'
p733
g2
(g6
S'*\x02\xbbw\xa5l\xd0?'
p734
tp735
Rp736
tp737
a(S'disease gene identification'
p738
g2
(g6
S'\x9b\xf5y5A`\xd0?'
p739
tp740
Rp741
tp742
a(S'jane grimwood'
p743
g2
(g6
S'\xcc#\x95\n\xc1\\\xd0?'
p744
tp745
Rp746
tp747
a(S'microbesonline'
p748
g2
(g6
S'\\\xf8\xd3!p\\\xd0?'
p749
tp750
Rp751
tp752
a(S'cyanidioschyzon merolae'
p753
g2
(g6
S'\xab\x9a\xa4Zm[\xd0?'
p754
tp755
Rp756
tp757
a(S'gene'
p758
g2
(g6
S'\r!)E^X\xd0?'
p759
tp760
Rp761
tp762
a(S'genome research'
p763
g2
(g6
S'\xf6\x91Wv\xbaU\xd0?'
p764
tp765
Rp766
tp767
a(S'human genome structural variation'
p768
g2
(g6
S'\xafl\xc1\x97^T\xd0?'
p769
tp770
Rp771
tp772
a(S'illumina (company)'
p773
g2
(g6
S'\x0e\n\x9b\xb2\x99J\xd0?'
p774
tp775
Rp776
tp777
a(S'center for applied genomics'
p778
g2
(g6
S't}\x9b\xef\xd2G\xd0?'
p779
tp780
Rp781
tp782
a(S'bandicoot papillomatosis carcinomatosis virus'
p783
g2
(g6
S'\xa4\x7f\x8a\xf8<E\xd0?'
p784
tp785
Rp786
tp787
a(S'recombinant aav mediated genome engineering'
p788
g2
(g6
S'\x18\xde\xcb\xb0P@\xd0?'
p789
tp790
Rp791
tp792
a(S'homeotic gene'
p793
g2
(g6
S'\xd2\xeb!S\x04>\xd0?'
p794
tp795
Rp796
tp797
a(S'representation oligonucleotide microarray analysis'
p798
g2
(g6
S'\xa0\x0f4\x8e\xbd<\xd0?'
p799
tp800
Rp801
tp802
a(S'ucsc genome browser'
p803
g2
(g6
S'd\xc7tM\x9a\x1c\xd0?'
p804
tp805
Rp806
tp807
a(S'pandora fms'
p808
g2
(g6
S'3+)P\x03\x13\xd0?'
p809
tp810
Rp811
tp812
a(S'acidilobus saccharovorans'
p813
g2
(g6
S'qL\xe9\xc8\x0c\n\xd0?'
p814
tp815
Rp816
tp817
a(S'genome editing'
p818
g2
(g6
S'\xe3\xcdE_\x04\n\xd0?'
p819
tp820
Rp821
tp822
a(S'kegg'
p823
g2
(g6
S'\xf1N\x06n\xa3\x08\xd0?'
p824
tp825
Rp826
tp827
a(S'gene expression profiling'
p828
g2
(g6
S',\x07\x00\xc7\x14\xf9\xcf?'
p829
tp830
Rp831
tp832
a(S'de novo transcriptome assembly'
p833
g2
(g6
S'0:\x01\xfc\xc8\xe2\xcf?'
p834
tp835
Rp836
tp837
a(S'the centre for applied genomics'
p838
g2
(g6
S'Q\x90\x1f\xffu\xe0\xcf?'
p839
tp840
Rp841
tp842
a(S'dictybase'
p843
g2
(g6
S'\x16\xdf\x1bg\r\xdd\xcf?'
p844
tp845
Rp846
tp847
a(S'pandora pann'
p848
g2
(g6
S'X>\xc2\x98\xec\xdc\xcf?'
p849
tp850
Rp851
tp852
a(S'la pandora'
p853
g2
(g6
S'\xfcV\x16\x8d\x86\xb6\xcf?'
p854
tp855
Rp856
tp857
a(S'knome'
p858
g2
(g6
S'\xcaU\x10\x1f\x04\xb1\xcf?'
p859
tp860
Rp861
tp862
a(S'long interspersed nuclear element'
p863
g2
(g6
S'\xfc\xd9\xba\xa1\xd0\x9f\xcf?'
p864
tp865
Rp866
tp867
a(S'pandoravirus'
p868
g2
(g6
S'^\xe1\xe0\x84\xeb\x95\xcf?'
p869
tp870
Rp871
tp872
a(S'vertebrate and genome annotation project'
p873
g2
(g6
S'<k)\xb4\x8b\x81\xcf?'
p874
tp875
Rp876
tp877
a(S'clyde a. hutchison iii'
p878
g2
(g6
S'J\x8d\xc8\xd9\x06z\xcf?'
p879
tp880
Rp881
tp882
a(S'genome survey sequence'
p883
g2
(g6
S'\x17:o\xa6\xadx\xcf?'
p884
tp885
Rp886
tp887
a(S'mouse genome informatics'
p888
g2
(g6
S'\x07\xfb"\x11\xf4i\xcf?'
p889
tp890
Rp891
tp892
a(S'wellcome trust sanger institute'
p893
g2
(g6
S'\\G\x16\x85\xc0_\xcf?'
p894
tp895
Rp896
tp897
a(S'list of freezing characters'
p898
g2
(g6
S'\xd0F\xbf-\xb8[\xcf?'
p899
tp900
Rp901
tp902
a(S'genomic library'
p903
g2
(g6
S'\xa0\n`0\x84N\xcf?'
p904
tp905
Rp906
tp907
a(S'abraham b korol'
p908
g2
(g6
S'\x98R\x81\xf3\xe5L\xcf?'
p909
tp910
Rp911
tp912
a(S'queertv'
p913
g2
(g6
S'<\x9a\xe9\xc1$D\xcf?'
p914
tp915
Rp916
tp917
a(S'bacmap'
p918
g2
(g6
S'\xc2\xd2^+\x0f\x19\xcf?'
p919
tp920
Rp921
tp922
a(S'michael stratton'
p923
g2
(g6
S'&\xd8\x1c\xac\xf2\x14\xcf?'
p924
tp925
Rp926
tp927
a(S'gdb human genome database'
p928
g2
(g6
S'\xe5\x8b\x9fS!\x0e\xcf?'
p929
tp930
Rp931
tp932
a(S'goin a buffalo'
p933
g2
(g6
S'\xf7\xa8\xbff\x80\xff\xce?'
p934
tp935
Rp936
tp937
a(S'phylogenomics'
p938
g2
(g6
S'+\xe1\x10\xf5\x80\xfd\xce?'
p939
tp940
Rp941
tp942
a(S'australian ghostshark'
p943
g2
(g6
S'V\xc6\x82vD\xf9\xce?'
p944
tp945
Rp946
tp947
a(S'molecular evolution'
p948
g2
(g6
S'\xc5\xff\x15\x0fR\xf6\xce?'
p949
tp950
Rp951
tp952
a(S'transposon mutagenesis'
p953
g2
(g6
S'\xeeB\xd6~\xb3\xdd\xce?'
p954
tp955
Rp956
tp957
a(S'genomik'
p958
g2
(g6
S'?U\xae({\xd1\xce?'
p959
tp960
Rp961
tp962
a(S'populus trichocarpa'
p963
g2
(g6
S'\xc8\xb1\xa1S\x91\xc3\xce?'
p964
tp965
Rp966
tp967
a(S'gene set enrichment'
p968
g2
(g6
S'\x04>\x7f\xd3o\xc0\xce?'
p969
tp970
Rp971
tp972
a(S'essential gene'
p973
g2
(g6
S'[c\xe5\xfc\x1c\xbe\xce?'
p974
tp975
Rp976
tp977
a(S'nolan gasser'
p978
g2
(g6
S'\xa1\xbb\n\xc0\x8e\xb3\xce?'
p979
tp980
Rp981
tp982
a(S'55 pandora'
p983
g2
(g6
S'\x10\x0c9`h\x90\xce?'
p984
tp985
Rp986
tp987
a(S'gene family'
p988
g2
(g6
S'\x86\x1aH\x9a\xd3[\xce?'
p989
tp990
Rp991
tp992
a(S"pandora's project"
p993
g2
(g6
S'\x9c-MRuB\xce?'
p994
tp995
Rp996
tp997
a(S'qatar genome project'
p998
g2
(g6
S'8\xf0\x9f\xe5\x01>\xce?'
p999
tp1000
Rp1001
tp1002
a(S'mengovirus'
p1003
g2
(g6
S'\r_\xd8=\xa2=\xce?'
p1004
tp1005
Rp1006
tp1007
a(S'gwas central'
p1008
g2
(g6
S'\xe6%\xa5\x00?,\xce?'
p1009
tp1010
Rp1011
tp1012
a(S'halanaerobium hydrogenoformans'
p1013
g2
(g6
S'\xa8`m\xa9\x1d(\xce?'
p1014
tp1015
Rp1016
tp1017
a(S'orphan gene'
p1018
g2
(g6
S'\x83\xfc\xdb\x16\xc3\x1e\xce?'
p1019
tp1020
Rp1021
tp1022
a(S'pathogenomics'
p1023
g2
(g6
S'D\x10\xc6\xce4\x0e\xce?'
p1024
tp1025
Rp1026
tp1027
a(S'eric d. green'
p1028
g2
(g6
S'\xc2\xff\x1f\xfd\xad\xfe\xcd?'
p1029
tp1030
Rp1031
tp1032
a(S'endogenous retrovirus'
p1033
g2
(g6
S'\x9a1\x97j\x06\xfc\xcd?'
p1034
tp1035
Rp1036
tp1037
a(S'cgap'
p1038
g2
(g6
S'f\x95H\x85\x0b\xf2\xcd?'
p1039
tp1040
Rp1041
tp1042
a(S'catherine feuillet'
p1043
g2
(g6
S'CM|n\xaa\xe7\xcd?'
p1044
tp1045
Rp1046
tp1047
a(S'nuclear gene'
p1048
g2
(g6
S'\x12A\xab\xb3\x0b\xbf\xcd?'
p1049
tp1050
Rp1051
tp1052
a(S'genomics'
p1053
g2
(g6
S'\xa4\x99\xd5\x11\x0f\xbd\xcd?'
p1054
tp1055
Rp1056
tp1057
a(S'medicago truncatula'
p1058
g2
(g6
S'#\xfbYN\xc4\xbc\xcd?'
p1059
tp1060
Rp1061
tp1062
a(S'eremothecium gossypii'
p1063
g2
(g6
S'y\xe5\x12\xf2\xc6\xb9\xcd?'
p1064
tp1065
Rp1066
tp1067
a(S'under the dog'
p1068
g2
(g6
S'z\x87\x81d\xc7\x9e\xcd?'
p1069
tp1070
Rp1071
tp1072
a(S'babanki virus'
p1073
g2
(g6
S'\nK:\xb5\xb6\x93\xcd?'
p1074
tp1075
Rp1076
tp1077
a(S'\xc2\xbfc\xc3\xb3mo te va mi amor?'
p1078
g2
(g6
S'HqA[\x1a\x92\xcd?'
p1079
tp1080
Rp1081
tp1082
a(S'anelloviridae'
p1083
g2
(g6
S'\x18\n\x1f\xf6\xc4\x86\xcd?'
p1084
tp1085
Rp1086
tp1087
a(S'exome'
p1088
g2
(g6
S'S\xc8\x85[\xb7~\xcd?'
p1089
tp1090
Rp1091
tp1092
a(S'inoki genome federation'
p1093
g2
(g6
S'\x9cd+_0}\xcd?'
p1094
tp1095
Rp1096
tp1097
a(S'thiobacillus denitrificans'
p1098
g2
(g6
S'\xe7m\x97\x80@p\xcd?'
p1099
tp1100
Rp1101
tp1102
a(S'megavirus'
p1103
g2
(g6
S'\xeeL\x8cs_g\xcd?'
p1104
tp1105
Rp1106
tp1107
a(S'association mapping'
p1108
g2
(g6
S'\x8f\xa5CH\x1ef\xcd?'
p1109
tp1110
Rp1111
tp1112
a(S'symbion pandora'
p1113
g2
(g6
S'\xfeY\xaf\x962`\xcd?'
p1114
tp1115
Rp1116
tp1117
a(S'john sulston'
p1118
g2
(g6
S'j\x8e8Q\x83X\xcd?'
p1119
tp1120
Rp1121
tp1122
a(S'nanoarchaeum equitans'
p1123
g2
(g6
S'zmW\x98\xf7T\xcd?'
p1124
tp1125
Rp1126
tp1127
a(S'neanderthal man: in search of lost genomes'
p1128
g2
(g6
S'\x8b3s\x05KO\xcd?'
p1129
tp1130
Rp1131
tp1132
a(S'retrotransposon'
p1133
g2
(g6
S'j\x04\xe8\x8c\x12E\xcd?'
p1134
tp1135
Rp1136
tp1137
a(S'inferring horizontal gene transfer'
p1138
g2
(g6
S'U\x18\x95\x0b\xbaB\xcd?'
p1139
tp1140
Rp1141
tp1142
a(S'symbiogenesis'
p1143
g2
(g6
S'\xe0)i\xb0\x0bB\xcd?'
p1144
tp1145
Rp1146
tp1147
a(S'daphnia pulex'
p1148
g2
(g6
S"\xec\xd7\xeeY'4\xcd?"
p1149
tp1150
Rp1151
tp1152
a(S'cdx'
p1153
g2
(g6
S'\x0c\x9d\x85\x83$1\xcd?'
p1154
tp1155
Rp1156
tp1157
a(S'noncoding dna'
p1158
g2
(g6
S'?6\xbdZE\x0f\xcd?'
p1159
tp1160
Rp1161
tp1162
a(S'eric lander'
p1163
g2
(g6
S'\x8fH\x01\xa9&\xf0\xcc?'
p1164
tp1165
Rp1166
tp1167
a(S'sounds of hiv'
p1168
g2
(g6
S'.\x15\x06\r\xf4\xdf\xcc?'
p1169
tp1170
Rp1171
tp1172
a(S'jan vijg'
p1173
g2
(g6
S'\x1f\x81\xd0w\x99\xdf\xcc?'
p1174
tp1175
Rp1176
tp1177
a(S'desulfococcus oleovorans strain hxd3'
p1178
g2
(g6
S'\xbe\xf0\xcd\x8bL\xd4\xcc?'
p1179
tp1180
Rp1181
tp1182
a(S'lignosus'
p1183
g2
(g6
S'\x9d\xb2\xa6n\xfe\xcd\xcc?'
p1184
tp1185
Rp1186
tp1187
a(S'thanatotranscriptome'
p1188
g2
(g6
S'\xa9\x1a\x8d\xc0\xdc\xc2\xcc?'
p1189
tp1190
Rp1191
tp1192
a(S'horizontal gene transfer in evolution'
p1193
g2
(g6
S'\xb5\x835Xy\xbe\xcc?'
p1194
tp1195
Rp1196
tp1197
a(S'jim kent'
p1198
g2
(g6
S'\x10\xffp\x9dI\xa3\xcc?'
p1199
tp1200
Rp1201
tp1202
a(S'common misunderstandings of genetics'
p1203
g2
(g6
S'\xe7\n\xbe\xdcI\x86\xcc?'
p1204
tp1205
Rp1206
tp1207
a(S'pandora moth'
p1208
g2
(g6
S'r%\xf3\x98\xb4n\xcc?'
p1209
tp1210
Rp1211
tp1212
a(S'argynnis pandora'
p1213
g2
(g6
S'a\xd2QI\x0fe\xcc?'
p1214
tp1215
Rp1216
tp1217
a(S'craig venter'
p1218
g2
(g6
S'\xcfb\xa1:CZ\xcc?'
p1219
tp1220
Rp1221
tp1222
a(S'synteny'
p1223
g2
(g6
S'\xe6\xf24\xac\x88I\xcc?'
p1224
tp1225
Rp1226
tp1227
a(S'genome engineering'
p1228
g2
(g6
S'\xddw#\x06r3\xcc?'
p1229
tp1230
Rp1231
tp1232
a(S'caenorhabditis briggsae'
p1233
g2
(g6
S'\x06,\xd0\x99~0\xcc?'
p1234
tp1235
Rp1236
tp1237
a(S'pandora (album)'
p1238
g2
(g6
S'Y@\xc2\xf8\x9a"\xcc?'
p1239
tp1240
Rp1241
tp1242
a(S'list of omics topics in biology'
p1243
g2
(g6
S'\x1fG\xda\x8a$"\xcc?'
p1244
tp1245
Rp1246
tp1247
a(S'acholeplasma laidlawii'
p1248
g2
(g6
S'\xbfv5n\x12\x17\xcc?'
p1249
tp1250
Rp1251
tp1252
a(S'pseudogene'
p1253
g2
(g6
S'\xf1\x9c\x1bu\x05\x0e\xcc?'
p1254
tp1255
Rp1256
tp1257
a(S'gene mapping'
p1258
g2
(g6
S'\x80\x9d,\x18Q\xfa\xcb?'
p1259
tp1260
Rp1261
tp1262
a(S'wormbase'
p1263
g2
(g6
S'\x00\x86dJ\xd2\xef\xcb?'
p1264
tp1265
Rp1266
tp1267
a(S'hox gene'
p1268
g2
(g6
S'~u\x1f\x94\x82\xe2\xcb?'
p1269
tp1270
Rp1271
tp1272
a(S'numt'
p1273
g2
(g6
S'\xe6!"\xa0\xb0\xde\xcb?'
p1274
tp1275
Rp1276
tp1277
a(S'huntington willard'
p1278
g2
(g6
S'XO\x8b\x95\x13\xdb\xcb?'
p1279
tp1280
Rp1281
tp1282
a(S'intronerator'
p1283
g2
(g6
S'\x07q\xf1\xed\x92\xd8\xcb?'
p1284
tp1285
Rp1286
tp1287
a(S'plasmodium ruf6 rna'
p1288
g2
(g6
S'\xb0k\t\xb9K\xd6\xcb?'
p1289
tp1290
Rp1291
tp1292
a(S'ye\xc5\x9fim ustao\xc4\x9flu'
p1293
g2
(g6
S'*y\x12(\x9a\xd4\xcb?'
p1294
tp1295
Rp1296
tp1297
a(S'mummer'
p1298
g2
(g6
S'R}T\xaa\xcc\xc8\xcb?'
p1299
tp1300
Rp1301
tp1302
a(S'caretaker gene'
p1303
g2
(g6
S'\xad"\xf1\xa4t\xbc\xcb?'
p1304
tp1305
Rp1306
tp1307
a(S'saccharomyces genome database'
p1308
g2
(g6
S'4R\xa3\x02\xbb\xa3\xcb?'
p1309
tp1310
Rp1311
tp1312
a(S'bgmut'
p1313
g2
(g6
S'\xeb\xe8Y\xd8f\x9e\xcb?'
p1314
tp1315
Rp1316
tp1317
a(S'vibrio cholerae'
p1318
g2
(g6
S'\xdc<\x18\xf0L\x9a\xcb?'
p1319
tp1320
Rp1321
tp1322
a(S'cosmic cancer database'
p1323
g2
(g6
S'\xca\xfb\xaa\x8f\x00\x95\xcb?'
p1324
tp1325
Rp1326
tp1327
a(S'wendy bickmore'
p1328
g2
(g6
S'\x90\r\x8f\x904\x8f\xcb?'
p1329
tp1330
Rp1331
tp1332
a(S'richard m. myers'
p1333
g2
(g6
S'\x06|\x12!\xfa\x80\xcb?'
p1334
tp1335
Rp1336
tp1337
a(S'flybase'
p1338
g2
(g6
S'\x89<C\x1d\xefz\xcb?'
p1339
tp1340
Rp1341
tp1342
a(S'intragenomic conflict'
p1343
g2
(g6
S'G\xef\nq z\xcb?'
p1344
tp1345
Rp1346
tp1347
a(S'pandora (ep)'
p1348
g2
(g6
S'\xe1~TD\xc3x\xcb?'
p1349
tp1350
Rp1351
tp1352
a(S'polygene'
p1353
g2
(g6
S'\xa8\xa1\x90UBo\xcb?'
p1354
tp1355
Rp1356
tp1357
a(S'variant of uncertain significance'
p1358
g2
(g6
S'\x17\x07tt}k\xcb?'
p1359
tp1360
Rp1361
tp1362
a(S'stylianos antonarakis'
p1363
g2
(g6
S'\xa9\x01\xfa\xfc\x8f]\xcb?'
p1364
tp1365
Rp1366
tp1367
a(S'cafeteria roenbergensis virus'
p1368
g2
(g6
S'A\x14\xd9C\x19]\xcb?'
p1369
tp1370
Rp1371
tp1372
a(S'pandora international'
p1373
g2
(g6
S'\xba]u\x81\xc0Y\xcb?'
p1374
tp1375
Rp1376
tp1377
a(S'archaeoglobus'
p1378
g2
(g6
S'\x00D^\x8eBY\xcb?'
p1379
tp1380
Rp1381
tp1382
a(S'inparanoid'
p1383
g2
(g6
S'\xab\xfb\x87\xdd\xd1R\xcb?'
p1384
tp1385
Rp1386
tp1387
a(S'genome (journal)'
p1388
g2
(g6
S'\x9d&kg\x8dO\xcb?'
p1389
tp1390
Rp1391
tp1392
a(S'list of sequenced plant genomes'
p1393
g2
(g6
S'B\x99\x84u\x058\xcb?'
p1394
tp1395
Rp1396
tp1397
a(S'tandemly arrayed genes'
p1398
g2
(g6
S'*\xb9\x05\x95\x956\xcb?'
p1399
tp1400
Rp1401
tp1402
a(S'pandora island'
p1403
g2
(g6
S'7\xc5\xd0\x943%\xcb?'
p1404
tp1405
Rp1406
tp1407
a(S'genecards'
p1408
g2
(g6
S'\xe6Q\xec\xf9\xc5$\xcb?'
p1409
tp1410
Rp1411
tp1412
a(S'rat genome database'
p1413
g2
(g6
S',\x03\xc6Lq\x14\xcb?'
p1414
tp1415
Rp1416
tp1417
a(S'methanocaldococcus jannaschii'
p1418
g2
(g6
S'%\xbc=`\xd9\x0e\xcb?'
p1419
tp1420
Rp1421
tp1422
a(S'fiocruz genome comparison project'
p1423
g2
(g6
S'\x05\xbb\x0c\xf0\x1f\n\xcb?'
p1424
tp1425
Rp1426
tp1427
a(S'discredited hypotheses for the cambrian explosion'
p1428
g2
(g6
S'\xcc\xb1P\x1c\xe8\xfe\xca?'
p1429
tp1430
Rp1431
tp1432
a(S'transcript of unknown function'
p1433
g2
(g6
S'\xf8e\x91\xc96\xf8\xca?'
p1434
tp1435
Rp1436
tp1437
a(S'steven salzberg'
p1438
g2
(g6
S'\x17DP\x962\xee\xca?'
p1439
tp1440
Rp1441
tp1442
a(S'provirus silencing'
p1443
g2
(g6
S'+\xd17K\x87\xe4\xca?'
p1444
tp1445
Rp1446
tp1447
a(S'j. grant thiessen'
p1448
g2
(g6
S'[\x0c:Y`\xe2\xca?'
p1449
tp1450
Rp1451
tp1452
a(S'deinococcus deserti'
p1453
g2
(g6
S'\x96g\xc2\xa6\xee\xd4\xca?'
p1454
tp1455
Rp1456
tp1457
a(S'entamoeba invadens'
p1458
g2
(g6
S'\xb0\xba\x0f\xeb\xaa\xce\xca?'
p1459
tp1460
Rp1461
tp1462
a(S'bermuda principles'
p1463
g2
(g6
S'\x05g\x1c\x10\x0c\xcb\xca?'
p1464
tp1465
Rp1466
tp1467
a(S'chimeric gene'
p1468
g2
(g6
S'\x96x\x9by\xec\xb8\xca?'
p1469
tp1470
Rp1471
tp1472
a(S'jakoba'
p1473
g2
(g6
S':\xd0\xfc~F\xab\xca?'
p1474
tp1475
Rp1476
tp1477
a(S'adrian mole: the cappuccino years'
p1478
g2
(g6
S'\x16\xbff\xfaD\xaa\xca?'
p1479
tp1480
Rp1481
tp1482
a(S'deferribacter desulfuricans'
p1483
g2
(g6
S'\xc2\xc3>\x03\xf6\xa4\xca?'
p1484
tp1485
Rp1486
tp1487
a(S'alwa'
p1488
g2
(g6
S'F\xc9\x16\xe8\xd9\xa0\xca?'
p1489
tp1490
Rp1491
tp1492
a(S'neurogenetics'
p1493
g2
(g6
S'\x08\x0b\x9f\x7f/}\xca?'
p1494
tp1495
Rp1496
tp1497
a(S'jay shendure'
p1498
g2
(g6
S'\xd0\xff\xc1\x15w|\xca?'
p1499
tp1500
Rp1501
tp1502
a(S'copidosoma'
p1503
g2
(g6
S'\x98i\x94\xae\xa3z\xca?'
p1504
tp1505
Rp1506
tp1507
a(S'viral vector'
p1508
g2
(g6
S'n\x94\xe6\x95\xf4u\xca?'
p1509
tp1510
Rp1511
tp1512
a.