(lp0
(S'natural language processing'
p1
cnumpy.core.multiarray
scalar
p2
(cnumpy
dtype
p3
(S'f8'
p4
I0
I1
tp5
Rp6
(I3
S'<'
p7
NNNI-1
I-1
I0
tp8
bS'\xee\xff\xff\xff\xff\xff\xef?'
p9
tp10
Rp11
tp12
a(S'outline of natural language processing'
p13
g2
(g6
S'\x94\xe3--\xaf!\xe3?'
p14
tp15
Rp16
tp17
a(S'history of natural language processing'
p18
g2
(g6
S'\xb6o\xc2\xdd\xec\xa7\xe1?'
p19
tp20
Rp21
tp22
a(S'neuro-linguistic programming'
p23
g2
(g6
S'\xe8\x90\xde\xe5\x8a\x8c\xdf?'
p24
tp25
Rp26
tp27
a(S'natural language programming'
p28
g2
(g6
S'p}\xa0\xf8H#\xde?'
p29
tp30
Rp31
tp32
a(S'charles faulkner (author)'
p33
g2
(g6
S'\xc0\x98\xef\x19\x97\x8a\xdc?'
p34
tp35
Rp36
tp37
a(S'natural language toolkit'
p38
g2
(g6
S' \x99\xafW#$\xdc?'
p39
tp40
Rp41
tp42
a(S'methods of neuro-linguistic programming'
p43
g2
(g6
S'\xb6\x1b\xc3q \x16\xdc?'
p44
tp45
Rp46
tp47
a(S'text graph'
p48
g2
(g6
S'\xb8+\xf6\xc2\xc1\x1d\xdb?'
p49
tp50
Rp51
tp52
a(S'opennlp'
p53
g2
(g6
S'\xec\xd4\x9b\xc6Z\x1a\xdb?'
p54
tp55
Rp56
tp57
a(S'representational systems (nlp)'
p58
g2
(g6
S'\xd6aF;\x1e\xb6\xda?'
p59
tp60
Rp61
tp62
a(S'natural language understanding'
p63
g2
(g6
S'\x08\x93\xab[\xc2R\xda?'
p64
tp65
Rp66
tp67
a(S'truecasing'
p68
g2
(g6
S'\x17`\x99\x93\xe2\xea\xd8?'
p69
tp70
Rp71
tp72
a(S'ontario general election, 1995'
p73
g2
(g6
S'\x1b\xb9_Pru\xd8?'
p74
tp75
Rp76
tp77
a(S'ontario general election, 1999'
p78
g2
(g6
S'\xddI\x8cg\x83I\xd8?'
p79
tp80
Rp81
tp82
a(S'language and communication technologies'
p83
g2
(g6
S'B\x96\xc73\xe2#\xd8?'
p84
tp85
Rp86
tp87
a(S'language identification'
p88
g2
(g6
S'\xe5\xdf\xce\x00H^\xd7?'
p89
tp90
Rp91
tp92
a(S'li sheng (computer scientist)'
p93
g2
(g6
S'T\x8eN\xf1\x9bW\xd7?'
p94
tp95
Rp96
tp97
a(S'center for the evaluation of language and communication technologies'
p98
g2
(g6
S'5\xb2\x13\x13\x83W\xd7?'
p99
tp100
Rp101
tp102
a(S'apptek'
p103
g2
(g6
S'1D\x9e3\x0f&\xd7?'
p104
tp105
Rp106
tp107
a(S'vak'
p108
g2
(g6
S'D\xd6\xb6cu\x10\xd7?'
p109
tp110
Rp111
tp112
a(S'natural language generation'
p113
g2
(g6
S'\xd4\xb0\xf7\x19\x96\xa1\xd6?'
p114
tp115
Rp116
tp117
a(S'word-sense disambiguation'
p118
g2
(g6
S'8\xb68z\xabs\xd6?'
p119
tp120
Rp121
tp122
a(S'information extraction'
p123
g2
(g6
S'2r\xaa@\xe0#\xd6?'
p124
tp125
Rp126
tp127
a(S'statistical language acquisition'
p128
g2
(g6
S'\t\xe3\xdbw\x89#\xd6?'
p129
tp130
Rp131
tp132
a(S'semeval'
p133
g2
(g6
S'\x80N\xb0\xfb\xfb\n\xd6?'
p134
tp135
Rp136
tp137
a(S'dan roth'
p138
g2
(g6
S'\xaaPNi\x92\n\xd6?'
p139
tp140
Rp141
tp142
a(S'language'
p143
g2
(g6
S'\x8an\xab\x0fd\x01\xd6?'
p144
tp145
Rp146
tp147
a(S'machine translation'
p148
g2
(g6
S'`\xfd\xcfB\xdf\xe7\xd5?'
p149
tp150
Rp151
tp152
a(S'automatic summarization'
p153
g2
(g6
S'z\xef:\xca\xfa\xdc\xd5?'
p154
tp155
Rp156
tp157
a(S'psycholinguistics'
p158
g2
(g6
S'\xdf\x9b\xe0\xa4\xc8\xc8\xd5?'
p159
tp160
Rp161
tp162
a(S'machine learning'
p163
g2
(g6
S'\xcbt\x87\xe3\x1a\xb3\xd5?'
p164
tp165
Rp166
tp167
a(S'lexical markup framework'
p168
g2
(g6
S'_\xaf\x0e$\x17q\xd5?'
p169
tp170
Rp171
tp172
a(S'connirae andreas'
p173
g2
(g6
S'\x04\xb4\xa5\x1f\xa3o\xd5?'
p174
tp175
Rp176
tp177
a(S'speech recognition'
p178
g2
(g6
S'\xfd\xb2\xbc\x9d\x10E\xd5?'
p179
tp180
Rp181
tp182
a(S'list of text mining software'
p183
g2
(g6
S'\xb2\xbaD\x0c\xfb\x13\xd5?'
p184
tp185
Rp186
tp187
a(S'statistical machine translation'
p188
g2
(g6
S'ZG[\xe4\xa6\r\xd5?'
p189
tp190
Rp191
tp192
a(S'natural language user interface'
p193
g2
(g6
S'\x05q?\x8b\x00\x05\xd5?'
p194
tp195
Rp196
tp197
a(S'evaluation of machine translation'
p198
g2
(g6
S'\xe5\x80\xef~\t\xfc\xd4?'
p199
tp200
Rp201
tp202
a(S'computational linguistics'
p203
g2
(g6
S'\x99\x836\xb4\x10\xe5\xd4?'
p204
tp205
Rp206
tp207
a(S'language acquisition'
p208
g2
(g6
S'x\xb6\x16\x0fi\xd7\xd4?'
p209
tp210
Rp211
tp212
a(S'ubiquitous knowledge processing lab'
p213
g2
(g6
S'\x15!$\xf57\xb6\xd4?'
p214
tp215
Rp216
tp217
a(S'computer language'
p218
g2
(g6
S'}\xa1n\xbf\x04+\xd4?'
p219
tp220
Rp221
tp222
a(S'list of research laboratories for machine translation'
p223
g2
(g6
S'\xaa\xca+\nJ&\xd4?'
p224
tp225
Rp226
tp227
a(S'stochastic grammar'
p228
g2
(g6
S'\x07\tEF\x1c\x04\xd4?'
p229
tp230
Rp231
tp232
a(S'joseph mariani'
p233
g2
(g6
S'\xc1p_n\xf8\xf9\xd3?'
p234
tp235
Rp236
tp237
a(S'rule-based machine translation'
p238
g2
(g6
S'\x08*\x10\xb6\xd3\xf0\xd3?'
p239
tp240
Rp241
tp242
a(S'speech translation'
p243
g2
(g6
S'\x18\x93b0\x99\xef\xd3?'
p244
tp245
Rp246
tp247
a(S'history of machine translation'
p248
g2
(g6
S'})8\xc8\r\xeb\xd3?'
p249
tp250
Rp251
tp252
a(S'computer-assisted language learning'
p253
g2
(g6
S'\x03\xcf\x8dK\xe4\xde\xd3?'
p254
tp255
Rp256
tp257
a(S'language education'
p258
g2
(g6
S'4\x89\x90\xa6\xc4\xc2\xd3?'
p259
tp260
Rp261
tp262
a(S'knowledge extraction'
p263
g2
(g6
S'\x7fm\x8b\xcd\xb6\xb6\xd3?'
p264
tp265
Rp266
tp267
a(S'dictionary-based machine translation'
p268
g2
(g6
S'\x84\xf7/\x18\x0c\x90\xd3?'
p269
tp270
Rp271
tp272
a(S'modular audio recognition framework'
p273
g2
(g6
S'\xf89\xa8j \x82\xd3?'
p274
tp275
Rp276
tp277
a(S'linguistics'
p278
g2
(g6
S'\x90\x15Y0 q\xd3?'
p279
tp280
Rp281
tp282
a(S'interlingual machine translation'
p283
g2
(g6
S'\x7f\xaezk\xf5\x1c\xd3?'
p284
tp285
Rp286
tp287
a(S'speech segmentation'
p288
g2
(g6
S'\x08\xd9\x83\x97\xdb\x1a\xd3?'
p289
tp290
Rp291
tp292
a(S'task-based language learning'
p293
g2
(g6
S'\xad\xadG\xc5\x1a\x18\xd3?'
p294
tp295
Rp296
tp297
a(S'part-of-speech tagging'
p298
g2
(g6
S'\xa4N}\xa7G\x17\xd3?'
p299
tp300
Rp301
tp302
a(S'languageware'
p303
g2
(g6
S'\x83\x84~p\xe7\x13\xd3?'
p304
tp305
Rp306
tp307
a(S'philosophy of language'
p308
g2
(g6
S',\x8f\xa9[P\x12\xd3?'
p309
tp310
Rp311
tp312
a(S'language development'
p313
g2
(g6
S' |W\\<\t\xd3?'
p314
tp315
Rp316
tp317
a(S'national liberal party (lebanon)'
p318
g2
(g6
S'\x0c5\xee\xaf@\x01\xd3?'
p319
tp320
Rp321
tp322
a(S'comparison of different machine translation approaches'
p323
g2
(g6
S'gN\x03\xc3\x88\xf3\xd2?'
p324
tp325
Rp326
tp327
a(S'dragomir r. radev'
p328
g2
(g6
S'\x16j\xb1\xd58\xeb\xd2?'
p329
tp330
Rp331
tp332
a(S'international conference on language resources and evaluation'
p333
g2
(g6
S'\xc0\t\x97\x15\xa4\xe3\xd2?'
p334
tp335
Rp336
tp337
a(S'medslt'
p338
g2
(g6
S'\x9b\x01\xf0p!\xc0\xd2?'
p339
tp340
Rp341
tp342
a(S'national labour party (uk, 1957)'
p343
g2
(g6
S'Ug:\x8dk\xb2\xd2?'
p344
tp345
Rp346
tp347
a(S'lojban'
p348
g2
(g6
S'\xadrt\xd2[\x93\xd2?'
p349
tp350
Rp351
tp352
a(S'foreign language'
p353
g2
(g6
S'\xa6W\x9a\x9d\x89p\xd2?'
p354
tp355
Rp356
tp357
a(S'richard bandler'
p358
g2
(g6
S'\x9a\xeb\\\xbf$f\xd2?'
p359
tp360
Rp361
tp362
a(S'evaluation (disambiguation)'
p363
g2
(g6
S'*\xe5\x8d\xdf\x8aP\xd2?'
p364
tp365
Rp366
tp367
a(S'native-language identification'
p368
g2
(g6
S'\x03n\r\x14$J\xd2?'
p369
tp370
Rp371
tp372
a(S'evaluation'
p373
g2
(g6
S'\x0bb\x8a\x89iI\xd2?'
p374
tp375
Rp376
tp377
a(S'national labour party (kenya)'
p378
g2
(g6
S'h\xb9U\x8e\x938\xd2?'
p379
tp380
Rp381
tp382
a(S'text, speech and dialogue'
p383
g2
(g6
S'\xe6y<\x12>\x12\xd2?'
p384
tp385
Rp386
tp387
a(S'program evaluation'
p388
g2
(g6
S'Oe<7&\x0e\xd2?'
p389
tp390
Rp391
tp392
a(S'natural law party'
p393
g2
(g6
S'\xdf\x99\x8b\xd1[\t\xd2?'
p394
tp395
Rp396
tp397
a(S'institute for language and speech processing'
p398
g2
(g6
S':\xd4\x96\xa5y\xfc\xd1?'
p399
tp400
Rp401
tp402
a(S'transfer-based machine translation'
p403
g2
(g6
S'\xe8\xb4\xf1#\xf7\xf3\xd1?'
p404
tp405
Rp406
tp407
a(S'theories of second-language acquisition'
p408
g2
(g6
S'9\xd8tD\xef\xee\xd1?'
p409
tp410
Rp411
tp412
a(S'pattern recognition'
p413
g2
(g6
S'kO\xac#e\xeb\xd1?'
p414
tp415
Rp416
tp417
a(S'constrained conditional model'
p418
g2
(g6
S'P\x84"\x83]\xe9\xd1?'
p419
tp420
Rp421
tp422
a(S'lre map'
p423
g2
(g6
S'Z\xcc"\x13 \xe6\xd1?'
p424
tp425
Rp426
tp427
a(S'second language'
p428
g2
(g6
S'Z\x84\x9c\x12\xde\xde\xd1?'
p429
tp430
Rp431
tp432
a(S'statistical semantics'
p433
g2
(g6
S'\xd5\xd5\x04$\xd3\xde\xd1?'
p434
tp435
Rp436
tp437
a(S'language technology'
p438
g2
(g6
S'|o|\x17l\xdc\xd1?'
p439
tp440
Rp441
tp442
a(S'hybrid machine translation'
p443
g2
(g6
S'\xbdgb\x03\x0e\xc6\xd1?'
p444
tp445
Rp446
tp447
a(S'text segmentation'
p448
g2
(g6
S'x]w\x01\xcf\xc3\xd1?'
p449
tp450
Rp451
tp452
a(S'uby'
p453
g2
(g6
S"\xaf6'\xca\xa9\xc3\xd1?"
p454
tp455
Rp456
tp457
a(S'sentence processing'
p458
g2
(g6
S'\x1b\x8e\x12\x1d\xce\xa9\xd1?'
p459
tp460
Rp461
tp462
a(S'margaret masterman'
p463
g2
(g6
S"\xaf'JU\xf3\xa1\xd1?"
p464
tp465
Rp466
tp467
a(S'cache language model'
p468
g2
(g6
S'\x81\xe3rw\x15\xa0\xd1?'
p469
tp470
Rp471
tp472
a(S'american evaluation association'
p473
g2
(g6
S'\x9cL=D\xc7\x90\xd1?'
p474
tp475
Rp476
tp477
a(S'daniel jurafsky'
p478
g2
(g6
S'#\x19S\x0f\xc5\x8d\xd1?'
p479
tp480
Rp481
tp482
a(S'steve andreas'
p483
g2
(g6
S'5\x91\xc5\x14\xb5\x81\xd1?'
p484
tp485
Rp486
tp487
a(S'question answering'
p488
g2
(g6
S'?H\xce@\xcaw\xd1?'
p489
tp490
Rp491
tp492
a(S'lepor'
p493
g2
(g6
S';!\xd1k\xcau\xd1?'
p494
tp495
Rp496
tp497
a(S'controlled language in machine translation'
p498
g2
(g6
S'L\xfb\xae"\xbcf\xd1?'
p499
tp500
Rp501
tp502
a(S'outline of second-language acquisition'
p503
g2
(g6
S'\x92\xd1\xd6\x89=^\xd1?'
p504
tp505
Rp506
tp507
a(S'retrievalware'
p508
g2
(g6
S'\x8a\xed\x08\xc3\x13J\xd1?'
p509
tp510
Rp511
tp512
a(S'linguastream'
p513
g2
(g6
S'\xb0\x7fr\xea\xecG\xd1?'
p514
tp515
Rp516
tp517
a(S'makoto nagao'
p518
g2
(g6
S"'\xde\x02\r40\xd1?"
p519
tp520
Rp521
tp522
a(S'language exchange'
p523
g2
(g6
S'\xa3\xcd\x07\xe3\x0f!\xd1?'
p524
tp525
Rp526
tp527
a(S'text mining'
p528
g2
(g6
S'S\xc2#\x12\x87\x1a\xd1?'
p529
tp530
Rp531
tp532
a(S'tigers militia'
p533
g2
(g6
S'a\xd1\x93\xe1\x92\n\xd1?'
p534
tp535
Rp536
tp537
a(S'speech synthesis'
p538
g2
(g6
S'Y\x8c\xd02T\x08\xd1?'
p539
tp540
Rp541
tp542
a(S'deep learning'
p543
g2
(g6
S'\xb6\xb4\xcb\x1fN\x02\xd1?'
p544
tp545
Rp546
tp547
a(S'second-language acquisition'
p548
g2
(g6
S'm\xb7\xe4Y\xf6\xfe\xd0?'
p549
tp550
Rp551
tp552
a(S'deep linguistic processing'
p553
g2
(g6
S'\x1cw\x18\xc2\xf6\xf7\xd0?'
p554
tp555
Rp556
tp557
a(S'john grinder'
p558
g2
(g6
S'\xa5\xc2K\x8bL\xf7\xd0?'
p559
tp560
Rp561
tp562
a(S'constructed language'
p563
g2
(g6
S'\x16\x8d\xddV\xa4\xee\xd0?'
p564
tp565
Rp566
tp567
a(S'critical period hypothesis'
p568
g2
(g6
S'R\xe3B\x99\x95\xea\xd0?'
p569
tp570
Rp571
tp572
a(S'kiev laboratory for artificial intelligence'
p573
g2
(g6
S'\xbd\x9d\xaa+S\xe1\xd0?'
p574
tp575
Rp576
tp577
a(S'natural language'
p578
g2
(g6
S'\xf64\x96U\x89\xdd\xd0?'
p579
tp580
Rp581
tp582
a(S'embodied bilingual language'
p583
g2
(g6
S"w\x92'i\x9d\xd8\xd0?"
p584
tp585
Rp586
tp587
a(S'martin kay'
p588
g2
(g6
S'|4\xb1\xfb\xd3\xd4\xd0?'
p589
tp590
Rp591
tp592
a(S'language pedagogy'
p593
g2
(g6
S',\x9e\xddw\xfd\xcf\xd0?'
p594
tp595
Rp596
tp597
a(S'semantic gap'
p598
g2
(g6
S'(i]\x9e\xec\xbd\xd0?'
p599
tp600
Rp601
tp602
a(S'national liberal party (bulgaria)'
p603
g2
(g6
S'\x84\xc7\xe8o\xf7\xbc\xd0?'
p604
tp605
Rp606
tp607
a(S'sequential bilingualism'
p608
g2
(g6
S'\xc8\x02\x99\x8eC\xb6\xd0?'
p609
tp610
Rp611
tp612
a(S'list of common misconceptions about language learning'
p613
g2
(g6
S'\xff\xaf\xf7\x1e\xf1\xaf\xd0?'
p614
tp615
Rp616
tp617
a(S'multilingualism'
p618
g2
(g6
S'\th\xef\x9e\x90\xae\xd0?'
p619
tp620
Rp621
tp622
a(S'list of unsolved problems in linguistics'
p623
g2
(g6
S'&\x80\x97wE\xad\xd0?'
p624
tp625
Rp626
tp627
a(S'international conference on computational linguistics and intelligent text processing'
p628
g2
(g6
S'9\x8a\xf1\xd5\xf0\xa7\xd0?'
p629
tp630
Rp631
tp632
a(S'mehryar mohri'
p633
g2
(g6
S'\x15n\x07\xea\xbd\xa4\xd0?'
p634
tp635
Rp636
tp637
a(S'max planck institute for psycholinguistics'
p638
g2
(g6
S'\xc7\xc6m\xbaz\x9e\xd0?'
p639
tp640
Rp641
tp642
a(S'language death'
p643
g2
(g6
S'\xb7\xa8=\xe2\r\x92\xd0?'
p644
tp645
Rp646
tp647
a(S'speech and language impairment'
p648
g2
(g6
S'W\xb3\xc2\xe3\xd9\x90\xd0?'
p649
tp650
Rp651
tp652
a(S'origin of language'
p653
g2
(g6
S'N6}\xc4\xe5\x8f\xd0?'
p654
tp655
Rp656
tp657
a(S'social media language learning'
p658
g2
(g6
S'eL&\x1e*\x7f\xd0?'
p659
tp660
Rp661
tp662
a(S'language planning'
p663
g2
(g6
S'\x97\x8f\xbf\x9cOt\xd0?'
p664
tp665
Rp666
tp667
a(S'statistical learning in language acquisition'
p668
g2
(g6
S'J\xf6)\xfc,m\xd0?'
p669
tp670
Rp671
tp672
a(S'language power'
p673
g2
(g6
S'\x08M\xb7\x8d\xb4h\xd0?'
p674
tp675
Rp676
tp677
a(S'candidates of the australian federal election, 1993'
p678
g2
(g6
S'\xb0\xf1\xe1\x03\xb2f\xd0?'
p679
tp680
Rp681
tp682
a(S'atlanta speech school'
p683
g2
(g6
S'\xb5\x80y\xc4\xbdE\xd0?'
p684
tp685
Rp686
tp687
a(S'universal networking language'
p688
g2
(g6
S'\x19G\xcc\x94-;\xd0?'
p689
tp690
Rp691
tp692
a(S'classic monolingual word-sense disambiguation'
p693
g2
(g6
S':\xcb\x0f\x82#3\xd0?'
p694
tp695
Rp696
tp697
a(S'uby-lmf'
p698
g2
(g6
S'\t\xba\x9f\xb3-0\xd0?'
p699
tp700
Rp701
tp702
a(S'michael quinn patton'
p703
g2
(g6
S'\xfb\x98\x88M\xab-\xd0?'
p704
tp705
Rp706
tp707
a(S'competition model'
p708
g2
(g6
S'\x9c\xcc\x90\xfcm*\xd0?'
p709
tp710
Rp711
tp712
a(S'paul pimsleur'
p713
g2
(g6
S'2\xb2n\xc7X)\xd0?'
p714
tp715
Rp716
tp717
a(S'national language'
p718
g2
(g6
S'\x1e\x1cZZM)\xd0?'
p719
tp720
Rp721
tp722
a(S'multi-task learning'
p723
g2
(g6
S':CnY\xa7\x1a\xd0?'
p724
tp725
Rp726
tp727
a(S'input hypothesis'
p728
g2
(g6
S"\xa9\xc9'c$\x08\xd0?"
p729
tp730
Rp731
tp732
a(S'apertium'
p733
g2
(g6
S'\x95\xaauo\x0c\x06\xd0?'
p734
tp735
Rp736
tp737
a(S'spoken language'
p738
g2
(g6
S'7D\xe7\xa3\xe9\xff\xcf?'
p739
tp740
Rp741
tp742
a(S'jaime carbonell'
p743
g2
(g6
S'\xc5\x14\x82\x96\xd2\xfb\xcf?'
p744
tp745
Rp746
tp747
a(S'bilingual memory'
p748
g2
(g6
S'\x1a99\xfc\x8b\xfa\xcf?'
p749
tp750
Rp751
tp752
a(S'steve omohundro'
p753
g2
(g6
S'\xdaG7:\xbe\xdd\xcf?'
p754
tp755
Rp756
tp757
a(S'algorithmic learning theory'
p758
g2
(g6
S'\xee\x13\x95#U\xbe\xcf?'
p759
tp760
Rp761
tp762
a(S'frederick jelinek'
p763
g2
(g6
S'\xaa~ht\x16\xa8\xcf?'
p764
tp765
Rp766
tp767
a(S'john ball (cognitive scientist)'
p768
g2
(g6
S'\xc47\x06]\x94\x8c\xcf?'
p769
tp770
Rp771
tp772
a(S'julia hirschberg'
p773
g2
(g6
S'\xdc\x9f\x03K\xb1{\xcf?'
p774
tp775
Rp776
tp777
a(S'association for neuro linguistic programming'
p778
g2
(g6
S'(\xfa\xe9,\x82h\xcf?'
p779
tp780
Rp781
tp782
a(S'natural language semantics markup language'
p783
g2
(g6
S'\xd1\x01\x07\xb2\xd8b\xcf?'
p784
tp785
Rp786
tp787
a(S'educational evaluation'
p788
g2
(g6
S'\x88\x80\xa4@wV\xcf?'
p789
tp790
Rp791
tp792
a(S'innateness hypothesis'
p793
g2
(g6
S'\xdc\xd7\x97cNP\xcf?'
p794
tp795
Rp796
tp797
a(S'john d. lafferty'
p798
g2
(g6
S'\\\x9d\xceE\x93O\xcf?'
p799
tp800
Rp801
tp802
a(S'feature learning'
p803
g2
(g6
S'\xe3\xd2\xe6e\x1eM\xcf?'
p804
tp805
Rp806
tp807
a(S'language mooc'
p808
g2
(g6
S'R\xbc\xaf\x9a D\xcf?'
p809
tp810
Rp811
tp812
a(S'internet linguistics'
p813
g2
(g6
S'\x8eI\x9a\xd1\r@\xcf?'
p814
tp815
Rp816
tp817
a(S'language revitalization'
p818
g2
(g6
S'CJ\xed\xc4N?\xcf?'
p819
tp820
Rp821
tp822
a(S'named-entity recognition'
p823
g2
(g6
S'\xfa%\xea\xaf\xd9>\xcf?'
p824
tp825
Rp826
tp827
a(S'explanation-based learning'
p828
g2
(g6
S'\xb6\xd0Au<.\xcf?'
p829
tp830
Rp831
tp832
a(S'alex hauptmann'
p833
g2
(g6
S'L\x81\xc5\x91{(\xcf?'
p834
tp835
Rp836
tp837
a(S'poverty of the stimulus'
p838
g2
(g6
S'.u!/\x0e(\xcf?'
p839
tp840
Rp841
tp842
a(S'james curran (linguist)'
p843
g2
(g6
S'r\xd3\xf1z\xa5\x19\xcf?'
p844
tp845
Rp846
tp847
a(S'zellig harris'
p848
g2
(g6
S'\xa4\xc6\x9by\xac\x0c\xcf?'
p849
tp850
Rp851
tp852
a(S'natural approach'
p853
g2
(g6
S'\x88\xfd\xc1\xa0\xf6\n\xcf?'
p854
tp855
Rp856
tp857
a(S'noisy text'
p858
g2
(g6
S'#\x03\x8f\xd5\x80\t\xcf?'
p859
tp860
Rp861
tp862
a(S'language disorder'
p863
g2
(g6
S'\x93\x85\xd9\x97{\x06\xcf?'
p864
tp865
Rp866
tp867
a(S'language documentation'
p868
g2
(g6
S'\xfbk\x92\x92\xdc\xf8\xce?'
p869
tp870
Rp871
tp872
a(S'linguistic purism'
p873
g2
(g6
S'9\xc5s\xa6P\xf4\xce?'
p874
tp875
Rp876
tp877
a(S'text services framework'
p878
g2
(g6
S'\xe1\x1d_\x8a\x99\xf0\xce?'
p879
tp880
Rp881
tp882
a(S'speech production'
p883
g2
(g6
S'Y\xaas\x91\xcd\xea\xce?'
p884
tp885
Rp886
tp887
a(S'origin of speech'
p888
g2
(g6
S't\xdc(1\xc9\xe2\xce?'
p889
tp890
Rp891
tp892
a(S'trigram tagger'
p893
g2
(g6
S'\x86\x914\xcbz\xde\xce?'
p894
tp895
Rp896
tp897
a(S'grammar induction'
p898
g2
(g6
S'Flhan\xd2\xce?'
p899
tp900
Rp901
tp902
a(S'list of constructed languages'
p903
g2
(g6
S'P\xde\xd7\xd2\x1a\xcf\xce?'
p904
tp905
Rp906
tp907
a(S'written language'
p908
g2
(g6
S'\xf3\xa3\xfd-^\xcb\xce?'
p909
tp910
Rp911
tp912
a(S'omniscien technologies'
p913
g2
(g6
S'\xf8@\xf5\xa4/\xc2\xce?'
p914
tp915
Rp916
tp917
a(S'sentence boundary disambiguation'
p918
g2
(g6
S'\x87vY\xa4\x1e\xb7\xce?'
p919
tp920
Rp921
tp922
a(S'machine translation software usability'
p923
g2
(g6
S'\x00\x9f\xbe\x10\x10\xb1\xce?'
p924
tp925
Rp926
tp927
a(S'mike phillips (speech recognition)'
p928
g2
(g6
S'\x1a\xd7\x94\xcc\xed\xab\xce?'
p929
tp930
Rp931
tp932
a(S'speech and language pathology in school settings'
p933
g2
(g6
S'Y\n\x96\xb6\xd9\x91\xce?'
p934
tp935
Rp936
tp937
a(S'supervised learning'
p938
g2
(g6
S'\x81\x82\x7f5\xf9\x90\xce?'
p939
tp940
Rp941
tp942
a(S'programming language'
p943
g2
(g6
S'\xc0\xfaW\x17\xb9\x8d\xce?'
p944
tp945
Rp946
tp947
a(S'mixed language'
p948
g2
(g6
S'\x10L\xa6&\xec\x82\xce?'
p949
tp950
Rp951
tp952
a(S'cipp evaluation model'
p953
g2
(g6
S'<h\x94\x8d\xf2~\xce?'
p954
tp955
Rp956
tp957
a(S'integrationism'
p958
g2
(g6
S'\xdc\xc3c\xef\xdcw\xce?'
p959
tp960
Rp961
tp962
a(S'language and thought'
p963
g2
(g6
S'\xf6\x9c\xd6\xe2\x9av\xce?'
p964
tp965
Rp966
tp967
a(S'joint committee on standards for educational evaluation'
p968
g2
(g6
S'\n\\`\xbe\xd2s\xce?'
p969
tp970
Rp971
tp972
a(S'european language resources association'
p973
g2
(g6
S'Q)\xa2\xdaEj\xce?'
p974
tp975
Rp976
tp977
a(S'afnlp'
p978
g2
(g6
S'\xf8(H\x0e\x8a`\xce?'
p979
tp980
Rp981
tp982
a(S'interlanguage fossilization'
p983
g2
(g6
S'\xf5\xa2Wo\xe8J\xce?'
p984
tp985
Rp986
tp987
a(S'foreign language writing aid'
p988
g2
(g6
S'\xf5R\x92}\x1fD\xce?'
p989
tp990
Rp991
tp992
a(S'artificial intelligence'
p993
g2
(g6
S'\x03G\xa9\x160=\xce?'
p994
tp995
Rp996
tp997
a(S'concept search'
p998
g2
(g6
S'\xf7\xb8\xe6\x80\x86:\xce?'
p999
tp1000
Rp1001
tp1002
a(S'list of artificial intelligence projects'
p1003
g2
(g6
S'\x80\xfb\xf0\xb9\r6\xce?'
p1004
tp1005
Rp1006
tp1007
a(S'spacy'
p1008
g2
(g6
S'7\x82\x83G\xc3$\xce?'
p1009
tp1010
Rp1011
tp1012
a(S'official language'
p1013
g2
(g6
S'Y\x9a\x88r%\x0e\xce?'
p1014
tp1015
Rp1016
tp1017
a(S'multi-competence'
p1018
g2
(g6
S'#\xae"}#\x05\xce?'
p1019
tp1020
Rp1021
tp1022
a(S'speech acquisition'
p1023
g2
(g6
S'\xf6\x1e\xee\xf2\xa1\xf5\xcd?'
p1024
tp1025
Rp1026
tp1027
a(S'second-language acquisition classroom research'
p1028
g2
(g6
S'I\x1c\xac\xedy\xf1\xcd?'
p1029
tp1030
Rp1031
tp1032
a(S'james f. allen'
p1033
g2
(g6
S'6.V\x06\x94\xe5\xcd?'
p1034
tp1035
Rp1036
tp1037
a(S'computational lexicology'
p1038
g2
(g6
S'UX\xa8\x12\xd6\xe3\xcd?'
p1039
tp1040
Rp1041
tp1042
a(S'modern language aptitude test'
p1043
g2
(g6
S'\x88\xcf\x1e\x98\x03\xe1\xcd?'
p1044
tp1045
Rp1046
tp1047
a(S'lip reading'
p1048
g2
(g6
S'\xf8N\xbd\xdf\x9f\xd9\xcd?'
p1049
tp1050
Rp1051
tp1052
a(S'arria nlg'
p1053
g2
(g6
S'\x8e\xe8\xc1\x13\xac\xd7\xcd?'
p1054
tp1055
Rp1056
tp1057
a(S'sociolinguistics'
p1058
g2
(g6
S'Sh\x95\xd8\xcd\xce\xcd?'
p1059
tp1060
Rp1061
tp1062
a(S'language change'
p1063
g2
(g6
S'\x1e\x88\x82\xdd\x8c\xcb\xcd?'
p1064
tp1065
Rp1066
tp1067
a(S'language (disambiguation)'
p1068
g2
(g6
S'&8>\xe7\x14\xbd\xcd?'
p1069
tp1070
Rp1071
tp1072
a(S'automatic language translator'
p1073
g2
(g6
S'\xc2*\xc9\x81\xa0\xba\xcd?'
p1074
tp1075
Rp1076
tp1077
a(S'candidates of the australian federal election, 1996'
p1078
g2
(g6
S'\xd7\x85kQ\xf6\xa9\xcd?'
p1079
tp1080
Rp1081
tp1082
a(S'computer programming'
p1083
g2
(g6
S'UN,\x98\xbd\xa9\xcd?'
p1084
tp1085
Rp1086
tp1087
a(S'speech repetition'
p1088
g2
(g6
S'\xfc\x18f\xca]\xa0\xcd?'
p1089
tp1090
Rp1091
tp1092
a(S'moses (machine translation)'
p1093
g2
(g6
S'\xd9\xd1\xba\xa9\xed\x9b\xcd?'
p1094
tp1095
Rp1096
tp1097
a(S'word'
p1098
g2
(g6
S'\xd5:\x01\xa4P\x91\xcd?'
p1099
tp1100
Rp1101
tp1102
a(S'stemming'
p1103
g2
(g6
S"\x9a0*\xa0'\x88\xcd?"
p1104
tp1105
Rp1106
tp1107
a(S'independent evaluation group'
p1108
g2
(g6
S'\nTW\x82\x8a\x83\xcd?'
p1109
tp1110
Rp1111
tp1112
a(S'evolutionary linguistics'
p1113
g2
(g6
S'\xdd0\x9b\x16#\x83\xcd?'
p1114
tp1115
Rp1116
tp1117
a(S'speech-language pathology'
p1118
g2
(g6
S'\xf2!\xcc\xbf\xcf\x82\xcd?'
p1119
tp1120
Rp1121
tp1122
a(S'language model'
p1123
g2
(g6
S'\x84h/"\xf3u\xcd?'
p1124
tp1125
Rp1126
tp1127
a(S'national labour party (jamaica)'
p1128
g2
(g6
S'\xc9q\xefU\xc3o\xcd?'
p1129
tp1130
Rp1131
tp1132
a(S'list of programming languages for artificial intelligence'
p1133
g2
(g6
S'3[\\\xd9o`\xcd?'
p1134
tp1135
Rp1136
tp1137
a(S'history of linguistics'
p1138
g2
(g6
S'\xd9\x07@^\xf3]\xcd?'
p1139
tp1140
Rp1141
tp1142
a(S'semantics'
p1143
g2
(g6
S'L\xacRoN]\xcd?'
p1144
tp1145
Rp1146
tp1147
a(S'data-centric programming language'
p1148
g2
(g6
S'[i\xf2\xc2\x0b]\xcd?'
p1149
tp1150
Rp1151
tp1152
a(S'history of virtual learning environments'
p1153
g2
(g6
S'g\xa4\xfeW\x0bN\xcd?'
p1154
tp1155
Rp1156
tp1157
a(S'language school'
p1158
g2
(g6
S'\x86Z\x06\xb9\x85K\xcd?'
p1159
tp1160
Rp1161
tp1162
a(S'elissa l. newport'
p1163
g2
(g6
S'E\xbfq\xf6&>\xcd?'
p1164
tp1165
Rp1166
tp1167
a(S'language family'
p1168
g2
(g6
S'\x9c1\x00Sn;\xcd?'
p1169
tp1170
Rp1171
tp1172
a(S'simultaneous bilingualism'
p1173
g2
(g6
S'\xe0\xbcn\xccI8\xcd?'
p1174
tp1175
Rp1176
tp1177
a(S'speech perception'
p1178
g2
(g6
S'\xbbh\x8d\xa8\xfe7\xcd?'
p1179
tp1180
Rp1181
tp1182
a(S'experimental language'
p1183
g2
(g6
S'\x10{\xe4\x0b\xf7.\xcd?'
p1184
tp1185
Rp1186
tp1187
a(S'latinisation in the soviet union'
p1188
g2
(g6
S'\xf7+\xc5\xb9\x87*\xcd?'
p1189
tp1190
Rp1191
tp1192
a(S'text processing'
p1193
g2
(g6
S'\x1a4\xf6O\x05\x1f\xcd?'
p1194
tp1195
Rp1196
tp1197
a(S'first language'
p1198
g2
(g6
S'n>-\xcd\xca\x12\xcd?'
p1199
tp1200
Rp1201
tp1202
a(S'bilingual lexical access'
p1203
g2
(g6
S'#Me \x0f\n\xcd?'
p1204
tp1205
Rp1206
tp1207
a(S'nlp'
p1208
g2
(g6
S'\t\x8f\xc6H\xf4\x04\xcd?'
p1209
tp1210
Rp1211
tp1212
a(S'junction grammar'
p1213
g2
(g6
S'\xba7\x1f\xe7\xcd\xf4\xcc?'
p1214
tp1215
Rp1216
tp1217
a(S'noisy text analytics'
p1218
g2
(g6
S'\x86\x84\x12s\xae\xf0\xcc?'
p1219
tp1220
Rp1221
tp1222
a(S'vivian cook (academic)'
p1223
g2
(g6
S'\x1d\xc9"Y\xfd\xed\xcc?'
p1224
tp1225
Rp1226
tp1227
a(S'endangered language'
p1228
g2
(g6
S'\xc5T\xf0T\x14\xeb\xcc?'
p1229
tp1230
Rp1231
tp1232
a(S'java speech api'
p1233
g2
(g6
S'\x99\x11q*=\xe7\xcc?'
p1234
tp1235
Rp1236
tp1237
a(S'netowl'
p1238
g2
(g6
S'\xd6\t\xa3O\x08\xdd\xcc?'
p1239
tp1240
Rp1241
tp1242
a(S'language contact'
p1243
g2
(g6
S'\x82\xae-R\x96\xd5\xcc?'
p1244
tp1245
Rp1246
tp1247
a(S'neurolinguistics'
p1248
g2
(g6
S'~\x88\xc5\xb1\xfc\xcb\xcc?'
p1249
tp1250
Rp1251
tp1252
a(S'linguistic discrimination'
p1253
g2
(g6
S'\x1d\x88\xf7#7\xc9\xcc?'
p1254
tp1255
Rp1256
tp1257
a(S'mobile-assisted language learning'
p1258
g2
(g6
S'S\x00\x95\xc0\x02\xb7\xcc?'
p1259
tp1260
Rp1261
tp1262
a(S'multinet'
p1263
g2
(g6
S'RYN\x02~\xb3\xcc?'
p1264
tp1265
Rp1266
tp1267
a(S'heritage language learning'
p1268
g2
(g6
S'\x1d\xd9W\xd0\xc1\x99\xcc?'
p1269
tp1270
Rp1271
tp1272
a(S'controlled natural language'
p1273
g2
(g6
S'W$\xb0\x0b\xc6\x98\xcc?'
p1274
tp1275
Rp1276
tp1277
a(S'language preservation'
p1278
g2
(g6
S'`E\x97B\xc9\x94\xcc?'
p1279
tp1280
Rp1281
tp1282
a(S'linkword'
p1283
g2
(g6
S'\x13\xcaM\x124\x8b\xcc?'
p1284
tp1285
Rp1286
tp1287
a(S'bilingual lexicon'
p1288
g2
(g6
S'Sm\x86\xbc\xb6\x88\xcc?'
p1289
tp1290
Rp1291
tp1292
a(S'glossary of artificial intelligence'
p1293
g2
(g6
S'\x8fy\xa1\xc4\xf9l\xcc?'
p1294
tp1295
Rp1296
tp1297
a(S'data processing system'
p1298
g2
(g6
S'F\xea\xb5o\x80l\xcc?'
p1299
tp1300
Rp1301
tp1302
a(S'studies in natural language processing'
p1303
g2
(g6
S'\xf6~.\xa6\x9ej\xcc?'
p1304
tp1305
Rp1306
tp1307
a(S'list of endangered languages with mobile apps'
p1308
g2
(g6
S'\xd1]\xd0\xc8\x96h\xcc?'
p1309
tp1310
Rp1311
tp1312
a(S'language policy'
p1313
g2
(g6
S'\x02\xbe\x97\x92\x0cg\xcc?'
p1314
tp1315
Rp1316
tp1317
a(S'natural law party of canada candidates, 1997 canadian federal election'
p1318
g2
(g6
S'\t\x85\xeb\x15\xe8f\xcc?'
p1319
tp1320
Rp1321
tp1322
a(S'computer-supported collaborative learning'
p1323
g2
(g6
S'\xda\xca@"df\xcc?'
p1324
tp1325
Rp1326
tp1327
a(S'text corpus'
p1328
g2
(g6
S'0LR\x9e\xb7d\xcc?'
p1329
tp1330
Rp1331
tp1332
a(S'promt'
p1333
g2
(g6
S'RJ\x04\x98\xae`\xcc?'
p1334
tp1335
Rp1336
tp1337
a(S'semantic folding'
p1338
g2
(g6
S'\xb3QH\x95m[\xcc?'
p1339
tp1340
Rp1341
tp1342
a(S'euromatrix'
p1343
g2
(g6
S'n$\xd0pQR\xcc?'
p1344
tp1345
Rp1346
tp1347
a(S'language education by region'
p1348
g2
(g6
S'\x0c\xb4\x89\x9c\xd9Q\xcc?'
p1349
tp1350
Rp1351
tp1352
a(S'formal language'
p1353
g2
(g6
S'\xa6\xdb\xfb\xd1/I\xcc?'
p1354
tp1355
Rp1356
tp1357
a(S'extinct language'
p1358
g2
(g6
S'\xe1\xfb\xf3\x90\rD\xcc?'
p1359
tp1360
Rp1361
tp1362
a(S'meta learning (computer science)'
p1363
g2
(g6
S';T\xe8O B\xcc?'
p1364
tp1365
Rp1366
tp1367
a(S'artistic language'
p1368
g2
(g6
S'\xa0\x0c\xe4\x0f\xae3\xcc?'
p1369
tp1370
Rp1371
tp1372
a(S'textual entailment'
p1373
g2
(g6
S'\x9c.\xc9\xc6G2\xcc?'
p1374
tp1375
Rp1376
tp1377
a(S'language management'
p1378
g2
(g6
S'Wm\xf5.\x05,\xcc?'
p1379
tp1380
Rp1381
tp1382
a(S'spoken dialog systems'
p1383
g2
(g6
S'I%\xce\x1d}(\xcc?'
p1384
tp1385
Rp1386
tp1387
a(S'center for language and speech processing'
p1388
g2
(g6
S'\x86\xcas\xac\x12%\xcc?'
p1389
tp1390
Rp1391
tp1392
a(S'natural law party (united states)'
p1393
g2
(g6
S'\xb3\xb6\x15\xd1Y!\xcc?'
p1394
tp1395
Rp1396
tp1397
a(S'sliding window based part-of-speech tagging'
p1398
g2
(g6
S'\x1e\x1a\xa4\x06\xfd\x1c\xcc?'
p1399
tp1400
Rp1401
tp1402
a(S'pimsleur language aptitude battery'
p1403
g2
(g6
S'\xdb\xac\x97QJ\x1a\xcc?'
p1404
tp1405
Rp1406
tp1407
a(S'language weaver'
p1408
g2
(g6
S'\xcaK\x93\xb0j\x13\xcc?'
p1409
tp1410
Rp1411
tp1412
a(S'languages of ethiopia'
p1413
g2
(g6
S'\x81f\x8c1t\x08\xcc?'
p1414
tp1415
Rp1416
tp1417
a(S'language production'
p1418
g2
(g6
S'-\x08o\xf2+\xf2\xcb?'
p1419
tp1420
Rp1421
tp1422
a(S'adversary evaluation'
p1423
g2
(g6
S'\xf15<?{\xf1\xcb?'
p1424
tp1425
Rp1426
tp1427
a(S'language learning (journal)'
p1428
g2
(g6
S'N$>\x86\xa6\xe9\xcb?'
p1429
tp1430
Rp1431
tp1432
a(S'brian macwhinney'
p1433
g2
(g6
S'\xa0\x9es\xbf\x1a\xe9\xcb?'
p1434
tp1435
Rp1436
tp1437
a(S'ernest r. house'
p1438
g2
(g6
S'-\x96\xca\xe1\xd0\xe8\xcb?'
p1439
tp1440
Rp1441
tp1442
a(S'list of linguists'
p1443
g2
(g6
S'\x99\x0b\x153\xf9\xe1\xcb?'
p1444
tp1445
Rp1446
tp1447
a(S'deeplearning4j'
p1448
g2
(g6
S'\x14\xe1\xc2O\xf7\xe0\xcb?'
p1449
tp1450
Rp1451
tp1452
a(S'comprehension approach'
p1453
g2
(g6
S'\xa3\x06A\x7f\\\xdb\xcb?'
p1454
tp1455
Rp1456
tp1457
a(S'parsing'
p1458
g2
(g6
S'\x9e\x1d\xd62l\xd4\xcb?'
p1459
tp1460
Rp1461
tp1462
a(S'test and evaluation master plan'
p1463
g2
(g6
S'\xdb\xf3Z\x12\xa0\xd2\xcb?'
p1464
tp1465
Rp1466
tp1467
a(S'linguistic performance'
p1468
g2
(g6
S'X\xea\x94/W\xcb\xcb?'
p1469
tp1470
Rp1471
tp1472
a(S'general architecture for text engineering'
p1473
g2
(g6
S'\x89\x1a\x1c+\x03\xbe\xcb?'
p1474
tp1475
Rp1476
tp1477
a(S'dan slobin'
p1478
g2
(g6
S'{\xd6\xb7\x1b\x91\xbd\xcb?'
p1479
tp1480
Rp1481
tp1482
a(S'intelligent tutoring system'
p1483
g2
(g6
S'\xe5&[[\xb0\xbc\xcb?'
p1484
tp1485
Rp1486
tp1487
a(S'round-trip translation'
p1488
g2
(g6
S'r![\x02\xbc\xaf\xcb?'
p1489
tp1490
Rp1491
tp1492
a(S'language module'
p1493
g2
(g6
S'#\xd3\rI\x85\xa8\xcb?'
p1494
tp1495
Rp1496
tp1497
a(S'lingvosoft'
p1498
g2
(g6
S'\x93\\b#\x99\xa6\xcb?'
p1499
tp1500
Rp1501
tp1502
a(S'evolutionary psychology of language'
p1503
g2
(g6
S'\xd2xu;9\xa3\xcb?'
p1504
tp1505
Rp1506
tp1507
a(S'economics of language'
p1508
g2
(g6
S'm\x7f\x82\xc9\xea\xa0\xcb?'
p1509
tp1510
Rp1511
tp1512
a.