(lp0
(S'nips'
p1
cnumpy.core.multiarray
scalar
p2
(cnumpy
dtype
p3
(S'f8'
p4
I0
I1
tp5
Rp6
(I3
S'<'
p7
NNNI-1
I-1
I0
tp8
bS'\x01\x00\x00\x00\x00\x00\xf0?'
p9
tp10
Rp11
tp12
a(S'nip'
p13
g2
(g6
S'\x8a\xc5m~>\xea\xe2?'
p14
tp15
Rp16
tp17
a(S'nicholas nip'
p18
g2
(g6
S'}\x9b\xaci\x99@\xe1?'
p19
tp20
Rp21
tp22
a(S'nip'
p23
g2
(g6
S'bm\xf60\xb3\xb2\xe0?'
p24
tp25
Rp26
tp27
a(S'national independence party (belize)'
p28
g2
(g6
S'\x9e\x15K-\xaeP\xdd?'
p29
tp30
Rp31
tp32
a(S'nip and tuck'
p33
g2
(g6
S'\xb5\xbc\xc3Z\xb7\x16\xdc?'
p34
tp35
Rp36
tp37
a(S'nik-l-nip'
p38
g2
(g6
S'\x11\x06\x88\x93\xeb\x1e\xdb?'
p39
tp40
Rp41
tp42
a(S'au revoir shanghai'
p43
g2
(g6
S'\xbe\xb9X\xf9\x8a\xec\xd8?'
p44
tp45
Rp46
tp47
a(S'list of nip/tuck episodes'
p48
g2
(g6
S'\x93\xf6\xb8|\xb6\x83\xd8?'
p49
tp50
Rp51
tp52
a(S'dominic motikoe'
p53
g2
(g6
S'\xa7\xad\xc4\x0e\xb4\xff\xd5?'
p54
tp55
Rp56
tp57
a(S'national independence party (ghana)'
p58
g2
(g6
S'G\x89\n\xb7/\xcd\xd5?'
p59
tp60
Rp61
tp62
a(S'untraceable evidence'
p63
g2
(g6
S'L\xeb\xc0o/\x94\xd4?'
p64
tp65
Rp66
tp67
a(S'national independence party (uk)'
p68
g2
(g6
S'h\x1aO1\xf1\xb7\xd2?'
p69
tp70
Rp71
tp72
a(S'nip & tuck'
p73
g2
(g6
S'y\x12gJ7p\xd2?'
p74
tp75
Rp76
tp77
a(S'nip joint'
p78
g2
(g6
S'R\xab\xe7\x84\xa4\xc8\xd1?'
p79
tp80
Rp81
tp82
a(S'nip (model theory)'
p83
g2
(g6
S'\xcc\xa9\xa4-mq\xd1?'
p84
tp85
Rp86
tp87
a(S'national independent party'
p88
g2
(g6
S'a\xc7\x1ak\xfa\xee\xd0?'
p89
tp90
Rp91
tp92
a(S'united states intelligence budget'
p93
g2
(g6
S'\xba\xb3\x01L\x97\xb2\xd0?'
p94
tp95
Rp96
tp97
a(S'limitation periods in the uk'
p98
g2
(g6
S'7\xfa~\xb9;\xad\xd0?'
p99
tp100
Rp101
tp102
a(S'still psycho'
p103
g2
(g6
S' (\xae\xdd\x80h\xd0?'
p104
tp105
Rp106
tp107
a(S'arms of loren'
p108
g2
(g6
S'\x8d\xdb\xf2\x0bH\xbc\xcf?'
p109
tp110
Rp111
tp112
a(S'get right'
p113
g2
(g6
S']\x04\x89\xd3\xe2\xa9\xcf?'
p114
tp115
Rp116
tp117
a(S'emil christensen'
p118
g2
(g6
S'\x93\x07\xf2h\xd7v\xce?'
p119
tp120
Rp121
tp122
a(S'runaway blues'
p123
g2
(g6
S'l\x866\x15\x08\xc6\xcd?'
p124
tp125
Rp126
tp127
a(S'intrusion detection system'
p128
g2
(g6
S'A\x87\xcc\xd0\x07\xa0\xcd?'
p129
tp130
Rp131
tp132
a(S'new ideal public school'
p133
g2
(g6
S'\x08\xc6\xe4\x90\x97U\xcd?'
p134
tp135
Rp136
tp137
a(S'psychic thoughts'
p138
g2
(g6
S'\xd9]E\xc5a\x0f\xcd?'
p139
tp140
Rp141
tp142
a(S'michael m. robin'
p143
g2
(g6
S'\xc8\xc4U\xeb\xe8}\xcc?'
p144
tp145
Rp146
tp147
a(S'nip drivers'
p148
g2
(g6
S'\x0e\x93\xd3\x12B[\xcc?'
p149
tp150
Rp151
tp152
a(S'shenwuji'
p153
g2
(g6
S'\x81\x97M{h4\xcc?'
p154
tp155
Rp156
tp157
a(S'ninjas in pyjamas'
p158
g2
(g6
S'm;\xd2\xd6d4\xcc?'
p159
tp160
Rp161
tp162
a(S'pretty/handsome'
p163
g2
(g6
S'\xcb\x8d\x9e\xf3\xbb\xaa\xcb?'
p164
tp165
Rp166
tp167
a(S'linda klein'
p168
g2
(g6
S'7\x8fBB\xb8\x93\xcb?'
p169
tp170
Rp171
tp172
a(S'mathura (disambiguation)'
p173
g2
(g6
S"'\x94\xecS\x85s\xcb?"
p174
tp175
Rp176
tp177
a(S'greer shephard'
p178
g2
(g6
S'\x05\xfec\xfd\xb6X\xcb?'
p179
tp180
Rp181
tp182
a(S'mathura'
p183
g2
(g6
S'\x16]Ho\x0f\x17\xcb?'
p184
tp185
Rp186
tp187
a(S'insulinde (political party)'
p188
g2
(g6
S'\tB\x0cPN\x9b\xca?'
p189
tp190
Rp191
tp192
a(S'nip-up'
p193
g2
(g6
S']$M0S8\xca?'
p194
tp195
Rp196
tp197
a(S'mathura junction railway station'
p198
g2
(g6
S'\x110\xea\xb7\xf0%\xca?'
p199
tp200
Rp201
tp202
a(S'mathura peda'
p203
g2
(g6
S'\xc1\x89\x14vf\xea\xc9?'
p204
tp205
Rp206
tp207
a(S'kelly carlson'
p208
g2
(g6
S'\x89\xbdj%\xfc\xd7\xc9?'
p209
tp210
Rp211
tp212
a(S'a chinese ghost story'
p213
g2
(g6
S'\xce^\x01T\x83A\xc9?'
p214
tp215
Rp216
tp217
a(S'mirjana \xc5\xbdivkovi\xc4\x87'
p218
g2
(g6
S'\xdc\x8f\xeb\xaf\xd4\xe4\xc8?'
p219
tp220
Rp221
tp222
a(S'lymantria mathura'
p223
g2
(g6
S'\xd8\xea\x8f.\x8b\xaa\xc8?'
p224
tp225
Rp226
tp227
a(S'vips (software)'
p228
g2
(g6
S'-\xe7\xa2\xe5M\x82\xc8?'
p229
tp230
Rp231
tp232
a(S'snort (software)'
p233
g2
(g6
S'y?\xc7\r\x1f~\xc8?'
p234
tp235
Rp236
tp237
a(S'neurosolutions'
p238
g2
(g6
S'pL\xfd\x8c\xacU\xc8?'
p239
tp240
Rp241
tp242
a(S'artificial neural network'
p243
g2
(g6
S'\x04\x07\x82p\x13N\xc8?'
p244
tp245
Rp246
tp247
a(S'national institute of physics'
p248
g2
(g6
S'\x1b@\xc7\x9d\xf27\xc8?'
p249
tp250
Rp251
tp252
a(S'j & s building'
p253
g2
(g6
S'\xa6so\x98\xd1\x00\xc8?'
p254
tp255
Rp256
tp257
a(S'mant tehsil'
p258
g2
(g6
S'~\x1e\x8a\xa9\x89\xd5\xc7?'
p259
tp260
Rp261
tp262
a(S'encog'
p263
g2
(g6
S'i\x14\x16\xdfJ\xca\xc7?'
p264
tp265
Rp266
tp267
a(S'random neural network'
p268
g2
(g6
S'B\xca8\xdb\xee\xb2\xc7?'
p269
tp270
Rp271
tp272
a(S'slur'
p273
g2
(g6
S'"L\xd7\xaa\xe9\xa2\xc7?'
p274
tp275
Rp276
tp277
a(S'government museum, mathura'
p278
g2
(g6
S'\x96\x86\x11w\xfa\x9f\xc7?'
p279
tp280
Rp281
tp282
a(S'mathura, bihar'
p283
g2
(g6
S'\x03\xc8\xd9\xf6w\x90\xc7?'
p284
tp285
Rp286
tp287
a(S'list of assamese films of the 1950s'
p288
g2
(g6
S'\x85\xe6\x16y\xb8:\xc7?'
p289
tp290
Rp291
tp292
a(S'joone'
p293
g2
(g6
S'\xfe\x7f\xfe7x\t\xc7?'
p294
tp295
Rp296
tp297
a(S'snn'
p298
g2
(g6
S'\x02\x1dY\xe4\xd0\x05\xc7?'
p299
tp300
Rp301
tp302
a(S'nipon goswami'
p303
g2
(g6
S'\xef\xb2\xe0\x04\x0f\xf8\xc6?'
p304
tp305
Rp306
tp307
a(S'modular neural network'
p308
g2
(g6
S'yC~\x16\x8e\xef\xc6?'
p309
tp310
Rp311
tp312
a(S'vrindavan railway station'
p313
g2
(g6
S'\x1e/S^^\xb0\xc6?'
p314
tp315
Rp316
tp317
a(S'john hensley'
p318
g2
(g6
S'\x8bO\x82a`\xaf\xc6?'
p319
tp320
Rp321
tp322
a(S'rnn'
p323
g2
(g6
S'|\x89\xa8\x1e\x1a\xa8\xc6?'
p324
tp325
Rp326
tp327
a(S'mathura district'
p328
g2
(g6
S'IW\xd216\xa6\xc6?'
p329
tp330
Rp331
tp332
a(S'dawnay'
p333
g2
(g6
S'\xbds\xad\x04\xfa\x94\xc6?'
p334
tp335
Rp336
tp337
a(S'malicious'
p338
g2
(g6
S'"c\x1f\x9c\xa5f\xc6?'
p339
tp340
Rp341
tp342
a(S'list of the life and times of a sentinel characters'
p343
g2
(g6
S'\xc4x\xf2@\x94_\xc6?'
p344
tp345
Rp346
tp347
a(S'martin roesch'
p348
g2
(g6
S'w\x05}\xbb\x84^\xc6?'
p349
tp350
Rp351
tp352
a(S'portia dawson'
p353
g2
(g6
S'Q\x95n\x8e\x15\x14\xc6?'
p354
tp355
Rp356
tp357
a(S'nip/tuck'
p358
g2
(g6
S'o[\x94\xe8\x97\x04\xc6?'
p359
tp360
Rp361
tp362
a(S'guy perry'
p363
g2
(g6
S'\x9e\x10\x86\x81U\xff\xc5?'
p364
tp365
Rp366
tp367
a(S'hamilton mitchell'
p368
g2
(g6
S'\xaa\xd5\x8e\xbd8\xca\xc5?'
p369
tp370
Rp371
tp372
a(S'network dynamics'
p373
g2
(g6
S'\x03\x9f\xeaOK\xc4\xc5?'
p374
tp375
Rp376
tp377
a(S'salisbury house (restaurant)'
p378
g2
(g6
S'\x17$\n\xc7\n\xaf\xc5?'
p379
tp380
Rp381
tp382
a(S'nip winters'
p383
g2
(g6
S'ut\xad\t\xf1\xaa\xc5?'
p384
tp385
Rp386
tp387
a(S'physical neural network'
p388
g2
(g6
S'\x9b0\xf2\xdf\xd7\x94\xc5?'
p389
tp390
Rp391
tp392
a(S'slang'
p393
g2
(g6
S'\xf3\x114\xf8xs\xc5?'
p394
tp395
Rp396
tp397
a(S'cutan'
p398
g2
(g6
S'{\xa7\xf6\xa9}r\xc5?'
p399
tp400
Rp401
tp402
a(S'neural lab'
p403
g2
(g6
S'\xde\xffzW\xd4Q\xc5?'
p404
tp405
Rp406
tp407
a(S'snns'
p408
g2
(g6
S'j\xf9S\xc6\x81K\xc5?'
p409
tp410
Rp411
tp412
a(S'sourcefire'
p413
g2
(g6
S'\x07\xeb\xd8f\x8fJ\xc5?'
p414
tp415
Rp416
tp417
a(S'neural network software'
p418
g2
(g6
S'\xd7\xfe\xb8\xef\xf8=\xc5?'
p419
tp420
Rp421
tp422
a(S'nids'
p423
g2
(g6
S'Ge\x05\x8f_\x1c\xc5?'
p424
tp425
Rp426
tp427
a(S'allu (counter-strike player)'
p428
g2
(g6
S'p\xb9\x85q\xc3\x16\xc5?'
p429
tp430
Rp431
tp432
a(S'american film institute awards 2003'
p433
g2
(g6
S'\x9dS\xc2\x94`\r\xc5?'
p434
tp435
Rp436
tp437
a(S'network'
p438
g2
(g6
S'\xbcd]\x9a\x81\xf9\xc4?'
p439
tp440
Rp441
tp442
a(S'american slang'
p443
g2
(g6
S'\xefi\x06\x03\xaa\xf2\xc4?'
p444
tp445
Rp446
tp447
a(S'intrusion tolerance'
p448
g2
(g6
S'!%_\xb5\x82\xf1\xc4?'
p449
tp450
Rp451
tp452
a(S'national center for immunization and respiratory diseases'
p453
g2
(g6
S'$v\xe88\x07\xdd\xc4?'
p454
tp455
Rp456
tp457
a(S'dhipds'
p458
g2
(g6
S'\xa14=">\xcd\xc4?'
p459
tp460
Rp461
tp462
a(S'bhavanpura, mathura'
p463
g2
(g6
S'05\x13\x85J\xcb\xc4?'
p464
tp465
Rp466
tp467
a(S'mathura art'
p468
g2
(g6
S'\xd5\xb3\xc12\xa0\x82\xc4?'
p469
tp470
Rp471
tp472
a(S'artemus, kentucky'
p473
g2
(g6
S'1\x01U\x8432\xc4?'
p474
tp475
Rp476
tp477
a(S'nelson mccormick (director)'
p478
g2
(g6
S')\xe8\xfb\xc1\xa4-\xc4?'
p479
tp480
Rp481
tp482
a(S'neurodimension'
p483
g2
(g6
S'&\xbfUf\xc5)\xc4?'
p484
tp485
Rp486
tp487
a(S'network enumeration'
p488
g2
(g6
S'\xfe\xcf\xc0\xdaO%\xc4?'
p489
tp490
Rp491
tp492
a(S'lake nippenicket'
p493
g2
(g6
S'\x9d\x99\xe9\x1d)\x1d\xc4?'
p494
tp495
Rp496
tp497
a(S'time delay neural network'
p498
g2
(g6
S'l\xcd=\xa7\xb0\x14\xc4?'
p499
tp500
Rp501
tp502
a(S'computational neurogenetic modeling'
p503
g2
(g6
S'\xa89\xea\xc5\x8c\x14\xc4?'
p504
tp505
Rp506
tp507
a(S'murhesi rampur railway station'
p508
g2
(g6
S'\x86O(@\xbc\x10\xc4?'
p509
tp510
Rp511
tp512
a(S'list of network theory topics'
p513
g2
(g6
S'!\x18<\xf9\x1f\xfe\xc3?'
p514
tp515
Rp516
tp517
a(S'joey slotnick'
p518
g2
(g6
S'\xfe\xc5\xa3\x82g\xf8\xc3?'
p519
tp520
Rp521
tp522
a(S'neural engineering'
p523
g2
(g6
S'\xc22xF\x11\xea\xc3?'
p524
tp525
Rp526
tp527
a(S'neuroph'
p528
g2
(g6
S'\x00\xb2\xe2\xca\x95\xe3\xc3?'
p529
tp530
Rp531
tp532
a(S'neural networks (journal)'
p533
g2
(g6
S'\x02\xb6dC\xbf\xbe\xc3?'
p534
tp535
Rp536
tp537
a(S'indian-made foreign liquor'
p538
g2
(g6
S'.2\x98\xac\x8f\xbb\xc3?'
p539
tp540
Rp541
tp542
a(S'grossberg network'
p543
g2
(g6
S'\x10 \xf9\x8f\xa8\xb0\xc3?'
p544
tp545
Rp546
tp547
a(S'jennifer salt'
p548
g2
(g6
S'\xca{\x97q\x9b\xb0\xc3?'
p549
tp550
Rp551
tp552
a(S'biju phukan'
p553
g2
(g6
S'f\xb8[[\xa1\xa7\xc3?'
p554
tp555
Rp556
tp557
a(S'dnn'
p558
g2
(g6
S'.FC\x14\xba\x95\xc3?'
p559
tp560
Rp561
tp562
a(S'neural dust'
p563
g2
(g6
S'\xe6\xa3\x156\xd3|\xc3?'
p564
tp565
Rp566
tp567
a(S'yavanarajya inscription'
p568
g2
(g6
S'r\xb2\xc1H\x8b|\xc3?'
p569
tp570
Rp571
tp572
a(S'chhata tehsil'
p573
g2
(g6
S'\xa2As\xa8\x1bn\xc3?'
p574
tp575
Rp576
tp577
a(S'intelligent flight control system'
p578
g2
(g6
S'\xbd\x9e\x83\xaeBe\xc3?'
p579
tp580
Rp581
tp582
a(S'alejandra gutierrez'
p583
g2
(g6
S'\xa0\x0cN\x1b\x11N\xc3?'
p584
tp585
Rp586
tp587
a(S'shauna bloom'
p588
g2
(g6
S'\no\xa9\xaevH\xc3?'
p589
tp590
Rp591
tp592
a(S'boche'
p593
g2
(g6
S'b\x0f\x85W\x93.\xc3?'
p594
tp595
Rp596
tp597
a(S'digger slang'
p598
g2
(g6
S'\xb8\x9f\xe9\xe9&)\xc3?'
p599
tp600
Rp601
tp602
a(S'cassie fliegel'
p603
g2
(g6
S'\xceG\xf4\xe6\xf4\x10\xc3?'
p604
tp605
Rp606
tp607
a(S'paul ganus'
p608
g2
(g6
S'm>\x80\xach\x0b\xc3?'
p609
tp610
Rp611
tp612
a(S'network security'
p613
g2
(g6
S'\x8f\x15\x80\xadS\x05\xc3?'
p614
tp615
Rp616
tp617
a(S'pesel'
p618
g2
(g6
S'\x10Vwr\xbe\x03\xc3?'
p619
tp620
Rp621
tp622
a(S'polly king ruhtenberg'
p623
g2
(g6
S'\xab\xdc\x8f\xb1\xc1\xf9\xc2?'
p624
tp625
Rp626
tp627
a(S'karim ouazzane'
p628
g2
(g6
S'Y\x00\x16\xbc`\xf5\xc2?'
p629
tp630
Rp631
tp632
a(S'julian mcmahon'
p633
g2
(g6
S'\xf8.jv\xfa\xf1\xc2?'
p634
tp635
Rp636
tp637
a(S'neural plate'
p638
g2
(g6
S'\xe3Q\xb5V\xfa\xe3\xc2?'
p639
tp640
Rp641
tp642
a(S'national integrity party'
p643
g2
(g6
S'\xaa\x11;\x0e\x18\xe1\xc2?'
p644
tp645
Rp646
tp647
a(S'information system'
p648
g2
(g6
S'\x9a\x8b-\x95\xc1\xe0\xc2?'
p649
tp650
Rp651
tp652
a(S'american film institute awards 2004'
p653
g2
(g6
S'\xc3N\x0e\x99\xd6\xd4\xc2?'
p654
tp655
Rp656
tp657
a(S'spiking neural network'
p658
g2
(g6
S'\xa4\x8d\x99\x1d\xbc\xcc\xc2?'
p659
tp660
Rp661
tp662
a(S'bcpnn'
p663
g2
(g6
S'\xd8{2\xd2\xec\xbb\xc2?'
p664
tp665
Rp666
tp667
a(S'angel oquendo'
p668
g2
(g6
S'\x87\x9c\xaf\xfbJ\xb7\xc2?'
p669
tp670
Rp671
tp672
a(S'mitra dynasty'
p673
g2
(g6
S'\xb7\xdd\x0e0\xc5\xb6\xc2?'
p674
tp675
Rp676
tp677
a(S'malicious (horse)'
p678
g2
(g6
S'\xf2\x8f<PL\xab\xc2?'
p679
tp680
Rp681
tp682
a(S'classification system for serial criminal patterns'
p683
g2
(g6
S'\xb1i\xdc\xee\x1e\xa8\xc2?'
p684
tp685
Rp686
tp687
a(S'major appliance'
p688
g2
(g6
S'\xfds\xc4|\xd3\x92\xc2?'
p689
tp690
Rp691
tp692
a(S'parker croft'
p693
g2
(g6
S'9\n\x96F\xc1\x89\xc2?'
p694
tp695
Rp696
tp697
a(S'neural gas'
p698
g2
(g6
S'\xc0\xe0r$\xd2|\xc2?'
p699
tp700
Rp701
tp702
a(S'recurrent neural network'
p703
g2
(g6
S'f\x12\x1d\x10.r\xc2?'
p704
tp705
Rp706
tp707
a(S'bharshiva dynasty'
p708
g2
(g6
S'\xe6\xbc\x04\x14\xb7q\xc2?'
p709
tp710
Rp711
tp712
a(S'neural crest'
p713
g2
(g6
S'\xa6\xc1q\x8f\xb5p\xc2?'
p714
tp715
Rp716
tp717
a(S'mathura kaliamman temple, siruvachur'
p718
g2
(g6
S'\xf1\xef\xc5\xb1\xcek\xc2?'
p719
tp720
Rp721
tp722
a(S'list of programs broadcast by tv nova'
p723
g2
(g6
S"\xb7\n\x0f'\xefi\xc2?"
p724
tp725
Rp726
tp727
a(S'paul werbos'
p728
g2
(g6
S'T\xf30\x008e\xc2?'
p729
tp730
Rp731
tp732
a(S'chain'
p733
g2
(g6
S'\xb0\xe5\xdf*DX\xc2?'
p734
tp735
Rp736
tp737
a(S'baldeo'
p738
g2
(g6
S'\xc4\xa2\xd2\x16\x04V\xc2?'
p739
tp740
Rp741
tp742
a(S'twinkie (disambiguation)'
p743
g2
(g6
S'~\xa10\x00\xfeU\xc2?'
p744
tp745
Rp746
tp747
a(S'adam friberg'
p748
g2
(g6
S'\xa7\x0cBe\xcbP\xc2?'
p749
tp750
Rp751
tp752
a(S'small appliance'
p753
g2
(g6
S'\xd1\tu\xbakJ\xc2?'
p754
tp755
Rp756
tp757
a(S'security appliance'
p758
g2
(g6
S'\xe9\xe9c@7J\xc2?'
p759
tp760
Rp761
tp762
a(S'appliance'
p763
g2
(g6
S'%^Q\xe1\xe71\xc2?'
p764
tp765
Rp766
tp767
a(S'miniature'
p768
g2
(g6
S'\x07S\xefB\x1b1\xc2?'
p769
tp770
Rp771
tp772
a(S'list of australian game shows'
p773
g2
(g6
S'MI#\xf3H/\xc2?'
p774
tp775
Rp776
tp777
a(S'gfi network server monitor'
p778
g2
(g6
S'x\xf9\x81\x8a\x82\x1f\xc2?'
p779
tp780
Rp781
tp782
a(S'system monitor'
p783
g2
(g6
S'\xce\x05\xe5\x99D\x1a\xc2?'
p784
tp785
Rp786
tp787
a(S'british slang'
p788
g2
(g6
S'e\x1a\x94#t\x19\xc2?'
p789
tp790
Rp791
tp792
a(S'mathura cantt railway station'
p793
g2
(g6
S'\x14\xea\xa9\xea\x8b\x15\xc2?'
p794
tp795
Rp796
tp797
a(S'neurulation'
p798
g2
(g6
S'\xf5g\xf2n\xdf\x14\xc2?'
p799
tp800
Rp801
tp802
a(S'connectionism'
p803
g2
(g6
S'\xe1\x19{W\xdc\x13\xc2?'
p804
tp805
Rp806
tp807
a(S'anomaly-based intrusion detection system'
p808
g2
(g6
S'\x0eV\xba{\x9c\x11\xc2?'
p809
tp810
Rp811
tp812
a(S'stephen grossberg'
p813
g2
(g6
S'jyT8\xcd\x0b\xc2?'
p814
tp815
Rp816
tp817
a(S'neural tube'
p818
g2
(g6
S'|7\x02d\xe0\x05\xc2?'
p819
tp820
Rp821
tp822
a(S'csc version 6.0'
p823
g2
(g6
S'!\x00\\\xb4]\xef\xc1?'
p824
tp825
Rp826
tp827
a(S'northern satraps'
p828
g2
(g6
S'\xff(\x12\xa5M\xe8\xc1?'
p829
tp830
Rp831
tp832
a(S'neural fold'
p833
g2
(g6
S'\x03v\xb3\x92\x00\xdf\xc1?'
p834
tp835
Rp836
tp837
a(S'home appliance'
p838
g2
(g6
S'\xe4\xc0Pr\x7f\xd9\xc1?'
p839
tp840
Rp841
tp842
a(S'pearson candy company, inc.'
p843
g2
(g6
S'\xc1o}\xc5\x9c\xd4\xc1?'
p844
tp845
Rp846
tp847
a(S'poloroid'
p848
g2
(g6
S'|r\xad]\x9f\xc9\xc1?'
p849
tp850
Rp851
tp852
a(S'picolaton'
p853
g2
(g6
S'\xb4\xe5}\xec\xdc\xc4\xc1?'
p854
tp855
Rp856
tp857
a(S'work systems'
p858
g2
(g6
S'\xe2O\x90{\xd1\xbd\xc1?'
p859
tp860
Rp861
tp862
a(S'system (disambiguation)'
p863
g2
(g6
S'{\x84\xa8\xef\x89\xa8\xc1?'
p864
tp865
Rp866
tp867
a(S'logie award for most popular australian program'
p868
g2
(g6
S'\x05\xe4\xce\x86z\xa5\xc1?'
p869
tp870
Rp871
tp872
a(S'monitor'
p873
g2
(g6
S'/O\xdbX|\xa3\xc1?'
p874
tp875
Rp876
tp877
a(S'ty miller'
p878
g2
(g6
S'\xad\xe3\\G\n\xa0\xc1?'
p879
tp880
Rp881
tp882
a(S'types of artificial neural networks'
p883
g2
(g6
S'30\x94\x84A\x8d\xc1?'
p884
tp885
Rp886
tp887
a(S'protocol-based intrusion detection system'
p888
g2
(g6
S'\xde\xd4\xc2\xb5O\x87\xc1?'
p889
tp890
Rp891
tp892
a(S'slur (music)'
p893
g2
(g6
S'\xcd\x03\x1b\xe3_x\xc1?'
p894
tp895
Rp896
tp897
a(S'the monitor'
p898
g2
(g6
S'\xc4\xbc"\x97\xc9u\xc1?'
p899
tp900
Rp901
tp902
a(S'host-based intrusion detection system'
p903
g2
(g6
S'\xf8\xb9h~\xf9t\xc1?'
p904
tp905
Rp906
tp907
a(S'neural groove'
p908
g2
(g6
S'\xb7P)\xb8Fo\xc1?'
p909
tp910
Rp911
tp912
a(S'a dictionary of modern slang, cant, and vulgar words'
p913
g2
(g6
S'>\x9c\xe4\x12\xa3i\xc1?'
p914
tp915
Rp916
tp917
a(S'christoph von der malsburg'
p918
g2
(g6
S'\x18\xaf<\x80\x8fh\xc1?'
p919
tp920
Rp921
tp922
a(S'peltarion'
p923
g2
(g6
S'\xd8}\xd9\\\xe5d\xc1?'
p924
tp925
Rp926
tp927
a(S'network: computation in neural systems'
p928
g2
(g6
S'\t\xd1\xe9#\x0ed\xc1?'
p929
tp930
Rp931
tp932
a(S'microsoft network monitor'
p933
g2
(g6
S'n\xa4\x01\xfce`\xc1?'
p934
tp935
Rp936
tp937
a(S'the dark roads'
p938
g2
(g6
S'\xa7\x87\xd7\xc4\x04[\xc1?'
p939
tp940
Rp941
tp942
a(S'dell kace'
p943
g2
(g6
S'J0K1\x8dT\xc1?'
p944
tp945
Rp946
tp947
a(S'feedforward'
p948
g2
(g6
S'E\xb8\x95\x9e\x9dC\xc1?'
p949
tp950
Rp951
tp952
a(S'optical neural network'
p953
g2
(g6
S'J^\xb0G\xea;\xc1?'
p954
tp955
Rp956
tp957
a(S'shri krishna janmabhoomi'
p958
g2
(g6
S';O\xa7\xbcm1\xc1?'
p959
tp960
Rp961
tp962
a(S'coalition for the prevention of alcohol problems'
p963
g2
(g6
S'\xc1\x14\xa7\xbbb0\xc1?'
p964
tp965
Rp966
tp967
a(S'european neural network society'
p968
g2
(g6
S'\x98\nO\xe7u)\xc1?'
p969
tp970
Rp971
tp972
a(S'federal ministry of budget and national planning'
p973
g2
(g6
S'\x7fF8N\xce&\xc1?'
p974
tp975
Rp976
tp977
a(S'idalis dele\xc3\xb3n'
p978
g2
(g6
S'\xc5\x01V\x95\x08"\xc1?'
p979
tp980
Rp981
tp982
a(S'palmer scott'
p983
g2
(g6
S'\xc3\x12\xbc\x0b[\x1f\xc1?'
p984
tp985
Rp986
tp987
a(S'razorthreat'
p988
g2
(g6
S'\x17=\x9f\x89\xc8\x1d\xc1?'
p989
tp990
Rp991
tp992
a(S'darkforest'
p993
g2
(g6
S'zG\xb5{m\x16\xc1?'
p994
tp995
Rp996
tp997
a(S'kate norby'
p998
g2
(g6
S'\x0f`xq=\x12\xc1?'
p999
tp1000
Rp1001
tp1002
a(S'reverse roll coating'
p1003
g2
(g6
S'\nv\xed\xe4\x89\x11\xc1?'
p1004
tp1005
Rp1006
tp1007
a(S'miniature painting'
p1008
g2
(g6
S'\xaf\x1c\x94\x18A\x07\xc1?'
p1009
tp1010
Rp1011
tp1012
a(S'internet slang'
p1013
g2
(g6
S'&\x81\xb2\x94d\xfd\xc0?'
p1014
tp1015
Rp1016
tp1017
a(S'ossim'
p1018
g2
(g6
S'9\xc1\xf6\xabt\xfa\xc0?'
p1019
tp1020
Rp1021
tp1022
a(S'hinomoto oniko'
p1023
g2
(g6
S'\xae\x19\x81^\xc8\xec\xc0?'
p1024
tp1025
Rp1026
tp1027
a(S'max sandvoss'
p1028
g2
(g6
S'\xee\xd3W\xc2\xe4\xeb\xc0?'
p1029
tp1030
Rp1031
tp1032
a(S'policy appliances'
p1033
g2
(g6
S'\xff\xb14\x0e=\xe9\xc0?'
p1034
tp1035
Rp1036
tp1037
a(S'mathura (lok sabha constituency)'
p1038
g2
(g6
S'\x1b\xe2W9\xbe\xdb\xc0?'
p1039
tp1040
Rp1041
tp1042
a(S'system'
p1043
g2
(g6
S'\xaf\xdb`6\xc5\xd7\xc0?'
p1044
tp1045
Rp1046
tp1047
a(S'jonathon green'
p1048
g2
(g6
S'T\x04_k\x7f\xd7\xc0?'
p1049
tp1050
Rp1051
tp1052
a(S'ideal'
p1053
g2
(g6
S'9F_-A\xd2\xc0?'
p1054
tp1055
Rp1056
tp1057
a(S'tippingpoint'
p1058
g2
(g6
S'\x0bJ\xaf\xd1\x88\xc8\xc0?'
p1059
tp1060
Rp1061
tp1062
a(S'european system of cooperative research networks in agriculture'
p1063
g2
(g6
S'}\xf0%\x1b\xa6\xc3\xc0?'
p1064
tp1065
Rp1066
tp1067
a(S'prison slang'
p1068
g2
(g6
S'\xf6"c\xfc\xc7\xc1\xc0?'
p1069
tp1070
Rp1071
tp1072
a(S'confabulation (neural networks)'
p1073
g2
(g6
S'\xbb3J%%\xc1\xc0?'
p1074
tp1075
Rp1076
tp1077
a(S'network monitoring interface card'
p1078
g2
(g6
S'\x97\x1d\xc5\x7f\xaa\xaf\xc0?'
p1079
tp1080
Rp1081
tp1082
a(S'feedforward neural network'
p1083
g2
(g6
S'\x9c\xbc\xaf#\xff\xae\xc0?'
p1084
tp1085
Rp1086
tp1087
a(S'winning appliances'
p1088
g2
(g6
S'\xf3Z\xe0\xc8\xb2\xa2\xc0?'
p1089
tp1090
Rp1091
tp1092
a(S'list of police-related slang terms'
p1093
g2
(g6
S'\x7f\xfc\xb0\xc2,\xa1\xc0?'
p1094
tp1095
Rp1096
tp1097
a(S'ed brigadier'
p1098
g2
(g6
S'\xfaH\xc5\xb3N\x9d\xc0?'
p1099
tp1100
Rp1101
tp1102
a(S'neural machine translation'
p1103
g2
(g6
S'\xf4\x8bd)G\x9c\xc0?'
p1104
tp1105
Rp1106
tp1107
a(S'academic chess'
p1108
g2
(g6
S'\xcdK%\xbf)\x97\xc0?'
p1109
tp1110
Rp1111
tp1112
a(S'wat pa maha chedi kaew'
p1113
g2
(g6
S'\xc8\xd8\xef\x02\xc4\x93\xc0?'
p1114
tp1115
Rp1116
tp1117
a(S'logie award for best drama program'
p1118
g2
(g6
S'q}XZ\xea\x92\xc0?'
p1119
tp1120
Rp1121
tp1122
a(S'neuroectoderm'
p1123
g2
(g6
S'y\x07\xf3u\xb0\x89\xc0?'
p1124
tp1125
Rp1126
tp1127
a(S'appliances online'
p1128
g2
(g6
S'~$\x8f\x7f\xbd\x86\xc0?'
p1129
tp1130
Rp1131
tp1132
a(S'nipperkin'
p1133
g2
(g6
S'Em\x12\xc6\x11\x84\xc0?'
p1134
tp1135
Rp1136
tp1137
a(S'neural network synchronization protocol'
p1138
g2
(g6
S'\xa8/\\\xc7\xcc{\xc0?'
p1139
tp1140
Rp1141
tp1142
a(S'biological neural network'
p1143
g2
(g6
S'\xd4\t\xde\xd6:z\xc0?'
p1144
tp1145
Rp1146
tp1147
a(S'colleen flynn'
p1148
g2
(g6
S'\xed\xf2\xde\xce\xf5p\xc0?'
p1149
tp1150
Rp1151
tp1152
a(S'campeonato brasileiro de beisebol'
p1153
g2
(g6
S'\xb0\xd0\xc3#Mp\xc0?'
p1154
tp1155
Rp1156
tp1157
a(S'monitor lizard'
p1158
g2
(g6
S'\xaaN\xae\xdf4c\xc0?'
p1159
tp1160
Rp1161
tp1162
a(S'ronald j. williams'
p1163
g2
(g6
S'\x8fm\xa3\xd2\xd3b\xc0?'
p1164
tp1165
Rp1166
tp1167
a(S'clone systems, inc.'
p1168
g2
(g6
S's\x1c\x86\x17\x90b\xc0?'
p1169
tp1170
Rp1171
tp1172
a(S'back slang'
p1173
g2
(g6
S'\xd0\xb7\x91F\xc7_\xc0?'
p1174
tp1175
Rp1176
tp1177
a(S'logie award for best reality program'
p1178
g2
(g6
S'\xa6\xeb\xa2\x88\xbaZ\xc0?'
p1179
tp1180
Rp1181
tp1182
a(S'aanval'
p1183
g2
(g6
S'f\xd51\xc3\xabW\xc0?'
p1184
tp1185
Rp1186
tp1187
a(S'water bottle'
p1188
g2
(g6
S'\x9f\x16\xf6\\aV\xc0?'
p1189
tp1190
Rp1191
tp1192
a(S'neural cryptography'
p1193
g2
(g6
S'\\$w\x11\x04M\xc0?'
p1194
tp1195
Rp1196
tp1197
a(S'logie awards of 2004'
p1198
g2
(g6
S'l\xf4M\xb0zI\xc0?'
p1199
tp1200
Rp1201
tp1202
a(S'logie awards of 2002'
p1203
g2
(g6
S'SW\xe1\xffsG\xc0?'
p1204
tp1205
Rp1206
tp1207
a(S'list of longest-running australian television series'
p1208
g2
(g6
S'\xc7\xd0\xa6\x899?\xc0?'
p1209
tp1210
Rp1211
tp1212
a(S'connectionist expert system'
p1213
g2
(g6
S'W\xf7FN96\xc0?'
p1214
tp1215
Rp1216
tp1217
a(S'network administrator'
p1218
g2
(g6
S'\xd4S\xaa\xbe\xeb0\xc0?'
p1219
tp1220
Rp1221
tp1222
a(S'alcohol education'
p1223
g2
(g6
S'\xa19z\xdc\x9c*\xc0?'
p1224
tp1225
Rp1226
tp1227
a(S'miniature pinscher'
p1228
g2
(g6
S'\xaf\x13\xa2Qk"\xc0?'
p1229
tp1230
Rp1231
tp1232
a(S'information operations condition'
p1233
g2
(g6
S'\x1b1\x13\xacB \xc0?'
p1234
tp1235
Rp1236
tp1237
a(S'neural substrate'
p1238
g2
(g6
S'\xad\xfb\xee-.\x1e\xc0?'
p1239
tp1240
Rp1241
tp1242
a(S'packet analyzer'
p1243
g2
(g6
S'\xb9\x0f}\xd4i\x18\xc0?'
p1244
tp1245
Rp1246
tp1247
a(S'backpropagation through time'
p1248
g2
(g6
S'\x08{\x1e\xfe"\x18\xc0?'
p1249
tp1250
Rp1251
tp1252
a(S'valerie cruz'
p1253
g2
(g6
S' A\x9f\x1a4\x16\xc0?'
p1254
tp1255
Rp1256
tp1257
a(S'recursive neural network'
p1258
g2
(g6
S'\xf1<\xe2\xbao\x15\xc0?'
p1259
tp1260
Rp1261
tp1262
a(S'neural clique'
p1263
g2
(g6
S'2\xfd\x02\xd4G\x14\xc0?'
p1264
tp1265
Rp1266
tp1267
a(S'harry bailey house'
p1268
g2
(g6
S'\x0c\xe7Wj\xcb\x05\xc0?'
p1269
tp1270
Rp1271
tp1272
a(S'neural development'
p1273
g2
(g6
S'V[\xd6B\xa5\xfb\xbf?'
p1274
tp1275
Rp1276
tp1277
a(S"list of st. francis brooklyn terriers men's basketball head coaches"
p1278
g2
(g6
S'\x0f=\xcb\xd4\x1a\xec\xbf?'
p1279
tp1280
Rp1281
tp1282
a(S'nip pellew'
p1283
g2
(g6
S'\xd1\xcf\xf0\xb5\x0f\xe0\xbf?'
p1284
tp1285
Rp1286
tp1287
a(S'buy it in bottles'
p1288
g2
(g6
S'j\xb5\xee\xbc\xe4\xdc\xbf?'
p1289
tp1290
Rp1291
tp1292
a(S'bhuteshwar railway station'
p1293
g2
(g6
S'\xc2\xad.\xc1\x83\xc4\xbf?'
p1294
tp1295
Rp1296
tp1297
a(S'dogging'
p1298
g2
(g6
S'5+|\xdd|\xc1\xbf?'
p1299
tp1300
Rp1301
tp1302
a(S'index of alcohol-related articles'
p1303
g2
(g6
S'\xf4\xa3\x05cH\xbd\xbf?'
p1304
tp1305
Rp1306
tp1307
a(S'sirkka-liisa lonka'
p1308
g2
(g6
S'4\x96q\xbe\xec\xb3\xbf?'
p1309
tp1310
Rp1311
tp1312
a(S'logie award for most popular new male talent'
p1313
g2
(g6
S'\x0e5\xff\\A\xb2\xbf?'
p1314
tp1315
Rp1316
tp1317
a(S'london slang'
p1318
g2
(g6
S':\x08\xc5O\x1b\xaa\xbf?'
p1319
tp1320
Rp1321
tp1322
a(S'hopfield network'
p1323
g2
(g6
S'8\xb6\xff\x11\xc5\xa4\xbf?'
p1324
tp1325
Rp1326
tp1327
a(S'slang dictionary'
p1328
g2
(g6
S'\xc7VHD\xf9\xa1\xbf?'
p1329
tp1330
Rp1331
tp1332
a(S'rajuvula'
p1333
g2
(g6
S's\x01\xbd\xa0C\xa0\xbf?'
p1334
tp1335
Rp1336
tp1337
a(S'ed posner'
p1338
g2
(g6
S'o\xd2\x9d\xc7\xa0\x9e\xbf?'
p1339
tp1340
Rp1341
tp1342
a(S'slope records'
p1343
g2
(g6
S'8dE\xac\xdd\x95\xbf?'
p1344
tp1345
Rp1346
tp1347
a(S'logie award for most popular new female talent'
p1348
g2
(g6
S'\x98e\x1fn@\x93\xbf?'
p1349
tp1350
Rp1351
tp1352
a(S'neurula'
p1353
g2
(g6
S'^\xf9\x02\x92\xf2\x92\xbf?'
p1354
tp1355
Rp1356
tp1357
a(S'2012 in australian television'
p1358
g2
(g6
S'\x02\xb9\xa4\t\xfb\x89\xbf?'
p1359
tp1360
Rp1361
tp1362
a(S'miniature book'
p1363
g2
(g6
S'\\\xe4.\xcdc\x88\xbf?'
p1364
tp1365
Rp1366
tp1367
a(S'computer network'
p1368
g2
(g6
S'a\xdf\x00(\x98\x80\xbf?'
p1369
tp1370
Rp1371
tp1372
a(S'processor (computing)'
p1373
g2
(g6
S'\xffqY0\x8a}\xbf?'
p1374
tp1375
Rp1376
tp1377
a(S'network domain'
p1378
g2
(g6
S'1\xc0\xfd{\xdfc\xbf?'
p1379
tp1380
Rp1381
tp1382
a(S'kak neural network'
p1383
g2
(g6
S'\xf0^\x8e;\xa5S\xbf?'
p1384
tp1385
Rp1386
tp1387
a(S'chain (industry standard)'
p1388
g2
(g6
S'\xbc\xba\x82\xe5IN\xbf?'
p1389
tp1390
Rp1391
tp1392
a(S'katy selverstone'
p1393
g2
(g6
S'\xec\x96i\xfcqG\xbf?'
p1394
tp1395
Rp1396
tp1397
a(S'mnist database'
p1398
g2
(g6
S'\xe3E3x\xa1@\xbf?'
p1399
tp1400
Rp1401
tp1402
a(S'mathura lion capital'
p1403
g2
(g6
S'\xd3\xad#\x14\x05@\xbf?'
p1404
tp1405
Rp1406
tp1407
a(S'street network'
p1408
g2
(g6
S'+\xbc\xdf\xf5x6\xbf?'
p1409
tp1410
Rp1411
tp1412
a(S'list of australian television series premieres in 2008'
p1413
g2
(g6
S'\xf1a\x1b\xb2\xe64\xbf?'
p1414
tp1415
Rp1416
tp1417
a(S'logie awards of 2003'
p1418
g2
(g6
S'\xb7\xfc\xe7\xf6u.\xbf?'
p1419
tp1420
Rp1421
tp1422
a(S'reuse of bottles'
p1423
g2
(g6
S'\x8e\xe7\xa5|\x0f)\xbf?'
p1424
tp1425
Rp1426
tp1427
a(S'sigg'
p1428
g2
(g6
S'\np\xd3\xe6\xd9\x19\xbf?'
p1429
tp1430
Rp1431
tp1432
a(S'nick (disambiguation)'
p1433
g2
(g6
S'q\xc2\x10\nv\x19\xbf?'
p1434
tp1435
Rp1436
tp1437
a(S'4f'
p1438
g2
(g6
S'\xb5\xaf\xff@H\x19\xbf?'
p1439
tp1440
Rp1441
tp1442
a(S'list of programmes broadcast by mya'
p1443
g2
(g6
S'\x95\xb1?\xcc\xef\x12\xbf?'
p1444
tp1445
Rp1446
tp1447
a(S'1997 in australian television'
p1448
g2
(g6
S'\xbe)\x13\x0c\xef\x0f\xbf?'
p1449
tp1450
Rp1451
tp1452
a(S'alcohol abuse'
p1453
g2
(g6
S'\xd6R\xd6\xb4\xa6\x0e\xbf?'
p1454
tp1455
Rp1456
tp1457
a(S'bruno campos'
p1458
g2
(g6
S'\\\xd2"\xff\x9b\n\xbf?'
p1459
tp1460
Rp1461
tp1462
a(S'ideal observer analysis'
p1463
g2
(g6
S'\xad\x83\x99\xb4}\x08\xbf?'
p1464
tp1465
Rp1466
tp1467
a(S'helsinki slang'
p1468
g2
(g6
S'\x98\xa0\x91\xb7\xff\x04\xbf?'
p1469
tp1470
Rp1471
tp1472
a(S'natasha alam'
p1473
g2
(g6
S'\xee\x81\x94\x91\xa2\x02\xbf?'
p1474
tp1475
Rp1476
tp1477
a(S'alcohol industry'
p1478
g2
(g6
S'\x9af8\xa7\x9d\xfe\xbe?'
p1479
tp1480
Rp1481
tp1482
a(S"girl o' my dreams"
p1483
g2
(g6
S'\xa7\xa6\xc9-;\xf6\xbe?'
p1484
tp1485
Rp1486
tp1487
a(S'real-time adaptive security'
p1488
g2
(g6
S'\x90rU\x8ad\xf2\xbe?'
p1489
tp1490
Rp1491
tp1492
a(S'logie awards of 2006'
p1493
g2
(g6
S'\x0b~\xc7T\x11\xf2\xbe?'
p1494
tp1495
Rp1496
tp1497
a(S'nrn (disambiguation)'
p1498
g2
(g6
S'Zz\xe3\xc0?\xea\xbe?'
p1499
tp1500
Rp1501
tp1502
a(S'fremantlemedia australia'
p1503
g2
(g6
S'X\x91V\x8e\x81\xe4\xbe?'
p1504
tp1505
Rp1506
tp1507
a(S'nork'
p1508
g2
(g6
S'-\xe3\xe0\xd9>\xe2\xbe?'
p1509
tp1510
Rp1511
tp1512
a.