(lp0
(S'object detection'
p1
cnumpy.core.multiarray
scalar
p2
(cnumpy
dtype
p3
(S'f8'
p4
I0
I1
tp5
Rp6
(I3
S'<'
p7
NNNI-1
I-1
I0
tp8
bS'\x01\x00\x00\x00\x00\x00\xf0?'
p9
tp10
Rp11
tp12
a(S'face detection'
p13
g2
(g6
S'?\xc8w\xc1m\x04\xe2?'
p14
tp15
Rp16
tp17
a(S'change detection'
p18
g2
(g6
S'\x02\x8c\xb9\xd3\xa2\x1d\xde?'
p19
tp20
Rp21
tp22
a(S'motion detection'
p23
g2
(g6
S'Q\x97\xcf%\x17{\xdc?'
p24
tp25
Rp26
tp27
a(S'pedestrian detection'
p28
g2
(g6
S'{\x05\xfe\xe4%k\xdc?'
p29
tp30
Rp31
tp32
a(S'anomaly detection'
p33
g2
(g6
S'\x9fvY\xfb\xf0-\xdc?'
p34
tp35
Rp36
tp37
a(S'feature detection'
p38
g2
(g6
S'\xca\xf1{\x07\x11 \xda?'
p39
tp40
Rp41
tp42
a(S'feature detection (computer vision)'
p43
g2
(g6
S'hn}l\xf4\xbb\xd8?'
p44
tp45
Rp46
tp47
a(S'netmind'
p48
g2
(g6
S'x\x14\x16\xb9H\x10\xd7?'
p49
tp50
Rp51
tp52
a(S'longuet-higgins prize'
p53
g2
(g6
S'\xe1\xce\xef?\x00\xef\xd6?'
p54
tp55
Rp56
tp57
a(S'edge detection'
p58
g2
(g6
S'\xc9\xccV\xa9z\x96\xd6?'
p59
tp60
Rp61
tp62
a(S'outline of object recognition'
p63
g2
(g6
S'#\x85-\x90\xe7p\xd6?'
p64
tp65
Rp66
tp67
a(S'viola\xe2\x80\x93jones object detection framework'
p68
g2
(g6
S'\xbf\xc1\x13r\x8a;\xd6?'
p69
tp70
Rp71
tp72
a(S'object (computer science)'
p73
g2
(g6
S'\xb7\xdb\xc2\x11\xe1\x1e\xd6?'
p74
tp75
Rp76
tp77
a(S'misuse detection'
p78
g2
(g6
S'\xab\x94\x18\x97\xdd\x13\xd6?'
p79
tp80
Rp81
tp82
a(S'autonomous detection system'
p83
g2
(g6
S'<(\xdc>\x84\xea\xd5?'
p84
tp85
Rp86
tp87
a(S'target acquisition minefield detection system'
p88
g2
(g6
S';\xb4ai\xf3\xe2\xd5?'
p89
tp90
Rp91
tp92
a(S'detection'
p93
g2
(g6
S'\x8b\x00R\x8eH\xd0\xd5?'
p94
tp95
Rp96
tp97
a(S'extrusion detection'
p98
g2
(g6
S'\xf0\xd8\xa5\xe3@\xb8\xd5?'
p99
tp100
Rp101
tp102
a(S'video content analysis'
p103
g2
(g6
S'\xcek\x9c\xf6\x9a\x9d\xd5?'
p104
tp105
Rp106
tp107
a(S'computer vision'
p108
g2
(g6
S"\xa1'yf\xb7Y\xd5?"
p109
tp110
Rp111
tp112
a(S'novelty detection'
p113
g2
(g6
S'kyob\xc8C\xd5?'
p114
tp115
Rp116
tp117
a(S'tsl color space'
p118
g2
(g6
S'\xd4\x891\x1dd\x15\xd5?'
p119
tp120
Rp121
tp122
a(S'crowd tracking'
p123
g2
(g6
S'\xc21t\xb0\x07\xca\xd4?'
p124
tp125
Rp126
tp127
a(S'3d single-object recognition'
p128
g2
(g6
S'\xbb\x86\xb6\x19\xd5M\xd4?'
p129
tp130
Rp131
tp132
a(S'relational approach to quantum physics'
p133
g2
(g6
S'\x1b[\xd3\xf7\tD\xd4?'
p134
tp135
Rp136
tp137
a(S'ipsotek'
p138
g2
(g6
S'\xdd3"8\xd4:\xd4?'
p139
tp140
Rp141
tp142
a(S'geometric feature learning'
p143
g2
(g6
S'#L\xa8.\x032\xd4?'
p144
tp145
Rp146
tp147
a(S'integrated biological detection system'
p148
g2
(g6
S'_\x8d\x19!a\x00\xd4?'
p149
tp150
Rp151
tp152
a(S'ambiguous image'
p153
g2
(g6
S';)\x92O\xe8\xf1\xd3?'
p154
tp155
Rp156
tp157
a(S'object manager (windows)'
p158
g2
(g6
S'\x9eIS%3\xd9\xd3?'
p159
tp160
Rp161
tp162
a(S'object'
p163
g2
(g6
S'|2\xd4\t\xfb\xc9\xd3?'
p164
tp165
Rp166
tp167
a(S'class-based programming'
p168
g2
(g6
S'h\x8f\xd0\x1a\xe0\x9c\xd3?'
p169
tp170
Rp171
tp172
a(S'detection limit'
p173
g2
(g6
S'\x02<\x17\n\x02\x9c\xd3?'
p174
tp175
Rp176
tp177
a(S'mid-canada line'
p178
g2
(g6
S'\t\xa7am\xba\x84\xd3?'
p179
tp180
Rp181
tp182
a(S'onset (audio)'
p183
g2
(g6
S'\x80b\x99\xdd\x80\x83\xd3?'
p184
tp185
Rp186
tp187
a(S'video tracking'
p188
g2
(g6
S'\xb22*=Lw\xd3?'
p189
tp190
Rp191
tp192
a(S'anomaly-based intrusion detection system'
p193
g2
(g6
S'\x0f\xda\xaf\xc8dq\xd3?'
p194
tp195
Rp196
tp197
a(S'step detection'
p198
g2
(g6
S'\x92\x90\xf1\xf7\x0bo\xd3?'
p199
tp200
Rp201
tp202
a(S'omtroll'
p203
g2
(g6
S'RjZ\xf3\xa8_\xd3?'
p204
tp205
Rp206
tp207
a(S'object model'
p208
g2
(g6
S'\xfbi\x9e#.?\xd3?'
p209
tp210
Rp211
tp212
a(S'homodyne detection'
p213
g2
(g6
S'\xa1\x9f\xf0\xcb\x8c.\xd3?'
p214
tp215
Rp216
tp217
a(S'object graph'
p218
g2
(g6
S'\xfdHs\xfdg\x1d\xd3?'
p219
tp220
Rp221
tp222
a(S'canny edge detector'
p223
g2
(g6
S'\xe3Jie\x7f\xfe\xd2?'
p224
tp225
Rp226
tp227
a(S'interest point detection'
p228
g2
(g6
S'<~\xdb\x8d\t\xc3\xd2?'
p229
tp230
Rp231
tp232
a(S'change detection (gis)'
p233
g2
(g6
S'\x88[\xaf\xf6\x17\xa7\xd2?'
p234
tp235
Rp236
tp237
a(S'outline of computer vision'
p238
g2
(g6
S'2T\xe8\xc0\xdb\x80\xd2?'
p239
tp240
Rp241
tp242
a(S'labelme'
p243
g2
(g6
S"\x1f:D'\xc7p\xd2?"
p244
tp245
Rp246
tp247
a(S'chessboard detection'
p248
g2
(g6
S'\x83\xa0N\x0c\xd7i\xd2?'
p249
tp250
Rp251
tp252
a(S'object-based language'
p253
g2
(g6
S"'\xf2b9\xbeD\xd2?"
p254
tp255
Rp256
tp257
a(S'maximally stable extremal regions'
p258
g2
(g6
S'!\x02\xc9+\x0c\x1b\xd2?'
p259
tp260
Rp261
tp262
a(S'explosive detection'
p263
g2
(g6
S'l\xf3\xb7\x99\xdd\x1a\xd2?'
p264
tp265
Rp266
tp267
a(S'beat detection'
p268
g2
(g6
S'^\x93\xa0_\xf9\x17\xd2?'
p269
tp270
Rp271
tp272
a(S'diver detection sonar'
p273
g2
(g6
S'\xfc}\x1bW\xfe\x15\xd2?'
p274
tp275
Rp276
tp277
a(S'object-oriented design'
p278
g2
(g6
S'l\x1b\xe1IB\x12\xd2?'
p279
tp280
Rp281
tp282
a(S'post-detection policy'
p283
g2
(g6
S'\xba\xd43\xc4\xb9\xef\xd1?'
p284
tp285
Rp286
tp287
a(S'cloning (programming)'
p288
g2
(g6
S'UkcoP\xc7\xd1?'
p289
tp290
Rp291
tp292
a(S'british machine vision conference'
p293
g2
(g6
S'_\xc5@\x15\x17\xb8\xd1?'
p294
tp295
Rp296
tp297
a(S'detection dog'
p298
g2
(g6
S'\x94z\x97)wz\xd1?'
p299
tp300
Rp301
tp302
a(S'physical body'
p303
g2
(g6
S'\x16\xa0\x96\x84ps\xd1?'
p304
tp305
Rp306
tp307
a(S'linear heat detection'
p308
g2
(g6
S'\xf0V1\x8e\x14h\xd1?'
p309
tp310
Rp311
tp312
a(S'association (object-oriented programming)'
p313
g2
(g6
S'%v\x95\xe4(e\xd1?'
p314
tp315
Rp316
tp317
a(S'has-a'
p318
g2
(g6
S'B\xd8d\x1d\xa1[\xd1?'
p319
tp320
Rp321
tp322
a(S'exhibition of cultural heritage objects'
p323
g2
(g6
S'\x1a\xe7\xad\x08M?\xd1?'
p324
tp325
Rp326
tp327
a(S'silverquant'
p328
g2
(g6
S'\x8f\xfd\x13\xcaq1\xd1?'
p329
tp330
Rp331
tp332
a(S'intrusion detection system'
p333
g2
(g6
S'\x99\xcc\xca\xa8\xa0+\xd1?'
p334
tp335
Rp336
tp337
a(S'marr\xe2\x80\x93hildreth algorithm'
p338
g2
(g6
S'vug7\x90\x14\xd1?'
p339
tp340
Rp341
tp342
a(S'diabetes detection dogs'
p343
g2
(g6
S'\xf1\xcf\xe4\x0f\x9c\x10\xd1?'
p344
tp345
Rp346
tp347
a(S'replicanet'
p348
g2
(g6
S"J''#\x1b\x10\xd1?"
p349
tp350
Rp351
tp352
a(S'object-oriented ontology'
p353
g2
(g6
S'u\xf3u\x8c_\x0f\xd1?'
p354
tp355
Rp356
tp357
a(S'image analysis'
p358
g2
(g6
S'.[n\x87:\x00\xd1?'
p359
tp360
Rp361
tp362
a(S'yulem'
p363
g2
(g6
S'\x0f\xa3m\\\xc5\xfb\xd0?'
p364
tp365
Rp366
tp367
a(S'charset detection'
p368
g2
(g6
S'\x08\xa96\x05\x10\xf5\xd0?'
p369
tp370
Rp371
tp372
a(S'metaclass'
p373
g2
(g6
S'\x1aZ~z\x1f\xf1\xd0?'
p374
tp375
Rp376
tp377
a(S'collision detection'
p378
g2
(g6
S'z\xeb\x80\xe0\x86\xe8\xd0?'
p379
tp380
Rp381
tp382
a(S'boundary vector field'
p383
g2
(g6
S'\xbac\xf4\xd8H\xdd\xd0?'
p384
tp385
Rp386
tp387
a(S'identity (object-oriented programming)'
p388
g2
(g6
S'PZ=\x03\xd5\xdc\xd0?'
p389
tp390
Rp391
tp392
a(S'laser ultrasonics'
p393
g2
(g6
S'\x93\xb5S\xc6\xb3\xd9\xd0?'
p394
tp395
Rp396
tp397
a(S'object resurrection'
p398
g2
(g6
S'\xd8\xa8$\xda\r\xd1\xd0?'
p399
tp400
Rp401
tp402
a(S'schizophrenia (object-oriented programming)'
p403
g2
(g6
S'\xc7\x7fi\xbeV\xd0\xd0?'
p404
tp405
Rp406
tp407
a(S'corner detection'
p408
g2
(g6
S'@\xbd\x83jh\xc3\xd0?'
p409
tp410
Rp411
tp412
a(S'shot transition detection'
p413
g2
(g6
S'h\xef\xc5\x18.\xa5\xd0?'
p414
tp415
Rp416
tp417
a(S'object (grammar)'
p418
g2
(g6
S'\x97s\xe5\xab\x9f\xa0\xd0?'
p419
tp420
Rp421
tp422
a(S'object-based attention'
p423
g2
(g6
S'\xf5\xdf\xe8b\x99\x9e\xd0?'
p424
tp425
Rp426
tp427
a(S'pose (computer vision)'
p428
g2
(g6
S'\x0b\xa9\xc7UA~\xd0?'
p429
tp430
Rp431
tp432
a(S'detection of genetically modified organisms'
p433
g2
(g6
S'f"1\x00;y\xd0?'
p434
tp435
Rp436
tp437
a(S'detection theory'
p438
g2
(g6
S'\xa9\xa2\x13>Rj\xd0?'
p439
tp440
Rp441
tp442
a(S'object-oriented programming'
p443
g2
(g6
S'\x05"\xa2\xb9~S\xd0?'
p444
tp445
Rp446
tp447
a(S'plagiarism detection'
p448
g2
(g6
S'{(k\xea_N\xd0?'
p449
tp450
Rp451
tp452
a(S'god object'
p453
g2
(g6
S'\x1a\xf8e,,\x07\xd0?'
p454
tp455
Rp456
tp457
a(S'feature (computer vision)'
p458
g2
(g6
S'o\xeb\x13\xa5\xbb\x00\xd0?'
p459
tp460
Rp461
tp462
a(S'object-based spatial database'
p463
g2
(g6
S']\x08\xc7\r\xae\xed\xcf?'
p464
tp465
Rp466
tp467
a(S'video copy detection'
p468
g2
(g6
S'\x0f\xe1d\x97R\xe4\xcf?'
p469
tp470
Rp471
tp472
a(S'one-shot learning'
p473
g2
(g6
S'\xd9~\xc3\x11\xe7\xdb\xcf?'
p474
tp475
Rp476
tp477
a(S'persistent object store'
p478
g2
(g6
S'\xf2\xb1W\x86\xde\xcd\xcf?'
p479
tp480
Rp481
tp482
a(S'object-capability model'
p483
g2
(g6
S'\x92\x95\xfa5k\xcc\xcf?'
p484
tp485
Rp486
tp487
a(S'idef4'
p488
g2
(g6
S'\x9b\x8ep5\x15\xcc\xcf?'
p489
tp490
Rp491
tp492
a(S'host-based intrusion detection system'
p493
g2
(g6
S'\xfd\x99Of\xe3\xc1\xcf?'
p494
tp495
Rp496
tp497
a(S'advanced ligo documentary project'
p498
g2
(g6
S'8\t\xdeq\xc3\xae\xcf?'
p499
tp500
Rp501
tp502
a(S'poseidon drowning detection system'
p503
g2
(g6
S'\x9f\\I$*\x9d\xcf?'
p504
tp505
Rp506
tp507
a(S'water detector'
p508
g2
(g6
S'\x81\xfa\x93_\x91\x9b\xcf?'
p509
tp510
Rp511
tp512
a(S'phase congruency'
p513
g2
(g6
S'6\x13!\xf37\x94\xcf?'
p514
tp515
Rp516
tp517
a(S'self (programming language)'
p518
g2
(g6
S'[b\xf9x\xd6z\xcf?'
p519
tp520
Rp521
tp522
a(S'prototype-based programming'
p523
g2
(g6
S'fS\xd3f\xf9w\xcf?'
p524
tp525
Rp526
tp527
a(S'creational pattern'
p528
g2
(g6
S'\x9el*FXo\xcf?'
p529
tp530
Rp531
tp532
a(S'object database'
p533
g2
(g6
S'\x0c\xb1\x86\x18Mg\xcf?'
p534
tp535
Rp536
tp537
a(S'delegation (computing)'
p538
g2
(g6
S'\xa1sIA\xffZ\xcf?'
p539
tp540
Rp541
tp542
a(S'human sensing'
p543
g2
(g6
S'H\xc9\xbcpmZ\xcf?'
p544
tp545
Rp546
tp547
a(S'cognitive neuroscience of visual object recognition'
p548
g2
(g6
S'\xfd8v\x15\xf1X\xcf?'
p549
tp550
Rp551
tp552
a(S'histogram of oriented gradients'
p553
g2
(g6
S'\xfe"\xa0\xda\xe1U\xcf?'
p554
tp555
Rp556
tp557
a(S'air force technical applications center'
p558
g2
(g6
S'\xfa\xac\x05=7K\xcf?'
p559
tp560
Rp561
tp562
a(S'detection risk'
p563
g2
(g6
S';\x9b\xd1\xe2XC\xcf?'
p564
tp565
Rp566
tp567
a(S'initial and terminal objects'
p568
g2
(g6
S'9w\x15i\xd3=\xcf?'
p569
tp570
Rp571
tp572
a(S'value object'
p573
g2
(g6
S'm\x9d\xea\x92J\x01\xcf?'
p574
tp575
Rp576
tp577
a(S'surround optical fiber immunoassay'
p578
g2
(g6
S'\xa1\x9d\x16\xf5\xee\xbc\xce?'
p579
tp580
Rp581
tp582
a(S'wecu technologies'
p583
g2
(g6
S'\xde\xb3\r\xee\xb5\xba\xce?'
p584
tp585
Rp586
tp587
a(S'object pool pattern'
p588
g2
(g6
S'\x9d9\x94\xefn\xb6\xce?'
p589
tp590
Rp591
tp592
a(S'rsid'
p593
g2
(g6
S'\x9b1^5\x10\xa1\xce?'
p594
tp595
Rp596
tp597
a(S'class (computer programming)'
p598
g2
(g6
S'V\x04\xdd\xfb\x10\xa0\xce?'
p599
tp600
Rp601
tp602
a(S'network behavior anomaly detection'
p603
g2
(g6
S'\xdb\xd8\x06\x1f\xc0\x84\xce?'
p604
tp605
Rp606
tp607
a(S'yiush'
p608
g2
(g6
S'{\x18\x19\xcagz\xce?'
p609
tp610
Rp611
tp612
a(S'class hierarchy'
p613
g2
(g6
S'm\t\xb5t\x13w\xce?'
p614
tp615
Rp616
tp617
a(S'feature extraction'
p618
g2
(g6
S'\xc6\x05k\x1f\x08T\xce?'
p619
tp620
Rp621
tp622
a(S'recognition-by-components theory'
p623
g2
(g6
S'O\x01\xa43\xa6<\xce?'
p624
tp625
Rp626
tp627
a(S'condensation algorithm'
p628
g2
(g6
S'l=`\x9d\x16;\xce?'
p629
tp630
Rp631
tp632
a(S'evolutionary algorithm for landmark detection'
p633
g2
(g6
S'\xdf\xa5\xf8\xef\xd17\xce?'
p634
tp635
Rp636
tp637
a(S'computer-aided diagnosis'
p638
g2
(g6
S'@\xdc\xc0\xe3\xad-\xce?'
p639
tp640
Rp641
tp642
a(S'collection (artwork)'
p643
g2
(g6
S'\xb8\x13\x85\x15v&\xce?'
p644
tp645
Rp646
tp647
a(S'object 478'
p648
g2
(g6
S'\\\x98z\rF\r\xce?'
p649
tp650
Rp651
tp652
a(S'ridge detection'
p653
g2
(g6
S'\xfa\xa7\xc1\n~\x06\xce?'
p654
tp655
Rp656
tp657
a(S'u (tno)'
p658
g2
(g6
S'C\xe8\x105W\x02\xce?'
p659
tp660
Rp661
tp662
a(S'proactive'
p663
g2
(g6
S'\xa7X\xcf\x97\x9d\xee\xcd?'
p664
tp665
Rp666
tp667
a(S'object-z'
p668
g2
(g6
S'*\x95\xfb\xcf(\xe5\xcd?'
p669
tp670
Rp671
tp672
a(S'object linking and embedding'
p673
g2
(g6
S'\xfbCKk\x03\xda\xcd?'
p674
tp675
Rp676
tp677
a(S'graviner'
p678
g2
(g6
S'jt\xa2#C\xcd\xcd?'
p679
tp680
Rp681
tp682
a(S'object data management group'
p683
g2
(g6
S'`\x07\xe9\x040\xc1\xcd?'
p684
tp685
Rp686
tp687
a(S'object oriented management'
p688
g2
(g6
S'tC\xeb0\xf3\xc0\xcd?'
p689
tp690
Rp691
tp692
a(S'daniel b. cid'
p693
g2
(g6
S'\xfclb\x19\x8b\xbe\xcd?'
p694
tp695
Rp696
tp697
a(S'dmdnb'
p698
g2
(g6
S'2\xed\xc8\x82#\xa8\xcd?'
p699
tp700
Rp701
tp702
a(S'intruder detection'
p703
g2
(g6
S'k\xa6\xe1 \xbb\xa0\xcd?'
p704
tp705
Rp706
tp707
a(S'method (computer programming)'
p708
g2
(g6
S'W%\x84\xf0a\x95\xcd?'
p709
tp710
Rp711
tp712
a(S'change detection and notification'
p713
g2
(g6
S'\x94\xa3"\'\xd4o\xcd?'
p714
tp715
Rp716
tp717
a(S'optical heterodyne detection'
p718
g2
(g6
S'\xf9=\xad\xd4\x13a\xcd?'
p719
tp720
Rp721
tp722
a(S'object-relational mapping'
p723
g2
(g6
S'\xc5+\xedN\x9d\\\xcd?'
p724
tp725
Rp726
tp727
a(S'delegation pattern'
p728
g2
(g6
S'L]d\x8e\x027\xcd?'
p729
tp730
Rp731
tp732
a(S'visual turing test'
p733
g2
(g6
S'\x93\xaf\x0ffm6\xcd?'
p734
tp735
Rp736
tp737
a(S'chemical trap'
p738
g2
(g6
S'd\tA\xa6\xf22\xcd?'
p739
tp740
Rp741
tp742
a(S'jet data access objects'
p743
g2
(g6
S'\xd9\xaa\xbcm\x04-\xcd?'
p744
tp745
Rp746
tp747
a(S'ossim'
p748
g2
(g6
S'\xca\xe6^\x9a\x14\x1e\xcd?'
p749
tp750
Rp751
tp752
a(S'ampliphox'
p753
g2
(g6
S'\xa6\xd8l\x90\xc4\x1c\xcd?'
p754
tp755
Rp756
tp757
a(S'cellcognition'
p758
g2
(g6
S'\xc7\x10>f\xb9\x1c\xcd?'
p759
tp760
Rp761
tp762
a(S'xtralis'
p763
g2
(g6
S'\x89rL\xf1\xcf\x0c\xcd?'
p764
tp765
Rp766
tp767
a(S'design patterns'
p768
g2
(g6
S'`Ng\xc9\xa1\xed\xcc?'
p769
tp770
Rp771
tp772
a(S'factory (object-oriented programming)'
p773
g2
(g6
S'\xadqD\x048\xc1\xcc?'
p774
tp775
Rp776
tp777
a(S'word learning biases'
p778
g2
(g6
S'6h\xfc\xce\xf1\xbe\xcc?'
p779
tp780
Rp781
tp782
a(S'haar-like features'
p783
g2
(g6
S'\xc0\xac\xa6$L\xb5\xcc?'
p784
tp785
Rp786
tp787
a(S'object slicing'
p788
g2
(g6
S'\x1d\xeeKH\x1d\xb4\xcc?'
p789
tp790
Rp791
tp792
a(S'object (philosophy)'
p793
g2
(g6
S'\x9f\x84GXr\x90\xcc?'
p794
tp795
Rp796
tp797
a(S'visual indexing theory'
p798
g2
(g6
S'\x08s\xdb\x93Dw\xcc?'
p799
tp800
Rp801
tp802
a(S'apopo'
p803
g2
(g6
S'lY\xba\x94\xf1p\xcc?'
p804
tp805
Rp806
tp807
a(S'type introspection'
p808
g2
(g6
S'n\xca\x10R\xa2b\xcc?'
p809
tp810
Rp811
tp812
a(S'hitbox'
p813
g2
(g6
S'\r\xf5m\xef\x08_\xcc?'
p814
tp815
Rp816
tp817
a(S'noise-predictive maximum-likelihood detection'
p818
g2
(g6
S'\xfaF\x117\xe5L\xcc?'
p819
tp820
Rp821
tp822
a(S'object copying'
p823
g2
(g6
S'*\xb0\x7f\xbb\xffJ\xcc?'
p824
tp825
Rp826
tp827
a(S'appleevent object model'
p828
g2
(g6
S'z\xee\x897\xe46\xcc?'
p829
tp830
Rp831
tp832
a(S'local outlier factor'
p833
g2
(g6
S"\xd99\xaa\xa4\xb4'\xcc?"
p834
tp835
Rp836
tp837
a(S'object skill'
p838
g2
(g6
S'\x08\r,\x04\x1a$\xcc?'
p839
tp840
Rp841
tp842
a(S'positiveid'
p843
g2
(g6
S'n\xd0Nz\x15\x05\xcc?'
p844
tp845
Rp846
tp847
a(S'facial recognition system'
p848
g2
(g6
S'\x82\xd5\x10\x15\x08\xfd\xcb?'
p849
tp850
Rp851
tp852
a(S'georgios magklaras'
p853
g2
(g6
S"\xd7tS'\xbb\xec\xcb?"
p854
tp855
Rp856
tp857
a(S'en 54'
p858
g2
(g6
S'\x82u\xa0\xcc\xc2\xe9\xcb?'
p859
tp860
Rp861
tp862
a(S'form perception'
p863
g2
(g6
S'V.~T\x1c\xe9\xcb?'
p864
tp865
Rp866
tp867
a(S'2.5d (visual perception)'
p868
g2
(g6
S'@H\x1b\x1b1\xe2\xcb?'
p869
tp870
Rp871
tp872
a(S'virginia police canine association'
p873
g2
(g6
S'N\x93\x18S\xfa\xca\xcb?'
p874
tp875
Rp876
tp877
a(S'content-based image retrieval'
p878
g2
(g6
S'\xb2\x08\xee;n\xc8\xcb?'
p879
tp880
Rp881
tp882
a(S'glossary of unified modeling language terms'
p883
g2
(g6
S'\xa2{\xfd\x0c\xf3\xc1\xcb?'
p884
tp885
Rp886
tp887
a(S'tuple space'
p888
g2
(g6
S'r\x0f\xe7\x9c\x99\xbe\xcb?'
p889
tp890
Rp891
tp892
a(S'integral channel features'
p893
g2
(g6
S'\xaeZ\x1d\x11\x9e\xbb\xcb?'
p894
tp895
Rp896
tp897
a(S'scenekit'
p898
g2
(g6
S'\x0c\xfe)It\xb6\xcb?'
p899
tp900
Rp901
tp902
a(S'robert haralick'
p903
g2
(g6
S'\xf6U\x95\xb1\xbd\xb3\xcb?'
p904
tp905
Rp906
tp907
a(S'mixin'
p908
g2
(g6
S'\xee\xacQ_\xa3\xaf\xcb?'
p909
tp910
Rp911
tp912
a(S'top type'
p913
g2
(g6
S'\xd5Bq&"\xa4\xcb?'
p914
tp915
Rp916
tp917
a(S'.net remoting'
p918
g2
(g6
S'\x1c\xf5{\xf9\xa9\x96\xcb?'
p919
tp920
Rp921
tp922
a(S'motion diagram'
p923
g2
(g6
S'\xd8\x1c\xf3@\xae\x93\xcb?'
p924
tp925
Rp926
tp927
a(S'enterprise objects framework'
p928
g2
(g6
S'\xfb&\t\t\xb1\x80\xcb?'
p929
tp930
Rp931
tp932
a(S'object type (object-oriented programming)'
p933
g2
(g6
S'\xc8\xee\xd6\xb9\x18\x7f\xcb?'
p934
tp935
Rp936
tp937
a(S'aerial photographic and satellite image interpretation'
p938
g2
(g6
S'-\x10\xe7-\x95s\xcb?'
p939
tp940
Rp941
tp942
a(S'object-oriented operating system'
p943
g2
(g6
S'\xa6\x82\xdd\xcd\x16k\xcb?'
p944
tp945
Rp946
tp947
a(S'foreground detection'
p948
g2
(g6
S'\x96\xd9M\x0e\x91b\xcb?'
p949
tp950
Rp951
tp952
a(S'principal curvature-based region detector'
p953
g2
(g6
S'\x8b4\x10R\x06\\\xcb?'
p954
tp955
Rp956
tp957
a(S'subobject'
p958
g2
(g6
S';M\\\xf4\x9cS\xcb?'
p959
tp960
Rp961
tp962
a(S'cascading classifiers'
p963
g2
(g6
S'\xda\xe4\xa0Z\xa2O\xcb?'
p964
tp965
Rp966
tp967
a(S'protocol-based intrusion detection system'
p968
g2
(g6
S"J\xda1t'F\xcb?"
p969
tp970
Rp971
tp972
a(S'computer-aided inspection'
p973
g2
(g6
S'*\x1b\x94\x82\xa2=\xcb?'
p974
tp975
Rp976
tp977
a(S'object rexx'
p978
g2
(g6
S'\r\x17z\x80\xa4"\xcb?'
p979
tp980
Rp981
tp982
a(S'object diagram'
p983
g2
(g6
S'#`v%\xcf\x1f\xcb?'
p984
tp985
Rp986
tp987
a(S'inheritance (genetic algorithm)'
p988
g2
(g6
S'\x0b\x90n\x02,\x1e\xcb?'
p989
tp990
Rp991
tp992
a(S'snort (software)'
p993
g2
(g6
S'(\xeb\xc1#`\x0f\xcb?'
p994
tp995
Rp996
tp997
a(S'distributed object'
p998
g2
(g6
S'\x1dI|;\xd5\n\xcb?'
p999
tp1000
Rp1001
tp1002
a(S'forwarding (object-oriented programming)'
p1003
g2
(g6
S'\xf0\x95$\x15\x1a\x08\xcb?'
p1004
tp1005
Rp1006
tp1007
a(S'airborne wind shear detection and alert system'
p1008
g2
(g6
S'\xda?Y\x9e\xe4\x00\xcb?'
p1009
tp1010
Rp1011
tp1012
a(S'cviptools'
p1013
g2
(g6
S'f\xd9n\x03\xa6\xfc\xca?'
p1014
tp1015
Rp1016
tp1017
a(S'quickdb orm'
p1018
g2
(g6
S'R\xfa\x93\x0b*\xfb\xca?'
p1019
tp1020
Rp1021
tp1022
a(S'brian henderson-sellers'
p1023
g2
(g6
S'>\x94e\x8e/\xf3\xca?'
p1024
tp1025
Rp1026
tp1027
a(S'foreign object'
p1028
g2
(g6
S'\x95\xeb1\xc2\xd6\xe1\xca?'
p1029
tp1030
Rp1031
tp1032
a(S'egsy8p7'
p1033
g2
(g6
S'\xbb\xdd\x8b\x18b\xde\xca?'
p1034
tp1035
Rp1036
tp1037
a(S'smart objects'
p1038
g2
(g6
S'\x99<pIE\xd8\xca?'
p1039
tp1040
Rp1041
tp1042
a(S'machine vision'
p1043
g2
(g6
S'`\x90\xb4\xe3B\xd2\xca?'
p1044
tp1045
Rp1046
tp1047
a(S'object storage'
p1048
g2
(g6
S'\x06\xa0nO\xe3\xc5\xca?'
p1049
tp1050
Rp1051
tp1052
a(S'imagenet'
p1053
g2
(g6
S'\xdc\x83\xd4\x04\x9d\xb4\xca?'
p1054
tp1055
Rp1056
tp1057
a(S'background subtraction'
p1058
g2
(g6
S'\xf0\xfd\x82\xee\xc1\xb2\xca?'
p1059
tp1060
Rp1061
tp1062
a(S'hit-testing'
p1063
g2
(g6
S'\xb19%\xd0\xbb\xa1\xca?'
p1064
tp1065
Rp1066
tp1067
a(S'm1135 nuclear, biological, chemical, reconnaissance vehicle'
p1068
g2
(g6
S'\xdc\x1e8c\xd5\x97\xca?'
p1069
tp1070
Rp1071
tp1072
a(S'leddar'
p1073
g2
(g6
S'w\x94\xd8\xaf\x02\x94\xca?'
p1074
tp1075
Rp1076
tp1077
a(S'forced perspective'
p1078
g2
(g6
S'\xfb\xea$g\xd9\x91\xca?'
p1079
tp1080
Rp1081
tp1082
a(S'live distributed object'
p1083
g2
(g6
S"kJ\xc0\x14'\x8f\xca?"
p1084
tp1085
Rp1086
tp1087
a(S'anthrax detection device'
p1088
g2
(g6
S'\xeaoD\xed\xf3\x8a\xca?'
p1089
tp1090
Rp1091
tp1092
a(S'object-oriented analysis and design'
p1093
g2
(g6
S'a\x96\xf2Q\xd2\x85\xca?'
p1094
tp1095
Rp1096
tp1097
a(S'previsual'
p1098
g2
(g6
S'\x84_\x12\xe3\x04\x81\xca?'
p1099
tp1100
Rp1101
tp1102
a(S'daniel d. langleben'
p1103
g2
(g6
S'/\xf7\xa5;\xc2s\xca?'
p1104
tp1105
Rp1106
tp1107
a(S'fast folding algorithm'
p1108
g2
(g6
S'l\x9a\xe3\xbd\x83l\xca?'
p1109
tp1110
Rp1111
tp1112
a(S'multiuser detection'
p1113
g2
(g6
S'\xe0\xc2\x8d\x05kh\xca?'
p1114
tp1115
Rp1116
tp1117
a(S'motion tracking using java'
p1118
g2
(g6
S'\x16\xdah 3f\xca?'
p1119
tp1120
Rp1121
tp1122
a(S'the sensory enhancement theory of object-based attention'
p1123
g2
(g6
S'\x0b\x94\xd9\x83;`\xca?'
p1124
tp1125
Rp1126
tp1127
a(S'instance (computer science)'
p1128
g2
(g6
S'W\xe2G\x1a\rQ\xca?'
p1129
tp1130
Rp1131
tp1132
a(S'component-based scalable logical architecture'
p1133
g2
(g6
S'\x7f\xe3\xafq\x0b?\xca?'
p1134
tp1135
Rp1136
tp1137
a(S'information distance'
p1138
g2
(g6
S'\xb8\x92T@\xac<\xca?'
p1139
tp1140
Rp1141
tp1142
a(S'n-jet'
p1143
g2
(g6
S'\x9b\xe4\x7fm\n,\xca?'
p1144
tp1145
Rp1146
tp1147
a(S'basic object system'
p1148
g2
(g6
S'\xfa\x13v\xd2\xc6\x1f\xca?'
p1149
tp1150
Rp1151
tp1152
a(S'activex data objects'
p1153
g2
(g6
S'\x1b\x97\xbepE\x1f\xca?'
p1154
tp1155
Rp1156
tp1157
a(S'object categorization from image search'
p1158
g2
(g6
S'T\xc9\xf3\xe1,\x15\xca?'
p1159
tp1160
Rp1161
tp1162
a(S'motion analysis'
p1163
g2
(g6
S'\xab\xfb\\\xea\x80\r\xca?'
p1164
tp1165
Rp1166
tp1167
a(S'fido explosives detector'
p1168
g2
(g6
S'\x80\x99\x7f\xe2\x8f\x0b\xca?'
p1169
tp1170
Rp1171
tp1172
a(S'scale error'
p1173
g2
(g6
S'\x81\xd2\x8a\x0ce\x0b\xca?'
p1174
tp1175
Rp1176
tp1177
a(S'local energy-based shape histogram'
p1178
g2
(g6
S'9na\x7f[\x04\xca?'
p1179
tp1180
Rp1181
tp1182
a(S'intrusion detection message exchange format'
p1183
g2
(g6
S'at1\xce:\xe6\xc9?'
p1184
tp1185
Rp1186
tp1187
a(S'mock object'
p1188
g2
(g6
S'\xeb3\x8a\x8d;\xdf\xc9?'
p1189
tp1190
Rp1191
tp1192
a(S'caltech 101'
p1193
g2
(g6
S'\x00\x1c\xac\xf9$\xdf\xc9?'
p1194
tp1195
Rp1196
tp1197
a(S'articulated body pose estimation'
p1198
g2
(g6
S'\xb5_\xef<\t\xda\xc9?'
p1199
tp1200
Rp1201
tp1202
a(S'convergence micropsia'
p1203
g2
(g6
S'U\xdcE\xb0\xf8\xcf\xc9?'
p1204
tp1205
Rp1206
tp1207
a(S'space surveillance'
p1208
g2
(g6
S'\x14\x91jE\xbe\xce\xc9?'
p1209
tp1210
Rp1211
tp1212
a(S'object lifetime'
p1213
g2
(g6
S'\x0f\xb1\x12\xab\xca\xcd\xc9?'
p1214
tp1215
Rp1216
tp1217
a(S'm-tree'
p1218
g2
(g6
S'\x0fOMF\xda\xc7\xc9?'
p1219
tp1220
Rp1221
tp1222
a(S'el/m-2052'
p1223
g2
(g6
S'$\xad!\xcf6\xc5\xc9?'
p1224
tp1225
Rp1226
tp1227
a(S'crimefictioncanada'
p1228
g2
(g6
S'\xa0\xd5R$\x7f\xc4\xc9?'
p1229
tp1230
Rp1231
tp1232
a(S'photothermal optical microscopy'
p1233
g2
(g6
S'\xad\x93G,B\xb9\xc9?'
p1234
tp1235
Rp1236
tp1237
a(S'on the content and object of presentations'
p1238
g2
(g6
S'*\xba\xb4O\xd9\xb3\xc9?'
p1239
tp1240
Rp1241
tp1242
a(S'handheld isothermal silver standard sensor'
p1243
g2
(g6
S'E\xd9\xd1\r(\xb3\xc9?'
p1244
tp1245
Rp1246
tp1247
a(S'multidark'
p1248
g2
(g6
S'\x9f\xf3uX\x11\xb3\xc9?'
p1249
tp1250
Rp1251
tp1252
a(S'3d reconstruction'
p1253
g2
(g6
S'n\x0b\x03\xd9\x10\xb1\xc9?'
p1254
tp1255
Rp1256
tp1257
a(S'image segmentation'
p1258
g2
(g6
S'%\xf9\xb6c3\xa3\xc9?'
p1259
tp1260
Rp1261
tp1262
a(S'fragmented object'
p1263
g2
(g6
S'&I\xf3g\xca\x90\xc9?'
p1264
tp1265
Rp1266
tp1267
a(S'object-oriented software construction'
p1268
g2
(g6
S'\xcb\xbd\x13\xb1f\x8f\xc9?'
p1269
tp1270
Rp1271
tp1272
a(S'automated x-ray inspection'
p1273
g2
(g6
S'N[F\xdf}\x8c\xc9?'
p1274
tp1275
Rp1276
tp1277
a(S'cajo project'
p1278
g2
(g6
S'\xfc\xb7\xb2\xe8u\x87\xc9?'
p1279
tp1280
Rp1281
tp1282
a(S'spherical objects (band)'
p1283
g2
(g6
S'@G?F\xbe\x83\xc9?'
p1284
tp1285
Rp1286
tp1287
a(S'the shape of time'
p1288
g2
(g6
S'\xdeR\xea\xae\x10j\xc9?'
p1289
tp1290
Rp1291
tp1292
a(S'object relations theory'
p1293
g2
(g6
S'y\x88"E\xeff\xc9?'
p1294
tp1295
Rp1296
tp1297
a(S'french drop'
p1298
g2
(g6
S'f\xff]\xa8\xed^\xc9?'
p1299
tp1300
Rp1301
tp1302
a(S'one-class classification'
p1303
g2
(g6
S',\xc37@\xd9V\xc9?'
p1304
tp1305
Rp1306
tp1307
a(S'image editing'
p1308
g2
(g6
S'\xf2JW\x18\xf2R\xc9?'
p1309
tp1310
Rp1311
tp1312
a(S'smart camera'
p1313
g2
(g6
S't\xbeN\x18\xc6P\xc9?'
p1314
tp1315
Rp1316
tp1317
a(S'stephen arnold (scientist)'
p1318
g2
(g6
S'\xea\x92\xdd\xfb\x1cO\xc9?'
p1319
tp1320
Rp1321
tp1322
a(S'heterodyne detection'
p1323
g2
(g6
S'\x1a\xb8\x17G\xfa@\xc9?'
p1324
tp1325
Rp1326
tp1327
a(S'geospy'
p1328
g2
(g6
S"'\xcf\x06S\xc1=\xc9?"
p1329
tp1330
Rp1331
tp1332
a(S'non intrusive appliance monitoring'
p1333
g2
(g6
S'\xba\xf9\xc9\xccD=\xc9?'
p1334
tp1335
Rp1336
tp1337
a(S'fibrant object'
p1338
g2
(g6
S'p\xf6aB\xaf;\xc9?'
p1339
tp1340
Rp1341
tp1342
a(S'fundamental pattern'
p1343
g2
(g6
S"\xff&\xd5\x0e':\xc9?"
p1344
tp1345
Rp1346
tp1347
a(S'rogeting'
p1348
g2
(g6
S'\x99$\xbbb\xa24\xc9?'
p1349
tp1350
Rp1351
tp1352
a(S'object lessons'
p1353
g2
(g6
S'\x1f\x074\r\xfc-\xc9?'
p1354
tp1355
Rp1356
tp1357
a(S'objectdatabase++'
p1358
g2
(g6
S'\x8c\xe1\xce\xe1\xd5*\xc9?'
p1359
tp1360
Rp1361
tp1362
a(S'rigid motion segmentation'
p1363
g2
(g6
S'\x9dJ\xc3\xedc(\xc9?'
p1364
tp1365
Rp1366
tp1367
a(S'metaobject'
p1368
g2
(g6
S'\xa5\x98@s\x06%\xc9?'
p1369
tp1370
Rp1371
tp1372
a(S'associative visual agnosia'
p1373
g2
(g6
S'r\x1f#\xed\x1b\x1e\xc9?'
p1374
tp1375
Rp1376
tp1377
a(S'virtual class'
p1378
g2
(g6
S'\xd9\x0c9=k\x16\xc9?'
p1379
tp1380
Rp1381
tp1382
a(S'buccal object rule'
p1383
g2
(g6
S'\x9a\x15\x91\x07@\x14\xc9?'
p1384
tp1385
Rp1386
tp1387
a(S'fast approximate anti-aliasing'
p1388
g2
(g6
S'\xca\xbe\xf1]\xf2\x12\xc9?'
p1389
tp1390
Rp1391
tp1392
a(S'first-class citizen'
p1393
g2
(g6
S'T\x8a\x08\xd0\xa8\x11\xc9?'
p1394
tp1395
Rp1396
tp1397
a(S'actionshot'
p1398
g2
(g6
S'\xfeF\xac@J\x0c\xc9?'
p1399
tp1400
Rp1401
tp1402
a(S'field-programmable object array'
p1403
g2
(g6
S'\x92k\x8b\x8b\x7f\x08\xc9?'
p1404
tp1405
Rp1406
tp1407
a(S'oriented fast and rotated brief'
p1408
g2
(g6
S'\x8f\xb9\x0c\xd4a\x08\xc9?'
p1409
tp1410
Rp1411
tp1412
a(S'manasikara'
p1413
g2
(g6
S'=h\xa0\xa9\x7f\x07\xc9?'
p1414
tp1415
Rp1416
tp1417
a(S'data item'
p1418
g2
(g6
S'\xce.;Y\xf8\xf9\xc8?'
p1419
tp1420
Rp1421
tp1422
a(S'documentation of cultural property'
p1423
g2
(g6
S'\xd9\x11\r\xaf\xc0\xf5\xc8?'
p1424
tp1425
Rp1426
tp1427
a(S'2011 kw48'
p1428
g2
(g6
S'\x8a\xa8Z\xeb\xa1\xf5\xc8?'
p1429
tp1430
Rp1431
tp1432
a(S'solid image'
p1433
g2
(g6
S'\xde\x13q\xb3\x0c\xf2\xc8?'
p1434
tp1435
Rp1436
tp1437
a(S'object file'
p1438
g2
(g6
S'\xee\xb9G\xa7\xcd\xf0\xc8?'
p1439
tp1440
Rp1441
tp1442
a(S'community search'
p1443
g2
(g6
S'6\xe9\xdc\x94\xae\xeb\xc8?'
p1444
tp1445
Rp1446
tp1447
a(S'object definition language'
p1448
g2
(g6
S'\xe1^U\xbdL\xe8\xc8?'
p1449
tp1450
Rp1451
tp1452
a(S'glossary of machine vision'
p1453
g2
(g6
S'\xa9\x16:F\xd6\xdd\xc8?'
p1454
tp1455
Rp1456
tp1457
a(S'scale-invariant feature transform'
p1458
g2
(g6
S'\xe3\xe3o\x11}\xda\xc8?'
p1459
tp1460
Rp1461
tp1462
a(S'runtime callable wrapper'
p1463
g2
(g6
S"'\r\x03\x01\xda\xd1\xc8?"
p1464
tp1465
Rp1466
tp1467
a(S'object language'
p1468
g2
(g6
S'\xc0\\z\xc3\x90\xca\xc8?'
p1469
tp1470
Rp1471
tp1472
a(S'class'
p1473
g2
(g6
S'9~Md\xf9\xc7\xc8?'
p1474
tp1475
Rp1476
tp1477
a(S'connected-component labeling'
p1478
g2
(g6
S'{2q7<\xbd\xc8?'
p1479
tp1480
Rp1481
tp1482
a(S'indevr'
p1483
g2
(g6
S'\x9a\xc3&\xe1\xba\xb6\xc8?'
p1484
tp1485
Rp1486
tp1487
a(S'track-before-detect'
p1488
g2
(g6
S'\xe0\x89m\xb6~\xad\xc8?'
p1489
tp1490
Rp1491
tp1492
a(S'anne treisman'
p1493
g2
(g6
S'\x15\x9e\xff\x94\x93\xaa\xc8?'
p1494
tp1495
Rp1496
tp1497
a(S'amperometry'
p1498
g2
(g6
S'T\x9dIQ\xa4\xa1\xc8?'
p1499
tp1500
Rp1501
tp1502
a(S'hyperfun'
p1503
g2
(g6
S'f\xfe(o\xc4\xa0\xc8?'
p1504
tp1505
Rp1506
tp1507
a(S'binary image'
p1508
g2
(g6
S'\xe2\xf5$\xf2\xd6\x9c\xc8?'
p1509
tp1510
Rp1511
tp1512
a.