(lp0
(S'open mind common sense'
p1
cnumpy.core.multiarray
scalar
p2
(cnumpy
dtype
p3
(S'f8'
p4
I0
I1
tp5
Rp6
(I3
S'<'
p7
NNNI-1
I-1
I0
tp8
bS'\xfd\xff\xff\xff\xff\xff\xef?'
p9
tp10
Rp11
tp12
a(S'knowledge collection from volunteer contributors'
p13
g2
(g6
S',\xe0\x02\x02\x00\x0f\xda?'
p14
tp15
Rp16
tp17
a(S'catherine havasi'
p18
g2
(g6
S'\x0f\x9cb\xc3T\xf5\xd9?'
p19
tp20
Rp21
tp22
a(S'cyc'
p23
g2
(g6
S'\x9c\xbah|*\x17\xd9?'
p24
tp25
Rp26
tp27
a(S'outline of knowledge'
p28
g2
(g6
S'6\xa6\xe0\x7f\xa4\xf3\xd5?'
p29
tp30
Rp31
tp32
a(S'luminoso'
p33
g2
(g6
S'1\xae\xa3\x19y\xbf\xd5?'
p34
tp35
Rp36
tp37
a(S'knowledge base'
p38
g2
(g6
S'5;\x0c\xb5\xbc\x82\xd5?'
p39
tp40
Rp41
tp42
a(S'knowledge representation and reasoning'
p43
g2
(g6
S'\xea\xbcqn\xb6w\xd5?'
p44
tp45
Rp46
tp47
a(S'knowledge'
p48
g2
(g6
S'\x19\x07\xa0i\x14_\xd4?'
p49
tp50
Rp51
tp52
a(S'common knowledge'
p53
g2
(g6
S'\x7f\x9c\xd5\xc3\x03;\xd4?'
p54
tp55
Rp56
tp57
a(S'knowledge worker'
p58
g2
(g6
S'3\xab\x0f\x1a;$\xd4?'
p59
tp60
Rp61
tp62
a(S'fle3'
p63
g2
(g6
S'\xbd1-\xa8B\x05\xd4?'
p64
tp65
Rp66
tp67
a(S'knowledge society'
p68
g2
(g6
S'\x01``\xef\x95\xee\xd3?'
p69
tp70
Rp71
tp72
a(S'knowledge management'
p73
g2
(g6
S'dt\xb3DQ\xcb\xd3?'
p74
tp75
Rp76
tp77
a(S'knowledge modeling'
p78
g2
(g6
S'\x9d\x81VZ1\x91\xd3?'
p79
tp80
Rp81
tp82
a(S'open knowledge international'
p83
g2
(g6
S'\xde\x01\xd7?\xfb=\xd3?'
p84
tp85
Rp86
tp87
a(S'freebase'
p88
g2
(g6
S'\x96\xb5\x9b\x8b\xa6 \xd3?'
p89
tp90
Rp91
tp92
a(S'common sense (disambiguation)'
p93
g2
(g6
S'\xee\xad\x1fhG\x1e\xd3?'
p94
tp95
Rp96
tp97
a(S'knowledge-based systems'
p98
g2
(g6
S'\x92\xa0\xd0\xef.\x14\xd3?'
p99
tp100
Rp101
tp102
a(S'personal knowledge base'
p103
g2
(g6
S'D\x17>M3\x0c\xd3?'
p104
tp105
Rp106
tp107
a(S'knowledge building'
p108
g2
(g6
S'\xf1\xaa\xbf)\x8e\xe4\xd2?'
p109
tp110
Rp111
tp112
a(S'knowledge transfer'
p113
g2
(g6
S'\xb5\xbf\x99\xfa\xbd\xa7\xd2?'
p114
tp115
Rp116
tp117
a(S'descriptive knowledge'
p118
g2
(g6
S'\xf1\x1ekz\xf6`\xd2?'
p119
tp120
Rp121
tp122
a(S'personal knowledge management'
p123
g2
(g6
S'>\xd9};\xe2R\xd2?'
p124
tp125
Rp126
tp127
a(S'word-sense disambiguation'
p128
g2
(g6
S'\xe0lWE\x8a:\xd2?'
p129
tp130
Rp131
tp132
a(S'dikw pyramid'
p133
g2
(g6
S'\xf4w\xa1\xa6\xd4\xf3\xd1?'
p134
tp135
Rp136
tp137
a(S'knowledge market'
p138
g2
(g6
S'M|\xf4\xe2\x98\xe6\xd1?'
p139
tp140
Rp141
tp142
a(S'wordnet'
p143
g2
(g6
S'[Zr\xad\xb3\xe4\xd1?'
p144
tp145
Rp146
tp147
a(S'knowledge sharing'
p148
g2
(g6
S'\xf7M&<\x10\xe3\xd1?'
p149
tp150
Rp151
tp152
a(S'chief knowledge officer'
p153
g2
(g6
S'\x8c\xcc\x19\xdd\xab\xdf\xd1?'
p154
tp155
Rp156
tp157
a(S'outline of natural language processing'
p158
g2
(g6
S'OK\xc3#\x9d\xcd\xd1?'
p159
tp160
Rp161
tp162
a(S'knowledge by presence'
p163
g2
(g6
S'\x92\x1b_r\xa3\xa0\xd1?'
p164
tp165
Rp166
tp167
a(S'knowledge value chain'
p168
g2
(g6
S'{&\x89\x88\x98\x9f\xd1?'
p169
tp170
Rp171
tp172
a(S'commonsense knowledge (artificial intelligence)'
p173
g2
(g6
S'\x9e\xa7\xa5\xcei\x84\xd1?'
p174
tp175
Rp176
tp177
a(S'methods of obtaining knowledge'
p178
g2
(g6
S'\x15\xca\x1b\xb3Ei\xd1?'
p179
tp180
Rp181
tp182
a(S'knowledge building community'
p183
g2
(g6
S'}\x94Kk3d\xd1?'
p184
tp185
Rp186
tp187
a(S'knowledge entrepreneurship'
p188
g2
(g6
S'}\xf6+\x17MZ\xd1?'
p189
tp190
Rp191
tp192
a(S'knowledge organization (management)'
p193
g2
(g6
S'=5\x86v&0\xd1?'
p194
tp195
Rp196
tp197
a(S'knowledge integration'
p198
g2
(g6
S'\xb0\x01k|n!\xd1?'
p199
tp200
Rp201
tp202
a(S'list of knowledge management concepts'
p203
g2
(g6
S'\xca`\xc7t\xa0\x1f\xd1?'
p204
tp205
Rp206
tp207
a(S'general knowledge'
p208
g2
(g6
S'\xdb\xb5vs\xad\x16\xd1?'
p209
tp210
Rp211
tp212
a(S'knowledge divide'
p213
g2
(g6
S'\x16\xc5t\xd1\x8c\x10\xd1?'
p214
tp215
Rp216
tp217
a(S'organizational learning'
p218
g2
(g6
S'\xf1\xb6\x8d\x9e\x90\x0b\xd1?'
p219
tp220
Rp221
tp222
a(S'knowledge forum'
p223
g2
(g6
S'\xef\xd4`\xf8\xb8\xe9\xd0?'
p224
tp225
Rp226
tp227
a(S'open knowledge'
p228
g2
(g6
S'\x1f\xf7N\xd2<\xe8\xd0?'
p229
tp230
Rp231
tp232
a(S'knowledge community'
p233
g2
(g6
S'\x1d\x96,\x89I\xe7\xd0?'
p234
tp235
Rp236
tp237
a(S'knowledge economy'
p238
g2
(g6
S'\x9d\xd5\xa8q[\xe2\xd0?'
p239
tp240
Rp241
tp242
a(S'frank van harmelen'
p243
g2
(g6
S'\xa1R\xecN\x0c\xcf\xd0?'
p244
tp245
Rp246
tp247
a(S'high performance knowledge bases'
p248
g2
(g6
S'")\\"t\xc4\xd0?'
p249
tp250
Rp251
tp252
a(S'knowledge ecosystem'
p253
g2
(g6
S'\xa3\xa6+\x9d\xa9\xbd\xd0?'
p254
tp255
Rp256
tp257
a(S'body of knowledge'
p258
g2
(g6
S'4\x06\xed\xf76\xb9\xd0?'
p259
tp260
Rp261
tp262
a(S'list of artificial intelligence projects'
p263
g2
(g6
S'\xbc\x1fz\x8d\xf5\xad\xd0?'
p264
tp265
Rp266
tp267
a(S'classora'
p268
g2
(g6
S'\x04_\xcb+\xaf\xad\xd0?'
p269
tp270
Rp271
tp272
a(S'personal knowledge networking'
p273
g2
(g6
S'.c\x99\xf8\xd2\x9c\xd0?'
p274
tp275
Rp276
tp277
a(S'social knowledge management'
p278
g2
(g6
S'\\~I\xc8D\x92\xd0?'
p279
tp280
Rp281
tp282
a(S'mit media lab'
p283
g2
(g6
S'z\xa1\x94\x9as\x8b\xd0?'
p284
tp285
Rp286
tp287
a(S'open knowledge base connectivity'
p288
g2
(g6
S"cZH'\xe3\x84\xd0?"
p289
tp290
Rp291
tp292
a(S'domain knowledge'
p293
g2
(g6
S'jH\xd2mki\xd0?'
p294
tp295
Rp296
tp297
a(S'knowledge environment'
p298
g2
(g6
S'\xea\rg\xb2\x97a\xd0?'
p299
tp300
Rp301
tp302
a(S'free knowledge institute'
p303
g2
(g6
S'H\xb1/\xd0\x95a\xd0?'
p304
tp305
Rp306
tp307
a(S'knowledge engine'
p308
g2
(g6
S'\x98\x11\xc36\xccB\xd0?'
p309
tp310
Rp311
tp312
a(S'knowledge space'
p313
g2
(g6
S'\xe6\xc0\xec@VA\xd0?'
p314
tp315
Rp316
tp317
a(S'london knowledge lab'
p318
g2
(g6
S'\x0c5\xc4|\xa7@\xd0?'
p319
tp320
Rp321
tp322
a(S'semantic research'
p323
g2
(g6
S'0\xbb\x18\xb8\xb28\xd0?'
p324
tp325
Rp326
tp327
a(S'knowledge graph'
p328
g2
(g6
S';\xa0Qa\xd5$\xd0?'
p329
tp330
Rp331
tp332
a(S'wysiwym (interaction technique)'
p333
g2
(g6
S'\x92y\xdf\xab\x87\x1e\xd0?'
p334
tp335
Rp336
tp337
a(S'commonsense reasoning'
p338
g2
(g6
S'Y\x85\x9b\x17\xc1\r\xd0?'
p339
tp340
Rp341
tp342
a(S'd3web'
p343
g2
(g6
S'\x1d\xff=.\x1e\x04\xd0?'
p344
tp345
Rp346
tp347
a(S'multinet'
p348
g2
(g6
S'*\x8e\x8a\xed}\x02\xd0?'
p349
tp350
Rp351
tp352
a(S'knowledge broker'
p353
g2
(g6
S'\xcf\xf59\xff\xb2\xea\xcf?'
p354
tp355
Rp356
tp357
a(S'semantic network'
p358
g2
(g6
S'Oq\xccP\x99\xd9\xcf?'
p359
tp360
Rp361
tp362
a(S'organizational memory'
p363
g2
(g6
S'\xa0\xe1\xef\xc5\x1d\xc9\xcf?'
p364
tp365
Rp366
tp367
a(S'knowledge value'
p368
g2
(g6
S'0\xad\x19\xa3P\xa3\xcf?'
p369
tp370
Rp371
tp372
a(S'common sense media'
p373
g2
(g6
S'\xf1\xeb\xdf\xccam\xcf?'
p374
tp375
Rp376
tp377
a(S'semantic web'
p378
g2
(g6
S'\xd0*\xce\x16\xf7c\xcf?'
p379
tp380
Rp381
tp382
a(S'universal networking language'
p383
g2
(g6
S'P\x08@\xf9\xbf/\xcf?'
p384
tp385
Rp386
tp387
a(S'knowledgebase manager pro'
p388
g2
(g6
S'|\x983R\x82\x1f\xcf?'
p389
tp390
Rp391
tp392
a(S'air force knowledge now'
p393
g2
(g6
S'\x05mvo\xa8\x07\xcf?'
p394
tp395
Rp396
tp397
a(S'common sense'
p398
g2
(g6
S'p"\xa2$\xec\xfd\xce?'
p399
tp400
Rp401
tp402
a(S'thoughttreasure'
p403
g2
(g6
S'@\x1e\xa2=t\xd1\xce?'
p404
tp405
Rp406
tp407
a(S'knowledge web'
p408
g2
(g6
S'\xff\x90\xee_D\xbd\xce?'
p409
tp410
Rp411
tp412
a(S'machine learning'
p413
g2
(g6
S'V\xf3\xeb}\x08\xb8\xce?'
p414
tp415
Rp416
tp417
a(S'design knowledge'
p418
g2
(g6
S'\x91\xc3\xd6\x8az\xb2\xce?'
p419
tp420
Rp421
tp422
a(S'mutual knowledge (logic)'
p423
g2
(g6
S'\xd5\xb8\xad\xc9\\\xab\xce?'
p424
tp425
Rp426
tp427
a(S'common knowledge (logic)'
p428
g2
(g6
S'j"\x1c\xda\xf5\xa3\xce?'
p429
tp430
Rp431
tp432
a(S'profium'
p433
g2
(g6
S'S\x8e\x0e\xf1\xa8\x97\xce?'
p434
tp435
Rp436
tp437
a(S'customer knowledge'
p438
g2
(g6
S'\xe1\xc4vj\x07u\xce?'
p439
tp440
Rp441
tp442
a(S'the knowledge (disambiguation)'
p443
g2
(g6
S'd@\xb7\xee p\xce?'
p444
tp445
Rp446
tp447
a(S'boris katz'
p448
g2
(g6
S'\x91_\xa5B\xf2g\xce?'
p449
tp450
Rp451
tp452
a(S'knowledge vault'
p453
g2
(g6
S'z-\'\x9f"f\xce?'
p454
tp455
Rp456
tp457
a(S'social web academy'
p458
g2
(g6
S'\x11\x02\x18\x88\x85c\xce?'
p459
tp460
Rp461
tp462
a(S'automatic acquisition of sense-tagged corpora'
p463
g2
(g6
S'\t&C\x07\xf3 \xce?'
p464
tp465
Rp466
tp467
a(S'social software in education'
p468
g2
(g6
S'H\xfbm\xfa\xe3\x1a\xce?'
p469
tp470
Rp471
tp472
a(S'explicit knowledge'
p473
g2
(g6
S'\x9d\x9ez\x88x\x06\xce?'
p474
tp475
Rp476
tp477
a(S'knowledge mobilization'
p478
g2
(g6
S'k[\xf47d\xf5\xcd?'
p479
tp480
Rp481
tp482
a(S'knowledge (disambiguation)'
p483
g2
(g6
S'~\xd7^GK\xe9\xcd?'
p484
tp485
Rp486
tp487
a(S'knowledge management software'
p488
g2
(g6
S'\x9e!~r\x13\xc9\xcd?'
p489
tp490
Rp491
tp492
a(S'connectivism'
p493
g2
(g6
S'E5\x18c\x91\xba\xcd?'
p494
tp495
Rp496
tp497
a(S'theory of knowledge (ib course)'
p498
g2
(g6
S'\xda\x82\xf5\xb2\xe8\xb0\xcd?'
p499
tp500
Rp501
tp502
a(S'learning theory (education)'
p503
g2
(g6
S'\xd4t\x7f\xf4\x80i\xcd?'
p504
tp505
Rp506
tp507
a(S'vidya (knowledge)'
p508
g2
(g6
S'\xb3\xc5\xc36\x1a_\xcd?'
p509
tp510
Rp511
tp512
a(S'ontowiki'
p513
g2
(g6
S'UE\xc1\xaf\x9c^\xcd?'
p514
tp515
Rp516
tp517
a(S'outline of databases'
p518
g2
(g6
S'p\xfe\x13\x9d\xb2H\xcd?'
p519
tp520
Rp521
tp522
a(S'dispersed knowledge'
p523
g2
(g6
S'\tE$&\xacD\xcd?'
p524
tp525
Rp526
tp527
a(S'natural language user interface'
p528
g2
(g6
S'\xf9\x9c\x13\xf3\xbd;\xcd?'
p529
tp530
Rp531
tp532
a(S'lia-ufscar'
p533
g2
(g6
S'AED\xe45/\xcd?'
p534
tp535
Rp536
tp537
a(S'software mining'
p538
g2
(g6
S'R\x05\xe0w\x0b%\xcd?'
p539
tp540
Rp541
tp542
a(S'mindpixel'
p543
g2
(g6
S'KN\x96&1\t\xcd?'
p544
tp545
Rp546
tp547
a(S'natural language understanding'
p548
g2
(g6
S'\xde\xa9\x8a\x9d4\x01\xcd?'
p549
tp550
Rp551
tp552
a(S'outline of open educational resources'
p553
g2
(g6
S'\xde\xb1\xb3\x83\x16\xf4\xcc?'
p554
tp555
Rp556
tp557
a(S'procedural knowledge'
p558
g2
(g6
S'M\xc2\xbbm\xe2\xf3\xcc?'
p559
tp560
Rp561
tp562
a(S'second-language acquisition classroom research'
p563
g2
(g6
S'\xeedE\xff\xd1\xda\xcc?'
p564
tp565
Rp566
tp567
a(S'inert knowledge'
p568
g2
(g6
S'\xbcV\xad\x888\xae\xcc?'
p569
tp570
Rp571
tp572
a(S'poolparty semantic suite'
p573
g2
(g6
S'\x9f\xa5\xda\xe1\x02\xa5\xcc?'
p574
tp575
Rp576
tp577
a(S'knowledge commons'
p578
g2
(g6
S'^\x05\x7f\xbc\xa0\x82\xcc?'
p579
tp580
Rp581
tp582
a(S'evi (software)'
p583
g2
(g6
S'!W\xe0\x17\x85\x80\xcc?'
p584
tp585
Rp586
tp587
a(S'international society for knowledge organization'
p588
g2
(g6
S'\xd9*\x97\x14\xfaU\xcc?'
p589
tp590
Rp591
tp592
a(S'knowledge level'
p593
g2
(g6
S'\x87%\xd5q\xe7I\xcc?'
p594
tp595
Rp596
tp597
a(S'sense (disambiguation)'
p598
g2
(g6
S'\x8e\x95\xe6\xb7\x03:\xcc?'
p599
tp600
Rp601
tp602
a(S'timeline of artificial intelligence'
p603
g2
(g6
S'\xc6\xa6\xf1sH9\xcc?'
p604
tp605
Rp606
tp607
a(S'sense data'
p608
g2
(g6
S'\xbb\xaf\xd2}\xd77\xcc?'
p609
tp610
Rp611
tp612
a(S'vipassan\xc4\x81-\xc3\xb1\xc4\x81\xe1\xb9\x87a'
p613
g2
(g6
S'\xbd\x15\xf5Fg-\xcc?'
p614
tp615
Rp616
tp617
a(S'canadian it body of knowledge'
p618
g2
(g6
S'\x8d\xa0{*\n%\xcc?'
p619
tp620
Rp621
tp622
a(S'naive semantics'
p623
g2
(g6
S'],\xe6Ck\xd8\xcb?'
p624
tp625
Rp626
tp627
a(S'epistemology'
p628
g2
(g6
S'\x04^\xdb\r\x92\xbe\xcb?'
p629
tp630
Rp631
tp632
a(S'list of free and open-source software packages'
p633
g2
(g6
S"\xba'cw\xce\xbb\xcb?"
p634
tp635
Rp636
tp637
a(S'knowledge based community sharing system'
p638
g2
(g6
S'|\x19O\x17J\x9e\xcb?'
p639
tp640
Rp641
tp642
a(S'microtraining'
p643
g2
(g6
S'\xcf\xa8\xca<\xfe\x92\xcb?'
p644
tp645
Rp646
tp647
a(S'encapsulated knowledge'
p648
g2
(g6
S'\xa6\x95\x9bD#\x90\xcb?'
p649
tp650
Rp651
tp652
a(S'interface position'
p653
g2
(g6
S'%H\xc4\xcc\xe6\x8d\xcb?'
p654
tp655
Rp656
tp657
a(S'concept map'
p658
g2
(g6
S'\xd1C\x9e\x81eo\xcb?'
p659
tp660
Rp661
tp662
a(S'simple knowledge organization system'
p663
g2
(g6
S'\xff\xe1\x06J\xce[\xcb?'
p664
tp665
Rp666
tp667
a(S'semantic gap'
p668
g2
(g6
S'z\n-C\xc6N\xcb?'
p669
tp670
Rp671
tp672
a(S'computer-supported collaborative learning'
p673
g2
(g6
S'{<.^\x838\xcb?'
p674
tp675
Rp676
tp677
a(S'clusterpoint'
p678
g2
(g6
S'2\x8b\xa6\xfd74\xcb?'
p679
tp680
Rp681
tp682
a(S'montylingua'
p683
g2
(g6
S'v\xd1<\xcaM/\xcb?'
p684
tp685
Rp686
tp687
a(S'history of virtual learning environments'
p688
g2
(g6
S'.\xf0\xb4R}-\xcb?'
p689
tp690
Rp691
tp692
a(S'marlene scardamalia'
p693
g2
(g6
S'\xa1\x87\x08\x7f\x12-\xcb?'
p694
tp695
Rp696
tp697
a(S'computational knowledge economy'
p698
g2
(g6
S'\xe7n\xd6&\x8a\x1b\xcb?'
p699
tp700
Rp701
tp702
a(S'seymour papert'
p703
g2
(g6
S'\xaf\x90\x04M%\x1a\xcb?'
p704
tp705
Rp706
tp707
a(S'media lab (disambiguation)'
p708
g2
(g6
S'\xddo6ir\r\xcb?'
p709
tp710
Rp711
tp712
a(S'anuvyavasaya'
p713
g2
(g6
S'\x89~\x9a\xec\xd1\x03\xcb?'
p714
tp715
Rp716
tp717
a(S'traditional knowledge'
p718
g2
(g6
S'\x04Xe\xad\xc7\xf3\xca?'
p719
tp720
Rp721
tp722
a(S'knowledge enterprise'
p723
g2
(g6
S'`n\xa9\xed\x02\xf3\xca?'
p724
tp725
Rp726
tp727
a(S'gnowsys'
p728
g2
(g6
S'd\xa7\xf5p\xde\xf1\xca?'
p729
tp730
Rp731
tp732
a(S'ubiquitous knowledge processing lab'
p733
g2
(g6
S'\xc1bw\x1b\xaf\xd6\xca?'
p734
tp735
Rp736
tp737
a(S'knowledge gap hypothesis'
p738
g2
(g6
S'\xc6\x0b\xd1\xd5+\xd2\xca?'
p739
tp740
Rp741
tp742
a(S'tacit knowledge'
p743
g2
(g6
S'\x99\xe9\xc3\x83\x9d\xd0\xca?'
p744
tp745
Rp746
tp747
a(S'history of natural language processing'
p748
g2
(g6
S'\xfb\x80\x91I\x02\xd0\xca?'
p749
tp750
Rp751
tp752
a(S'knowledge acquisition and documentation structuring'
p753
g2
(g6
S'wc\x06\xce\x01\xbb\xca?'
p754
tp755
Rp756
tp757
a(S'knowledge based software assistant'
p758
g2
(g6
S'\x037\xe4\xa0s\xab\xca?'
p759
tp760
Rp761
tp762
a(S'tatoeba'
p763
g2
(g6
S'W\xacP\xc2`\xa1\xca?'
p764
tp765
Rp766
tp767
a(S'wirearchy'
p768
g2
(g6
S'\x8eIb\x13\x9e\xa0\xca?'
p769
tp770
Rp771
tp772
a(S'lee shulman'
p773
g2
(g6
S'N\xf8/\xc8s\x93\xca?'
p774
tp775
Rp776
tp777
a(S'tribal knowledge'
p778
g2
(g6
S'\x18}\x9ce\xe3\x84\xca?'
p779
tp780
Rp781
tp782
a(S'knowledge-based theory of the firm'
p783
g2
(g6
S'\xbel~\xd9\xbb\x84\xca?'
p784
tp785
Rp786
tp787
a(S'database'
p788
g2
(g6
S'iR\x88Q\xbbf\xca?'
p789
tp790
Rp791
tp792
a(S'proof of knowledge'
p793
g2
(g6
S'\xfbf\xf4$\x14R\xca?'
p794
tp795
Rp796
tp797
a(S'knowledge machine'
p798
g2
(g6
S'C\xd1$+yB\xca?'
p799
tp800
Rp801
tp802
a(S'knowledge crystal'
p803
g2
(g6
S'\xf7J[]\xd3@\xca?'
p804
tp805
Rp806
tp807
a(S'lev manovich'
p808
g2
(g6
S't\x90\xe3\x96\x179\xca?'
p809
tp810
Rp811
tp812
a(S'knowledge assessment methodology'
p813
g2
(g6
S'!\x10E\xb0y6\xca?'
p814
tp815
Rp816
tp817
a(S'network-centric organization'
p818
g2
(g6
S'\xfe\xd0\xd2L\xa25\xca?'
p819
tp820
Rp821
tp822
a(S'artificial intelligence'
p823
g2
(g6
S'E\xb6\x04\x01_/\xca?'
p824
tp825
Rp826
tp827
a(S'sixthsense'
p828
g2
(g6
S'g\x1e\x98\x07D-\xca?'
p829
tp830
Rp831
tp832
a(S'local knowledge problem'
p833
g2
(g6
S'\x04\xbf# \xe3(\xca?'
p834
tp835
Rp836
tp837
a(S'gellish'
p838
g2
(g6
S'\xb7 4\xc4+$\xca?'
p839
tp840
Rp841
tp842
a(S'jnana'
p843
g2
(g6
S'\x84M\x1b\xb6\xea \xca?'
p844
tp845
Rp846
tp847
a(S'pablo mach\xc3\xb3n'
p848
g2
(g6
S'O0\xd2\xc5\xdc \xca?'
p849
tp850
Rp851
tp852
a(S'knowledge network'
p853
g2
(g6
S'\x9b\xe2\x0e\xd0%\x1c\xca?'
p854
tp855
Rp856
tp857
a(S'stanford learning lab'
p858
g2
(g6
S'`\xb8\x0e\xaao\x18\xca?'
p859
tp860
Rp861
tp862
a(S'software heritage'
p863
g2
(g6
S'\x94\xfe\x7f\xb3t\x0f\xca?'
p864
tp865
Rp866
tp867
a(S'babelnet'
p868
g2
(g6
S'\xe9\xfdC\xa2\xf7\xf8\xc9?'
p869
tp870
Rp871
tp872
a(S'history of virtual learning environments in the 1990s'
p873
g2
(g6
S'r(\x00M\xdb\xf7\xc9?'
p874
tp875
Rp876
tp877
a(S'confidence-based learning'
p878
g2
(g6
S"\x18\xfa\xce\x9c'\xf4\xc9?"
p879
tp880
Rp881
tp882
a(S'social semantic web'
p883
g2
(g6
S'\xed\xe3\x18\x1d\xca\xef\xc9?'
p884
tp885
Rp886
tp887
a(S'dynamic knowledge repository'
p888
g2
(g6
S')\xf2\x14\xdd\xaf\xef\xc9?'
p889
tp890
Rp891
tp892
a(S'mit opencourseware'
p893
g2
(g6
S'k\xa2\xd3N\xa7\xee\xc9?'
p894
tp895
Rp896
tp897
a(S'openurl knowledge base'
p898
g2
(g6
S'@\xab\xa7w\x9d\xee\xc9?'
p899
tp900
Rp901
tp902
a(S'zope'
p903
g2
(g6
S'\x8cF\xcb\x99\xe7\xed\xc9?'
p904
tp905
Rp906
tp907
a(S'metacognition'
p908
g2
(g6
S'w\x0b3y\xd0\xe9\xc9?'
p909
tp910
Rp911
tp912
a(S'knowledge query and manipulation language'
p913
g2
(g6
S'PZ\xf8\xdd\x83\xe2\xc9?'
p914
tp915
Rp916
tp917
a(S'mind'
p918
g2
(g6
S'\xa3\xee\xeb\xf1\xc2\xd2\xc9?'
p919
tp920
Rp921
tp922
a(S'seci model of knowledge dimensions'
p923
g2
(g6
S'/\xe8\xfa&i\xd0\xc9?'
p924
tp925
Rp926
tp927
a(S'social software'
p928
g2
(g6
S'\x1a\xc6\xd8\x90/\xcf\xc9?'
p929
tp930
Rp931
tp932
a(S'glossary of education terms (a\xe2\x80\x93c)'
p933
g2
(g6
S'\xa0w\xdc\x04\xe3\xc8\xc9?'
p934
tp935
Rp936
tp937
a(S'qitera'
p938
g2
(g6
S'\xc8\xeey\x9c~\xa3\xc9?'
p939
tp940
Rp941
tp942
a(S'software engineering body of knowledge'
p943
g2
(g6
S'\xca\xa8\x1e\xdf\x85\xa1\xc9?'
p944
tp945
Rp946
tp947
a(S'uby'
p948
g2
(g6
S'\xee\xbf\xcd\x13I\x9b\xc9?'
p949
tp950
Rp951
tp952
a(S'jain epistemology'
p953
g2
(g6
S'\xf9\xd6\xcc\x88$\x91\xc9?'
p954
tp955
Rp956
tp957
a(S'ontotext'
p958
g2
(g6
S'\xb7qd\xc1\xf7\x8d\xc9?'
p959
tp960
Rp961
tp962
a(S'multi-competence'
p963
g2
(g6
S'_JP\x02C\x82\xc9?'
p964
tp965
Rp966
tp967
a(S'carl bereiter'
p968
g2
(g6
S'\xab*\x8f\x823\x7f\xc9?'
p969
tp970
Rp971
tp972
a(S'knowledge engineering'
p973
g2
(g6
S'a\xa2\xd0\xa0+\x7f\xc9?'
p974
tp975
Rp976
tp977
a(S'openinsight'
p978
g2
(g6
S',\x06cu%g\xc9?'
p979
tp980
Rp981
tp982
a(S'knowledge retrieval'
p983
g2
(g6
S'\xd3\xf0\xa6.\xc2a\xc9?'
p984
tp985
Rp986
tp987
a(S'open educational resources'
p988
g2
(g6
S'\xdb\x911\r\xe6\\\xc9?'
p989
tp990
Rp991
tp992
a(S'language mooc'
p993
g2
(g6
S'\x8bX\x06\x0bOX\xc9?'
p994
tp995
Rp996
tp997
a(S'glossary of education terms (d\xe2\x80\x93f)'
p998
g2
(g6
S'\xc8\xd2\x7fI<L\xc9?'
p999
tp1000
Rp1001
tp1002
a(S'new knowledge worker of korea'
p1003
g2
(g6
S'.\xa8\x90\xab\xf9F\xc9?'
p1004
tp1005
Rp1006
tp1007
a(S'knowledge engineering and machine learning group'
p1008
g2
(g6
S'\xd1p\xd6\x1b\xeeE\xc9?'
p1009
tp1010
Rp1011
tp1012
a(S'list of text mining software'
p1013
g2
(g6
S'8\xcc\x12)\xb3B\xc9?'
p1014
tp1015
Rp1016
tp1017
a(S'semantic web service'
p1018
g2
(g6
S'\x01J\xa0\xad\x9cA\xc9?'
p1019
tp1020
Rp1021
tp1022
a(S'distributed knowledge'
p1023
g2
(g6
S'Z\xbc\x90\xd9o3\xc9?'
p1024
tp1025
Rp1026
tp1027
a(S'advice taker'
p1028
g2
(g6
S'\x04>\x81\xf6P*\xc9?'
p1029
tp1030
Rp1031
tp1032
a(S'germanet'
p1033
g2
(g6
S'2\xd3\x02b\xa6$\xc9?'
p1034
tp1035
Rp1036
tp1037
a(S'ripple-down rules'
p1038
g2
(g6
S'\xe3[9\xd8y\x0f\xc9?'
p1039
tp1040
Rp1041
tp1042
a(S'patricia alexander'
p1043
g2
(g6
S'\xfc oN\x04\x06\xc9?'
p1044
tp1045
Rp1046
tp1047
a(S'knowledge engineer'
p1048
g2
(g6
S'\xb3\xbcH\x02\xb9\x04\xc9?'
p1049
tp1050
Rp1051
tp1052
a(S'data stream mining'
p1053
g2
(g6
S'\x13\xc86\x835\xfe\xc8?'
p1054
tp1055
Rp1056
tp1057
a(S'knowledge utilization research center'
p1058
g2
(g6
S'\x97|\x87\x97\x96\xfd\xc8?'
p1059
tp1060
Rp1061
tp1062
a(S'meaningful learning'
p1063
g2
(g6
S'\xff\xbbv\x07\xb2\xde\xc8?'
p1064
tp1065
Rp1066
tp1067
a(S'social media language learning'
p1068
g2
(g6
S'\x9e\xb0\x82}\x9f\xd7\xc8?'
p1069
tp1070
Rp1071
tp1072
a(S'open-source software movement'
p1073
g2
(g6
S'\xa1\x11\xeb%\x8f\xd0\xc8?'
p1074
tp1075
Rp1076
tp1077
a(S'situated learning'
p1078
g2
(g6
S'K<\xd4\xf1L\xc9\xc8?'
p1079
tp1080
Rp1081
tp1082
a(S'natural language processing'
p1083
g2
(g6
S'\xdfX\x9a\x0f\x1e\xbb\xc8?'
p1084
tp1085
Rp1086
tp1087
a(S'knowledge-based engineering'
p1088
g2
(g6
S'\xe1\x05\x08\xde\xd6\xba\xc8?'
p1089
tp1090
Rp1091
tp1092
a(S'database application'
p1093
g2
(g6
S'\x12e&\xdb\xbc\xb5\xc8?'
p1094
tp1095
Rp1096
tp1097
a(S'open-source software development'
p1098
g2
(g6
S'\xecE\x86\x8b\x81\xae\xc8?'
p1099
tp1100
Rp1101
tp1102
a(S'frame language'
p1103
g2
(g6
S'er\x05Ub\x9f\xc8?'
p1104
tp1105
Rp1106
tp1107
a(S'amar gupta'
p1108
g2
(g6
S'G\xe0\xdb0e\x9c\xc8?'
p1109
tp1110
Rp1111
tp1112
a(S'database administrator'
p1113
g2
(g6
S'D\xf8\x0f\x91\x0c\x93\xc8?'
p1114
tp1115
Rp1116
tp1117
a(S'symbol level'
p1118
g2
(g6
S'\x00\x9b\xfe\x97\xee\x91\xc8?'
p1119
tp1120
Rp1121
tp1122
a(S'experiential knowledge'
p1123
g2
(g6
S'\xb1\xf4\xf8\x87\xdc\x91\xc8?'
p1124
tp1125
Rp1126
tp1127
a(S'educational technology'
p1128
g2
(g6
S'\xd7\xc7\x99\xa2\x8b\x8e\xc8?'
p1129
tp1130
Rp1131
tp1132
a(S'open business'
p1133
g2
(g6
S'\xb0|\xfc\xd4\xca\x89\xc8?'
p1134
tp1135
Rp1136
tp1137
a(S'dbpedia'
p1138
g2
(g6
S'+:"T\x0f\x89\xc8?'
p1139
tp1140
Rp1141
tp1142
a(S'semantic web stack'
p1143
g2
(g6
S'V\x10\xa0\xb7\xe0\x86\xc8?'
p1144
tp1145
Rp1146
tp1147
a(S'open mind'
p1148
g2
(g6
S'r?;\xd7!}\xc8?'
p1149
tp1150
Rp1151
tp1152
a(S'agris'
p1153
g2
(g6
S'\xacC\r\xacay\xc8?'
p1154
tp1155
Rp1156
tp1157
a(S'microlearning'
p1158
g2
(g6
S'J\x8cA\xcd;w\xc8?'
p1159
tp1160
Rp1161
tp1162
a(S'core knowledge uk'
p1163
g2
(g6
S'4\x96\x13\x9c\xf3s\xc8?'
p1164
tp1165
Rp1166
tp1167
a(S'software development'
p1168
g2
(g6
S'C`\xb9\xf3Jo\xc8?'
p1169
tp1170
Rp1171
tp1172
a(S'mondeca'
p1173
g2
(g6
S'\xce*\xbdv\xfem\xc8?'
p1174
tp1175
Rp1176
tp1177
a(S'i-space'
p1178
g2
(g6
S'\x8e.P\x94\x14l\xc8?'
p1179
tp1180
Rp1181
tp1182
a(S'henry lieberman'
p1183
g2
(g6
S'\xb4\x9d\xa6\xb59i\xc8?'
p1184
tp1185
Rp1186
tp1187
a(S'empirical research'
p1188
g2
(g6
S'\xae-O\xc8\xa3h\xc8?'
p1189
tp1190
Rp1191
tp1192
a(S'internet linguistics'
p1193
g2
(g6
S'\xdeF\x128h`\xc8?'
p1194
tp1195
Rp1196
tp1197
a(S'knowledge search'
p1198
g2
(g6
S"'\xf3%<xX\xc8?"
p1199
tp1200
Rp1201
tp1202
a(S'expert system'
p1203
g2
(g6
S'\xa2\xe9\x13n\x8bU\xc8?'
p1204
tp1205
Rp1206
tp1207
a(S'core knowledge foundation'
p1208
g2
(g6
S'\t*\xec\xba\xa3Q\xc8?'
p1209
tp1210
Rp1211
tp1212
a(S'yago (database)'
p1213
g2
(g6
S'\xe5)y\x87\xb6G\xc8?'
p1214
tp1215
Rp1216
tp1217
a(S'dlib'
p1218
g2
(g6
S'\xfabNz\xceA\xc8?'
p1219
tp1220
Rp1221
tp1222
a(S'knowledge level modeling'
p1223
g2
(g6
S'\x9c>\x9a\xab\xd7=\xc8?'
p1224
tp1225
Rp1226
tp1227
a(S'business models for open-source software'
p1228
g2
(g6
S'm\xc9\x81\xdf_=\xc8?'
p1229
tp1230
Rp1231
tp1232
a(S'open-source software'
p1233
g2
(g6
S'}M\x96\xcc\xa7;\xc8?'
p1234
tp1235
Rp1236
tp1237
a(S'open-source model'
p1238
g2
(g6
S'\x11\xb0\xfaH\xf39\xc8?'
p1239
tp1240
Rp1241
tp1242
a(S'information extraction'
p1243
g2
(g6
S'\x84\n\x94\xec\x944\xc8?'
p1244
tp1245
Rp1246
tp1247
a(S'smart-m3'
p1248
g2
(g6
S'\x06\xfc\xf2rQ*\xc8?'
p1249
tp1250
Rp1251
tp1252
a(S'sixth sense'
p1253
g2
(g6
S'3\xf3\xe2\xfcS)\xc8?'
p1254
tp1255
Rp1256
tp1257
a(S'ganeti web manager'
p1258
g2
(g6
S'\xd2\xcd\x8e\x04+!\xc8?'
p1259
tp1260
Rp1261
tp1262
a(S'opennn'
p1263
g2
(g6
S'd\x9d\xe6\xe2\xda\x18\xc8?'
p1264
tp1265
Rp1266
tp1267
a(S'learning'
p1268
g2
(g6
S'z\x8a\xf1\xd0\xf4\x14\xc8?'
p1269
tp1270
Rp1271
tp1272
a(S'web 2.0'
p1273
g2
(g6
S'x?g\r\xf9\x0c\xc8?'
p1274
tp1275
Rp1276
tp1277
a(S'list of constructed languages'
p1278
g2
(g6
S'\x1fBh\x9d\x16\t\xc8?'
p1279
tp1280
Rp1281
tp1282
a(S'everett hall'
p1283
g2
(g6
S'\x19y\x1e\xc2\x1e\x05\xc8?'
p1284
tp1285
Rp1286
tp1287
a(S'social computing'
p1288
g2
(g6
S')\xd455Z\xfa\xc7?'
p1289
tp1290
Rp1291
tp1292
a(S'learning record store'
p1293
g2
(g6
S'\x90\xafl4\xb4\xf9\xc7?'
p1294
tp1295
Rp1296
tp1297
a(S'semantic query'
p1298
g2
(g6
S'>A\x88\xed\xa1\xf3\xc7?'
p1299
tp1300
Rp1301
tp1302
a(S'access to knowledge movement'
p1303
g2
(g6
S'1\xa9\x98B\xf0\xec\xc7?'
p1304
tp1305
Rp1306
tp1307
a(S'metaknowledge'
p1308
g2
(g6
S'\xd7!\x98\x08\x81\xeb\xc7?'
p1309
tp1310
Rp1311
tp1312
a(S'open-source learning'
p1313
g2
(g6
S'\xc3k\xe1pt\xe9\xc7?'
p1314
tp1315
Rp1316
tp1317
a(S'tom gruber'
p1318
g2
(g6
S'\xae\xbc\xdbYy\xe1\xc7?'
p1319
tp1320
Rp1321
tp1322
a(S'informal learning'
p1323
g2
(g6
S'\x9f\xf3\x19D+\xd5\xc7?'
p1324
tp1325
Rp1326
tp1327
a(S'biosd'
p1328
g2
(g6
S'\xd8\xe2\xf9n<\xd4\xc7?'
p1329
tp1330
Rp1331
tp1332
a(S'mindcite'
p1333
g2
(g6
S'r!\xe9 R\xd2\xc7?'
p1334
tp1335
Rp1336
tp1337
a(S'dataviva'
p1338
g2
(g6
S'U\xdd\xeey:\xbe\xc7?'
p1339
tp1340
Rp1341
tp1342
a(S'student information processing board'
p1343
g2
(g6
S'\xb7\x03\xb4Q0\xbb\xc7?'
p1344
tp1345
Rp1346
tp1347
a(S'application software'
p1348
g2
(g6
S'\xde\xd6&#\x1c\xbb\xc7?'
p1349
tp1350
Rp1351
tp1352
a(S'gregoris mentzas'
p1353
g2
(g6
S'\xc8\x1fl8\x83\xb3\xc7?'
p1354
tp1355
Rp1356
tp1357
a(S'acedb'
p1358
g2
(g6
S'\xea\t\x9f\x1a$\xb0\xc7?'
p1359
tp1360
Rp1361
tp1362
a(S'spacy'
p1363
g2
(g6
S'\xf0\x1c4\xd2\xc2\xaf\xc7?'
p1364
tp1365
Rp1366
tp1367
a(S'computer-assisted language learning'
p1368
g2
(g6
S'\x01Z\xfd\xbaE\xad\xc7?'
p1369
tp1370
Rp1371
tp1372
a(S'mind map'
p1373
g2
(g6
S"\xc9'F\xf9\xb8\xab\xc7?"
p1374
tp1375
Rp1376
tp1377
a(S'teaching and learning research programme'
p1378
g2
(g6
S'\xbfac\xafM\xa0\xc7?'
p1379
tp1380
Rp1381
tp1382
a(S'glossary of artificial intelligence'
p1383
g2
(g6
S' J\xc3q\x9a\x9a\xc7?'
p1384
tp1385
Rp1386
tp1387
a(S'open knowledge initiative'
p1388
g2
(g6
S'\xba\xac.\xdc\xd3\x99\xc7?'
p1389
tp1390
Rp1391
tp1392
a(S'knowledge survey'
p1393
g2
(g6
S'\x0f\x88\x7fB<\x91\xc7?'
p1394
tp1395
Rp1396
tp1397
a(S'authentic learning'
p1398
g2
(g6
S'\x86,\xd7\x85s\x8d\xc7?'
p1399
tp1400
Rp1401
tp1402
a(S'semantic primes'
p1403
g2
(g6
S'm\xa2R\xfb0\x87\xc7?'
p1404
tp1405
Rp1406
tp1407
a(S'media lab helsinki'
p1408
g2
(g6
S'\x9eH\xd2M\xb8\x81\xc7?'
p1409
tp1410
Rp1411
tp1412
a(S'language education'
p1413
g2
(g6
S'\x8c\xee0\xe3/\x80\xc7?'
p1414
tp1415
Rp1416
tp1417
a(S'nuclear knowledge management'
p1418
g2
(g6
S'\x87\xe1\x87\xa3\r\x7f\xc7?'
p1419
tp1420
Rp1421
tp1422
a(S'sense networks'
p1423
g2
(g6
S':\r\x1f\x92@y\xc7?'
p1424
tp1425
Rp1426
tp1427
a(S'information coding classification'
p1428
g2
(g6
S'\xb0C\xee\x1cbv\xc7?'
p1429
tp1430
Rp1431
tp1432
a(S'd&d km-it'
p1433
g2
(g6
S'\xae\x14\xe5\x0f\xf5r\xc7?'
p1434
tp1435
Rp1436
tp1437
a(S'data mining'
p1438
g2
(g6
S'\xd9o\xab1\x88n\xc7?'
p1439
tp1440
Rp1441
tp1442
a(S'knowledge discovery metamodel'
p1443
g2
(g6
S'\t\x0cL*\xcek\xc7?'
p1444
tp1445
Rp1446
tp1447
a(S'society of mind'
p1448
g2
(g6
S'\xf4K\xba<\x8ed\xc7?'
p1449
tp1450
Rp1451
tp1452
a(S'social cognitive optimization'
p1453
g2
(g6
S'-9=Q\x15]\xc7?'
p1454
tp1455
Rp1456
tp1457
a(S'web mining'
p1458
g2
(g6
S'\x7f=\\\xb1VZ\xc7?'
p1459
tp1460
Rp1461
tp1462
a(S'community of practice'
p1463
g2
(g6
S'\xbe\x18\x9d\xdc\x05U\xc7?'
p1464
tp1465
Rp1466
tp1467
a(S'new knowledge farmer of korea'
p1468
g2
(g6
S'\x0c\x1e\xccc\xc2S\xc7?'
p1469
tp1470
Rp1471
tp1472
a(S'glossary of education terms (p\xe2\x80\x93r)'
p1473
g2
(g6
S'5\x02\xcd?\xbfR\xc7?'
p1474
tp1475
Rp1476
tp1477
a(S'heurist'
p1478
g2
(g6
S'\xf1\xb5\xc4\xb6\x9cP\xc7?'
p1479
tp1480
Rp1481
tp1482
a(S'semantic publishing'
p1483
g2
(g6
S'\x1f\x80r>\xecO\xc7?'
p1484
tp1485
Rp1486
tp1487
a(S'interactive learning'
p1488
g2
(g6
S'\xe3iza2N\xc7?'
p1489
tp1490
Rp1491
tp1492
a(S'database preservation'
p1493
g2
(g6
S'\x9ap\x91\r\x0cM\xc7?'
p1494
tp1495
Rp1496
tp1497
a(S'data & analysis center for software'
p1498
g2
(g6
S'\x85(\xbc\x1f\xe8D\xc7?'
p1499
tp1500
Rp1501
tp1502
a(S'william aaron woods'
p1503
g2
(g6
S'\xda\xcf\xf1\x1aE=\xc7?'
p1504
tp1505
Rp1506
tp1507
a(S'openlearn'
p1508
g2
(g6
S']\xe4\xc1\xe2\x89<\xc7?'
p1509
tp1510
Rp1511
tp1512
a.