(lp0
(S'parsing'
p1
cnumpy.core.multiarray
scalar
p2
(cnumpy
dtype
p3
(S'f8'
p4
I0
I1
tp5
Rp6
(I3
S'<'
p7
NNNI-1
I-1
I0
tp8
bS'\xf9\xff\xff\xff\xff\xff\xef?'
p9
tp10
Rp11
tp12
a(S'll parser'
p13
g2
(g6
S'\xdc\xec\x15K\x95\x0e\xe8?'
p14
tp15
Rp16
tp17
a(S'parsing expression grammar'
p18
g2
(g6
S'8-\x16bf\xba\xe6?'
p19
tp20
Rp21
tp22
a(S'top-down parsing'
p23
g2
(g6
S'\x86\x0f\xdc\xd7F\xb9\xe6?'
p24
tp25
Rp26
tp27
a(S'bottom-up parsing'
p28
g2
(g6
S'\t\x8e\xfa\xb0\xf3M\xe6?'
p29
tp30
Rp31
tp32
a(S'parser combinator'
p33
g2
(g6
S'0\x03\xe5\xc0\x91\xb1\xe5?'
p34
tp35
Rp36
tp37
a(S'packcc'
p38
g2
(g6
S"b\xe5Q`\x9e'\xe5?"
p39
tp40
Rp41
tp42
a(S'lr parser'
p43
g2
(g6
S'M\xdb\x047w\xe2\xe4?'
p44
tp45
Rp46
tp47
a(S'scannerless parsing'
p48
g2
(g6
S'\xc4\xc4 JyE\xe4?'
p49
tp50
Rp51
tp52
a(S'shift-reduce parser'
p53
g2
(g6
S'\xe1\xe1c\xf3K6\xe4?'
p54
tp55
Rp56
tp57
a(S'parboiled (java)'
p58
g2
(g6
S'\xa6\xc4\xfc\xd4\xe0H\xe3?'
p59
tp60
Rp61
tp62
a(S'lalr parser'
p63
g2
(g6
S')\x15A8;\xb9\xe2?'
p64
tp65
Rp66
tp67
a(S'sweble'
p68
g2
(g6
S'M\x90Mh\xfc\x90\xe2?'
p69
tp70
Rp71
tp72
a(S'yacc'
p73
g2
(g6
S'a\xec\x08\xee4~\xe2?'
p74
tp75
Rp76
tp77
a(S'lalr parser generator'
p78
g2
(g6
S'\r\x01C\xeb\xbe\x1b\xe2?'
p79
tp80
Rp81
tp82
a(S'chart parser'
p83
g2
(g6
S'h);Z\xda\x90\xe1?'
p84
tp85
Rp86
tp87
a(S'antlr'
p88
g2
(g6
S'W|\xd5\xc6\xcdM\xe1?'
p89
tp90
Rp91
tp92
a(S'glr parser'
p93
g2
(g6
S'S\xc0\xc9\xe2\xa3\xe4\xe0?'
p94
tp95
Rp96
tp97
a(S'syntax (programming languages)'
p98
g2
(g6
S'\x1du\xdb\xc8h\xb2\xe0?'
p99
tp100
Rp101
tp102
a(S'top-down parsing language'
p103
g2
(g6
S'\xcc\x1f\x02\xed\x81k\xe0?'
p104
tp105
Rp106
tp107
a(S'll grammar'
p108
g2
(g6
S'j\xc3+\xe9\xb2\n\xe0?'
p109
tp110
Rp111
tp112
a(S'deterministic context-free grammar'
p113
g2
(g6
S'<\x8e}K\x95\xce\xdf?'
p114
tp115
Rp116
tp117
a(S's-attributed grammar'
p118
g2
(g6
S'\xc1\xa0\x9e%\xc9\xbf\xdf?'
p119
tp120
Rp121
tp122
a(S'pratt parser'
p123
g2
(g6
S"4'\xcf\x1a\xd8\xa2\xdf?"
p124
tp125
Rp126
tp127
a(S'simple precedence parser'
p128
g2
(g6
S'\xf2A\x81K\xf6\x04\xdf?'
p129
tp130
Rp131
tp132
a(S'slr grammar'
p133
g2
(g6
S'\x05\xdb\x85\xb8\r\xd2\xde?'
p134
tp135
Rp136
tp137
a(S'compiler-compiler'
p138
g2
(g6
S'\xd8\xe7\xa0\x98\xdd\x84\xde?'
p139
tp140
Rp141
tp142
a(S'simple lr parser'
p143
g2
(g6
S'G\xc2%\x95\xe9D\xde?'
p144
tp145
Rp146
tp147
a(S'recursive descent parser'
p148
g2
(g6
S'\xaa\xecO\xb6\xc1\x1e\xde?'
p149
tp150
Rp151
tp152
a(S'memoization'
p153
g2
(g6
S'3\x94\xf5$\xd2\x91\xdd?'
p154
tp155
Rp156
tp157
a(S'cyk algorithm'
p158
g2
(g6
S'\xa0\x7f\xbd\x96\xae=\xdd?'
p159
tp160
Rp161
tp162
a(S'canonical lr parser'
p163
g2
(g6
S'1\xf1\xae\xe150\xdd?'
p164
tp165
Rp166
tp167
a(S'the lexer hack'
p168
g2
(g6
S'b\xb2\xf2}\xd7\xc4\xdc?'
p169
tp170
Rp171
tp172
a(S'context-free grammar'
p173
g2
(g6
S'm\xad\xdc\t\xb4\x83\xdc?'
p174
tp175
Rp176
tp177
a(S'shallow parsing'
p178
g2
(g6
S'\xbf\xc0\xc5O<@\xdc?'
p179
tp180
Rp181
tp182
a(S'history of compiler construction'
p183
g2
(g6
S'\xad@\xa2\xe5\x81\xae\xdb?'
p184
tp185
Rp186
tp187
a(S'spirit parser framework'
p188
g2
(g6
S'\xb7\x8d/\x9d&\x9e\xdb?'
p189
tp190
Rp191
tp192
a(S'syntax'
p193
g2
(g6
S'\xc0\x0eZpN^\xdb?'
p194
tp195
Rp196
tp197
a(S'lemon parser generator'
p198
g2
(g6
S'z~\xfa\x82|-\xdb?'
p199
tp200
Rp201
tp202
a(S'parsec (parser)'
p203
g2
(g6
S'x\x0e\xca\xf0\xee*\xdb?'
p204
tp205
Rp206
tp207
a(S'earley parser'
p208
g2
(g6
S'\x1b\xcc\xc4\x7fj"\xdb?'
p209
tp210
Rp211
tp212
a(S'lexical analysis'
p213
g2
(g6
S'G\x96\x13\xebB\xd3\xda?'
p214
tp215
Rp216
tp217
a(S'statistical parsing'
p218
g2
(g6
S'\x99\x06A\xb4\x84l\xda?'
p219
tp220
Rp221
tp222
a(S'kxml'
p223
g2
(g6
S'\x9b\xac\xcc)\x0f\xc6\xd9?'
p224
tp225
Rp226
tp227
a(S'text parser'
p228
g2
(g6
S'n6\xf4I\x8b\x9b\xd9?'
p229
tp230
Rp231
tp232
a(S'scannerless boolean parser'
p233
g2
(g6
S'&\x9f\x04\xab\x1ft\xd9?'
p234
tp235
Rp236
tp237
a(S'ometa'
p238
g2
(g6
S'\xac\xe3\xdb\x99\x16!\xd9?'
p239
tp240
Rp241
tp242
a(S'xpl'
p243
g2
(g6
S'\x99\xb3H\xa7\xddm\xd8?'
p244
tp245
Rp246
tp247
a(S'gnu bison'
p248
g2
(g6
S'r\x10\x00\xd8>_\xd8?'
p249
tp250
Rp251
tp252
a(S'deterministic parsing'
p253
g2
(g6
S'p\xdfE*\xe7C\xd8?'
p254
tp255
Rp256
tp257
a(S'javacc'
p258
g2
(g6
S'D\x07\x15T\xba\x11\xd8?'
p259
tp260
Rp261
tp262
a(S'garden path sentence'
p263
g2
(g6
S'\xac\x9bJuI\x08\xd8?'
p264
tp265
Rp266
tp267
a(S'parser grammar engine'
p268
g2
(g6
S'_\xf0o(q\x86\xd7?'
p269
tp270
Rp271
tp272
a(S'embedded pushdown automaton'
p273
g2
(g6
S'\xc72\xbaj\xfbI\xd7?'
p274
tp275
Rp276
tp277
a(S'semantic analysis (compilers)'
p278
g2
(g6
S'j\xdc\xb0\xa3qI\xd7?'
p279
tp280
Rp281
tp282
a(S'formal grammar'
p283
g2
(g6
S'Lx(\xd5\xaa7\xd7?'
p284
tp285
Rp286
tp287
a(S'operator-precedence parser'
p288
g2
(g6
S'\x9dd\xed\xc1y3\xd7?'
p289
tp290
Rp291
tp292
a(S'top-down (disambiguation)'
p293
g2
(g6
S'V\xd1Z\x97\xdba\xd6?'
p294
tp295
Rp296
tp297
a(S'chomski'
p298
g2
(g6
S'\xeext\xaeX\x13\xd6?'
p299
tp300
Rp301
tp302
a(S'gold (parser)'
p303
g2
(g6
S'j\x94\x1d\xce>\xb1\xd5?'
p304
tp305
Rp306
tp307
a(S'ambiguous grammar'
p308
g2
(g6
S'\xe0\xdb\xbe\x11{\xac\xd5?'
p309
tp310
Rp311
tp312
a(S'treedl'
p313
g2
(g6
S'\xce\x1b\xab1\x8cd\xd5?'
p314
tp315
Rp316
tp317
a(S'context-free language'
p318
g2
(g6
S'\x0c\x07\x11\xb4\xebR\xd5?'
p319
tp320
Rp321
tp322
a(S'syntactic predicate'
p323
g2
(g6
S'\xc8\xcf\xd4c\xb1\xdb\xd4?'
p324
tp325
Rp326
tp327
a(S'parser (cgi language)'
p328
g2
(g6
S'\xe1\x8c0\xb8H\xbc\xd4?'
p329
tp330
Rp331
tp332
a(S'left recursion'
p333
g2
(g6
S'`f\xe2\xd7\xa1\xb2\xd4?'
p334
tp335
Rp336
tp337
a(S'michael collins (computational linguist)'
p338
g2
(g6
S'\x0eCI\x90\xa7\x9d\xd4?'
p339
tp340
Rp341
tp342
a(S'lyn frazier'
p343
g2
(g6
S'\x97\x031\xf4\xef\x99\xd4?'
p344
tp345
Rp346
tp347
a(S'hypergraph grammar'
p348
g2
(g6
S'r\xffB\xd8\xe0\x98\xd4?'
p349
tp350
Rp351
tp352
a(S'irony (framework)'
p353
g2
(g6
S';\xb0Z\xaa\x8f\x91\xd4?'
p354
tp355
Rp356
tp357
a(S'extended affix grammar'
p358
g2
(g6
S'\xb7\xcc\x17\xe7\x80\x86\xd4?'
p359
tp360
Rp361
tp362
a(S'inverse parser'
p363
g2
(g6
S'\x91M\xfa=\x9ag\xd4?'
p364
tp365
Rp366
tp367
a(S'codesynthesis xsd'
p368
g2
(g6
S'\x94\xa7\xd3\xb7\xbf]\xd4?'
p369
tp370
Rp371
tp372
a(S'coco/r'
p373
g2
(g6
S'\x95W(\xd8}\xfd\xd3?'
p374
tp375
Rp376
tp377
a(S'graph-structured stack'
p378
g2
(g6
S'| \x9a[\xe6\xef\xd3?'
p379
tp380
Rp381
tp382
a(S'ragel'
p383
g2
(g6
S'\xb6:\x13as\xe8\xd3?'
p384
tp385
Rp386
tp387
a(S'compiler'
p388
g2
(g6
S'nk-\x17\x99\xdb\xd3?'
p389
tp390
Rp391
tp392
a(S'xpp'
p393
g2
(g6
S'\xb6L\xc086\xd7\xd3?'
p394
tp395
Rp396
tp397
a(S'generalized phrase structure grammar'
p398
g2
(g6
S'W\x06\x06\xdd\x1d\xab\xd3?'
p399
tp400
Rp401
tp402
a(S'stack (abstract data type)'
p403
g2
(g6
S'\xf9\x85\xc7\xc4\x8c\x8d\xd3?'
p404
tp405
Rp406
tp407
a(S'stack-oriented programming language'
p408
g2
(g6
S'`E2\xfe\xccj\xd3?'
p409
tp410
Rp411
tp412
a(S'link grammar'
p413
g2
(g6
S'\x86\xfb\xe5~MN\xd3?'
p414
tp415
Rp416
tp417
a(S'dangling else'
p418
g2
(g6
S'\xe8.\xc03\xa6%\xd3?'
p419
tp420
Rp421
tp422
a(S'terence parr'
p423
g2
(g6
S'\x97I]\x0e#\x16\xd3?'
p424
tp425
Rp426
tp427
a(S'augmented transition network'
p428
g2
(g6
S'r\xf2Y\xa9\xa1\x02\xd3?'
p429
tp430
Rp431
tp432
a(S'global index grammar'
p433
g2
(g6
S'"OIs\x10\xce\xd2?'
p434
tp435
Rp436
tp437
a(S'jetpag'
p438
g2
(g6
S'p\xe3\x0b \t}\xd2?'
p439
tp440
Rp441
tp442
a(S'string grammar'
p443
g2
(g6
S'r\x05P\xdf\x10x\xd2?'
p444
tp445
Rp446
tp447
a(S'chomsky hierarchy'
p448
g2
(g6
S'X\tuY\x82]\xd2?'
p449
tp450
Rp451
tp452
a(S'lex (software)'
p453
g2
(g6
S'\xa2\xb81\x12\xbdY\xd2?'
p454
tp455
Rp456
tp457
a(S'stochastic context-free grammar'
p458
g2
(g6
S'Yq:d/G\xd2?'
p459
tp460
Rp461
tp462
a(S'syntax-directed translation'
p463
g2
(g6
S'[ZU\xe1~A\xd2?'
p464
tp465
Rp466
tp467
a(S'stack (surname)'
p468
g2
(g6
S':\xa3\x97k\x8c\x1c\xd2?'
p469
tp470
Rp471
tp472
a(S'comparison of html parsers'
p473
g2
(g6
S'\xfa\xad\x9e\xc3)\xfa\xd1?'
p474
tp475
Rp476
tp477
a(S'burke\xe2\x80\x93fisher error repair'
p478
g2
(g6
S'\xeb\xd2|AW\xf9\xd1?'
p479
tp480
Rp481
tp482
a(S'head-driven phrase structure grammar'
p483
g2
(g6
S'6\x1f\xd5\x11\x08\xe2\xd1?'
p484
tp485
Rp486
tp487
a(S'constraint grammar'
p488
g2
(g6
S'\xe7\x93\x95\xd7\xcb\xdf\xd1?'
p489
tp490
Rp491
tp492
a(S'metacompiler'
p493
g2
(g6
S'\xf6\xf7\xd5X\r\xde\xd1?'
p494
tp495
Rp496
tp497
a(S'recursive transition network'
p498
g2
(g6
S'\xa7o\xec)\xe3\x98\xd1?'
p499
tp500
Rp501
tp502
a(S'categorial grammar'
p503
g2
(g6
S'U\xf4\xd5\x9f\xf1\x97\xd1?'
p504
tp505
Rp506
tp507
a(S'stack machine'
p508
g2
(g6
S'\xbe9\xc8J\xa5j\xd1?'
p509
tp510
Rp511
tp512
a(S'nested stack automaton'
p513
g2
(g6
S'\x0b\x08\xcb\x00bj\xd1?'
p514
tp515
Rp516
tp517
a(S'fluid construction grammar'
p518
g2
(g6
S'\xad\x9c\xb5o\xc6`\xd1?'
p519
tp520
Rp521
tp522
a(S'filtered-popping recursive transition network'
p523
g2
(g6
S'\xdb^h\x0b\xec\\\xd1?'
p524
tp525
Rp526
tp527
a(S'asf+sdf meta environment'
p528
g2
(g6
S'\xb4-\xac\xde\xe0Z\xd1?'
p529
tp530
Rp531
tp532
a(S'ulysses and the golden fleece'
p533
g2
(g6
S'\x97\x8b/FsZ\xd1?'
p534
tp535
Rp536
tp537
a(S'mildly context-sensitive grammar formalism'
p538
g2
(g6
S'O-\x9b\x1b\xc3L\xd1?'
p539
tp540
Rp541
tp542
a(S'tree stack automaton'
p543
g2
(g6
S'\xa3h\xd7\xeeBK\xd1?'
p544
tp545
Rp546
tp547
a(S'greibach normal form'
p548
g2
(g6
S'\xd7Y\xec\x18\x0e6\xd1?'
p549
tp550
Rp551
tp552
a(S'logparser'
p553
g2
(g6
S'X\xef4\xa0\x82\x1f\xd1?'
p554
tp555
Rp556
tp557
a(S'dc (computer program)'
p558
g2
(g6
S'\x95\xad\xb7>\xb7\x15\xd1?'
p559
tp560
Rp561
tp562
a(S'rule-based machine translation'
p563
g2
(g6
S'g\x8eyc\x8a\x0b\xd1?'
p564
tp565
Rp566
tp567
a(S'pushdown automaton'
p568
g2
(g6
S'H\x1c=\x0b\x91\n\xd1?'
p569
tp570
Rp571
tp572
a(S'extended wordnet'
p573
g2
(g6
S'\x00g\xf2d\xd8\t\xd1?'
p574
tp575
Rp576
tp577
a(S'call stack'
p578
g2
(g6
S'\xec>\x15\x9cn\x04\xd1?'
p579
tp580
Rp581
tp582
a(S'codesynthesis xsd/e'
p583
g2
(g6
S'{}\xc2\x06\t\xfb\xd0?'
p584
tp585
Rp586
tp587
a(S'brian p. stack'
p588
g2
(g6
S'7\xa9 \xf9\xb7\xdd\xd0?'
p589
tp590
Rp591
tp592
a(S'ghr'
p593
g2
(g6
S'\xeag{\xce\xd3\xdb\xd0?'
p594
tp595
Rp596
tp597
a(S'grammar induction'
p598
g2
(g6
S'\xf5\x05j\xfd7\xcb\xd0?'
p599
tp600
Rp601
tp602
a(S'definite clause grammar'
p603
g2
(g6
S'z\x9b\xfd\xd2^\xaf\xd0?'
p604
tp605
Rp606
tp607
a(S'context-sensitive grammar'
p608
g2
(g6
S'\xd1\x98I\x83\xaf\xab\xd0?'
p609
tp610
Rp611
tp612
a(S'stack trace'
p613
g2
(g6
S'q\xeat\xd7C\x91\xd0?'
p614
tp615
Rp616
tp617
a(S'out stack'
p618
g2
(g6
S'\xa6H\r\x14\xbc\x8c\xd0?'
p619
tp620
Rp621
tp622
a(S'stack overflow'
p623
g2
(g6
S'\x92/\xfca%\x87\xd0?'
p624
tp625
Rp626
tp627
a(S'shunting-yard algorithm'
p628
g2
(g6
S'\xfb\x10\xdcu\xf4l\xd0?'
p629
tp630
Rp631
tp632
a(S'indexed grammar'
p633
g2
(g6
S'b\x0b\xf0,MT\xd0?'
p634
tp635
Rp636
tp637
a(S'rebol'
p638
g2
(g6
S'\x88\x9a`\x9c\x1a0\xd0?'
p639
tp640
Rp641
tp642
a(S'syntax'
p643
g2
(g6
S'\xd4iX!\xa4.\xd0?'
p644
tp645
Rp646
tp647
a(S'stack-based memory allocation'
p648
g2
(g6
S'\x9dN\xc7\xf4<$\xd0?'
p649
tp650
Rp651
tp652
a(S'van wijngaarden grammar'
p653
g2
(g6
S'\xb0\xb95\xf4J\x15\xd0?'
p654
tp655
Rp656
tp657
a(S'controlled grammar'
p658
g2
(g6
S'\xf5~~\xcbl\x00\xd0?'
p659
tp660
Rp661
tp662
a(S'grammar'
p663
g2
(g6
S'\xac8~_\xeb\xff\xcf?'
p664
tp665
Rp666
tp667
a(S'parse tree'
p668
g2
(g6
S'--8\xa3\x97\xfb\xcf?'
p669
tp670
Rp671
tp672
a(S'natural language understanding'
p673
g2
(g6
S'D\xfa\n\x86\xd3\xd8\xcf?'
p674
tp675
Rp676
tp677
a(S'tree-adjoining grammar'
p678
g2
(g6
S'\x9b\x91}\xa2 \xd6\xcf?'
p679
tp680
Rp681
tp682
a(S'two-level grammar'
p683
g2
(g6
S'\xe7\xd9\xc7S\xfa\xd5\xcf?'
p684
tp685
Rp686
tp687
a(S'ply (python lex-yacc)'
p688
g2
(g6
S'\xa4#\x1cf\xda\xd4\xcf?'
p689
tp690
Rp691
tp692
a(S'unparser'
p693
g2
(g6
S':\xde\xc8a\x92\xc3\xcf?'
p694
tp695
Rp696
tp697
a(S'operator-precedence grammar'
p698
g2
(g6
S'\xba-\xbd\x04\x92\x86\xcf?'
p699
tp700
Rp701
tp702
a(S'stack'
p703
g2
(g6
S'-\x9a\ns\x0cq\xcf?'
p704
tp705
Rp706
tp707
a(S'formal language'
p708
g2
(g6
S'Qz*ib\x1e\xcf?'
p709
tp710
Rp711
tp712
a(S'stack-sortable permutation'
p713
g2
(g6
S'\xeb\x93#OQ\x08\xcf?'
p714
tp715
Rp716
tp717
a(S'stack search'
p718
g2
(g6
S'qo$z\xde\xe8\xce?'
p719
tp720
Rp721
tp722
a(S'sebastian shaumyan'
p723
g2
(g6
S'\x91\xba\xd3b\xae\xdf\xce?'
p724
tp725
Rp726
tp727
a(S'medslt'
p728
g2
(g6
S'z\x9a\x9f\xbe\xf0\xdd\xce?'
p729
tp730
Rp731
tp732
a(S'parsec (disambiguation)'
p733
g2
(g6
S'\xb6\xbaBhr\xac\xce?'
p734
tp735
Rp736
tp737
a(S'spacy'
p738
g2
(g6
S'fT\xd0\xc5/\xa0\xce?'
p739
tp740
Rp741
tp742
a(S'secd machine'
p743
g2
(g6
S'\xc0\xa9\xc1c\x05\x9f\xce?'
p744
tp745
Rp746
tp747
a(S'parser (magazine)'
p748
g2
(g6
S'\xe1\xd1t\xa5\xa9\x80\xce?'
p749
tp750
Rp751
tp752
a(S'sentence processing'
p753
g2
(g6
S'\x02\x04`\x92\x17=\xce?'
p754
tp755
Rp756
tp757
a(S'chomsky normal form'
p758
g2
(g6
S'60\xa2\xdd22\xce?'
p759
tp760
Rp761
tp762
a(S'syntax guessing'
p763
g2
(g6
S'\x02\xfb\xe1cd/\xce?'
p764
tp765
Rp766
tp767
a(S'lr-attributed grammar'
p768
g2
(g6
S'd\xd1|s4%\xce?'
p769
tp770
Rp771
tp772
a(S'outline of natural language processing'
p773
g2
(g6
S'6\\\xa7<!\x0e\xce?'
p774
tp775
Rp776
tp777
a(S'perl 6 rules'
p778
g2
(g6
S'\xda\x8b*\x92\xea\xee\xcd?'
p779
tp780
Rp781
tp782
a(S'cal actor language'
p783
g2
(g6
S'0\xcd\xa6\x93\xa0\xe2\xcd?'
p784
tp785
Rp786
tp787
a(S'noncontracting grammar'
p788
g2
(g6
S'\x0eL\x8cx!\xc7\xcd?'
p789
tp790
Rp791
tp792
a(S'input (computer science)'
p793
g2
(g6
S'\x8d\xed\xdde\x8f\x99\xcd?'
p794
tp795
Rp796
tp797
a(S'java api for xml processing'
p798
g2
(g6
S'\xb5\x02\x82\xc7\xbc\x97\xcd?'
p799
tp800
Rp801
tp802
a(S'morphological parsing'
p803
g2
(g6
S'\xe2\xda\xd6\xb8\xd8\x93\xcd?'
p804
tp805
Rp806
tp807
a(S'input method'
p808
g2
(g6
S'\xafw\xe8\xab\xe9\x8e\xcd?'
p809
tp810
Rp811
tp812
a(S'parent pointer tree'
p813
g2
(g6
S'\x8d\xf0\xb9\xe2e\x80\xcd?'
p814
tp815
Rp816
tp817
a(S'factor (programming language)'
p818
g2
(g6
S'o\xba?R\xa1t\xcd?'
p819
tp820
Rp821
tp822
a(S'dms software reengineering toolkit'
p823
g2
(g6
S'`\xb6\xc2K\xdd_\xcd?'
p824
tp825
Rp826
tp827
a(S'mindnet'
p828
g2
(g6
S'\xe6\\j~VZ\xcd?'
p829
tp830
Rp831
tp832
a(S'jfugue'
p833
g2
(g6
S'\xadP\r\xba\xfeM\xcd?'
p834
tp835
Rp836
tp837
a(S'canonical s-expressions'
p838
g2
(g6
S'K=-k\xacA\xcd?'
p839
tp840
Rp841
tp842
a(S'transformational syntax'
p843
g2
(g6
S'\xb4b\xf7^\xeb8\xcd?'
p844
tp845
Rp846
tp847
a(S'standard generalized markup language'
p848
g2
(g6
S'f\xc3\x08%\x18)\xcd?'
p849
tp850
Rp851
tp852
a(S'james s. stack'
p853
g2
(g6
S'\x81\xe6\xf0t\xb6\n\xcd?'
p854
tp855
Rp856
tp857
a(S'txl (programming language)'
p858
g2
(g6
S'\x14\x9e\xc41\x00\x07\xcd?'
p859
tp860
Rp861
tp862
a(S'soot (software)'
p863
g2
(g6
S'\xa6\x96(vV\xff\xcc?'
p864
tp865
Rp866
tp867
a(S'boolean grammar'
p868
g2
(g6
S'\xd8\xcdd\x9f;\xff\xcc?'
p869
tp870
Rp871
tp872
a(S'l-system'
p873
g2
(g6
S'\x83y}ml\xf8\xcc?'
p874
tp875
Rp876
tp877
a(S'list of formal language and literal string topics'
p878
g2
(g6
S'N8\x81\x98\xc3\xe2\xcc?'
p879
tp880
Rp881
tp882
a(S'history of english grammars'
p883
g2
(g6
S'\xf3~\xf3)\x96\x9a\xcc?'
p884
tp885
Rp886
tp887
a(S'attribute grammar'
p888
g2
(g6
S'\x92\x13,\x8fw\x95\xcc?'
p889
tp890
Rp891
tp892
a(S'uss stack (dd-406)'
p893
g2
(g6
S'\xc1\xb9\x16!\xe3y\xcc?'
p894
tp895
Rp896
tp897
a(S'jim stack'
p898
g2
(g6
S'Y~\xebw\x9dw\xcc?'
p899
tp900
Rp901
tp902
a(S'preprocessor'
p903
g2
(g6
S'\x06\xf6,2\xbcr\xcc?'
p904
tp905
Rp906
tp907
a(S'stack overflow (disambiguation)'
p908
g2
(g6
S'QN\x9d\xcb\xcfj\xcc?'
p909
tp910
Rp911
tp912
a(S'lojban'
p913
g2
(g6
S'\x84*{s\xf3a\xcc?'
p914
tp915
Rp916
tp917
a(S'phrase structure grammar'
p918
g2
(g6
S'\xe8oK\x85\xabW\xcc?'
p919
tp920
Rp921
tp922
a(S'eugene charniak'
p923
g2
(g6
S'"\x16\x1c\x1bLB\xcc?'
p924
tp925
Rp926
tp927
a(S'stack buffer overflow'
p928
g2
(g6
S'f;\x97\xa27.\xcc?'
p929
tp930
Rp931
tp932
a(S'generative grammar'
p933
g2
(g6
S'\xa2PH\xac\xa0*\xcc?'
p934
tp935
Rp936
tp937
a(S'backus\xe2\x80\x93naur form'
p938
g2
(g6
S"\x07\xa5'\xdbe\x1b\xcc?"
p939
tp940
Rp941
tp942
a(S'card verifiable certificate'
p943
g2
(g6
S'\x98}\x9b\xff\xca\x16\xcc?'
p944
tp945
Rp946
tp947
a(S'forth (programming language)'
p948
g2
(g6
S'\xd61\xcd\xe4}\x15\xcc?'
p949
tp950
Rp951
tp952
a(S'walt stack'
p953
g2
(g6
S'm{.\x96\x08\xfe\xcb?'
p954
tp955
Rp956
tp957
a(S'code generation (compiler)'
p958
g2
(g6
S'\xd7\xa4\x10\x9fs\xfd\xcb?'
p959
tp960
Rp961
tp962
a(S'nooj'
p963
g2
(g6
S'\x16?\t\x0ci\xf8\xcb?'
p964
tp965
Rp966
tp967
a(S'grammar checker'
p968
g2
(g6
S'\xd4]\xd8.m\xf6\xcb?'
p969
tp970
Rp971
tp972
a(S'stack exchange'
p973
g2
(g6
S'\x891\x1e\xa8\xe0\xf0\xcb?'
p974
tp975
Rp976
tp977
a(S'james curran (linguist)'
p978
g2
(g6
S'\x8c\x14\xd8\x1f\x85\xd7\xcb?'
p979
tp980
Rp981
tp982
a(S'natural language processing'
p983
g2
(g6
S'\x9e\x1d\xd62l\xd4\xcb?'
p984
tp985
Rp986
tp987
a(S'input kludge'
p988
g2
(g6
S'tZ\xc8v:\xcb\xcb?'
p989
tp990
Rp991
tp992
a(S'antlr studio'
p993
g2
(g6
S'\xe2\xa3b{J\xac\xcb?'
p994
tp995
Rp996
tp997
a(S'recursive ascent parser'
p998
g2
(g6
S'6\xcf\xf4S\xce\xa6\xcb?'
p999
tp1000
Rp1001
tp1002
a(S'lexical functional grammar'
p1003
g2
(g6
S'\xe3\xc6\x98\xbc\x1c\x8d\xcb?'
p1004
tp1005
Rp1006
tp1007
a(S'lolcode'
p1008
g2
(g6
S'7%jx\x8e}\xcb?'
p1009
tp1010
Rp1011
tp1012
a(S'simple api for xml'
p1013
g2
(g6
S'\xcc\x88KM\x01s\xcb?'
p1014
tp1015
Rp1016
tp1017
a(S'regular grammar'
p1018
g2
(g6
S'}ao\xd1\x00P\xcb?'
p1019
tp1020
Rp1021
tp1022
a(S'sheila greibach'
p1023
g2
(g6
S'\x11E\xb8Z\x7fA\xcb?'
p1024
tp1025
Rp1026
tp1027
a(S'dkp log parser'
p1028
g2
(g6
S'\xab\xe4\x84\xac\xf4=\xcb?'
p1029
tp1030
Rp1031
tp1032
a(S'lexx (text editor)'
p1033
g2
(g6
S'\x03\x17`\x89\xf23\xcb?'
p1034
tp1035
Rp1036
tp1037
a(S'left corner'
p1038
g2
(g6
S'uJ9\x18\x0c%\xcb?'
p1039
tp1040
Rp1041
tp1042
a(S'burroughs large systems'
p1043
g2
(g6
S'\x0c\x93PeS\xf1\xca?'
p1044
tp1045
Rp1046
tp1047
a(S'camlp4'
p1048
g2
(g6
S'e\xce\x1a\xdb\x15\xf1\xca?'
p1049
tp1050
Rp1051
tp1052
a(S'beautiful soup (html parser)'
p1053
g2
(g6
S'\xa7\x02\xc7im\xe2\xca?'
p1054
tp1055
Rp1056
tp1057
a(S'ijvm'
p1058
g2
(g6
S'M\xff\xb6\x88\xa8\xd8\xca?'
p1059
tp1060
Rp1061
tp1062
a(S'index of computing articles'
p1063
g2
(g6
S'G\xbb\xe2\xef\xe7\xd2\xca?'
p1064
tp1065
Rp1066
tp1067
a(S'ben stack'
p1068
g2
(g6
S'\x7fl\xbdxH\xb7\xca?'
p1069
tp1070
Rp1071
tp1072
a(S'z-index'
p1073
g2
(g6
S'\xb7\x17\xd9\x8e_\x90\xca?'
p1074
tp1075
Rp1076
tp1077
a(S'input mask'
p1078
g2
(g6
S'\xe5\x9e\x10\xb2b\x83\xca?'
p1079
tp1080
Rp1081
tp1082
a(S'syntax diagram'
p1083
g2
(g6
S'\xfe:/\x03\xdan\xca?'
p1084
tp1085
Rp1086
tp1087
a(S'grammar (disambiguation)'
p1088
g2
(g6
S'\xf2p\x92\x8f\xb9i\xca?'
p1089
tp1090
Rp1091
tp1092
a(S'esoteric programming language'
p1093
g2
(g6
S'\xe2\x8b^\x9byH\xca?'
p1094
tp1095
Rp1096
tp1097
a(S'terminal and nonterminal symbols'
p1098
g2
(g6
S'6\xdd\x95\xca\x13<\xca?'
p1099
tp1100
Rp1101
tp1102
a(S'phrase structure rules'
p1103
g2
(g6
S'\xeajZpl9\xca?'
p1104
tp1105
Rp1106
tp1107
a(S'construction grammar'
p1108
g2
(g6
S'\xe5\xd6\x17\xe8\xd5)\xca?'
p1109
tp1110
Rp1111
tp1112
a(S'abstract syntax tree'
p1113
g2
(g6
S'xi\xee\xd7\xc9\x1d\xca?'
p1114
tp1115
Rp1116
tp1117
a(S'multi-pass compiler'
p1118
g2
(g6
S'\x13U\xf7d\xfc\x05\xca?'
p1119
tp1120
Rp1121
tp1122
a(S'traditional grammar'
p1123
g2
(g6
S'\xa5\xad\xc0\xec?\x05\xca?'
p1124
tp1125
Rp1126
tp1127
a(S'weighted context-free grammar'
p1128
g2
(g6
S' \x90\xdd\xfd8\x02\xca?'
p1129
tp1130
Rp1131
tp1132
a(S'graham stack (footballer)'
p1133
g2
(g6
S'\xf1&p^\x0f\xe3\xc9?'
p1134
tp1135
Rp1136
tp1137
a(S'abstract data type'
p1138
g2
(g6
S'\x8b\x9e\x10\xfb\xe8\xe2\xc9?'
p1139
tp1140
Rp1141
tp1142
a(S'universal grammar'
p1143
g2
(g6
S'm\xe9*\xb8\xfc\xbf\xc9?'
p1144
tp1145
Rp1146
tp1147
a(S'frank stack'
p1148
g2
(g6
S'\xa9Y\xfbpl\xbf\xc9?'
p1149
tp1150
Rp1151
tp1152
a(S'grammar explorer'
p1153
g2
(g6
S'\xe8\x10\xa6\xd7q\xb2\xc9?'
p1154
tp1155
Rp1156
tp1157
a(S'charles stack (lawyer)'
p1158
g2
(g6
S'J)\xec\xba1\xad\xc9?'
p1159
tp1160
Rp1161
tp1162
a(S'pdf-parser'
p1163
g2
(g6
S'\xc4^\xeb\x0c\xd2\xac\xc9?'
p1164
tp1165
Rp1166
tp1167
a(S'experix'
p1168
g2
(g6
S'\x07\xd0,\x19Y\x97\xc9?'
p1169
tp1170
Rp1171
tp1172
a(S'syntax highlighting'
p1173
g2
(g6
S'\x0e\xbe%\xc2!\x97\xc9?'
p1174
tp1175
Rp1176
tp1177
a(S'interpreter pattern'
p1178
g2
(g6
S'bx\xc0\xe4p\x93\xc9?'
p1179
tp1180
Rp1181
tp1182
a(S'grammar-based code'
p1183
g2
(g6
S'\xd4\x9a\x01\xa2\x99\x90\xc9?'
p1184
tp1185
Rp1186
tp1187
a(S'stack bay'
p1188
g2
(g6
S'\x89\x9ev\x8f\x0e\x8e\xc9?'
p1189
tp1190
Rp1191
tp1192
a(S'befunge'
p1193
g2
(g6
S'\xd7~\xc8O_|\xc9?'
p1194
tp1195
Rp1196
tp1197
a(S'north stack'
p1198
g2
(g6
S'\xb1\xae\x89\x98\x88`\xc9?'
p1199
tp1200
Rp1201
tp1202
a(S'stack register'
p1203
g2
(g6
S'\x14\xdc\xd5\xd1A^\xc9?'
p1204
tp1205
Rp1206
tp1207
a(S'programming language implementation'
p1208
g2
(g6
S'_\xe2\xb5\xd1k\\\xc9?'
p1209
tp1210
Rp1211
tp1212
a(S'tail recursive parser'
p1213
g2
(g6
S'G\x90\x95b\xdbV\xc9?'
p1214
tp1215
Rp1216
tp1217
a(S'deterministic context-free language'
p1218
g2
(g6
S'}\xa3\xec\xdf\x15V\xc9?'
p1219
tp1220
Rp1221
tp1222
a(S'tinyxml'
p1223
g2
(g6
S'|\xc9\x8d\x8c\x91S\xc9?'
p1224
tp1225
Rp1226
tp1227
a(S'south stack'
p1228
g2
(g6
S'(xRX\xf8L\xc9?'
p1229
tp1230
Rp1231
tp1232
a(S'tephroseris integrifolia subsp. maritima'
p1233
g2
(g6
S'p\\\xd0\x06\xfeD\xc9?'
p1234
tp1235
Rp1236
tp1237
a(S'robert stack'
p1238
g2
(g6
S'+\xae\xd5~\x91C\xc9?'
p1239
tp1240
Rp1241
tp1242
a(S'secure input and output handling'
p1243
g2
(g6
S'a\xdfJ\xa2\xd54\xc9?'
p1244
tp1245
Rp1246
tp1247
a(S'straight-line grammar'
p1248
g2
(g6
S'j\x009c\x81/\xc9?'
p1249
tp1250
Rp1251
tp1252
a(S'programming language'
p1253
g2
(g6
S'\xe1\x92\x9aM\xba+\xc9?'
p1254
tp1255
Rp1256
tp1257
a(S'blowdown stack'
p1258
g2
(g6
S'\xacV\xc8\x90\xc5\x1d\xc9?'
p1259
tp1260
Rp1261
tp1262
a(S'xtext'
p1263
g2
(g6
S'\x83G\xfd\xcca\x1d\xc9?'
p1264
tp1265
Rp1266
tp1267
a(S'adaptive grammar'
p1268
g2
(g6
S'\x9a\xe7\xf6\x80\xf1\x12\xc9?'
p1269
tp1270
Rp1271
tp1272
a(S'beautiful soup'
p1273
g2
(g6
S'X\xd2\xcdf=\n\xc9?'
p1274
tp1275
Rp1276
tp1277
a(S'thetical grammar'
p1278
g2
(g6
S'K\x9a5\xe1\x9f\x05\xc9?'
p1279
tp1280
Rp1281
tp1282
a(S'linguistic performance'
p1283
g2
(g6
S'Y\x81Y\xbf\x8a\xfe\xc8?'
p1284
tp1285
Rp1286
tp1287
a(S'reg johanson'
p1288
g2
(g6
S'\xdb\xa3\xb6\xa2\x8e\xee\xc8?'
p1289
tp1290
Rp1291
tp1292
a(S'language'
p1293
g2
(g6
S'\xbe\xfeI\x1ac\xed\xc8?'
p1294
tp1295
Rp1296
tp1297
a(S'theories of second-language acquisition'
p1298
g2
(g6
S'a\x9dp\x0e6\xe4\xc8?'
p1299
tp1300
Rp1301
tp1302
a(S'transformational grammar'
p1303
g2
(g6
S'\xdc\xd87\xaa&\xe0\xc8?'
p1304
tp1305
Rp1306
tp1307
a(S'tea (programming language)'
p1308
g2
(g6
S'd\xe1#\x91\x90\xdc\xc8?'
p1309
tp1310
Rp1311
tp1312
a(S'progressive stack'
p1313
g2
(g6
S'\xac\x12\xaa\xb2!\xd2\xc8?'
p1314
tp1315
Rp1316
tp1317
a(S'smart common input method'
p1318
g2
(g6
S'MH\x19\x0c\xf7\xd0\xc8?'
p1319
tp1320
Rp1321
tp1322
a(S'abstract semantic graph'
p1323
g2
(g6
S'\xa8z\xab\xa0\xf3\xcd\xc8?'
p1324
tp1325
Rp1326
tp1327
a(S'feature-oriented programming'
p1328
g2
(g6
S'zSV\xc9\x9b\xc6\xc8?'
p1329
tp1330
Rp1331
tp1332
a(S'low-level programming language'
p1333
g2
(g6
S'\x80\xd0y=\xc1\xc4\xc8?'
p1334
tp1335
Rp1336
tp1337
a(S'2010 austin suicide attack'
p1338
g2
(g6
S'\x95\x96\x91\x050\xaf\xc8?'
p1339
tp1340
Rp1341
tp1342
a(S'function prologue'
p1343
g2
(g6
S'\x96\xf3e=\xef\xaa\xc8?'
p1344
tp1345
Rp1346
tp1347
a(S'minimal recursion semantics'
p1348
g2
(g6
S'\xf1\x9dH\xa9q\xa3\xc8?'
p1349
tp1350
Rp1351
tp1352
a(S'atlas autocode'
p1353
g2
(g6
S'sV\xd1\xd2!\xa1\xc8?'
p1354
tp1355
Rp1356
tp1357
a(S'tokenization (lexical analysis)'
p1358
g2
(g6
S'n\xb0\xa6\xac\x1e\x9c\xc8?'
p1359
tp1360
Rp1361
tp1362
a(S'gold'
p1363
g2
(g6
S'\xc3N\xe1\xacM\x98\xc8?'
p1364
tp1365
Rp1366
tp1367
a(S'am buachaille'
p1368
g2
(g6
S'c\x86$e\xaa\x93\xc8?'
p1369
tp1370
Rp1371
tp1372
a(S'useless rules'
p1373
g2
(g6
S'IS9f\x81\x92\xc8?'
p1374
tp1375
Rp1376
tp1377
a(S'michael j. stack iii'
p1378
g2
(g6
S'\x9c0E\x98\x18\x8f\xc8?'
p1379
tp1380
Rp1381
tp1382
a(S"b\xc3\xb6hm's language"
p1383
g2
(g6
S'\xb0o\x00\x9bD\x8d\xc8?'
p1384
tp1385
Rp1386
tp1387
a(S'iteratee'
p1388
g2
(g6
S'/ \xc3\xaf\xd1\x8a\xc8?'
p1389
tp1390
Rp1391
tp1392
a(S'libxml2'
p1393
g2
(g6
S'%^\xe5\xf6\x01\x8a\xc8?'
p1394
tp1395
Rp1396
tp1397
a(S'psycholinguistics'
p1398
g2
(g6
S'\xf9\xfbs\xc0z\x89\xc8?'
p1399
tp1400
Rp1401
tp1402
a(S'balaram stack'
p1403
g2
(g6
S'\x99\x83p\xc7\xd0\x83\xc8?'
p1404
tp1405
Rp1406
tp1407
a(S'growing context-sensitive grammar'
p1408
g2
(g6
S'8\xe5\xbc\x82\x12u\xc8?'
p1409
tp1410
Rp1411
tp1412
a(S'focus (board game)'
p1413
g2
(g6
S'\x9a\x1f\xad\xa2\xb4f\xc8?'
p1414
tp1415
Rp1416
tp1417
a(S'sbp'
p1418
g2
(g6
S'\xfa\xdc<\xd4\xc7]\xc8?'
p1419
tp1420
Rp1421
tp1422
a(S'ella stack'
p1423
g2
(g6
S'd\x04*\x8b\x85]\xc8?'
p1424
tp1425
Rp1426
tp1427
a(S'poverty of the stimulus'
p1428
g2
(g6
S'\xe6h\x8aM\x00]\xc8?'
p1429
tp1430
Rp1431
tp1432
a(S'mantra-rajbhasha'
p1433
g2
(g6
S'\xdd\xb1\x9d\xbc\x0b[\xc8?'
p1434
tp1435
Rp1436
tp1437
a(S'treiber stack'
p1438
g2
(g6
S'\xbc\x99es7S\xc8?'
p1439
tp1440
Rp1441
tp1442
a(S'eckhard bick'
p1443
g2
(g6
S'iwCI\x11I\xc8?'
p1444
tp1445
Rp1446
tp1447
a(S'regulated rewriting'
p1448
g2
(g6
S'\xa3\n\xb8\x7fi:\xc8?'
p1449
tp1450
Rp1451
tp1452
a(S'conjunctive grammar'
p1453
g2
(g6
S'ij\xcd\xde\xda,\xc8?'
p1454
tp1455
Rp1456
tp1457
a(S's-expression'
p1458
g2
(g6
S'K\x90\x8e\xa9\xe7\x18\xc8?'
p1459
tp1460
Rp1461
tp1462
a(S'word grammar'
p1463
g2
(g6
S'G\xc0\xc1-\x0c\x15\xc8?'
p1464
tp1465
Rp1466
tp1467
a(S'interactional linguistics'
p1468
g2
(g6
S'\xdc\x91H\x1eW\x0b\xc8?'
p1469
tp1470
Rp1471
tp1472
a(S'string generation'
p1473
g2
(g6
S'\t\x8b_Mh\x08\xc8?'
p1474
tp1475
Rp1476
tp1477
a(S'anaconda smelter stack'
p1478
g2
(g6
S'\xeb\xc8\xd5\xc4\x19\x05\xc8?'
p1479
tp1480
Rp1481
tp1482
a(S'xml external entity attack'
p1483
g2
(g6
S'N\xe9 _*\x02\xc8?'
p1484
tp1485
Rp1486
tp1487
a(S'international public television screening conference'
p1488
g2
(g6
S'/\x04\xbe,\x03\xf6\xc7?'
p1489
tp1490
Rp1491
tp1492
a(S'anticausal system'
p1493
g2
(g6
S'd\xe8\x9d\x85\xc1\xf4\xc7?'
p1494
tp1495
Rp1496
tp1497
a(S'simple precedence grammar'
p1498
g2
(g6
S"fF'\x89\xaf\xf0\xc7?"
p1499
tp1500
Rp1501
tp1502
a(S'se\xc3\xa1n stack'
p1503
g2
(g6
S'\x1c\x10\x02k\xcf\xda\xc7?'
p1504
tp1505
Rp1506
tp1507
a(S'parse thicket'
p1508
g2
(g6
S'\x94\x97\x9fD\xa5\xd9\xc7?'
p1509
tp1510
Rp1511
tp1512
a.