(lp0
(S'particle physics'
p1
cnumpy.core.multiarray
scalar
p2
(cnumpy
dtype
p3
(S'f8'
p4
I0
I1
tp5
Rp6
(I3
S'<'
p7
NNNI-1
I-1
I0
tp8
bS'\x02\x00\x00\x00\x00\x00\xf0?'
p9
tp10
Rp11
tp12
a(S'history of subatomic physics'
p13
g2
(g6
S'\xdfc\x98\x02Y\x90\xe7?'
p14
tp15
Rp16
tp17
a(S'subatomic particle'
p18
g2
(g6
S'\xaf\xb8r\x89P;\xe6?'
p19
tp20
Rp21
tp22
a(S'elementary particle'
p23
g2
(g6
S'\xd2y\xa36\x8f\xb6\xe5?'
p24
tp25
Rp26
tp27
a(S'collider'
p28
g2
(g6
S'[m\x07a#J\xe4?'
p29
tp30
Rp31
tp32
a(S'preon'
p33
g2
(g6
S'\xe7(\x1d\xb8\r\xcb\xe3?'
p34
tp35
Rp36
tp37
a(S'force carrier'
p38
g2
(g6
S'\xaa"\xb4\xee,\xb7\xe2?'
p39
tp40
Rp41
tp42
a(S'event (particle physics)'
p43
g2
(g6
S'n\xa1\xc2=@\x8c\xe2?'
p44
tp45
Rp46
tp47
a(S'budker institute of nuclear physics'
p48
g2
(g6
S"y#\xb8\x1er'\xe2?"
p49
tp50
Rp51
tp52
a(S'particle'
p53
g2
(g6
S'\xe9\xcb\x8e\xe2\xe0\x08\xe2?'
p54
tp55
Rp56
tp57
a(S'standard model'
p58
g2
(g6
S'ZR8{\\\xfd\xe1?'
p59
tp60
Rp61
tp62
a(S'particle (disambiguation)'
p63
g2
(g6
S'\xea\xa2+dM\x97\xe1?'
p64
tp65
Rp66
tp67
a(S'physics'
p68
g2
(g6
S'k\x13\xcb\xa4\r\x8f\xe1?'
p69
tp70
Rp71
tp72
a(S'particle physics project prioritization panel'
p73
g2
(g6
S'\xadQ\xc1\xf9\x11q\xe1?'
p74
tp75
Rp76
tp77
a(S'peter kalmus'
p78
g2
(g6
S'\xac\x9bm\x9a\x87d\xe1?'
p79
tp80
Rp81
tp82
a(S'particle zoo'
p83
g2
(g6
S'\x83\xd7\xc8\xd4h[\xe1?'
p84
tp85
Rp86
tp87
a(S'atlas experiment'
p88
g2
(g6
S'\x03\x8e%0%N\xe1?'
p89
tp90
Rp91
tp92
a(S'large electron\xe2\x80\x93positron collider'
p93
g2
(g6
S'\xb8\x14\xb8R\x9c-\xe1?'
p94
tp95
Rp96
tp97
a(S'unparticle physics'
p98
g2
(g6
S'\x1a\x83\xb8\xd2i,\xe1?'
p99
tp100
Rp101
tp102
a(S'ada collider'
p103
g2
(g6
S'\xe5)&?\\\xe9\xe0?'
p104
tp105
Rp106
tp107
a(S'circular electron positron collider'
p108
g2
(g6
S'\x11B*J\x9d\xde\xe0?'
p109
tp110
Rp111
tp112
a(S'don lincoln'
p113
g2
(g6
S'\xda\xf3\xca\x00\xd7\xdc\xe0?'
p114
tp115
Rp116
tp117
a(S'future circular collider'
p118
g2
(g6
S'G@)\x9f\x98\xd9\xe0?'
p119
tp120
Rp121
tp122
a(S'generation (particle physics)'
p123
g2
(g6
S'\x17j-T\xfa\xce\xe0?'
p124
tp125
Rp126
tp127
a(S'v particle'
p128
g2
(g6
S'&\xdf@\x1f(\x9b\xe0?'
p129
tp130
Rp131
tp132
a(S'beam crossing'
p133
g2
(g6
S'\x8e\xbd&$\xb5\x96\xe0?'
p134
tp135
Rp136
tp137
a(S'timeline of particle discoveries'
p138
g2
(g6
S'\xc3]\xb6\xdd\xe5t\xe0?'
p139
tp140
Rp141
tp142
a(S'carlo rubbia'
p143
g2
(g6
S'\x0e\xd4\xd4\x87\x1bs\xe0?'
p144
tp145
Rp146
tp147
a(S'particle radiation'
p148
g2
(g6
S'\xee\xbe\xf6\xbc\xaeq\xe0?'
p149
tp150
Rp151
tp152
a(S'identical particles'
p153
g2
(g6
S'\xa4\x19\x7f\xa0\x9d[\xe0?'
p154
tp155
Rp156
tp157
a(S'particle beam'
p158
g2
(g6
S'cT*\xbe\xcb=\xe0?'
p159
tp160
Rp161
tp162
a(S'macroscopic scale'
p163
g2
(g6
S'(Hg\xd0s\r\xe0?'
p164
tp165
Rp166
tp167
a(S'john ellis (physicist)'
p168
g2
(g6
S'\xba\xdc\xe6\xc9\xc8\xf3\xdf?'
p169
tp170
Rp171
tp172
a(S'particle system'
p173
g2
(g6
S'\xbd\x7f-\xd4\xd0\xdd\xdf?'
p174
tp175
Rp176
tp177
a(S'bevatron'
p178
g2
(g6
S'\xb6/8\x81\x02\xd2\xdf?'
p179
tp180
Rp181
tp182
a(S'paul s\xc3\xb6ding'
p183
g2
(g6
S'\xbeo\xbb\xdb\x04\xb8\xdf?'
p184
tp185
Rp186
tp187
a(S'astroparticle physics'
p188
g2
(g6
S'?\xe0s\x18\xcf\x8c\xdf?'
p189
tp190
Rp191
tp192
a(S'jeff forshaw'
p193
g2
(g6
S'\xc4\x01LV\x9f\x85\xdf?'
p194
tp195
Rp196
tp197
a(S'm. a. b. beg'
p198
g2
(g6
S'Y\xa1\x0ej={\xdf?'
p199
tp200
Rp201
tp202
a(S'chad j. johnson'
p203
g2
(g6
S'\xc8\x11\xea\xe0\xc3u\xdf?'
p204
tp205
Rp206
tp207
a(S'calorimeter (particle physics)'
p208
g2
(g6
S'\x94\xd6A\xea1J\xdf?'
p209
tp210
Rp211
tp212
a(S'marcela carena'
p213
g2
(g6
S'\xa7&\xdb\xc3a<\xdf?'
p214
tp215
Rp216
tp217
a(S'virtual particle'
p218
g2
(g6
S'\xfa3t*\xd8\x17\xdf?'
p219
tp220
Rp221
tp222
a(S'particle size'
p223
g2
(g6
S'G\x08<\xd7\x87\r\xdf?'
p224
tp225
Rp226
tp227
a(S'photophoresis'
p228
g2
(g6
S'\xd4\xcc\x92+\xcc\xdf\xde?'
p229
tp230
Rp231
tp232
a(S'particle accelerator'
p233
g2
(g6
S'P\xed~?E\xd6\xde?'
p234
tp235
Rp236
tp237
a(S'point particle'
p238
g2
(g6
S'\x80i\xc3s\xd7\xc3\xde?'
p239
tp240
Rp241
tp242
a(S'gordon l. kane'
p243
g2
(g6
S'RE\xda\n\xf4\xa9\xde?'
p244
tp245
Rp246
tp247
a(S'particle decay'
p248
g2
(g6
S'\x1fk\x00\x9aZ\xa8\xde?'
p249
tp250
Rp251
tp252
a(S'james e. brau'
p253
g2
(g6
S'\xe3Y~\xe1\x1by\xde?'
p254
tp255
Rp256
tp257
a(S'particle accelerators in popular culture'
p258
g2
(g6
S'\xeci\x80K\x15s\xde?'
p259
tp260
Rp261
tp262
a(S'particle number'
p263
g2
(g6
S'\xd3\x13\x12\xc4\xcbb\xde?'
p264
tp265
Rp266
tp267
a(S'william rarita'
p268
g2
(g6
S'\x82\xc3#\x8e\x9eQ\xde?'
p269
tp270
Rp271
tp272
a(S'linear particle accelerator'
p273
g2
(g6
S'\xd3\xaa\xf8\xd1\xdaF\xde?'
p274
tp275
Rp276
tp277
a(S'antiparticle'
p278
g2
(g6
S'v\xde\xfd:\x127\xde?'
p279
tp280
Rp281
tp282
a(S'available energy (particle collision)'
p283
g2
(g6
S'\xac\xb7\xc4Z\xfb\xef\xdd?'
p284
tp285
Rp286
tp287
a(S'physics beyond the standard model'
p288
g2
(g6
S'\xd3r8\x83w\xe5\xdd?'
p289
tp290
Rp291
tp292
a(S'institute for theoretical and experimental physics'
p293
g2
(g6
S'\xc8b\x9aE\xa6\xc7\xdd?'
p294
tp295
Rp296
tp297
a(S'quantum field theory'
p298
g2
(g6
S'5\x15\x1a)u\xc3\xdd?'
p299
tp300
Rp301
tp302
a(S'joint institute for nuclear research'
p303
g2
(g6
S'\xb9\xaf\x8c|\x17\xb5\xdd?'
p304
tp305
Rp306
tp307
a(S'self-energy'
p308
g2
(g6
S'\xb4a\xed\x92\x0f\xae\xdd?'
p309
tp310
Rp311
tp312
a(S'list of particles'
p313
g2
(g6
S'\xce\x02\xc4\xc10\xa7\xdd?'
p314
tp315
Rp316
tp317
a(S'cecilia jarlskog'
p318
g2
(g6
S'\x14\xb1F\xc9\xafd\xdd?'
p319
tp320
Rp321
tp322
a(S'joanne l. hewett'
p323
g2
(g6
S'\x1fu\xcan\xc9;\xdd?'
p324
tp325
Rp326
tp327
a(S'particle data group'
p328
g2
(g6
S'}T\xcd\xee\xe4-\xdd?'
p329
tp330
Rp331
tp332
a(S'hadron collider'
p333
g2
(g6
S'd\x04rx\xe7\xfa\xdc?'
p334
tp335
Rp336
tp337
a(S'journal of physics g'
p338
g2
(g6
S'\x1c\x82H\x84\xdd\xf7\xdc?'
p339
tp340
Rp341
tp342
a(S'outline of physics'
p343
g2
(g6
S'Z\xb4K\xea\xc5\xf7\xdc?'
p344
tp345
Rp346
tp347
a(S'boris arbuzov (physicist)'
p348
g2
(g6
S'\x94\xb3\xb7\x97)\xf2\xdc?'
p349
tp350
Rp351
tp352
a(S'missing energy'
p353
g2
(g6
S'\x0cZ\x86\xde\xcb\xd0\xdc?'
p354
tp355
Rp356
tp357
a(S'international linear collider'
p358
g2
(g6
S'\xa2\xa5\xe8\xb3\x16\xce\xdc?'
p359
tp360
Rp361
tp362
a(S'computational particle physics'
p363
g2
(g6
S'\x8c\xed\\q\x00\xa9\xdc?'
p364
tp365
Rp366
tp367
a(S'ashutosh kotwal'
p368
g2
(g6
S'\x9ejY\xb7c\x9e\xdc?'
p369
tp370
Rp371
tp372
a(S'dressed particle'
p373
g2
(g6
S'\xaf\xfb~M7\x9a\xdc?'
p374
tp375
Rp376
tp377
a(S'contemporary physics education project'
p378
g2
(g6
S'\x96W\xd3`\xd9\x8e\xdc?'
p379
tp380
Rp381
tp382
a(S'donald hill perkins'
p383
g2
(g6
S'6\x1b \x1f8i\xdc?'
p384
tp385
Rp386
tp387
a(S'accelerator physics'
p388
g2
(g6
S'\x05\xe2x]\x8cf\xdc?'
p389
tp390
Rp391
tp392
a(S'radial distribution function'
p393
g2
(g6
S'\xcb9Ps\xead\xdc?'
p394
tp395
Rp396
tp397
a(S'particle mesh'
p398
g2
(g6
S'\x14\xa7C\x1a\xf5C\xdc?'
p399
tp400
Rp401
tp402
a(S'vera l\xc3\xbcth'
p403
g2
(g6
S'v\xbf!D\x89C\xdc?'
p404
tp405
Rp406
tp407
a(S'bennie ward'
p408
g2
(g6
S'd\x10Kd\x85@\xdc?'
p409
tp410
Rp411
tp412
a(S'myron l. good'
p413
g2
(g6
S'1\xfdC\xa3\x14=\xdc?'
p414
tp415
Rp416
tp417
a(S'first quantization'
p418
g2
(g6
S'X\xad\xc8\xf0n/\xdc?'
p419
tp420
Rp421
tp422
a(S'hermetic detector'
p423
g2
(g6
S'\x95\xb0\x1d\xa1\xdb*\xdc?'
p424
tp425
Rp426
tp427
a(S'particle-size distribution'
p428
g2
(g6
S'^\xbb_\x8b\xfc)\xdc?'
p429
tp430
Rp431
tp432
a(S'institute of high energy physics'
p433
g2
(g6
S'H\xf5\xba[\x8e!\xdc?'
p434
tp435
Rp436
tp437
a(S'wave\xe2\x80\x93particle duality'
p438
g2
(g6
S'\xb5\x18\xec]}!\xdc?'
p439
tp440
Rp441
tp442
a(S'alan martin (physicist)'
p443
g2
(g6
S'H\xda\x16\xe3j\r\xdc?'
p444
tp445
Rp446
tp447
a(S'p3m'
p448
g2
(g6
S'\xb3m\x1cJ\x9d\n\xdc?'
p449
tp450
Rp451
tp452
a(S'school of physics (university college dublin)'
p453
g2
(g6
S'\x91\x12zw_\xfb\xdb?'
p454
tp455
Rp456
tp457
a(S'large hadron collider'
p458
g2
(g6
S'\xfaR\xd8\x96`\xf1\xdb?'
p459
tp460
Rp461
tp462
a(S'single-particle spectrum'
p463
g2
(g6
S'_\xd0j\\3\xe4\xdb?'
p464
tp465
Rp466
tp467
a(S'particle physics in cosmology'
p468
g2
(g6
S'\x1ew\xbeL\xcc\xe1\xdb?'
p469
tp470
Rp471
tp472
a(S'particle-beam weapon'
p473
g2
(g6
S'\xe0\xa32uN\xd9\xdb?'
p474
tp475
Rp476
tp477
a(S'sau lan wu'
p478
g2
(g6
S'\xed%m.j\xce\xdb?'
p479
tp480
Rp481
tp482
a(S'sakurai prize'
p483
g2
(g6
S'\x10\xa3\x12\xab\x15\xba\xdb?'
p484
tp485
Rp486
tp487
a(S'centre for high energy physics'
p488
g2
(g6
S'\xc7\x9d\x1f2*\xa4\xdb?'
p489
tp490
Rp491
tp492
a(S'cosmotron'
p493
g2
(g6
S'\xd3h*\x8f\x99\xa3\xdb?'
p494
tp495
Rp496
tp497
a(S'oh-my-god particle'
p498
g2
(g6
S'+R9\xf7\xe9\x9b\xdb?'
p499
tp500
Rp501
tp502
a(S'frontiers of physics in china'
p503
g2
(g6
S'\x06\xc90\x97t\x97\xdb?'
p504
tp505
Rp506
tp507
a(S'microphysics'
p508
g2
(g6
S'\x19\xf1\x97\t\xa4\x94\xdb?'
p509
tp510
Rp511
tp512
a(S'relativistic heavy ion collider'
p513
g2
(g6
S'\x17\x88\xcb\xc8E\x80\xdb?'
p514
tp515
Rp516
tp517
a(S'ivan ani\xc4\x8din'
p518
g2
(g6
S'+t\xcdL\xc4{\xdb?'
p519
tp520
Rp521
tp522
a(S'glueball'
p523
g2
(g6
S'\xaf\xf5\xef\xa2\xa8v\xdb?'
p524
tp525
Rp526
tp527
a(S'richard keith ellis'
p528
g2
(g6
S'\xebM\xfa)\xc3`\xdb?'
p529
tp530
Rp531
tp532
a(S'bare mass'
p533
g2
(g6
S'\x89<\x81b\x1f`\xdb?'
p534
tp535
Rp536
tp537
a(S'annihilation'
p538
g2
(g6
S'v\xda\x15\x87\xacH\xdb?'
p539
tp540
Rp541
tp542
a(S'the racah institute of physics'
p543
g2
(g6
S'\x1dW\x8c6\nD\xdb?'
p544
tp545
Rp546
tp547
a(S'stanford institute for theoretical physics'
p548
g2
(g6
S'\x08\xd1jH4>\xdb?'
p549
tp550
Rp551
tp552
a(S'timeline of particle physics'
p553
g2
(g6
S'\xdd\x9b\x05\x8c\xb77\xdb?'
p554
tp555
Rp556
tp557
a(S'bruce winstein'
p558
g2
(g6
S'\xaf\x19\xb0P\x0e7\xdb?'
p559
tp560
Rp561
tp562
a(S'particle counter'
p563
g2
(g6
S'\x8es"4\x85#\xdb?'
p564
tp565
Rp566
tp567
a(S'timeline of quantum mechanics'
p568
g2
(g6
S'"\xf3\xb8-\xc4\x1d\xdb?'
p569
tp570
Rp571
tp572
a(S'gian francesco giudice'
p573
g2
(g6
S'\xc2\xa3\xfd\xc4\xe9\x19\xdb?'
p574
tp575
Rp576
tp577
a(S'compact muon solenoid'
p578
g2
(g6
S'\xe2\x90\xfe^\xf2\x01\xdb?'
p579
tp580
Rp581
tp582
a(S'herwig schopper'
p583
g2
(g6
S'"jYm:\xff\xda?'
p584
tp585
Rp586
tp587
a(S'cornell electron storage ring'
p588
g2
(g6
S'\xc8\xe8\x9b\xdf\xfa\xfd\xda?'
p589
tp590
Rp591
tp592
a(S'accelerator physics codes'
p593
g2
(g6
S'\xe6\xd1\xc6\xa2\xf9\xd0\xda?'
p594
tp595
Rp596
tp597
a(S'd0 experiment'
p598
g2
(g6
S'\xc2&c\xec\x83\xc9\xda?'
p599
tp600
Rp601
tp602
a(S'higgs boson'
p603
g2
(g6
S'\x96\xc3\x1cX5\xc9\xda?'
p604
tp605
Rp606
tp607
a(S'yerevan physics institute'
p608
g2
(g6
S'\\\xdf=\xa7\x03\xc9\xda?'
p609
tp610
Rp611
tp612
a(S'free particle'
p613
g2
(g6
S'\x97\x038\x1b\xab\xbd\xda?'
p614
tp615
Rp616
tp617
a(S'santa cruz institute for particle physics'
p618
g2
(g6
S'N\x00\xc1\xe9U\xbc\xda?'
p619
tp620
Rp621
tp622
a(S'grand canonical ensemble'
p623
g2
(g6
S',\\|\xa0\xd5\xb9\xda?'
p624
tp625
Rp626
tp627
a(S'range (particle radiation)'
p628
g2
(g6
S'\xfe7`\x83X\xac\xda?'
p629
tp630
Rp631
tp632
a(S'nicholas p. samios'
p633
g2
(g6
S'\xe8[\xac\xbb\xde\x8f\xda?'
p634
tp635
Rp636
tp637
a(S'index of physics articles (p)'
p638
g2
(g6
S'\x9fz\x9a\xf2>\x7f\xda?'
p639
tp640
Rp641
tp642
a(S'heidi schellman'
p643
g2
(g6
S'S\xa1f\r\xa5u\xda?'
p644
tp645
Rp646
tp647
a(S'neutral particle'
p648
g2
(g6
S'*\xd9u&\x0fl\xda?'
p649
tp650
Rp651
tp652
a(S'tara shears'
p653
g2
(g6
S'&\x1b\xbd\x85\x19[\xda?'
p654
tp655
Rp656
tp657
a(S'interaction point'
p658
g2
(g6
S'_\xed\x12\x9d\xe3B\xda?'
p659
tp660
Rp661
tp662
a(S'glossary of physics'
p663
g2
(g6
S'\x8c\xf2\x84\xc3C;\xda?'
p664
tp665
Rp666
tp667
a(S'exchange force'
p668
g2
(g6
S'\xc4R\x89\x85\x954\xda?'
p669
tp670
Rp671
tp672
a(S'particle-in-cell'
p673
g2
(g6
S'\x08\x1b\x03|\xa71\xda?'
p674
tp675
Rp676
tp677
a(S'amitava datta'
p678
g2
(g6
S'3.\x1c\xeb\x1c,\xda?'
p679
tp680
Rp681
tp682
a(S'boris struminsky'
p683
g2
(g6
S'Qt:\xd6;%\xda?'
p684
tp685
Rp686
tp687
a(S'gaetano vignola'
p688
g2
(g6
S'\xb8\x84<\xc6\xa2 \xda?'
p689
tp690
Rp691
tp692
a(S'ultra-high-energy cosmic ray'
p693
g2
(g6
S'\xc0s\x9fh1\x1e\xda?'
p694
tp695
Rp696
tp697
a(S'the god particle'
p698
g2
(g6
S'\xef\xc7\xa7\x03\xd7\x18\xda?'
p699
tp700
Rp701
tp702
a(S'izon science'
p703
g2
(g6
S'\xc4%\x95\xb4\xb5\x16\xda?'
p704
tp705
Rp706
tp707
a(S'plekton'
p708
g2
(g6
S'}\xe9\xabE\xe5\n\xda?'
p709
tp710
Rp711
tp712
a(S'instituto de f\xc3\xadsica corpuscular'
p713
g2
(g6
S'E-C\xa6m\xff\xd9?'
p714
tp715
Rp716
tp717
a(S'particle deposition'
p718
g2
(g6
S'@kjA\xc2\xfc\xd9?'
p719
tp720
Rp721
tp722
a(S'physics (disambiguation)'
p723
g2
(g6
S'|@u\xe7:\xf6\xd9?'
p724
tp725
Rp726
tp727
a(S'r-hadron'
p728
g2
(g6
S'\xb9\x14&m|\xf5\xd9?'
p729
tp730
Rp731
tp732
a(S'charged particle beam'
p733
g2
(g6
S'\x87\xb38sT\xf3\xd9?'
p734
tp735
Rp736
tp737
a(S'breakthrough prize in fundamental physics'
p738
g2
(g6
S"\xa2\x98'\xe7p\xe9\xd9?"
p739
tp740
Rp741
tp742
a(S'grammatical particle'
p743
g2
(g6
S'\xec:\n\xe9\xb3\xe3\xd9?'
p744
tp745
Rp746
tp747
a(S'research institute for nuclear problems of belarusian state university'
p748
g2
(g6
S'\xbb\xf8\xa2\x8bL\xd8\xd9?'
p749
tp750
Rp751
tp752
a(S'multiphase particle-in-cell method'
p753
g2
(g6
S'\xac\xd7\xa1\xc4\x12\xd7\xd9?'
p754
tp755
Rp756
tp757
a(S'threshold energy'
p758
g2
(g6
S'\xe0\x91_)\xeb\xce\xd9?'
p759
tp760
Rp761
tp762
a(S'rohini godbole'
p763
g2
(g6
S'l\xc4\x8e@\xd4\xcd\xd9?'
p764
tp765
Rp766
tp767
a(S's. peter rosen'
p768
g2
(g6
S'eB&\x8a\xb1\xcb\xd9?'
p769
tp770
Rp771
tp772
a(S'the god particle (book)'
p773
g2
(g6
S'.y\xe0@!\xbe\xd9?'
p774
tp775
Rp776
tp777
a(S'tejinder virdee'
p778
g2
(g6
S'\xeb\xa1\x9f?j\xb2\xd9?'
p779
tp780
Rp781
tp782
a(S'game physics'
p783
g2
(g6
S'\xd1"\xc4\x1eN\xb0\xd9?'
p784
tp785
Rp786
tp787
a(S'fundamental interaction'
p788
g2
(g6
S'3\x7f\xc1\x14\xdb\xa8\xd9?'
p789
tp790
Rp791
tp792
a(S'w and z bosons'
p793
g2
(g6
S'F\xf7\x12\xe4v\xa7\xd9?'
p794
tp795
Rp796
tp797
a(S'energy recovery linac'
p798
g2
(g6
S'\xed\xedc\xf6\xd0\x80\xd9?'
p799
tp800
Rp801
tp802
a(S'desert (particle physics)'
p803
g2
(g6
S'IJ\xdd\x1d&|\xd9?'
p804
tp805
Rp806
tp807
a(S'superpartner'
p808
g2
(g6
S'\xe4\x8fW\xbe\xccv\xd9?'
p809
tp810
Rp811
tp812
a(S'calice'
p813
g2
(g6
S'\xab\xe1\\qFt\xd9?'
p814
tp815
Rp816
tp817
a(S'neutralino'
p818
g2
(g6
S'\xd20\xb2\r\xfbs\xd9?'
p819
tp820
Rp821
tp822
a(S'n-body simulation'
p823
g2
(g6
S'Y\xb9\xbb\xa5Ur\xd9?'
p824
tp825
Rp826
tp827
a(S'1964 prl symmetry breaking papers'
p828
g2
(g6
S'z$|qCq\xd9?'
p829
tp830
Rp831
tp832
a(S'clas detector'
p833
g2
(g6
S'\x90r\xb6\x10\xacn\xd9?'
p834
tp835
Rp836
tp837
a(S'minicharged particle'
p838
g2
(g6
S"\xa2|'\x8bFm\xd9?"
p839
tp840
Rp841
tp842
a(S'particle density (particle count)'
p843
g2
(g6
S'X\n[\xa1\xacj\xd9?'
p844
tp845
Rp846
tp847
a(S'experimental physics'
p848
g2
(g6
S'Xl\xdf30g\xd9?'
p849
tp850
Rp851
tp852
a(S'phenomenology (particle physics)'
p853
g2
(g6
S'\xd6\x9c\x82Z\xdfN\xd9?'
p854
tp855
Rp856
tp857
a(S'aleksander akhiezer'
p858
g2
(g6
S'\xa8\xc4\xce\xec\x83K\xd9?'
p859
tp860
Rp861
tp862
a(S'bootstrap model'
p863
g2
(g6
S'\x01\x0ev\x1a\x9f;\xd9?'
p864
tp865
Rp866
tp867
a(S'history of physics'
p868
g2
(g6
S'-\xb9\xdd4\x869\xd9?'
p869
tp870
Rp871
tp872
a(S'physics letters'
p873
g2
(g6
S'\xb2mN[\r6\xd9?'
p874
tp875
Rp876
tp877
a(S'ukrainian journal of physics'
p878
g2
(g6
S'\x89\x9a\xbc\xffi)\xd9?'
p879
tp880
Rp881
tp882
a(S'saltation (geology)'
p883
g2
(g6
S"\x85\x80\x96\xe2\xaf'\xd9?"
p884
tp885
Rp886
tp887
a(S'chris quigg'
p888
g2
(g6
S'\x93\xef\x0fWw#\xd9?'
p889
tp890
Rp891
tp892
a(S'ian hinchliffe'
p893
g2
(g6
S'\x8c\x8c\x1b\x03\xc3\x1d\xd9?'
p894
tp895
Rp896
tp897
a(S'guido tonelli'
p898
g2
(g6
S'~\xc6z?\xe8\x15\xd9?'
p899
tp900
Rp901
tp902
a(S'population balance equation'
p903
g2
(g6
S'}ayN\x94\x0f\xd9?'
p904
tp905
Rp906
tp907
a(S'physics world'
p908
g2
(g6
S'\xf9\x16/x\x94\x0b\xd9?'
p909
tp910
Rp911
tp912
a(S'pseudorapidity'
p913
g2
(g6
S'\\IE\xee\x04\x0b\xd9?'
p914
tp915
Rp916
tp917
a(S'charged particle'
p918
g2
(g6
S'^\xe9\x08%\xb9\n\xd9?'
p919
tp920
Rp921
tp922
a(S'particle statistics'
p923
g2
(g6
S'\xbd\n\xdd\x9a\x9d\t\xd9?'
p924
tp925
Rp926
tp927
a(S'eyvind wichmann'
p928
g2
(g6
S'8\x9a"\xd1\x93\t\xd9?'
p929
tp930
Rp931
tp932
a(S'btev experiment'
p933
g2
(g6
S'i\xde`\x90\r\x08\xd9?'
p934
tp935
Rp936
tp937
a(S'micromeritics'
p938
g2
(g6
S'eU\tTR\x07\xd9?'
p939
tp940
Rp941
tp942
a(S'history of string theory'
p943
g2
(g6
S'\xfa>$\xcbp\x01\xd9?'
p944
tp945
Rp946
tp947
a(S'lev okun'
p948
g2
(g6
S'\xcb\xabG\x11\xac\xff\xd8?'
p949
tp950
Rp951
tp952
a(S'mariangela lisanti'
p953
g2
(g6
S'\x10A~q\xfb\xe2\xd8?'
p954
tp955
Rp956
tp957
a(S'electron scattering'
p958
g2
(g6
S'.\x10\x1b\xfa\x9c\xe0\xd8?'
p959
tp960
Rp961
tp962
a(S'mean inter-particle distance'
p963
g2
(g6
S'\x9etQ\x95\xfe\xdb\xd8?'
p964
tp965
Rp966
tp967
a(S'particle identification'
p968
g2
(g6
S'\xf2\x91\xa7\x19w\xd9\xd8?'
p969
tp970
Rp971
tp972
a(S'higgs boson in fiction'
p973
g2
(g6
S'\xf4L\xd7:\xa0\xd5\xd8?'
p974
tp975
Rp976
tp977
a(S'tracking (particle physics)'
p978
g2
(g6
S',\x97oM\x8e\xd2\xd8?'
p979
tp980
Rp981
tp982
a(S'quantum triviality'
p983
g2
(g6
S'=y\x90*\xf1\xc1\xd8?'
p984
tp985
Rp986
tp987
a(S'gas in a box'
p988
g2
(g6
S'\xf5\x85\xd0J\t\xa5\xd8?'
p989
tp990
Rp991
tp992
a(S'theory of everything'
p993
g2
(g6
S'\xb4\xba\x12Ic\xa1\xd8?'
p994
tp995
Rp996
tp997
a(S'stochastic cooling'
p998
g2
(g6
S'io\xa6\x06\xe2\x9e\xd8?'
p999
tp1000
Rp1001
tp1002
a(S'barry barish'
p1003
g2
(g6
S'\xd1\x14s\x8d\xa9\x97\xd8?'
p1004
tp1005
Rp1006
tp1007
a(S'atomic theory'
p1008
g2
(g6
S';\xbe\x9cOZ\x90\xd8?'
p1009
tp1010
Rp1011
tp1012
a(S'particle size analysis'
p1013
g2
(g6
S'\xcea\x88\x02\xa2\x87\xd8?'
p1014
tp1015
Rp1016
tp1017
a(S'physics outreach'
p1018
g2
(g6
S'4\xd7\x16\xda\x87o\xd8?'
p1019
tp1020
Rp1021
tp1022
a(S'alice experiment'
p1023
g2
(g6
S'\x98\xb7\xa5!\xf7l\xd8?'
p1024
tp1025
Rp1026
tp1027
a(S'james stirling (physicist)'
p1028
g2
(g6
S'\xba\xb4\xea\x8d\x98h\xd8?'
p1029
tp1030
Rp1031
tp1032
a(S'cherenkov radiation'
p1033
g2
(g6
S'H\x02\xccN\xf1U\xd8?'
p1034
tp1035
Rp1036
tp1037
a(S'imaging particle analysis'
p1038
g2
(g6
S'\x7f\x9c\xf3XXR\xd8?'
p1039
tp1040
Rp1041
tp1042
a(S'tevatron'
p1043
g2
(g6
S"'\xcf\x15\x85fN\xd8?"
p1044
tp1045
Rp1046
tp1047
a(S'nanoparticle tracking analysis'
p1048
g2
(g6
S'\x05H\xe7\t\xb8E\xd8?'
p1049
tp1050
Rp1051
tp1052
a(S'quasiparticle'
p1053
g2
(g6
S'`\x00\x8dnqE\xd8?'
p1054
tp1055
Rp1056
tp1057
a(S'school of physics and astronomy, university of manchester'
p1058
g2
(g6
S'\x18h\xec\x83\xd0@\xd8?'
p1059
tp1060
Rp1061
tp1062
a(S'standard model (mathematical formulation)'
p1063
g2
(g6
S'-}\xfdE\xa0@\xd8?'
p1064
tp1065
Rp1066
tp1067
a(S'john david jackson (physicist)'
p1068
g2
(g6
S'\xea\x02\xe6^\xb9<\xd8?'
p1069
tp1070
Rp1071
tp1072
a(S'mandelstam variables'
p1073
g2
(g6
S"\xf5`\x90\xce?'\xd8?"
p1074
tp1075
Rp1076
tp1077
a(S'list of unsolved problems in physics'
p1078
g2
(g6
S'|+\xff\x99n\x1b\xd8?'
p1079
tp1080
Rp1081
tp1082
a(S'anomalon'
p1083
g2
(g6
S'\xb6Y\xab\xbas\x12\xd8?'
p1084
tp1085
Rp1086
tp1087
a(S'roman pot'
p1088
g2
(g6
S',v\x9c\x9f^\x11\xd8?'
p1089
tp1090
Rp1091
tp1092
a(S'theoretical physics'
p1093
g2
(g6
S'\xb8\xf5\xb4\xa4\xb4\r\xd8?'
p1094
tp1095
Rp1096
tp1097
a(S'geant4'
p1098
g2
(g6
S'\xa7!\xc5%L\x07\xd8?'
p1099
tp1100
Rp1101
tp1102
a(S'synchro-cyclotron (cern)'
p1103
g2
(g6
S'M\xc5\xee\xf7I\x03\xd8?'
p1104
tp1105
Rp1106
tp1107
a(S'warped passages'
p1108
g2
(g6
S'\xc8-k\xe0H\x03\xd8?'
p1109
tp1110
Rp1111
tp1112
a(S'storage ring'
p1113
g2
(g6
S'\xe6\x9f\x1b\xb6i\x00\xd8?'
p1114
tp1115
Rp1116
tp1117
a(S'journal of physics'
p1118
g2
(g6
S'\xb0BY\x9d\xaf\xfb\xd7?'
p1119
tp1120
Rp1121
tp1122
a(S'hans grassmann'
p1123
g2
(g6
S'6\x9adp\xf1\xf8\xd7?'
p1124
tp1125
Rp1126
tp1127
a(S'introduction to quantum mechanics'
p1128
g2
(g6
S'\x8d\x86\xf19\xa6\xf1\xd7?'
p1129
tp1130
Rp1131
tp1132
a(S'aerosol'
p1133
g2
(g6
S'V\xd9b\x0f\x82\xf0\xd7?'
p1134
tp1135
Rp1136
tp1137
a(S'many-body theory'
p1138
g2
(g6
S'\x0bG%\x9b\xe1\xef\xd7?'
p1139
tp1140
Rp1141
tp1142
a(S'maria spiropulu'
p1143
g2
(g6
S'\x83YM\xf3\xda\xe9\xd7?'
p1144
tp1145
Rp1146
tp1147
a(S'safety of high-energy particle collision experiments'
p1148
g2
(g6
S'\xb7l~\xddf\xe7\xd7?'
p1149
tp1150
Rp1151
tp1152
a(S'list of important publications in physics'
p1153
g2
(g6
S'\x08\x82ev\xae\xe6\xd7?'
p1154
tp1155
Rp1156
tp1157
a(S'particle-laden flows'
p1158
g2
(g6
S'?\xcf\x89 X\xe3\xd7?'
p1159
tp1160
Rp1161
tp1162
a(S'unk proton accelerator'
p1163
g2
(g6
S'\xab\xcc\xa5*i\xda\xd7?'
p1164
tp1165
Rp1166
tp1167
a(S'ghirardi\xe2\x80\x93rimini\xe2\x80\x93weber theory'
p1168
g2
(g6
S'{\x1c\x99f"\xd6\xd7?'
p1169
tp1170
Rp1171
tp1172
a(S'lyn evans'
p1173
g2
(g6
S'\xcf<"\x1a\xe0\xd3\xd7?'
p1174
tp1175
Rp1176
tp1177
a(S'primon gas'
p1178
g2
(g6
S'i\x03\x8a\t\x18\xd2\xd7?'
p1179
tp1180
Rp1181
tp1182
a(S'matter'
p1183
g2
(g6
S'|\x7f\x11\r\xbf\xcc\xd7?'
p1184
tp1185
Rp1186
tp1187
a(S'william a. bardeen'
p1188
g2
(g6
S'^w\\n;\xc8\xd7?'
p1189
tp1190
Rp1191
tp1192
a(S'particle in a box'
p1193
g2
(g6
S'^\xf4Zl\xea\xc7\xd7?'
p1194
tp1195
Rp1196
tp1197
a(S'asymmetric simple exclusion process'
p1198
g2
(g6
S'\xca\xb7\xa8\x87\xfb\xc3\xd7?'
p1199
tp1200
Rp1201
tp1202
a(S'lowell s. brown'
p1203
g2
(g6
S'\xf0\xa3Bj`\xbd\xd7?'
p1204
tp1205
Rp1206
tp1207
a(S'louise dolan'
p1208
g2
(g6
S'I,\xde\xe8y\xbb\xd7?'
p1209
tp1210
Rp1211
tp1212
a(S'monte carlo localization'
p1213
g2
(g6
S'\xed\x96\xab)\x1e\xb2\xd7?'
p1214
tp1215
Rp1216
tp1217
a(S'helen quinn'
p1218
g2
(g6
S'X\xed\xe3\xfbx\xa1\xd7?'
p1219
tp1220
Rp1221
tp1222
a(S'deep inelastic scattering'
p1223
g2
(g6
S'\xa6\x94u\x85/\xa1\xd7?'
p1224
tp1225
Rp1226
tp1227
a(S'riazuddin (physicist)'
p1228
g2
(g6
S'\x86\x14-;\xab\x9b\xd7?'
p1229
tp1230
Rp1231
tp1232
a(S'acoplanarity'
p1233
g2
(g6
S'\x01\x979\xc9%\x94\xd7?'
p1234
tp1235
Rp1236
tp1237
a(S'evgenii feinberg'
p1238
g2
(g6
S')h\x12\xd8g\x91\xd7?'
p1239
tp1240
Rp1241
tp1242
a(S'institute of physics of the university of pavol jozef \xc5\xa0af\xc3\xa1rik'
p1243
g2
(g6
S'X3\x1d\x94\xe9z\xd7?'
p1244
tp1245
Rp1246
tp1247
a(S'hafeez hoorani'
p1248
g2
(g6
S'k\xba\nk\xbdv\xd7?'
p1249
tp1250
Rp1251
tp1252
a(S'lawrence w. jones'
p1253
g2
(g6
S',\xfa\xa9u\\v\xd7?'
p1254
tp1255
Rp1256
tp1257
a(S'thomas appelquist'
p1258
g2
(g6
S'u\xc2\x04\xb3\xf8^\xd7?'
p1259
tp1260
Rp1261
tp1262
a(S'karen ter-martirosian'
p1263
g2
(g6
S';%\xfa\xb9\xb0V\xd7?'
p1264
tp1265
Rp1266
tp1267
a(S'abdus salam centre for physics'
p1268
g2
(g6
S'\x8f!/w\xfaU\xd7?'
p1269
tp1270
Rp1271
tp1272
a(S'ultrarelativistic limit'
p1273
g2
(g6
S'\xa9\xe4\xa2sfQ\xd7?'
p1274
tp1275
Rp1276
tp1277
a(S'history of quantum field theory'
p1278
g2
(g6
S'+\x17\xec\x12SP\xd7?'
p1279
tp1280
Rp1281
tp1282
a(S'higgs sector'
p1283
g2
(g6
S'f\xc7P\xd2(L\xd7?'
p1284
tp1285
Rp1286
tp1287
a(S'ring-imaging cherenkov detector'
p1288
g2
(g6
S'w\xde\xafx\x18K\xd7?'
p1289
tp1290
Rp1291
tp1292
a(S'howard georgi'
p1293
g2
(g6
S'\xbe\xaf\xcb?\x93G\xd7?'
p1294
tp1295
Rp1296
tp1297
a(S'particle filter'
p1298
g2
(g6
S'V(\xa4\xc2gC\xd7?'
p1299
tp1300
Rp1301
tp1302
a(S'gamow factor'
p1303
g2
(g6
S'\x86.]L\x95>\xd7?'
p1304
tp1305
Rp1306
tp1307
a(S'ofer comay'
p1308
g2
(g6
S"')\xc3\xdd\x90>\xd7?"
p1309
tp1310
Rp1311
tp1312
a(S'outline of applied physics'
p1313
g2
(g6
S'\xf8\x13k\x9c\x868\xd7?'
p1314
tp1315
Rp1316
tp1317
a(S'richard dalitz'
p1318
g2
(g6
S'}.\xa0K\xc36\xd7?'
p1319
tp1320
Rp1321
tp1322
a(S'physicist'
p1323
g2
(g6
S'EN?\xc2\x96/\xd7?'
p1324
tp1325
Rp1326
tp1327
a(S'beam emittance'
p1328
g2
(g6
S'"\x1f^4\xe3\'\xd7?'
p1329
tp1330
Rp1331
tp1332
a(S'theoretical advanced study institute'
p1333
g2
(g6
S'i\x1fo\xbd{"\xd7?'
p1334
tp1335
Rp1336
tp1337
a(S'quarknet'
p1338
g2
(g6
S'\xce\x88xsI\x1e\xd7?'
p1339
tp1340
Rp1341
tp1342
a(S'anyon'
p1343
g2
(g6
S'r~\xf8\xdd>\x1d\xd7?'
p1344
tp1345
Rp1346
tp1347
a(S'high energy physics advisory panel'
p1348
g2
(g6
S'\xaa\x85\xe8\xc0z\x1c\xd7?'
p1349
tp1350
Rp1351
tp1352
a(S'lhec'
p1353
g2
(g6
S'\x97\xe3\xa2\xddb\x16\xd7?'
p1354
tp1355
Rp1356
tp1357
a(S'list of physics journals'
p1358
g2
(g6
S'\xd3\x93\xb3b\xf0\x15\xd7?'
p1359
tp1360
Rp1361
tp1362
a(S'initial and final state radiation'
p1363
g2
(g6
S'\x8c\xb6\xfa\xda\xc3\x11\xd7?'
p1364
tp1365
Rp1366
tp1367
a(S'segr\xc3\xa9\xe2\x80\x93silberberg effect'
p1368
g2
(g6
S'\xe5e\x9f\x00\xee\x07\xd7?'
p1369
tp1370
Rp1371
tp1372
a(S'chinese physics c'
p1373
g2
(g6
S'R\x91\x0b\xdd\r\x05\xd7?'
p1374
tp1375
Rp1376
tp1377
a(S'fermi\xe2\x80\x93dirac statistics'
p1378
g2
(g6
S'\xc8\xca\xe5\\\xc2\x01\xd7?'
p1379
tp1380
Rp1381
tp1382
a(S'mohammad sajjad alam'
p1383
g2
(g6
S'\x97K\xae>Y\x00\xd7?'
p1384
tp1385
Rp1386
tp1387
a(S'durham university department of physics'
p1388
g2
(g6
S';\xec\xd85\xa8\xf5\xd6?'
p1389
tp1390
Rp1391
tp1392
a(S'chinese physics'
p1393
g2
(g6
S'\\)\x9ae\xcb\xf4\xd6?'
p1394
tp1395
Rp1396
tp1397
a(S'nuclear physics'
p1398
g2
(g6
S'\x19\x12\xd7\xfc\x9f\xf3\xd6?'
p1399
tp1400
Rp1401
tp1402
a(S'sentence-final particle'
p1403
g2
(g6
S'\x0f\x85\xb2s\x9d\xf2\xd6?'
p1404
tp1405
Rp1406
tp1407
a(S'holger bech nielsen'
p1408
g2
(g6
S'\xfc\xb1\xa7t"\xed\xd6?'
p1409
tp1410
Rp1411
tp1412
a(S'compact linear collider'
p1413
g2
(g6
S'B\x01\x82D\t\xe9\xd6?'
p1414
tp1415
Rp1416
tp1417
a(S'bruno touschek'
p1418
g2
(g6
S'\xa4\x10\x82\xc0\xaf\xd6\xd6?'
p1419
tp1420
Rp1421
tp1422
a(S'slac national accelerator laboratory'
p1423
g2
(g6
S'\xa5\x8d\xff\xe4N\xd6\xd6?'
p1424
tp1425
Rp1426
tp1427
a(S'roger dashen'
p1428
g2
(g6
S'\xddM\xfb{f\xd5\xd6?'
p1429
tp1430
Rp1431
tp1432
a(S'wolf prize in physics'
p1433
g2
(g6
S'\x87\xd96*}\xcc\xd6?'
p1434
tp1435
Rp1436
tp1437
a(S'george kalmus'
p1438
g2
(g6
S'~\x90\xc0\xe3\xb9\xc4\xd6?'
p1439
tp1440
Rp1441
tp1442
a(S'american physical society'
p1443
g2
(g6
S's<\xa0\xbe\x9e\xc2\xd6?'
p1444
tp1445
Rp1446
tp1447
a(S'particle collection in wet scrubbers'
p1448
g2
(g6
S'H,\xc1?\x07\xc2\xd6?'
p1449
tp1450
Rp1451
tp1452
a(S'y(4140)'
p1453
g2
(g6
S'"\x96#@\xe1\xc1\xd6?'
p1454
tp1455
Rp1456
tp1457
a(S'750 gev diphoton excess'
p1458
g2
(g6
S'63\xcbu\xe4\xc0\xd6?'
p1459
tp1460
Rp1461
tp1462
a(S'particle fever'
p1463
g2
(g6
S'\xf9U\x91py\xc0\xd6?'
p1464
tp1465
Rp1466
tp1467
a(S'intersecting storage rings'
p1468
g2
(g6
S'\x1cc\x91f\xda\xbf\xd6?'
p1469
tp1470
Rp1471
tp1472
a(S'carlos e.m. wagner'
p1473
g2
(g6
S'\x98Ji\x9fo\xbb\xd6?'
p1474
tp1475
Rp1476
tp1477
a(S'neutral current'
p1478
g2
(g6
S'\xbfrl\xdb\x8e\xb7\xd6?'
p1479
tp1480
Rp1481
tp1482
a(S'physics education'
p1483
g2
(g6
S'hh4\tu\xb6\xd6?'
p1484
tp1485
Rp1486
tp1487
a(S"le sage's theory of gravitation"
p1488
g2
(g6
S'\xf0PJ\x810\xab\xd6?'
p1489
tp1490
Rp1491
tp1492
a(S'vladimir gribov'
p1493
g2
(g6
S'C)\x9bT*\xab\xd6?'
p1494
tp1495
Rp1496
tp1497
a(S'lhcb experiment'
p1498
g2
(g6
S']D\xbcC\x07\xab\xd6?'
p1499
tp1500
Rp1501
tp1502
a(S'james bjorken'
p1503
g2
(g6
S'm\x88\xb1\x82\xe4\xa7\xd6?'
p1504
tp1505
Rp1506
tp1507
a(S'zz diboson'
p1508
g2
(g6
S'Z]\x06\xb5\xb9\xa0\xd6?'
p1509
tp1510
Rp1511
tp1512
a.