(lp0
(S'pixel'
p1
cnumpy.core.multiarray
scalar
p2
(cnumpy
dtype
p3
(S'f8'
p4
I0
I1
tp5
Rp6
(I3
S'<'
p7
NNNI-1
I-1
I0
tp8
bS'\x01\x00\x00\x00\x00\x00\xf0?'
p9
tp10
Rp11
tp12
a(S'pixel artist'
p13
g2
(g6
S'/\x1d\xb7\xf91C\xe7?'
p14
tp15
Rp16
tp17
a(S'image resolution'
p18
g2
(g6
S'\xe98\xfb\x1c\xbe\xf2\xe3?'
p19
tp20
Rp21
tp22
a(S'sub-pixel resolution'
p23
g2
(g6
S'/\xaf\x8dv\xd4\xe9\xe3?'
p24
tp25
Rp26
tp27
a(S'pixel connectivity'
p28
g2
(g6
S'\xa7\xdd\xa0\xd5{\xbe\xe3?'
p29
tp30
Rp31
tp32
a(S'defective pixel'
p33
g2
(g6
S'\xa8\xfc\xc2\x05%Z\xe3?'
p34
tp35
Rp36
tp37
a(S'directional cubic convolution interpolation'
p38
g2
(g6
S'Nmz=m\xc9\xe2?'
p39
tp40
Rp41
tp42
a(S'pixel (disambiguation)'
p43
g2
(g6
S'G\xb9\xc7\xe9\xa0\xb0\xe2?'
p44
tp45
Rp46
tp47
a(S'active pixel sensor'
p48
g2
(g6
S'!q:\xed$y\xe2?'
p49
tp50
Rp51
tp52
a(S'video sequences saliency map'
p53
g2
(g6
S'nK\x9e\xe66W\xe2?'
p54
tp55
Rp56
tp57
a(S'pixel art'
p58
g2
(g6
S'\x8e\xa6"1\x851\xe2?'
p59
tp60
Rp61
tp62
a(S'pixel density'
p63
g2
(g6
S'T7\xb0I\xec!\xe2?'
p64
tp65
Rp66
tp67
a(S'device-independent pixel'
p68
g2
(g6
S"L~3{'\xc2\xe1?"
p69
tp70
Rp71
tp72
a(S'pixel aspect ratio'
p73
g2
(g6
S'E\x16w\x17\xfa\xc1\xe1?'
p74
tp75
Rp76
tp77
a(S'packed pixel'
p78
g2
(g6
S'\xe4\xe3,\xc0\xa4\x93\xe1?'
p79
tp80
Rp81
tp82
a(S'google pixel'
p83
g2
(g6
S'l\x0f\xe6\xa2\xfe(\xe1?'
p84
tp85
Rp86
tp87
a(S'pixel shifting'
p88
g2
(g6
S'zTu\xeb<\x0f\xe1?'
p89
tp90
Rp91
tp92
a(S'binary image'
p93
g2
(g6
S'n\xda=\xb7\xd2\x0c\xe1?'
p94
tp95
Rp96
tp97
a(S'1:1 pixel mapping'
p98
g2
(g6
S'\n\x9a}.\x93\xf0\xe0?'
p99
tp100
Rp101
tp102
a(S'microscanning'
p103
g2
(g6
S'\x03X#\n\x92\xef\xe0?'
p104
tp105
Rp106
tp107
a(S'fill factor (image sensor)'
p108
g2
(g6
S'\xbfU\x1c\xca4\xcf\xe0?'
p109
tp110
Rp111
tp112
a(S'color co-site sampling'
p113
g2
(g6
S'\x07\x03o\x08r\xc2\xe0?'
p114
tp115
Rp116
tp117
a(S'the tour million'
p118
g2
(g6
S'\xd3l\x9a8\xa2\xb4\xe0?'
p119
tp120
Rp121
tp122
a(S'oversampled binary image sensor'
p123
g2
(g6
S'\xe4I\xa9c\xf3\xa2\xe0?'
p124
tp125
Rp126
tp127
a(S'pixel (webcomic)'
p128
g2
(g6
S'\xb5\xaa\xf4\xbdeb\xe0?'
p129
tp130
Rp131
tp132
a(S'connected-component labeling'
p133
g2
(g6
S'(\xeb\x15Z"U\xe0?'
p134
tp135
Rp136
tp137
a(S'color image'
p138
g2
(g6
S'>\xcbwN\xd2\n\xe0?'
p139
tp140
Rp141
tp142
a(S'bayer filter'
p143
g2
(g6
S'e-\xc9k\xd9\x04\xe0?'
p144
tp145
Rp146
tp147
a(S'contextual image classification'
p148
g2
(g6
S"\xde'\x83v\x12\x03\xe0?"
p149
tp150
Rp151
tp152
a(S'cleartype'
p153
g2
(g6
S'\xbf+x.\\\xd3\xdf?'
p154
tp155
Rp156
tp157
a(S'bmp file format'
p158
g2
(g6
S'\x0b\xf6H5B\xc1\xdf?'
p159
tp160
Rp161
tp162
a(S'world file'
p163
g2
(g6
S'\xf8\x94M\xe2C{\xdf?'
p164
tp165
Rp166
tp167
a(S'subpixel rendering'
p168
g2
(g6
S')\xe9)\xb2g?\xdf?'
p169
tp170
Rp171
tp172
a(S'mega dead pixel'
p173
g2
(g6
S'_\x96\xf3r^\xe4\xde?'
p174
tp175
Rp176
tp177
a(S'color cell compression'
p178
g2
(g6
S'\xb7\xa4T\xb3W\xcd\xde?'
p179
tp180
Rp181
tp182
a(S'sample (graphics)'
p183
g2
(g6
S'\xafX\xf1$m\xb9\xde?'
p184
tp185
Rp186
tp187
a(S'pixel (smartphone)'
p188
g2
(g6
S'\xb6t\xdc,\x95R\xde?'
p189
tp190
Rp191
tp192
a(S'native resolution'
p193
g2
(g6
S"'\xaa__O(\xde?"
p194
tp195
Rp196
tp197
a(S'floyd\xe2\x80\x93steinberg dithering'
p198
g2
(g6
S'+\xe7\x98I"&\xde?'
p199
tp200
Rp201
tp202
a(S'standard-definition television'
p203
g2
(g6
S'\x1e\x9c\xbe8\xa1\x0f\xde?'
p204
tp205
Rp206
tp207
a(S'pixelation'
p208
g2
(g6
S'\x1b\x03(\xb9^\xdc\xdd?'
p209
tp210
Rp211
tp212
a(S'screen-door effect'
p213
g2
(g6
S'j+T\xa6)\xa1\xdd?'
p214
tp215
Rp216
tp217
a(S'demosaicing'
p218
g2
(g6
S'\xf0\x81\x8b\xa5\x0cg\xdd?'
p219
tp220
Rp221
tp222
a(S'graphics display resolution'
p223
g2
(g6
S'\x93\x14mR\xbc/\xdd?'
p224
tp225
Rp226
tp227
a(S'super-resolution optical fluctuation imaging'
p228
g2
(g6
S'vY\xb7H\xd0\x0e\xdd?'
p229
tp230
Rp231
tp232
a(S'display resolution'
p233
g2
(g6
S'\xac^\xbb\xb9\xd7\r\xdd?'
p234
tp235
Rp236
tp237
a(S'pixel art scaling algorithms'
p238
g2
(g6
S'\x8f\x0c\x95\xbfw\x0c\xdd?'
p239
tp240
Rp241
tp242
a(S'telescopic pixel display'
p243
g2
(g6
S'w\xa2Y\xc2\x87\xfa\xdc?'
p244
tp245
Rp246
tp247
a(S'whitemagic'
p248
g2
(g6
S'F\xc0xQm\xe2\xdc?'
p249
tp250
Rp251
tp252
a(S'free boundary condition'
p253
g2
(g6
S'\x8f\x1e\x89\xb1\x00d\xdc?'
p254
tp255
Rp256
tp257
a(S'medipix'
p258
g2
(g6
S'9\xf5\x97\xbf6\x1e\xdc?'
p259
tp260
Rp261
tp262
a(S'pentax k-3 ii'
p263
g2
(g6
S'[\xa7\xb6/\xaf\x00\xdc?'
p264
tp265
Rp266
tp267
a(S'image editing'
p268
g2
(g6
S'\xcb\xd3bFy\xcf\xdb?'
p269
tp270
Rp271
tp272
a(S'maximum-value composite procedure'
p273
g2
(g6
S' \xcd\xae}\\\xac\xdb?'
p274
tp275
Rp276
tp277
a(S'chromebook pixel'
p278
g2
(g6
S'\xe15\\_\x85\xa9\xdb?'
p279
tp280
Rp281
tp282
a(S'pixel chix'
p283
g2
(g6
S'\xd3\x1ev\x0f\xb1\x8a\xdb?'
p284
tp285
Rp286
tp287
a(S'super ccd'
p288
g2
(g6
S'@V\x7flW\x84\xdb?'
p289
tp290
Rp291
tp292
a(S'graffiti kingdom'
p293
g2
(g6
S'\xdbJ\xf7\x9e0\x83\xdb?'
p294
tp295
Rp296
tp297
a(S'moore neighborhood'
p298
g2
(g6
S'\tS\xee\xae\xb3\x7f\xdb?'
p299
tp300
Rp301
tp302
a(S'digital scan back'
p303
g2
(g6
S'w\xf9\x15\xa8,,\xdb?'
p304
tp305
Rp306
tp307
a(S'time-multiplexed optical shutter'
p308
g2
(g6
S'\xebV\xde\xb8t&\xdb?'
p309
tp310
Rp311
tp312
a(S'czd'
p313
g2
(g6
S'\xd1\xd2\xaf\xefU%\xdb?'
p314
tp315
Rp316
tp317
a(S'felics'
p318
g2
(g6
S'\xb7\xd353?\x1e\xdb?'
p319
tp320
Rp321
tp322
a(S'large-screen television technology'
p323
g2
(g6
S'T\x81\xb8\xc7\x9f\x0e\xdb?'
p324
tp325
Rp326
tp327
a(S'list of largest video screens'
p328
g2
(g6
S'\x8d\xa8E\xa1\xbf\xfe\xda?'
p329
tp330
Rp331
tp332
a(S'xetal'
p333
g2
(g6
S'\xbf\x9d\xf9\xcc0\xe2\xda?'
p334
tp335
Rp336
tp337
a(S'active matrix'
p338
g2
(g6
S'\x908\x0b\xc0\x05\xd3\xda?'
p339
tp340
Rp341
tp342
a(S'intrapixel and interpixel processing'
p343
g2
(g6
S'\xc8nd\x1b\xe5\xcf\xda?'
p344
tp345
Rp346
tp347
a(S'rgbe image format'
p348
g2
(g6
S'q\x8c\xbf\xb1^\xc2\xda?'
p349
tp350
Rp351
tp352
a(S'visual cryptography'
p353
g2
(g6
S't\x0c7-\xe8\xbc\xda?'
p354
tp355
Rp356
tp357
a(S'imaging spectroscopy'
p358
g2
(g6
S'\x01\x1b>\xed\x90\xa3\xda?'
p359
tp360
Rp361
tp362
a(S'pixel (band)'
p363
g2
(g6
S'-\x1b\x99\x15\x05\x97\xda?'
p364
tp365
Rp366
tp367
a(S'camera interface'
p368
g2
(g6
S')\xec\xc8\xf0\xa6\x92\xda?'
p369
tp370
Rp371
tp372
a(S'dot pitch'
p373
g2
(g6
S'\x91\xcf\xbe\x0c\xc0\x8b\xda?'
p374
tp375
Rp376
tp377
a(S'raster graphics'
p378
g2
(g6
S'z\x8b\xe9|\xb1\x88\xda?'
p379
tp380
Rp381
tp382
a(S'nokia 808 pureview'
p383
g2
(g6
S'\x97->\xc86\x82\xda?'
p384
tp385
Rp386
tp387
a(S'fixed pixel display'
p388
g2
(g6
S'Z\x1aZr\x90o\xda?'
p389
tp390
Rp391
tp392
a(S'trilinear filtering'
p393
g2
(g6
S'\x91\x03\xdd\x9e\xecc\xda?'
p394
tp395
Rp396
tp397
a(S'multisample anti-aliasing'
p398
g2
(g6
S'Vg\\y\xcbX\xda?'
p399
tp400
Rp401
tp402
a(S'image sensor format'
p403
g2
(g6
S'oLG\x95\x9dF\xda?'
p404
tp405
Rp406
tp407
a(S'pixel qi'
p408
g2
(g6
S'\xa6]\xf1\xa6]1\xda?'
p409
tp410
Rp411
tp412
a(S'per-pixel lighting'
p413
g2
(g6
S'0\x8a\xc51\x0f\x15\xda?'
p414
tp415
Rp416
tp417
a(S'vibe'
p418
g2
(g6
S'\xfc\x80\xa2\xcc\x03\r\xda?'
p419
tp420
Rp421
tp422
a(S'480p'
p423
g2
(g6
S'F\xfa\xfca\xe0\xf6\xd9?'
p424
tp425
Rp426
tp427
a(S'digital photography'
p428
g2
(g6
S'\xdd\xa3\x12\xbb\x9b\xe0\xd9?'
p429
tp430
Rp431
tp432
a(S'wobulation'
p433
g2
(g6
S'\xd5\x01\x00<\xff\xc3\xd9?'
p434
tp435
Rp436
tp437
a(S'quarter-pixel motion'
p438
g2
(g6
S'^b\xad\xfaC\xa8\xd9?'
p439
tp440
Rp441
tp442
a(S'dots per inch'
p443
g2
(g6
S'm\x9b\x1c\xf7\xc3\xa5\xd9?'
p444
tp445
Rp446
tp447
a(S'minimum spanning tree-based segmentation'
p448
g2
(g6
S'\xf6\x15rT^y\xd9?'
p449
tp450
Rp451
tp452
a(S'digital versus film photography'
p453
g2
(g6
S'\xf2Kc\xbfCD\xd9?'
p454
tp455
Rp456
tp457
a(S'overscan'
p458
g2
(g6
S'\x1e\x06\xa1m\nD\xd9?'
p459
tp460
Rp461
tp462
a(S'background subtraction'
p463
g2
(g6
S'\x8cj\xc3Gr?\xd9?'
p464
tp465
Rp466
tp467
a(S'pixel geometry'
p468
g2
(g6
S' \xa9\xe2\xb1\x07*\xd9?'
p469
tp470
Rp471
tp472
a(S'ghost imaging'
p473
g2
(g6
S'\x82=\x17\xec\x95\x11\xd9?'
p474
tp475
Rp476
tp477
a(S'ordered dithering'
p478
g2
(g6
S'\xe5\x90P\x86!\r\xd9?'
p479
tp480
Rp481
tp482
a(S'pixel press'
p483
g2
(g6
S'\xbf\xb5\x06R\xde\xfc\xd8?'
p484
tp485
Rp486
tp487
a(S'imagemagick'
p488
g2
(g6
S'\x13\xbc\xbf\xbbL\xc7\xd8?'
p489
tp490
Rp491
tp492
a(S'graphics32'
p493
g2
(g6
S'+\xb8q\x12\xa6\xc6\xd8?'
p494
tp495
Rp496
tp497
a(S'addressing scheme'
p498
g2
(g6
S"\xfa$\xc6\xca'\xbc\xd8?"
p499
tp500
Rp501
tp502
a(S'hold-and-modify'
p503
g2
(g6
S'\xc5\xa5l\x17C\xb9\xd8?'
p504
tp505
Rp506
tp507
a(S'supersampling'
p508
g2
(g6
S'\xb4\x00V\x94#\xb8\xd8?'
p509
tp510
Rp511
tp512
a(S'adaptive histogram equalization'
p513
g2
(g6
S'\x01\\aU\x02\x92\xd8?'
p514
tp515
Rp516
tp517
a(S'livewire segmentation technique'
p518
g2
(g6
S'\xcc\xd3u\xe91\x81\xd8?'
p519
tp520
Rp521
tp522
a(S'indexed color'
p523
g2
(g6
S'Qg\xaf\xd4M|\xd8?'
p524
tp525
Rp526
tp527
a(S'flashpix'
p528
g2
(g6
S'X\xa4\xebk\xc5x\xd8?'
p529
tp530
Rp531
tp532
a(S'microscope image processing'
p533
g2
(g6
S'$8Ta/\x16\xd8?'
p534
tp535
Rp536
tp537
a(S'zx spectrum graphic modes'
p538
g2
(g6
S'\x98\x00q\x0f\x80\n\xd8?'
p539
tp540
Rp541
tp542
a(S'digital camera'
p543
g2
(g6
S'?\xc6[d\x86\x08\xd8?'
p544
tp545
Rp546
tp547
a(S'fragment (computer graphics)'
p548
g2
(g6
S'NB\xc6d\xa7\x01\xd8?'
p549
tp550
Rp551
tp552
a(S'ctia and gtia'
p553
g2
(g6
S'i"\x9ch\xbc\xa4\xd7?'
p554
tp555
Rp556
tp557
a(S'airborne real-time cueing hyperspectral enhanced reconnaissance'
p558
g2
(g6
S'\xef\xcc\xb7\x8a\x9a\x95\xd7?'
p559
tp560
Rp561
tp562
a(S'resel'
p563
g2
(g6
S'\xf4FzqQ\x86\xd7?'
p564
tp565
Rp566
tp567
a(S'pixel c'
p568
g2
(g6
S'\xc3\xb7\x11\xad2\x84\xd7?'
p569
tp570
Rp571
tp572
a(S'non-local means'
p573
g2
(g6
S'\t,\xd8\xa7\xe1}\xd7?'
p574
tp575
Rp576
tp577
a(S'image scaling'
p578
g2
(g6
S'O\xf4~\x05\x81{\xd7?'
p579
tp580
Rp581
tp582
a(S'nearest neighbor value interpolation'
p583
g2
(g6
S'\xa7G\xb1E\xca`\xd7?'
p584
tp585
Rp586
tp587
a(S'digital camera back'
p588
g2
(g6
S'G\xf21\t\xc3C\xd7?'
p589
tp590
Rp591
tp592
a(S'960h technology'
p593
g2
(g6
S'y\xd1\xe2_\x18;\xd7?'
p594
tp595
Rp596
tp597
a(S'metric pixel canvas'
p598
g2
(g6
S'd\xbb\xea\x14a:\xd7?'
p599
tp600
Rp601
tp602
a(S'optical resolution'
p603
g2
(g6
S'\x00B\xfd\xed\x809\xd7?'
p604
tp605
Rp606
tp607
a(S'kuwahara filter'
p608
g2
(g6
S'\x9e\xb0\xccL1\x1c\xd7?'
p609
tp610
Rp611
tp612
a(S'foveon x3 sensor'
p613
g2
(g6
S'\xa1\x1a\x86\xbe\xe2\x1a\xd7?'
p614
tp615
Rp616
tp617
a(S'hqx'
p618
g2
(g6
S'\x1d\xe7\x1dl\x08\x19\xd7?'
p619
tp620
Rp621
tp622
a(S'dexel'
p623
g2
(g6
S':\xa5^\x9c\t\xf7\xd6?'
p624
tp625
Rp626
tp627
a(S'planar (computer graphics)'
p628
g2
(g6
S'5I\xa9WB\xeb\xd6?'
p629
tp630
Rp631
tp632
a(S'grassfire transform'
p633
g2
(g6
S'8\xcc\xe7\x9f\xda\xe8\xd6?'
p634
tp635
Rp636
tp637
a(S'iso 13406-2'
p638
g2
(g6
S'\xba\xe7\xab@\xce\xd6\xd6?'
p639
tp640
Rp641
tp642
a(S'error diffusion'
p643
g2
(g6
S'\xef/\xf1,>\xd2\xd6?'
p644
tp645
Rp646
tp647
a(S'image processor'
p648
g2
(g6
S'~\xb3H\xa3\xa3\xcb\xd6?'
p649
tp650
Rp651
tp652
a(S'alpha compositing'
p653
g2
(g6
S'\\\xd6\xe7\xfb\xb8\xb0\xd6?'
p654
tp655
Rp656
tp657
a(S'a-buffer'
p658
g2
(g6
S'n\xa0R,\x12\x8e\xd6?'
p659
tp660
Rp661
tp662
a(S'font rasterization'
p663
g2
(g6
S'\x0c\xf1\xad\x8a\xbbn\xd6?'
p664
tp665
Rp666
tp667
a(S'features from accelerated segment test'
p668
g2
(g6
S'\x81\x93\x1d3\x89i\xd6?'
p669
tp670
Rp671
tp672
a(S'glossary of machine vision'
p673
g2
(g6
S'4\x83\xebE\xfbe\xd6?'
p674
tp675
Rp676
tp677
a(S'x bitmap'
p678
g2
(g6
S'\x9f\xdcj\xbfHe\xd6?'
p679
tp680
Rp681
tp682
a(S'screen burn-in'
p683
g2
(g6
S'q\xa9rE\x0ea\xd6?'
p684
tp685
Rp686
tp687
a(S'bsave (bitmap format)'
p688
g2
(g6
S'\x16\xeb\x11\xb2\xd3^\xd6?'
p689
tp690
Rp691
tp692
a(S'the million dollar homepage'
p693
g2
(g6
S'y&\xc8s%\\\xd6?'
p694
tp695
Rp696
tp697
a(S'sum of absolute differences'
p698
g2
(g6
S'\x03\xef\x135\\F\xd6?'
p699
tp700
Rp701
tp702
a(S'xscope'
p703
g2
(g6
S'\xa5\xe8\x05\xc5jE\xd6?'
p704
tp705
Rp706
tp707
a(S'image segmentation'
p708
g2
(g6
S'\xe6\xc1\xc4`\xd4A\xd6?'
p709
tp710
Rp711
tp712
a(S'median cut'
p713
g2
(g6
S'\x86B]$?"\xd6?'
p714
tp715
Rp716
tp717
a(S'three-ccd camera'
p718
g2
(g6
S'\xc3\xdb\xad1\xa4 \xd6?'
p719
tp720
Rp721
tp722
a(S'magic pixel games'
p723
g2
(g6
S'\x9d\xb6\xca&v\x1f\xd6?'
p724
tp725
Rp726
tp727
a(S'local ternary patterns'
p728
g2
(g6
S"i}'\xfd;\x1d\xd6?"
p729
tp730
Rp731
tp732
a(S'computer display standard'
p733
g2
(g6
S'\xa1\x99_\x86\x9b\x19\xd6?'
p734
tp735
Rp736
tp737
a(S'sigma sd10'
p738
g2
(g6
S'\xbe?\xe1^A\x17\xd6?'
p739
tp740
Rp741
tp742
a(S'optical format'
p743
g2
(g6
S'\x8a\xb0B\xb1y\x14\xd6?'
p744
tp745
Rp746
tp747
a(S'liquid-crystal display'
p748
g2
(g6
S'\x01\xc2\x04 \xa8\n\xd6?'
p749
tp750
Rp751
tp752
a(S'rasterisation'
p753
g2
(g6
S'\x95F\x88U\xff\x01\xd6?'
p754
tp755
Rp756
tp757
a(S'digital classic camera leica m3'
p758
g2
(g6
S'n\xe1\x91D\xcd\xfa\xd5?'
p759
tp760
Rp761
tp762
a(S'pan\xe2\x80\x93tilt\xe2\x80\x93zoom camera'
p763
g2
(g6
S'\xc3\xa7\xc9\xc2\x0e\xdb\xd5?'
p764
tp765
Rp766
tp767
a(S'passive matrix addressing'
p768
g2
(g6
S'>3{\xa7\xb4\xd9\xd5?'
p769
tp770
Rp771
tp772
a(S'intel i750'
p773
g2
(g6
S'\x08\xa1\x16pI\xbf\xd5?'
p774
tp775
Rp776
tp777
a(S'electronic visual display'
p778
g2
(g6
S'\x9a\x9fN\x83\xc7\xb9\xd5?'
p779
tp780
Rp781
tp782
a(S'fillrate'
p783
g2
(g6
S'\xa7\xd2^\xc7/\xae\xd5?'
p784
tp785
Rp786
tp787
a(S'java 2d'
p788
g2
(g6
S'\xd0WA2\x10\xab\xd5?'
p789
tp790
Rp791
tp792
a(S'adobe pixel bender'
p793
g2
(g6
S'\x9dh\xe2Ni\xaa\xd5?'
p794
tp795
Rp796
tp797
a(S'hitachi dx07'
p798
g2
(g6
S'\xfc\xc9g\xfa9\x8e\xd5?'
p799
tp800
Rp801
tp802
a(S'flood fill'
p803
g2
(g6
S'\n\x97\x80\xdc1\x82\xd5?'
p804
tp805
Rp806
tp807
a(S'correlated double sampling'
p808
g2
(g6
S'\xe9\xde\xbd!\xf2\x7f\xd5?'
p809
tp810
Rp811
tp812
a(S'quattron'
p813
g2
(g6
S'\x07E\xf0\xd6\xdb\x7f\xd5?'
p814
tp815
Rp816
tp817
a(S'list of largest photographs'
p818
g2
(g6
S'=&,\xa5\xe1p\xd5?'
p819
tp820
Rp821
tp822
a(S'fill factor'
p823
g2
(g6
S'\x0c\x0c\xe8\xb0\tY\xd5?'
p824
tp825
Rp826
tp827
a(S'quickdraw'
p828
g2
(g6
S'li\xe1*\xcfC\xd5?'
p829
tp830
Rp831
tp832
a(S'nanophotonic coherent imager'
p833
g2
(g6
S"mci\xe0\xa3'\xd5?"
p834
tp835
Rp836
tp837
a(S'local pixel grouping'
p838
g2
(g6
S'\x95{\xff\x04\x88 \xd5?'
p839
tp840
Rp841
tp842
a(S'foreground detection'
p843
g2
(g6
S')A\x1e\x0c\xcc\x17\xd5?'
p844
tp845
Rp846
tp847
a(S'omnivision technologies'
p848
g2
(g6
S'[\xaenh\xb0\x0b\xd5?'
p849
tp850
Rp851
tp852
a(S'spatial anti-aliasing'
p853
g2
(g6
S'}\x9dV\xd6\xc4\xf7\xd4?'
p854
tp855
Rp856
tp857
a(S'perceptive pixel'
p858
g2
(g6
S'\xb5MR2\t\xe7\xd4?'
p859
tp860
Rp861
tp862
a(S'color depth'
p863
g2
(g6
S'{\xd8\x99\xaaP\xe4\xd4?'
p864
tp865
Rp866
tp867
a(S'576p'
p868
g2
(g6
S'\x0e\xd7\xac\x95\xa0\xdc\xd4?'
p869
tp870
Rp871
tp872
a(S'fastcam se'
p873
g2
(g6
S'K\x9f\xf6Q\xab\xdb\xd4?'
p874
tp875
Rp876
tp877
a(S'composite artifact colors'
p878
g2
(g6
S'O\xac\x8f\xe4\xf9\xd4\xd4?'
p879
tp880
Rp881
tp882
a(S'fastcam spectra'
p883
g2
(g6
S'\xf2\xf40\xa9n\xc4\xd4?'
p884
tp885
Rp886
tp887
a(S'vignetting'
p888
g2
(g6
S'\xd3\x9d\xbf\xc6\xec\xc1\xd4?'
p889
tp890
Rp891
tp892
a(S'8k resolution'
p893
g2
(g6
S'\xe3\x95\x1e\x1f\x90\xb4\xd4?'
p894
tp895
Rp896
tp897
a(S'digital image'
p898
g2
(g6
S'\x02j\x9e\x80\x86\xa9\xd4?'
p899
tp900
Rp901
tp902
a(S'parallax barrier'
p903
g2
(g6
S'e?\x00T\x8c\xa8\xd4?'
p904
tp905
Rp906
tp907
a(S'pentile matrix family'
p908
g2
(g6
S'\x1c\x17\xf2\xadq\xa6\xd4?'
p909
tp910
Rp911
tp912
a(S'sixteenth hd1080'
p913
g2
(g6
S'^\xa0\x8f\x8fB\x9c\xd4?'
p914
tp915
Rp916
tp917
a(S'halftone'
p918
g2
(g6
S'\x8f\x83E5\x96\x97\xd4?'
p919
tp920
Rp921
tp922
a(S'labeltag'
p923
g2
(g6
S'\x81Dz\xfdC\x97\xd4?'
p924
tp925
Rp926
tp927
a(S'4k resolution'
p928
g2
(g6
S'Z\xfd\x8e}\xef\x8f\xd4?'
p929
tp930
Rp931
tp932
a(S'dark-frame subtraction'
p933
g2
(g6
S'!!g\x8c\xc6\x8a\xd4?'
p934
tp935
Rp936
tp937
a(S'diadem (series)'
p938
g2
(g6
S'&\xcf$\x7f6\x83\xd4?'
p939
tp940
Rp941
tp942
a(S'staring array'
p943
g2
(g6
S'\xcb\x96U\xe2\xd1|\xd4?'
p944
tp945
Rp946
tp947
a(S'nikon coolpix p80'
p948
g2
(g6
S'\xe3#\x13\xf7\x18t\xd4?'
p949
tp950
Rp951
tp952
a(S'specsmanship'
p953
g2
(g6
S'\xa1\xd1\xcd\xf5\xa5q\xd4?'
p954
tp955
Rp956
tp957
a(S'definity (film recorder)'
p958
g2
(g6
S'9\xc8\xe4"\x80o\xd4?'
p959
tp960
Rp961
tp962
a(S'image tracing'
p963
g2
(g6
S'\x81\xe4\xe8^]B\xd4?'
p964
tp965
Rp966
tp967
a(S'mipmap'
p968
g2
(g6
S'\x00\x06R\xc9\x03<\xd4?'
p969
tp970
Rp971
tp972
a(S'minolta dimage 5'
p973
g2
(g6
S'\xa0c\xc7\x1f\xe3:\xd4?'
p974
tp975
Rp976
tp977
a(S'image trigger'
p978
g2
(g6
S'\x99V \x98\xda:\xd4?'
p979
tp980
Rp981
tp982
a(S'thresholding (image processing)'
p983
g2
(g6
S'\xf7\xf1)$K \xd4?'
p984
tp985
Rp986
tp987
a(S'canon eos 50d'
p988
g2
(g6
S'\x19e\x08\x01\x87\x12\xd4?'
p989
tp990
Rp991
tp992
a(S'rg color space'
p993
g2
(g6
S'FO\x91b\x8f\x11\xd4?'
p994
tp995
Rp996
tp997
a(S'x11vnc'
p998
g2
(g6
S'~\xdc\xc6\xc8\xbe\x0e\xd4?'
p999
tp1000
Rp1001
tp1002
a(S'binary pattern (image generation)'
p1003
g2
(g6
S'\xda\x03k\x0b6\xfc\xd3?'
p1004
tp1005
Rp1006
tp1007
a(S'fastcam super 10k'
p1008
g2
(g6
S'\x82\x881\x1e\xa4\xfa\xd3?'
p1009
tp1010
Rp1011
tp1012
a(S'pixel force: left 4 dead'
p1013
g2
(g6
S'3\xe7\xad\xd7\x8a\xe5\xd3?'
p1014
tp1015
Rp1016
tp1017
a(S'rgb color model'
p1018
g2
(g6
S'\xc7\xbdI\x9a\x97\xd0\xd3?'
p1019
tp1020
Rp1021
tp1022
a(S'list of common resolutions'
p1023
g2
(g6
S'35\x13<6\xcf\xd3?'
p1024
tp1025
Rp1026
tp1027
a(S'kernel (image processing)'
p1028
g2
(g6
S'\xde\x95\x1c5\xdb\xcc\xd3?'
p1029
tp1030
Rp1031
tp1032
a(S'back-illuminated sensor'
p1033
g2
(g6
S'\xb2p\xb9\xbf\x01\xba\xd3?'
p1034
tp1035
Rp1036
tp1037
a(S'seam carving'
p1038
g2
(g6
S")'APD\xb8\xd3?"
p1039
tp1040
Rp1041
tp1042
a(S'continuous tone'
p1043
g2
(g6
S'\xe1\x99c\x1e\xe5\xb3\xd3?'
p1044
tp1045
Rp1046
tp1047
a(S'texture filtering'
p1048
g2
(g6
S'\\\x8a\xff0\x91\xaf\xd3?'
p1049
tp1050
Rp1051
tp1052
a(S'fast approximate anti-aliasing'
p1053
g2
(g6
S'\xe0\xa4\xd5\x8a\x15\xad\xd3?'
p1054
tp1055
Rp1056
tp1057
a(S'apple ii graphics'
p1058
g2
(g6
S'\x8f\xd7X\x86\xa4\xaa\xd3?'
p1059
tp1060
Rp1061
tp1062
a(S'truevision tga'
p1063
g2
(g6
S'@`\x87\x94\x85\x9d\xd3?'
p1064
tp1065
Rp1066
tp1067
a(S'thin-film-transistor liquid-crystal display'
p1068
g2
(g6
S'\x05ND\x08Mx\xd3?'
p1069
tp1070
Rp1071
tp1072
a(S'image and object order rendering'
p1073
g2
(g6
S'\xedv\xe7\xadEw\xd3?'
p1074
tp1075
Rp1076
tp1077
a(S'bilinear interpolation'
p1078
g2
(g6
S'\x9a}\x1dp\xbdu\xd3?'
p1079
tp1080
Rp1081
tp1082
a(S'pixelplus'
p1083
g2
(g6
S'/]Kjmn\xd3?'
p1084
tp1085
Rp1086
tp1087
a(S'fixed-pattern noise'
p1088
g2
(g6
S'"\x16\xdf;\xcd@\xd3?'
p1089
tp1090
Rp1091
tp1092
a(S'ground sample distance'
p1093
g2
(g6
S'9\xf6\x1b\xa6\xb7(\xd3?'
p1094
tp1095
Rp1096
tp1097
a(S'digital cinematography'
p1098
g2
(g6
S'*\xcd\xfd3G!\xd3?'
p1099
tp1100
Rp1101
tp1102
a(S'autostereogram'
p1103
g2
(g6
S'\x89\xf0f\xa0\xe2 \xd3?'
p1104
tp1105
Rp1106
tp1107
a(S'netpbm format'
p1108
g2
(g6
S'\xe8\xdc\x8c\xf7\x90\x17\xd3?'
p1109
tp1110
Rp1111
tp1112
a(S'fastcam ultima 40k'
p1113
g2
(g6
S'n\x06\xd0\x13\xd1\x14\xd3?'
p1114
tp1115
Rp1116
tp1117
a(S'pcx'
p1118
g2
(g6
S'\xd8\xfb\xf2H~\x05\xd3?'
p1119
tp1120
Rp1121
tp1122
a(S'nokia lumia 1020'
p1123
g2
(g6
S'\xb8y\xb3\x94\x11\x03\xd3?'
p1124
tp1125
Rp1126
tp1127
a(S'x pixmap'
p1128
g2
(g6
S'x \xfe%\xea\x01\xd3?'
p1129
tp1130
Rp1131
tp1132
a(S'twisted pixel games'
p1133
g2
(g6
S'"\tG\xeb\xd5\x00\xd3?'
p1134
tp1135
Rp1136
tp1137
a(S'framebuffer'
p1138
g2
(g6
S'1\xcd*\xc8L\xeb\xd2?'
p1139
tp1140
Rp1141
tp1142
a(S'nokia c2-02'
p1143
g2
(g6
S'\xa3|\x87\x99\x9d\xe6\xd2?'
p1144
tp1145
Rp1146
tp1147
a(S'interferometric modulator display'
p1148
g2
(g6
S'xj=\xd9r\xdd\xd2?'
p1149
tp1150
Rp1151
tp1152
a(S'monochrome monitor'
p1153
g2
(g6
S'\xbe\xe8#\xc9p\xdd\xd2?'
p1154
tp1155
Rp1156
tp1157
a(S'nikon coolpix p90'
p1158
g2
(g6
S'\x01Kt\xde\x06\xdd\xd2?'
p1159
tp1160
Rp1161
tp1162
a(S'htc desire 526'
p1163
g2
(g6
S'\no\xf8q\xcb\xd1\xd2?'
p1164
tp1165
Rp1166
tp1167
a(S'jon audun baar'
p1168
g2
(g6
S'F\xd4\x0f\xd7\x8c\xcb\xd2?'
p1169
tp1170
Rp1171
tp1172
a(S'high color'
p1173
g2
(g6
S'\xf4\xa1\x94\xd5\xe0\xc9\xd2?'
p1174
tp1175
Rp1176
tp1177
a(S'plate scale'
p1178
g2
(g6
S'\xe5\xb6H\x0c\x15\xc9\xd2?'
p1179
tp1180
Rp1181
tp1182
a(S'light-field camera'
p1183
g2
(g6
S'\xf2\xae`J\xb8\xc3\xd2?'
p1184
tp1185
Rp1186
tp1187
a(S'ico (file format)'
p1188
g2
(g6
S'\x8b\x05*&\xdd\xb6\xd2?'
p1189
tp1190
Rp1191
tp1192
a(S'video graphics array'
p1193
g2
(g6
S'\x81\xb4T\x15\x18\xb2\xd2?'
p1194
tp1195
Rp1196
tp1197
a(S'triad (computers)'
p1198
g2
(g6
S'\x05I(\x83\x89\xb0\xd2?'
p1199
tp1200
Rp1201
tp1202
a(S'computer stereo vision'
p1203
g2
(g6
S'\xea\x0e\x9b6\xed\xa9\xd2?'
p1204
tp1205
Rp1206
tp1207
a(S'international pixel-stained technopeasant day'
p1208
g2
(g6
S'kSy\x91H\xa0\xd2?'
p1209
tp1210
Rp1211
tp1212
a(S'dither'
p1213
g2
(g6
S'\x8d\x9c4u\xe0\x9f\xd2?'
p1214
tp1215
Rp1216
tp1217
a(S'powerwall'
p1218
g2
(g6
S'\xe1C\xfb\x18=\x9d\xd2?'
p1219
tp1220
Rp1221
tp1222
a(S'nec e313'
p1223
g2
(g6
S'P\x11;\x0b\x84\x94\xd2?'
p1224
tp1225
Rp1226
tp1227
a(S'wireless application protocol bitmap format'
p1228
g2
(g6
S'\x95\x0b{\x98L\x83\xd2?'
p1229
tp1230
Rp1231
tp1232
a(S'co-occurrence matrix'
p1233
g2
(g6
S'\x94\xe0@W\x07\x81\xd2?'
p1234
tp1235
Rp1236
tp1237
a(S'closed-circuit television camera'
p1238
g2
(g6
S'5\x95+<$\x7f\xd2?'
p1239
tp1240
Rp1241
tp1242
a(S'solid image'
p1243
g2
(g6
S'\x14\xd09\xa7\x9dz\xd2?'
p1244
tp1245
Rp1246
tp1247
a(S'rainbow heterodyne detection'
p1248
g2
(g6
S'&\x1b@\xf3xs\xd2?'
p1249
tp1250
Rp1251
tp1252
a(S'bitmap'
p1253
g2
(g6
S'\xe2\x02L:1s\xd2?'
p1254
tp1255
Rp1256
tp1257
a(S'cone tracing'
p1258
g2
(g6
S'v\xaeI\x94Sq\xd2?'
p1259
tp1260
Rp1261
tp1262
a(S'image quality'
p1263
g2
(g6
S'y\x96\x0ecSn\xd2?'
p1264
tp1265
Rp1266
tp1267
a(S'channel (digital image)'
p1268
g2
(g6
S'\xb4}\xb74]c\xd2?'
p1269
tp1270
Rp1271
tp1272
a(S'colour look-up table'
p1273
g2
(g6
S'\xcf\xd6\xd3\xc4cN\xd2?'
p1274
tp1275
Rp1276
tp1277
a(S'render output unit'
p1278
g2
(g6
S'|J\x8b\xb7?N\xd2?'
p1279
tp1280
Rp1281
tp1282
a(S'arriflex d-20'
p1283
g2
(g6
S'd\x8dnN\x08N\xd2?'
p1284
tp1285
Rp1286
tp1287
a(S'10k resolution'
p1288
g2
(g6
S'\xf9\x14\xad"!M\xd2?'
p1289
tp1290
Rp1291
tp1292
a(S'privacy-enhanced computer display'
p1293
g2
(g6
S'%\x0f\xa0\xa4s=\xd2?'
p1294
tp1295
Rp1296
tp1297
a(S'pxtone'
p1298
g2
(g6
S'\x92\x84\x8eW\xc46\xd2?'
p1299
tp1300
Rp1301
tp1302
a(S'twip'
p1303
g2
(g6
S'\xba\xa7\xce\xad|2\xd2?'
p1304
tp1305
Rp1306
tp1307
a(S'rotating line camera'
p1308
g2
(g6
S'\x15[\xedP\xeb,\xd2?'
p1309
tp1310
Rp1311
tp1312
a(S'glossary of video terms'
p1313
g2
(g6
S'\xbcP\x92\xed\xdf,\xd2?'
p1314
tp1315
Rp1316
tp1317
a(S'mx-2900zoom'
p1318
g2
(g6
S'g\xca\xefu\x02!\xd2?'
p1319
tp1320
Rp1321
tp1322
a(S'pixelpaint'
p1323
g2
(g6
S'\xf93{\xd9\x87\x12\xd2?'
p1324
tp1325
Rp1326
tp1327
a(S'list of 8-bit computer hardware palettes'
p1328
g2
(g6
S'\xcff(\x8b-\x0b\xd2?'
p1329
tp1330
Rp1331
tp1332
a(S'bilateral filter'
p1333
g2
(g6
S'apk^w\xf4\xd1?'
p1334
tp1335
Rp1336
tp1337
a(S'rgbe filter'
p1338
g2
(g6
S'\xe8R\xce\x03\xd4\xf0\xd1?'
p1339
tp1340
Rp1341
tp1342
a(S'color balance'
p1343
g2
(g6
S'J\xd4%k\x7f\xe7\xd1?'
p1344
tp1345
Rp1346
tp1347
a(S'canon eos 7d mark ii'
p1348
g2
(g6
S'\xd6A\x91K\xb5\xe0\xd1?'
p1349
tp1350
Rp1351
tp1352
a(S'canon powershot tx1'
p1353
g2
(g6
S'\xd4\xca.h\x14\xdd\xd1?'
p1354
tp1355
Rp1356
tp1357
a(S'fujifilm finepix s100fs'
p1358
g2
(g6
S'\x91\x88i\x07_\xda\xd1?'
p1359
tp1360
Rp1361
tp1362
a(S'stride of an array'
p1363
g2
(g6
S'_\x1c\x97+X\xd7\xd1?'
p1364
tp1365
Rp1366
tp1367
a(S'pixel pinkie'
p1368
g2
(g6
S'|"R\\\xd7\xce\xd1?'
p1369
tp1370
Rp1371
tp1372
a(S'wide field and planetary camera 2'
p1373
g2
(g6
S'd\x1cr\xdc&\xcc\xd1?'
p1374
tp1375
Rp1376
tp1377
a(S'lytro'
p1378
g2
(g6
S'\x1c\xdf\x06\x00\xd9\xc3\xd1?'
p1379
tp1380
Rp1381
tp1382
a(S'color filter array'
p1383
g2
(g6
S'A\xc4\xe3(8\xc1\xd1?'
p1384
tp1385
Rp1386
tp1387
a(S'comparison of canon eos digital cameras'
p1388
g2
(g6
S'\xfa\xb0\xc5\x9c\xed\xb0\xd1?'
p1389
tp1390
Rp1391
tp1392
a(S'huawei ascend y300'
p1393
g2
(g6
S't7Qe.\xb0\xd1?'
p1394
tp1395
Rp1396
tp1397
a(S'vision chip'
p1398
g2
(g6
S'\xe7\x04\xc5\x16z\xac\xd1?'
p1399
tp1400
Rp1401
tp1402
a(S'image subtraction'
p1403
g2
(g6
S's\xac\xcf\xe8=\xac\xd1?'
p1404
tp1405
Rp1406
tp1407
a(S'5k resolution'
p1408
g2
(g6
S':qK/\xea\x9d\xd1?'
p1409
tp1410
Rp1411
tp1412
a(S'motion analysis'
p1413
g2
(g6
S'\x9c\xc5\xfb\x98\xd8\x98\xd1?'
p1414
tp1415
Rp1416
tp1417
a(S'htc one m9+'
p1418
g2
(g6
S'\x85\n\xde\x92\x8e\x98\xd1?'
p1419
tp1420
Rp1421
tp1422
a(S'colorcam'
p1423
g2
(g6
S'\x03\xeaM7\xed\x97\xd1?'
p1424
tp1425
Rp1426
tp1427
a(S'block truncation coding'
p1428
g2
(g6
S'$S\xb3\xb9|\x8d\xd1?'
p1429
tp1430
Rp1431
tp1432
a(S'charge-coupled device'
p1433
g2
(g6
S'\xb6\xed\x01l,\x8b\xd1?'
p1434
tp1435
Rp1436
tp1437
a(S'paintbrush (software)'
p1438
g2
(g6
S'\x9d\x9f&$\xe9\x80\xd1?'
p1439
tp1440
Rp1441
tp1442
a(S'volume rendering'
p1443
g2
(g6
S'd\xa8\xa1\xe2\xeb\x7f\xd1?'
p1444
tp1445
Rp1446
tp1447
a(S'2k resolution'
p1448
g2
(g6
S'\xc99\x0c\x81\x81~\xd1?'
p1449
tp1450
Rp1451
tp1452
a(S'aspect ratio (disambiguation)'
p1453
g2
(g6
S'\x14"\xf5\x08B}\xd1?'
p1454
tp1455
Rp1456
tp1457
a(S'region growing'
p1458
g2
(g6
S';\xe4\x9d\xe4\x9a|\xd1?'
p1459
tp1460
Rp1461
tp1462
a(S'texture mapping unit'
p1463
g2
(g6
S'\x0cqd(\x1d|\xd1?'
p1464
tp1465
Rp1466
tp1467
a(S'vidc20'
p1468
g2
(g6
S'\xd8\x082B\xf0y\xd1?'
p1469
tp1470
Rp1471
tp1472
a(S'planar fourier capture array'
p1473
g2
(g6
S'\xfa\xf8\xf8B\xe1w\xd1?'
p1474
tp1475
Rp1476
tp1477
a(S'image gradient'
p1478
g2
(g6
S'\xc9\xb3\x893\xabl\xd1?'
p1479
tp1480
Rp1481
tp1482
a(S'invisage technologies'
p1483
g2
(g6
S'\x8d1;k=f\xd1?'
p1484
tp1485
Rp1486
tp1487
a(S'ramdac'
p1488
g2
(g6
S'\xe5BQ\x81\xfcd\xd1?'
p1489
tp1490
Rp1491
tp1492
a(S'hdri (data format)'
p1493
g2
(g6
S'\x08\xa5\xe9\xa3\xaab\xd1?'
p1494
tp1495
Rp1496
tp1497
a(S'rendering (computer graphics)'
p1498
g2
(g6
S'(:\x89\xb9\xb4W\xd1?'
p1499
tp1500
Rp1501
tp1502
a(S'sixel'
p1503
g2
(g6
S'\x9d2\xe0\x0fzU\xd1?'
p1504
tp1505
Rp1506
tp1507
a(S'siemens s65'
p1508
g2
(g6
S'\xf3\xde\x0b\xf6eU\xd1?'
p1509
tp1510
Rp1511
tp1512
a.