(lp0
(S'raw image format'
p1
cnumpy.core.multiarray
scalar
p2
(cnumpy
dtype
p3
(S'f8'
p4
I0
I1
tp5
Rp6
(I3
S'<'
p7
NNNI-1
I-1
I0
tp8
bS'\x03\x00\x00\x00\x00\x00\xf0?'
p9
tp10
Rp11
tp12
a(S'dcraw'
p13
g2
(g6
S'wK(y\x96\xda\xe8?'
p14
tp15
Rp16
tp17
a(S'digital negative'
p18
g2
(g6
S'd.OB\x1dx\xe8?'
p19
tp20
Rp21
tp22
a(S'raw'
p23
g2
(g6
S'\xeb\xe0\xb0s?X\xe6?'
p24
tp25
Rp26
tp27
a(S'openraw'
p28
g2
(g6
S'\xff\xe7\xf8f\xa1Z\xe3?'
p29
tp30
Rp31
tp32
a(S'list of wwe raw special episodes'
p33
g2
(g6
S'1\xa5\xefl7!\xe3?'
p34
tp35
Rp36
tp37
a(S'wwe raw'
p38
g2
(g6
S'?7\xe7\xfa\xfd2\xe2?'
p39
tp40
Rp41
tp42
a(S'image conversion'
p43
g2
(g6
S'\x83}\xcd\x1a\xcc4\xe1?'
p44
tp45
Rp46
tp47
a(S'tonya zavasta'
p48
g2
(g6
S'\xe4}\xe4 \xe9\xf1\xe0?'
p49
tp50
Rp51
tp52
a(S'raw deal'
p53
g2
(g6
S'(\xa7j-\xc8\xe7\xe0?'
p54
tp55
Rp56
tp57
a(S'raw foodism'
p58
g2
(g6
S'\x95\xeeq\x13\x87\xc6\xe0?'
p59
tp60
Rp61
tp62
a(S'nathan raw'
p63
g2
(g6
S'\xb3H\xc71^\x93\xe0?'
p64
tp65
Rp66
tp67
a(S'ufraw'
p68
g2
(g6
S'o\xdf\xa9;\x8e{\xe0?'
p69
tp70
Rp71
tp72
a(S'raw data'
p73
g2
(g6
S'|V\xe1\xb3\x9d\x86\xdf?'
p74
tp75
Rp76
tp77
a(S'rawstudio'
p78
g2
(g6
S'\x1b\xc88\xaef\x84\xdf?'
p79
tp80
Rp81
tp82
a(S'aajonus vonderplanitz'
p83
g2
(g6
S'\x90\xbd\xb2\rtw\xdf?'
p84
tp85
Rp86
tp87
a(S'iridient developer'
p88
g2
(g6
S'H\xa3\x9b\x03\xdaK\xdf?'
p89
tp90
Rp91
tp92
a(S'peter raw'
p93
g2
(g6
S'\xef\xd3\xaf$(6\xdf?'
p94
tp95
Rp96
tp97
a(S'raw animal food diets'
p98
g2
(g6
S'\x84[=\xcc0\xe7\xde?'
p99
tp100
Rp101
tp102
a(S'lightzone'
p103
g2
(g6
S'\xd1\x17\x10L\xde\xb7\xde?'
p104
tp105
Rp106
tp107
a(S'raw bar'
p108
g2
(g6
S'*\\;\x0f\x8b\x03\xde?'
p109
tp110
Rp111
tp112
a(S'raw fm'
p113
g2
(g6
S'~\x81v\x185\x95\xdd?'
p114
tp115
Rp116
tp117
a(S'comparison of graphics file formats'
p118
g2
(g6
S'"\xae\x06\x86,\x92\xdd?'
p119
tp120
Rp121
tp122
a(S'nikon coolpix p6000'
p123
g2
(g6
S'y\x87\x9fo\x01\x86\xdd?'
p124
tp125
Rp126
tp127
a(S'img (file format)'
p128
g2
(g6
S'\x903e\x81\x84\x08\xdd?'
p129
tp130
Rp131
tp132
a(S'in the raw (song)'
p133
g2
(g6
S'\xe3\xd3\xfa\xd5\xd9\x81\xdc?'
p134
tp135
Rp136
tp137
a(S'raw audio format'
p138
g2
(g6
S'\xe2\x81Iibm\xdc?'
p139
tp140
Rp141
tp142
a(S'raw (magazine)'
p143
g2
(g6
S"\xfe\xa2\x0b'\xfc2\xdc?"
p144
tp145
Rp146
tp147
a(S'cinemadng'
p148
g2
(g6
S'\x9d\xfe\xb1\x01\xb3\x1f\xdc?'
p149
tp150
Rp151
tp152
a(S'reed arts week'
p153
g2
(g6
S'\x96}\xdc \x17\xaa\xdb?'
p154
tp155
Rp156
tp157
a(S'raw energy records'
p158
g2
(g6
S'\xec\xb4(]\xb5\x86\xdb?'
p159
tp160
Rp161
tp162
a(S'fastpictureviewer'
p163
g2
(g6
S'\xdaGVj\xa6\\\xdb?'
p164
tp165
Rp166
tp167
a(S'exif'
p168
g2
(g6
S'\x9d\x7fL\xc8GZ\xdb?'
p169
tp170
Rp171
tp172
a(S"rifleman's assault weapon"
p173
g2
(g6
S'Ut\xbd\x10\x88R\xdb?'
p174
tp175
Rp176
tp177
a(S'rawtherapee'
p178
g2
(g6
S'N\x87uH?Q\xdb?'
p179
tp180
Rp181
tp182
a(S'image file formats'
p183
g2
(g6
S'F\xbf\xd6\x8f\xd8\n\xdb?'
p184
tp185
Rp186
tp187
a(S'acdsee'
p188
g2
(g6
S'\x81n\x19UE\xc0\xda?'
p189
tp190
Rp191
tp192
a(S'raw feeding'
p193
g2
(g6
S'Fal\xb2\xfe\xbe\xda?'
p194
tp195
Rp196
tp197
a(S'prebiotic (nutrition)'
p198
g2
(g6
S'\x8b\xca\xdb\x94\x0e\n\xda?'
p199
tp200
Rp201
tp202
a(S'raw device'
p203
g2
(g6
S's\x050@<\xf5\xd9?'
p204
tp205
Rp206
tp207
a(S'mr raw'
p208
g2
(g6
S'\xf4\xdf\xba\x10\xbd\xf1\xd9?'
p209
tp210
Rp211
tp212
a(S'canon eos c500'
p213
g2
(g6
S'\x13B\xad\xed\x93\xc0\xd9?'
p214
tp215
Rp216
tp217
a(S'raw veganism'
p218
g2
(g6
S'\xe5\r5C\x1d\xc0\xd9?'
p219
tp220
Rp221
tp222
a(S'raw striker'
p223
g2
(g6
S'\xd8d\xdcYn\xab\xd9?'
p224
tp225
Rp226
tp227
a(S'hdri (data format)'
p228
g2
(g6
S'\xf7\x1fQ\x87\xec\x84\xd9?'
p229
tp230
Rp231
tp232
a(S'dxo one'
p233
g2
(g6
S'Dh\x8e(\xf8|\xd9?'
p234
tp235
Rp236
tp237
a(S'magicraw'
p238
g2
(g6
S'\xcb\xe2R\xd3[F\xd9?'
p239
tp240
Rp241
tp242
a(S'canon eos 20d'
p243
g2
(g6
S'\xd23b:\x89\xbf\xd8?'
p244
tp245
Rp246
tp247
a(S'jennifer cornbleet'
p248
g2
(g6
S'Zv\x07i\x0e\xb5\xd8?'
p249
tp250
Rp251
tp252
a(S'blood raw discography'
p253
g2
(g6
S'\xb6a\x93M2\xb1\xd8?'
p254
tp255
Rp256
tp257
a(S'2016 wwe draft'
p258
g2
(g6
S'y9\xb6O<\xaf\xd8?'
p259
tp260
Rp261
tp262
a(S'raw milk'
p263
g2
(g6
S'\xfb\t\xf5\xdd\xe2\x9b\xd8?'
p264
tp265
Rp266
tp267
a(S'list of paintshop pro releases'
p268
g2
(g6
S'*(\x0b\xda<S\xd8?'
p269
tp270
Rp271
tp272
a(S'digital photography'
p273
g2
(g6
S'6&\xb1Mq@\xd8?'
p274
tp275
Rp276
tp277
a(S'exposing to the right'
p278
g2
(g6
S'\x8e\xca\xd1l_2\xd8?'
p279
tp280
Rp281
tp282
a(S'windows imaging component'
p283
g2
(g6
S'/\x91\xf4\xc8\xb4\x12\xd8?'
p284
tp285
Rp286
tp287
a(S'raw artists'
p288
g2
(g6
S'\xd6\xde\xed\xdf\xa4\x0b\xd8?'
p289
tp290
Rp291
tp292
a(S'image converter plus'
p293
g2
(g6
S'u\xf6\xb6\xf9\xb4\xdd\xd7?'
p294
tp295
Rp296
tp297
a(S'aplay'
p298
g2
(g6
S'fR X\xdd\xc8\xd7?'
p299
tp300
Rp301
tp302
a(S'camera image file format'
p303
g2
(g6
S'\x0e+\xc6i8\xbe\xd7?'
p304
tp305
Rp306
tp307
a(S'list of raw fish dishes'
p308
g2
(g6
S'Yk\x05]z\xbd\xd7?'
p309
tp310
Rp311
tp312
a(S'crudo'
p313
g2
(g6
S'\x8d\xf9\xcb\xa4D\x91\xd7?'
p314
tp315
Rp316
tp317
a(S'tiff/ep'
p318
g2
(g6
S'\xdf!e\x95\x01\x8e\xd7?'
p319
tp320
Rp321
tp322
a(S'rawzor'
p323
g2
(g6
S'"\x1c\xe8D\xa9\x87\xd7?'
p324
tp325
Rp326
tp327
a(S'orf format'
p328
g2
(g6
S'\xe1\x96\xe2\xa99R\xd7?'
p329
tp330
Rp331
tp332
a(S'2011 wwe draft'
p333
g2
(g6
S'\x141\xce\xdc\xf5Q\xd7?'
p334
tp335
Rp336
tp337
a(S'raw socket'
p338
g2
(g6
S'y\xe3 8ML\xd7?'
p339
tp340
Rp341
tp342
a(S'raw as f**k'
p343
g2
(g6
S'\x11\xf5\x8d\xd2i*\xd7?'
p344
tp345
Rp346
tp347
a(S'raw material'
p348
g2
(g6
S'ht[\xae\xf9%\xd7?'
p349
tp350
Rp351
tp352
a(S'recording format'
p353
g2
(g6
S'\x88\xf6\x82{\xc2\x1f\xd7?'
p354
tp355
Rp356
tp357
a(S'skares'
p358
g2
(g6
S':E\x04\xear\x08\xd7?'
p359
tp360
Rp361
tp362
a(S'eat raw meat = blood drool'
p363
g2
(g6
S'\x8b\xfa\x12\xe0a\xf3\xd6?'
p364
tp365
Rp366
tp367
a(S'rugged-n-raw'
p368
g2
(g6
S'gr\x8f$\xcd\xd7\xd6?'
p369
tp370
Rp371
tp372
a(S'the raw story'
p373
g2
(g6
S'\t)6\xcee\xc4\xd6?'
p374
tp375
Rp376
tp377
a(S'digital camera'
p378
g2
(g6
S'\xdc3c\x0e\x1c\xc3\xd6?'
p379
tp380
Rp381
tp382
a(S'xnview'
p383
g2
(g6
S'\x0f\x08e\xd1\xdd\xbd\xd6?'
p384
tp385
Rp386
tp387
a(S'eat raw for breakfast'
p388
g2
(g6
S'E\x92\xe4\xc4y\xb9\xd6?'
p389
tp390
Rp391
tp392
a(S'digikam'
p393
g2
(g6
S'\xe9K\xe9\xfeA\x9a\xd6?'
p394
tp395
Rp396
tp397
a(S'canon powershot s100'
p398
g2
(g6
S')\x1d\xe7\x0e\x9f\x80\xd6?'
p399
tp400
Rp401
tp402
a(S'raw radar war'
p403
g2
(g6
S'\x8c\x96\t\xefNq\xd6?'
p404
tp405
Rp406
tp407
a(S'the raw report dvd-magazine'
p408
g2
(g6
S'\xfd\x80[\x0e]o\xd6?'
p409
tp410
Rp411
tp412
a(S'list of world tag team champions (wwe)'
p413
g2
(g6
S'\xa5f\x8a\xdb\xaeW\xd6?'
p414
tp415
Rp416
tp417
a(S'irfanview'
p418
g2
(g6
S'h\xe8TN\xe6I\xd6?'
p419
tp420
Rp421
tp422
a(S'extensible metadata platform'
p423
g2
(g6
S'\x1ax\xdf\xe8\x1eE\xd6?'
p424
tp425
Rp426
tp427
a(S'steak tartare'
p428
g2
(g6
S'&\xd2\xff\xe0\x07)\xd6?'
p429
tp430
Rp431
tp432
a(S'raw score'
p433
g2
(g6
S'\xaf\x8d\xd0Z\x9c\xee\xd5?'
p434
tp435
Rp436
tp437
a(S'oloneo photoengine'
p438
g2
(g6
S"\x1aF\xa6'\x01\xe8\xd5?"
p439
tp440
Rp441
tp442
a(S'list of wwe european champions'
p443
g2
(g6
S'2-k\x98\xed\xd1\xd5?'
p444
tp445
Rp446
tp447
a(S'2004 wwe draft lottery'
p448
g2
(g6
S'\x83\x04"w@\xce\xd5?'
p449
tp450
Rp451
tp452
a(S'list of file formats'
p453
g2
(g6
S'\xb6ht\x1f\xf8\xb4\xd5?'
p454
tp455
Rp456
tp457
a(S'sigma sd10'
p458
g2
(g6
S'\xd6\xf7s3\xc2\xaf\xd5?'
p459
tp460
Rp461
tp462
a(S'digital darkroom'
p463
g2
(g6
S':\xd3\xb6\x86\x17\xab\xd5?'
p464
tp465
Rp466
tp467
a(S'raw (music magazine)'
p468
g2
(g6
S'\xab\x92C$\xc2y\xd5?'
p469
tp470
Rp471
tp472
a(S'silverfast'
p473
g2
(g6
S'\xcaBI\x10\xbde\xd5?'
p474
tp475
Rp476
tp477
a(S'sidecar file'
p478
g2
(g6
S'\xf27\x9aB=S\xd5?'
p479
tp480
Rp481
tp482
a(S'konstant\xc4\xabns konstantinovs'
p483
g2
(g6
S'\xc9Tu\xf0\xe71\xd5?'
p484
tp485
Rp486
tp487
a(S'qcow'
p488
g2
(g6
S'\x08\xea$b\xf3,\xd5?'
p489
tp490
Rp491
tp492
a(S'canon eos 40d'
p493
g2
(g6
S'#\x8e\xeb\x0er\x1a\xd5?'
p494
tp495
Rp496
tp497
a(S'darktable'
p498
g2
(g6
S'\xf8\xbel\x8b7\xd3\xd4?'
p499
tp500
Rp501
tp502
a(S'azekel'
p503
g2
(g6
S'\xed\xf6.\xb1h\xbd\xd4?'
p504
tp505
Rp506
tp507
a(S'nikon d3s'
p508
g2
(g6
S'O\xba\xa5\x08\x1b\xbb\xd4?'
p509
tp510
Rp511
tp512
a(S'preview (macos)'
p513
g2
(g6
S'\x95\x1c\xa8\xc2V\xae\xd4?'
p514
tp515
Rp516
tp517
a(S'gugu mbatha-raw'
p518
g2
(g6
S'\x00\xa9_z\x83\xad\xd4?'
p519
tp520
Rp521
tp522
a(S'cia activities in india'
p523
g2
(g6
S'\x16\xdc\xcbC\x99\x97\xd4?'
p524
tp525
Rp526
tp527
a(S'raw like sushi ii'
p528
g2
(g6
S'\x93\xe8\x85\xd3\xfc\x8d\xd4?'
p529
tp530
Rp531
tp532
a(S'2005 wwe draft lottery'
p533
g2
(g6
S'\x0b\xe1\xd69\xa0~\xd4?'
p534
tp535
Rp536
tp537
a(S'file format'
p538
g2
(g6
S'}2Q\x895{\xd4?'
p539
tp540
Rp541
tp542
a(S'digital image'
p543
g2
(g6
S'MC\x1eF\x0ex\xd4?'
p544
tp545
Rp546
tp547
a(S'canon powershot s110'
p548
g2
(g6
S'\x0b\x03>\xc6^w\xd4?'
p549
tp550
Rp551
tp552
a(S'comparison of image viewers'
p553
g2
(g6
S'\x10\x97I\xf5\xa3g\xd4?'
p554
tp555
Rp556
tp557
a(S'arriflex d-20'
p558
g2
(g6
S'\xa6\t\xeb\xe5YX\xd4?'
p559
tp560
Rp561
tp562
a(S'sanjeev tripathi'
p563
g2
(g6
S'\xdb\xd0#\xa6eP\xd4?'
p564
tp565
Rp566
tp567
a(S'blood raw'
p568
g2
(g6
S'd \xed\x1d\xdb8\xd4?'
p569
tp570
Rp571
tp572
a(S'mass spectrometry data format'
p573
g2
(g6
S'\xce\x0e\xd5\r\xd35\xd4?'
p574
tp575
Rp576
tp577
a(S'digital versus film photography'
p578
g2
(g6
S'\xf6\xc3\x96\xe7\xfb1\xd4?'
p579
tp580
Rp581
tp582
a(S'canon powershot s120'
p583
g2
(g6
S'\xcd$\x91]\xb80\xd4?'
p584
tp585
Rp586
tp587
a(S'microsoft digital image'
p588
g2
(g6
S'\xeaz2\xf7X\x1a\xd4?'
p589
tp590
Rp591
tp592
a(S'weisscam'
p593
g2
(g6
S'UL\xaa\xc9"\x12\xd4?'
p594
tp595
Rp596
tp597
a(S'raw view'
p598
g2
(g6
S'\x89:Uh0\xeb\xd3?'
p599
tp600
Rp601
tp602
a(S'image organizer'
p603
g2
(g6
S'b\x81\xb4q\xae\xda\xd3?'
p604
tp605
Rp606
tp607
a(S'faststone image viewer'
p608
g2
(g6
S'7\xb7\x12\xb1\xf0\xd6\xd3?'
p609
tp610
Rp611
tp612
a(S'united states raw milk debate'
p613
g2
(g6
S'\x9b\xf0\x91\x810\xc5\xd3?'
p614
tp615
Rp616
tp617
a(S'g-star raw'
p618
g2
(g6
S'\xc0\xfcO\xc1\xb7\xaf\xd3?'
p619
tp620
Rp621
tp622
a(S'canon powershot s95'
p623
g2
(g6
S'avj4\x8c\xae\xd3?'
p624
tp625
Rp626
tp627
a(S'raw art gallery'
p628
g2
(g6
S'\xfa\xf4\xad#)\x86\xd3?'
p629
tp630
Rp631
tp632
a(S'charles walters, jr.'
p633
g2
(g6
S'\x99\xb4\xe1\xa2\xf2y\xd3?'
p634
tp635
Rp636
tp637
a(S'anonymous raw general manager'
p638
g2
(g6
S'\xcfm\x00\x9bOq\xd3?'
p639
tp640
Rp641
tp642
a(S'jpeg'
p643
g2
(g6
S'Du\x96\x12Yk\xd3?'
p644
tp645
Rp646
tp647
a(S'raw (ra album)'
p648
g2
(g6
S'O\xe1\xab\x89\xdeX\xd3?'
p649
tp650
Rp651
tp652
a(S'high efficiency image file format'
p653
g2
(g6
S'D>V\x13\xaeX\xd3?'
p654
tp655
Rp656
tp657
a(S'silicon imaging'
p658
g2
(g6
S'TJ\x96\xae`W\xd3?'
p659
tp660
Rp661
tp662
a(S'2008 wwe draft'
p663
g2
(g6
S'\x8fs#s\xdbV\xd3?'
p664
tp665
Rp666
tp667
a(S'raw agricultural product'
p668
g2
(g6
S'\xac\xa2L\xe1lH\xd3?'
p669
tp670
Rp671
tp672
a(S'transcoding'
p673
g2
(g6
S'\x87a0\xc1\xab2\xd3?'
p674
tp675
Rp676
tp677
a(S'red raw & sore'
p678
g2
(g6
S'\xb8\xa8\xa4\x0f\xc4,\xd3?'
p679
tp680
Rp681
tp682
a(S'image editing'
p683
g2
(g6
S':\xbd\xf6\xe8\xfb \xd3?'
p684
tp685
Rp686
tp687
a(S'codedcolor photostudio pro'
p688
g2
(g6
S'\x01\xca\x87X\x94\x14\xd3?'
p689
tp690
Rp691
tp692
a(S'sony alpha 580'
p693
g2
(g6
S'\x95\x91\x99|`\x14\xd3?'
p694
tp695
Rp696
tp697
a(S'nikon d500'
p698
g2
(g6
S'\xc0\xc1\xe3\x0f\x85\xf8\xd2?'
p699
tp700
Rp701
tp702
a(S'2007 wwe draft'
p703
g2
(g6
S'\xcd\x9b\x8fZ\xad\xf0\xd2?'
p704
tp705
Rp706
tp707
a(S'wwe brand extension'
p708
g2
(g6
S'\x99f\xc7r\xc5\xed\xd2?'
p709
tp710
Rp711
tp712
a(S'2009 wwe draft'
p713
g2
(g6
S'\x1bJY<\x86\xed\xd2?'
p714
tp715
Rp716
tp717
a(S'xbin'
p718
g2
(g6
S']\xd37z\xb0\xe2\xd2?'
p719
tp720
Rp721
tp722
a(S'zoner photo studio'
p723
g2
(g6
S'\xa8\no\x16\x16\xda\xd2?'
p724
tp725
Rp726
tp727
a(S'raw power (tv series)'
p728
g2
(g6
S'\x131p{\xad\xc8\xd2?'
p729
tp730
Rp731
tp732
a(S'raw water'
p733
g2
(g6
S'9\x87\xc7\x17\xdf\xbe\xd2?'
p734
tp735
Rp736
tp737
a(S'canon eos 1000d'
p738
g2
(g6
S' Y\xb0\xb5G\xb8\xd2?'
p739
tp740
Rp741
tp742
a(S'kuai (dish)'
p743
g2
(g6
S'WT>\xb8\xcf\x9f\xd2?'
p744
tp745
Rp746
tp747
a(S'imagemagick'
p748
g2
(g6
S'S\xbe>0\x8a\x9c\xd2?'
p749
tp750
Rp751
tp752
a(S'sony alpha 700'
p753
g2
(g6
S'eH\xce8.\x9b\xd2?'
p754
tp755
Rp756
tp757
a(S'2010 wwe draft'
p758
g2
(g6
S'\x1f(\xaaJ\x86\x8e\xd2?'
p759
tp760
Rp761
tp762
a(S'canon powershot s90'
p763
g2
(g6
S'sdq:]\x88\xd2?'
p764
tp765
Rp766
tp767
a(S'data conversion'
p768
g2
(g6
S'CE\xb5\x1a\xe7\x86\xd2?'
p769
tp770
Rp771
tp772
a(S'imagej'
p773
g2
(g6
S'\x92#\x8a\r\xb6~\xd2?'
p774
tp775
Rp776
tp777
a(S'adobe photoshop version history'
p778
g2
(g6
S'\x89\xf8\x93b\xa2u\xd2?'
p779
tp780
Rp781
tp782
a(S'raw money raps'
p783
g2
(g6
S'E\xbe\x17s\x16o\xd2?'
p784
tp785
Rp786
tp787
a(S'image quality'
p788
g2
(g6
S'\x86(\x93.\x96a\xd2?'
p789
tp790
Rp791
tp792
a(S'blackmagic cinema camera'
p793
g2
(g6
S'\xb7;=\xde\xa3^\xd2?'
p794
tp795
Rp796
tp797
a(S'big e (wrestler)'
p798
g2
(g6
S'6t\x19\x0eQZ\xd2?'
p799
tp800
Rp801
tp802
a(S'nikon d300s'
p803
g2
(g6
S'[B\xeb\xb4\xe1P\xd2?'
p804
tp805
Rp806
tp807
a(S'audio file format'
p808
g2
(g6
S'\xb0\xfbU\xf0\x1fN\xd2?'
p809
tp810
Rp811
tp812
a(S'eric spoto'
p813
g2
(g6
S'_a!\x1f\x8fC\xd2?'
p814
tp815
Rp816
tp817
a(S'jerky gun'
p818
g2
(g6
S'\xe8\xa0\xado\xc1=\xd2?'
p819
tp820
Rp821
tp822
a(S'cineform'
p823
g2
(g6
S'l\x07\xd4,\xae8\xd2?'
p824
tp825
Rp826
tp827
a(S'nikon d7000'
p828
g2
(g6
S'\x85`a^\x018\xd2?'
p829
tp830
Rp831
tp832
a(S'content format'
p833
g2
(g6
S'\x07\x0bWCe4\xd2?'
p834
tp835
Rp836
tp837
a(S'blindwrite'
p838
g2
(g6
S'f\xf4D\xce\xf6/\xd2?'
p839
tp840
Rp841
tp842
a(S'stuffit'
p843
g2
(g6
S'\xe9Y\xb7\x94\x08"\xd2?'
p844
tp845
Rp846
tp847
a(S'cinema camera'
p848
g2
(g6
S'\x05\xa1\xf08\x7f\x1e\xd2?'
p849
tp850
Rp851
tp852
a(S'canon eos 30d'
p853
g2
(g6
S'\xe3J\r\x0c\xb6\x16\xd2?'
p854
tp855
Rp856
tp857
a(S'pop artificielle'
p858
g2
(g6
S'\\\x8d\xb9O\xff\x04\xd2?'
p859
tp860
Rp861
tp862
a(S'bitmap'
p863
g2
(g6
S'\xc47c\xc5\xdf\xf7\xd1?'
p864
tp865
Rp866
tp867
a(S'terraamazon'
p868
g2
(g6
S'8\xa0[\xbf\x1c\xf7\xd1?'
p869
tp870
Rp871
tp872
a(S'john maizels'
p873
g2
(g6
S'!\xfe?\x89\xc6\xee\xd1?'
p874
tp875
Rp876
tp877
a(S'netcdf'
p878
g2
(g6
S'\xcc~\x05\x9c\xd1\xe0\xd1?'
p879
tp880
Rp881
tp882
a(S'kriegsrohstoffabteilung'
p883
g2
(g6
S'\x93\x80\x05VG\xcf\xd1?'
p884
tp885
Rp886
tp887
a(S'mikhail koklyaev'
p888
g2
(g6
S'\x92\x84\xd9\xb3o\xc7\xd1?'
p889
tp890
Rp891
tp892
a(S'dice raw'
p893
g2
(g6
S'\xef\xcf\x97\xac\xe6\xc5\xd1?'
p894
tp895
Rp896
tp897
a(S'hoedeopbap'
p898
g2
(g6
S'Z\x8b\xfd\xf2\xdd\xc4\xd1?'
p899
tp900
Rp901
tp902
a(S'nikon d5200'
p903
g2
(g6
S'\xa0\xb2\xa0\x85\xcf\xbd\xd1?'
p904
tp905
Rp906
tp907
a(S'archive file'
p908
g2
(g6
S'\xd8%\x93\x92\x0f\xa2\xd1?'
p909
tp910
Rp911
tp912
a(S'mikkel aaland'
p913
g2
(g6
S'A.\x05\xdeM\x9a\xd1?'
p914
tp915
Rp916
tp917
a(S'artipic'
p918
g2
(g6
S'\xa4\np\xe8\xee\x94\xd1?'
p919
tp920
Rp921
tp922
a(S'pics.io'
p923
g2
(g6
S'T\xe7\xdd)\x97p\xd1?'
p924
tp925
Rp926
tp927
a(S'pepsi raw'
p928
g2
(g6
S'\xa8(\xcd\xc3Gf\xd1?'
p929
tp930
Rp931
tp932
a(S'nikon coolpix 5700'
p933
g2
(g6
S'\x1bW\x97\x14/f\xd1?'
p934
tp935
Rp936
tp937
a(S'lesa carlson'
p938
g2
(g6
S'\xb1\x1aU\x08\x91e\xd1?'
p939
tp940
Rp941
tp942
a(S'microdicom'
p943
g2
(g6
S'\xc0\x82/\x90\xb4V\xd1?'
p944
tp945
Rp946
tp947
a(S'demosaicing'
p948
g2
(g6
S't\x19\x127\xd2O\xd1?'
p949
tp950
Rp951
tp952
a(S'list of cameras supporting a raw format'
p953
g2
(g6
S'\xe9/\xc5\xd1"G\xd1?'
p954
tp955
Rp956
tp957
a(S'list of countries by cotton exports'
p958
g2
(g6
S'\x15\x1b\xfe\x02\xbbF\xd1?'
p959
tp960
Rp961
tp962
a(S'nikon d600'
p963
g2
(g6
S'\xed8GP\xf2E\xd1?'
p964
tp965
Rp966
tp967
a(S'jpeg 2000'
p968
g2
(g6
S'\xaf\x9e\xc1\xe4/5\xd1?'
p969
tp970
Rp971
tp972
a(S'combined raw materials board'
p973
g2
(g6
S'\x99J\xd1\x1a\xe12\xd1?'
p974
tp975
Rp976
tp977
a(S'panasonic lumix dmc-fz28'
p978
g2
(g6
S'\x8ah\xed\x80\xd00\xd1?'
p979
tp980
Rp981
tp982
a(S'raw meat'
p983
g2
(g6
S'@\xce\xcb\x07\x1a#\xd1?'
p984
tp985
Rp986
tp987
a(S'list of motion and gesture file formats'
p988
g2
(g6
S'R[\x8a\xe4_!\xd1?'
p989
tp990
Rp991
tp992
a(S'survivor series (2016)'
p993
g2
(g6
S'5\x8a\xc3\xff[\x1f\xd1?'
p994
tp995
Rp996
tp997
a(S'metalith'
p998
g2
(g6
S'x/Yp\xc0\x17\xd1?'
p999
tp1000
Rp1001
tp1002
a(S'the raw men empire'
p1003
g2
(g6
S'\xbd^w{\x19\x0e\xd1?'
p1004
tp1005
Rp1006
tp1007
a(S'portable network graphics'
p1008
g2
(g6
S'\xf8\xda\x9e\xc4\x9f\x02\xd1?'
p1009
tp1010
Rp1011
tp1012
a(S'iso image'
p1013
g2
(g6
S'\x9e<\x9fYF\x01\xd1?'
p1014
tp1015
Rp1016
tp1017
a(S'list of abbreviations in photography'
p1018
g2
(g6
S'1^\xde\x1a\xd9\x00\xd1?'
p1019
tp1020
Rp1021
tp1022
a(S'tiff'
p1023
g2
(g6
S'\x1c9\xd0+a\xfa\xd0?'
p1024
tp1025
Rp1026
tp1027
a(S'geotiff'
p1028
g2
(g6
S'\x91:\x8e\xbes\xf5\xd0?'
p1029
tp1030
Rp1031
tp1032
a(S'pmview'
p1033
g2
(g6
S'\xc7\x83xJ\xbc\xef\xd0?'
p1034
tp1035
Rp1036
tp1037
a(S'list of audio conversion software'
p1038
g2
(g6
S'\x9b\xf1\xbfE9\xeb\xd0?'
p1039
tp1040
Rp1041
tp1042
a(S'raw power (band)'
p1043
g2
(g6
S'95\xd0\x8e\x99\xe8\xd0?'
p1044
tp1045
Rp1046
tp1047
a(S'mrsid'
p1048
g2
(g6
S'\x1d\xb1n\xb3Q\xe4\xd0?'
p1049
tp1050
Rp1051
tp1052
a(S'openchrom'
p1053
g2
(g6
S'\xdf\xa7\xfd\xad3\xca\xd0?'
p1054
tp1055
Rp1056
tp1057
a(S'lossy compression'
p1058
g2
(g6
S'\xbcN\x9d\xba\xbf\xc7\xd0?'
p1059
tp1060
Rp1061
tp1062
a(S'large format'
p1063
g2
(g6
S'\xbc\x0c\xe9XQ\xc4\xd0?'
p1064
tp1065
Rp1066
tp1067
a(S'image processor'
p1068
g2
(g6
S'\x1a\xf3\xe1J\xdd\xbd\xd0?'
p1069
tp1070
Rp1071
tp1072
a(S'royal commission on the supply of food and raw materials in time of war'
p1073
g2
(g6
S'5\xddD\x0bi\xbd\xd0?'
p1074
tp1075
Rp1076
tp1077
a(S'braun strowman'
p1078
g2
(g6
S';\x8d\x92\xb8\x9d\xba\xd0?'
p1079
tp1080
Rp1081
tp1082
a(S'raw power'
p1083
g2
(g6
S'\xcb4\xacs)\xb8\xd0?'
p1084
tp1085
Rp1086
tp1087
a(S'disk copy fast'
p1088
g2
(g6
S'\xf2`\x97\x95\n\xb1\xd0?'
p1089
tp1090
Rp1091
tp1092
a(S'list of open formats'
p1093
g2
(g6
S'>\xa3\xa6\xce\x9b\xaf\xd0?'
p1094
tp1095
Rp1096
tp1097
a(S'draytons two'
p1098
g2
(g6
S'\x9359\xd1\xf8\x9b\xd0?'
p1099
tp1100
Rp1101
tp1102
a(S'webp'
p1103
g2
(g6
S'j\x9f\xb6\xa1\xcc\x93\xd0?'
p1104
tp1105
Rp1106
tp1107
a(S'digital image processing'
p1108
g2
(g6
S';\xd4\xd7I\xc1\x88\xd0?'
p1109
tp1110
Rp1111
tp1112
a(S'geeqie'
p1113
g2
(g6
S'o\xcb\xc9\x13o\x84\xd0?'
p1114
tp1115
Rp1116
tp1117
a(S'comparison of raster graphics editors'
p1118
g2
(g6
S'\x00-Q5n\x82\xd0?'
p1119
tp1120
Rp1121
tp1122
a(S'openimageio'
p1123
g2
(g6
S'\xa3\xcdaBH\x80\xd0?'
p1124
tp1125
Rp1126
tp1127
a(S'canon eos 50d'
p1128
g2
(g6
S"7\x10'h4w\xd0?"
p1129
tp1130
Rp1131
tp1132
a(S'intergraph standard file formats'
p1133
g2
(g6
S'd@\xae\xef/v\xd0?'
p1134
tp1135
Rp1136
tp1137
a(S'showbread discography'
p1138
g2
(g6
S'"\x8e\xad\xac\x7fi\xd0?'
p1139
tp1140
Rp1141
tp1142
a(S'xetal'
p1143
g2
(g6
S'\x8d\xc9\xf6\x16\xbfg\xd0?'
p1144
tp1145
Rp1146
tp1147
a(S'design rule for camera file system'
p1148
g2
(g6
S'\xa3]\xaf\x05rg\xd0?'
p1149
tp1150
Rp1151
tp1152
a(S'color image pipeline'
p1153
g2
(g6
S'!\xa1.\x17\x11g\xd0?'
p1154
tp1155
Rp1156
tp1157
a(S'cygm filter'
p1158
g2
(g6
S'\x98 \xb2\xc8\xb8f\xd0?'
p1159
tp1160
Rp1161
tp1162
a(S'digital camera back'
p1163
g2
(g6
S'r\xbd\xd1\xcb`b\xd0?'
p1164
tp1165
Rp1166
tp1167
a(S'bibble (software)'
p1168
g2
(g6
S'\x84mKJn^\xd0?'
p1169
tp1170
Rp1171
tp1172
a(S'pictor pic image format'
p1173
g2
(g6
S'-\xdf\\\xff\x8aU\xd0?'
p1174
tp1175
Rp1176
tp1177
a(S'nrrd'
p1178
g2
(g6
S'\xe5\x8a\xbe\x1f\x05U\xd0?'
p1179
tp1180
Rp1181
tp1182
a(S'erni gregor\xc4\x8di\xc4\x8d'
p1183
g2
(g6
S's\xee\x8c.\xa3Q\xd0?'
p1184
tp1185
Rp1186
tp1187
a(S'pcx'
p1188
g2
(g6
S'\xbd\x95\xd4\xfcvO\xd0?'
p1189
tp1190
Rp1191
tp1192
a(S'picasa'
p1193
g2
(g6
S'\xc2\xb9 \xc6\xa0I\xd0?'
p1194
tp1195
Rp1196
tp1197
a(S'pentax k-3 ii'
p1198
g2
(g6
S'[\x9c\xdb\xe1\x1bD\xd0?'
p1199
tp1200
Rp1201
tp1202
a(S'dxo opticspro'
p1203
g2
(g6
S'{O\x1d5\x98C\xd0?'
p1204
tp1205
Rp1206
tp1207
a(S'image compression'
p1208
g2
(g6
S'\x00;\xba>iC\xd0?'
p1209
tp1210
Rp1211
tp1212
a(S'raw food made easy for 1 or 2 people'
p1213
g2
(g6
S'>\xa1\x91]^?\xd0?'
p1214
tp1215
Rp1216
tp1217
a(S'x bitmap'
p1218
g2
(g6
S'\xb2E\xe2\xad??\xd0?'
p1219
tp1220
Rp1221
tp1222
a(S'john kuc'
p1223
g2
(g6
S'\xcc\x16\xb5F\xb3=\xd0?'
p1224
tp1225
Rp1226
tp1227
a(S'raw chocolate'
p1228
g2
(g6
S';\x1e\xbd\xa3w=\xd0?'
p1229
tp1230
Rp1231
tp1232
a(S'art image file format'
p1233
g2
(g6
S'\xe7\\S\xb9>4\xd0?'
p1234
tp1235
Rp1236
tp1237
a(S'list of filename extensions (f\xe2\x80\x93l)'
p1238
g2
(g6
S'p\x12.\x0332\xd0?'
p1239
tp1240
Rp1241
tp1242
a(S'random killing'
p1243
g2
(g6
S'\xc7\xd1j5\x1e*\xd0?'
p1244
tp1245
Rp1246
tp1247
a(S'big james henderson'
p1248
g2
(g6
S'=\x85\xe7>\xb2(\xd0?'
p1249
tp1250
Rp1251
tp1252
a(S'image sensor format'
p1253
g2
(g6
S"\x7f\xa2\x83\x87\x9f'\xd0?"
p1254
tp1255
Rp1256
tp1257
a(S'progressive graphics file'
p1258
g2
(g6
S'?4\xba\xb9\xba \xd0?'
p1259
tp1260
Rp1261
tp1262
a(S'data file'
p1263
g2
(g6
S'c\xea\xfb\x96+\x1f\xd0?'
p1264
tp1265
Rp1266
tp1267
a(S'pef'
p1268
g2
(g6
S'{2,>\xaf\x1b\xd0?'
p1269
tp1270
Rp1271
tp1272
a(S'blackmagic design'
p1273
g2
(g6
S'\xca\xca\x18G/\x18\xd0?'
p1274
tp1275
Rp1276
tp1277
a(S'full-frame digital slr'
p1278
g2
(g6
S'C\xe9x&R\x16\xd0?'
p1279
tp1280
Rp1281
tp1282
a(S'kinilaw'
p1283
g2
(g6
S'=E\xa0*\xdb\x10\xd0?'
p1284
tp1285
Rp1286
tp1287
a(S'history of the camera'
p1288
g2
(g6
S'{S\x95A\xd5\x10\xd0?'
p1289
tp1290
Rp1291
tp1292
a(S'photoline'
p1293
g2
(g6
S'-\x93`\xbd\x80\x08\xd0?'
p1294
tp1295
Rp1296
tp1297
a(S'gonvisor'
p1298
g2
(g6
S'\xfb\xfb\xad\xdd?\x06\xd0?'
p1299
tp1300
Rp1301
tp1302
a(S'extensible device metadata'
p1303
g2
(g6
S'l\xdf\xa6\x80\x8d\x01\xd0?'
p1304
tp1305
Rp1306
tp1307
a(S'photoloader'
p1308
g2
(g6
S'\x04\x87\xa3b\x89\x00\xd0?'
p1309
tp1310
Rp1311
tp1312
a(S'photoscape'
p1313
g2
(g6
S'\x96\r\xd8t\xc2\xf4\xcf?'
p1314
tp1315
Rp1316
tp1317
a(S'beparis'
p1318
g2
(g6
S'\xa0\xab\xf1\xe4\r\xf0\xcf?'
p1319
tp1320
Rp1321
tp1322
a(S'sinar'
p1323
g2
(g6
S'\xf0J\xac\x89+\xea\xcf?'
p1324
tp1325
Rp1326
tp1327
a(S'the dirty rotten power'
p1328
g2
(g6
S'`#\xa1h\x92\xe5\xcf?'
p1329
tp1330
Rp1331
tp1332
a(S'list of filename extensions (m\xe2\x80\x93r)'
p1333
g2
(g6
S'\x8f+\xc9]"\xe5\xcf?'
p1334
tp1335
Rp1336
tp1337
a(S'logluv tiff'
p1338
g2
(g6
S'X=Y@\xca\xe3\xcf?'
p1339
tp1340
Rp1341
tp1342
a(S'medium format (film)'
p1343
g2
(g6
S'\xfc\xd0?V5\xe1\xcf?'
p1344
tp1345
Rp1346
tp1347
a(S'nikon d200'
p1348
g2
(g6
S'\xb1~\xa03\x90\xdb\xcf?'
p1349
tp1350
Rp1351
tp1352
a(S'file viewer'
p1353
g2
(g6
S'\x99h\x97\xf6\xe0\xda\xcf?'
p1354
tp1355
Rp1356
tp1357
a(S'digital container format'
p1358
g2
(g6
S'\xf5o\x9d\xec.\xd7\xcf?'
p1359
tp1360
Rp1361
tp1362
a(S'money-b'
p1363
g2
(g6
S'\x10\xe5\xdbh\xb2\xd6\xcf?'
p1364
tp1365
Rp1366
tp1367
a(S'adobe photoshop lightroom'
p1368
g2
(g6
S'\x95\x05E\xcc\x9f\xcd\xcf?'
p1369
tp1370
Rp1371
tp1372
a(S'wwe smackdown! vs. raw 2006'
p1373
g2
(g6
S'>I\xa9K\xd8\xc9\xcf?'
p1374
tp1375
Rp1376
tp1377
a(S'herdshare'
p1378
g2
(g6
S'\r\xaa\xe9\x9a\xe6\xb4\xcf?'
p1379
tp1380
Rp1381
tp1382
a(S'list of filename extensions (a\xe2\x80\x93e)'
p1383
g2
(g6
S'\xa0M\xfbHB\xa7\xcf?'
p1384
tp1385
Rp1386
tp1387
a(S'nikon coolpix 8400'
p1388
g2
(g6
S'\n\x84\x08\x9cH\xa5\xcf?'
p1389
tp1390
Rp1391
tp1392
a(S'hastiliarius'
p1393
g2
(g6
S'\xfc\x92Rl\t\x94\xcf?'
p1394
tp1395
Rp1396
tp1397
a(S'unified emulator format'
p1398
g2
(g6
S'\x81\xa2\xd7\x8e\xc9\x90\xcf?'
p1399
tp1400
Rp1401
tp1402
a(S'nikon d2h'
p1403
g2
(g6
S'j\xe6\t\x96c\x85\xcf?'
p1404
tp1405
Rp1406
tp1407
a(S'radio warwick'
p1408
g2
(g6
S'\xbb*\xab\xe4x\x80\xcf?'
p1409
tp1410
Rp1411
tp1412
a(S'wwe raw 2'
p1413
g2
(g6
S'F\xc4\xde,1y\xcf?'
p1414
tp1415
Rp1416
tp1417
a(S'pre-flight (printing)'
p1418
g2
(g6
S'\x1a8H\x8d\xd9B\xcf?'
p1419
tp1420
Rp1421
tp1422
a(S'image viewer'
p1423
g2
(g6
S'WK\x1c,6<\xcf?'
p1424
tp1425
Rp1426
tp1427
a(S'microscope image processing'
p1428
g2
(g6
S'\xff\x11\xde\x141<\xcf?'
p1429
tp1430
Rp1431
tp1432
a(S'we r music'
p1433
g2
(g6
S's\x80\xcb\x04\xa66\xcf?'
p1434
tp1435
Rp1436
tp1437
a(S'devil'
p1438
g2
(g6
S'\xe8\n\xb9\x81\x81)\xcf?'
p1439
tp1440
Rp1441
tp1442
a(S'xzgv'
p1443
g2
(g6
S'\xde\xe8\x84;\x06%\xcf?'
p1444
tp1445
Rp1446
tp1447
a(S'list of exports of australia'
p1448
g2
(g6
S'\xca\xc0\x90F\xd8\x1e\xcf?'
p1449
tp1450
Rp1451
tp1452
a(S'canon powershot g'
p1453
g2
(g6
S'\xed\x17\xb3\xe5\x1d\x19\xcf?'
p1454
tp1455
Rp1456
tp1457
a(S'fran\xc3\xa7oise mouly'
p1458
g2
(g6
S'\xca\xe35\xcb\xb4\x18\xcf?'
p1459
tp1460
Rp1461
tp1462
a(S'picture transfer protocol'
p1463
g2
(g6
S'\xae\x90\x8b:`\x18\xcf?'
p1464
tp1465
Rp1466
tp1467
a(S'firewire camera'
p1468
g2
(g6
S'rtS\xf3\\\x13\xcf?'
p1469
tp1470
Rp1471
tp1472
a(S'digital cinematography'
p1473
g2
(g6
S'\xc0\x87\x03\xe4W\x0c\xcf?'
p1474
tp1475
Rp1476
tp1477
a(S'raw fusion'
p1478
g2
(g6
S'\xa6\xf92[|\x0b\xcf?'
p1479
tp1480
Rp1481
tp1482
a(S'proprietary format'
p1483
g2
(g6
S'9\xa0\x1b\xa7\xaf\xfb\xce?'
p1484
tp1485
Rp1486
tp1487
a(S'k. sankaran nair'
p1488
g2
(g6
S'\x00\xe7C\xfeZ\xf7\xce?'
p1489
tp1490
Rp1491
tp1492
a(S'photoscan'
p1493
g2
(g6
S'-\x10\xde\xbb\xab\xf0\xce?'
p1494
tp1495
Rp1496
tp1497
a(S'canon eos 5d mark ii'
p1498
g2
(g6
S'\xc8\xadw?\xac\xec\xce?'
p1499
tp1500
Rp1501
tp1502
a(S'digital photo professional'
p1503
g2
(g6
S'\xb9\xd9ui\xdc\xe2\xce?'
p1504
tp1505
Rp1506
tp1507
a(S'digital single-lens reflex camera'
p1508
g2
(g6
S'\xfd\x8f\xa6\xf2\xff\xd7\xce?'
p1509
tp1510
Rp1511
tp1512
a.