(lp0
(S'recurrent neural network'
p1
cnumpy.core.multiarray
scalar
p2
(cnumpy
dtype
p3
(S'f8'
p4
I0
I1
tp5
Rp6
(I3
S'<'
p7
NNNI-1
I-1
I0
tp8
bS'\x02\x00\x00\x00\x00\x00\xf0?'
p9
tp10
Rp11
tp12
a(S'types of artificial neural networks'
p13
g2
(g6
S'-\x06;\xb7\xe3\x8c\xe7?'
p14
tp15
Rp16
tp17
a(S'artificial neural network'
p18
g2
(g6
S'\xbdt\x90\xf7\xdd\x85\xe6?'
p19
tp20
Rp21
tp22
a(S'deep learning'
p23
g2
(g6
S'\xf5\xf91\xee\x87\xb3\xe5?'
p24
tp25
Rp26
tp27
a(S'encog'
p28
g2
(g6
S'\xdd\xedX\xd1\xf5\xe9\xe4?'
p29
tp30
Rp31
tp32
a(S'backpropagation through time'
p33
g2
(g6
S'\xf3\xcf\xa9\xf1\xa8\x08\xe4?'
p34
tp35
Rp36
tp37
a(S'recursive neural network'
p38
g2
(g6
S'\xf7\x0be4\x95\xf0\xe3?'
p39
tp40
Rp41
tp42
a(S'feedforward neural network'
p43
g2
(g6
S'\xd1\xb9\r\x90\xef\x87\xe3?'
p44
tp45
Rp46
tp47
a(S'time delay neural network'
p48
g2
(g6
S'\xe7\xfa\xcd\xd2Xc\xe3?'
p49
tp50
Rp51
tp52
a(S'vanishing gradient problem'
p53
g2
(g6
S'b\xa1\x19.\x0b\xd6\xe2?'
p54
tp55
Rp56
tp57
a(S'long short-term memory'
p58
g2
(g6
S'\xc4D\x15\xb4\xb5\x87\xe2?'
p59
tp60
Rp61
tp62
a(S'random neural network'
p63
g2
(g6
S'h\xca\xd1\x08\xa7\x83\xe2?'
p64
tp65
Rp66
tp67
a(S'catastrophic interference'
p68
g2
(g6
S'q\xc7\xe5\x80\x7fj\xe1?'
p69
tp70
Rp71
tp72
a(S'neuroph'
p73
g2
(g6
S'9\xac>\xe5\xc1c\xe1?'
p74
tp75
Rp76
tp77
a(S'convolutional neural network'
p78
g2
(g6
S'\xb5\xafa\x12\xa6\\\xe1?'
p79
tp80
Rp81
tp82
a(S'connectionism'
p83
g2
(g6
S'7\t\xfc\xadC9\xe1?'
p84
tp85
Rp86
tp87
a(S'neurosolutions'
p88
g2
(g6
S'\xe0\t^\x8a\xc8\x1a\xe1?'
p89
tp90
Rp91
tp92
a(S'physical neural network'
p93
g2
(g6
S'Vf""]\xee\xe0?'
p94
tp95
Rp96
tp97
a(S'backpropagation'
p98
g2
(g6
S':\x85\xf4]\x8c\xdf\xe0?'
p99
tp100
Rp101
tp102
a(S'instantaneously trained neural networks'
p103
g2
(g6
S'J\xa1\xf1\xf4V\xde\xe0?'
p104
tp105
Rp106
tp107
a(S'almeida\xe2\x80\x93pineda recurrent backpropagation'
p108
g2
(g6
S'\xd9\xdb\x8a/\xcd\xd9\xe0?'
p109
tp110
Rp111
tp112
a(S'neural network software'
p113
g2
(g6
S'\r\xfd\x95\xd8>\xd7\xe0?'
p114
tp115
Rp116
tp117
a(S'computational neurogenetic modeling'
p118
g2
(g6
S'\x8f\x1d\x99L\x80\xd1\xe0?'
p119
tp120
Rp121
tp122
a(S'neural lab'
p123
g2
(g6
S'\x18"\xaaH\xf0\xa5\xe0?'
p124
tp125
Rp126
tp127
a(S'modular neural network'
p128
g2
(g6
S'\xf0\x91\x16.6q\xe0?'
p129
tp130
Rp131
tp132
a(S'joone'
p133
g2
(g6
S'\xf4p\xce\\\xf8Z\xe0?'
p134
tp135
Rp136
tp137
a(S'bcpnn'
p138
g2
(g6
S'>(\x1b\x04)1\xe0?'
p139
tp140
Rp141
tp142
a(S'neural turing machine'
p143
g2
(g6
S'ys\xd3\xb1\x15)\xe0?'
p144
tp145
Rp146
tp147
a(S'ronald j. williams'
p148
g2
(g6
S"\x9bg\xbes\x82'\xe0?"
p149
tp150
Rp151
tp152
a(S'neural cryptography'
p153
g2
(g6
S'\xe9\x97\x92Zn\x0e\xe0?'
p154
tp155
Rp156
tp157
a(S'timeline of machine learning'
p158
g2
(g6
S'&\x81x\xf9?U\xdf?'
p159
tp160
Rp161
tp162
a(S'bidirectional recurrent neural networks'
p163
g2
(g6
S'\x10\x89\xb6\\1E\xdf?'
p164
tp165
Rp166
tp167
a(S'spiking neural network'
p168
g2
(g6
S'lX]\xa9L+\xdf?'
p169
tp170
Rp171
tp172
a(S'neural gas'
p173
g2
(g6
S'\xc8\x86F\xbdJ(\xdf?'
p174
tp175
Rp176
tp177
a(S'hopfield network'
p178
g2
(g6
S'\xa8u\xe8\xd0cZ\xde?'
p179
tp180
Rp181
tp182
a(S'paul werbos'
p183
g2
(g6
S'\xd8\xbd\xb7\xfd\x85\x15\xdd?'
p184
tp185
Rp186
tp187
a(S'rnn'
p188
g2
(g6
S'k\xf3\xf5\xfe/\xcd\xdc?'
p189
tp190
Rp191
tp192
a(S'probabilistic neural network'
p193
g2
(g6
S'\xb3\xe6c\x16\xed\xb4\xdc?'
p194
tp195
Rp196
tp197
a(S'adaline'
p198
g2
(g6
S'\x07\xd7>EE\x9d\xdc?'
p199
tp200
Rp201
tp202
a(S'winner-take-all (computing)'
p203
g2
(g6
S'\x0f\xc7\xa4|2L\xdc?'
p204
tp205
Rp206
tp207
a(S'snns'
p208
g2
(g6
S'N_\xc7\xf6\xa5E\xdc?'
p209
tp210
Rp211
tp212
a(S'perceptron'
p213
g2
(g6
S'3ql8\xd4\x1e\xdc?'
p214
tp215
Rp216
tp217
a(S'confabulation (neural networks)'
p218
g2
(g6
S'\x0c7\xe6He\xb4\xdb?'
p219
tp220
Rp221
tp222
a(S'neural network synchronization protocol'
p223
g2
(g6
S'~\xe2M!\x0ey\xdb?'
p224
tp225
Rp226
tp227
a(S'stephen grossberg'
p228
g2
(g6
S'-\x15\xa9\xe6*7\xdb?'
p229
tp230
Rp231
tp232
a(S'darkforest'
p233
g2
(g6
S'\xbd\xd3\xb4\x19\x08/\xdb?'
p234
tp235
Rp236
tp237
a(S'biological neural network'
p238
g2
(g6
S'\x83\x1baR#\xdb\xda?'
p239
tp240
Rp241
tp242
a(S'neural engineering'
p243
g2
(g6
S'\xd8S_\xad\t\xd2\xda?'
p244
tp245
Rp246
tp247
a(S'differentiable neural computer'
p248
g2
(g6
S'*\r>\xbc\x91\xca\xda?'
p249
tp250
Rp251
tp252
a(S'neural networks (journal)'
p253
g2
(g6
S'\x15\x9fj\x8ew\xae\xda?'
p254
tp255
Rp256
tp257
a(S'neural plate'
p258
g2
(g6
S'\xba\xa9u\\;\x96\xda?'
p259
tp260
Rp261
tp262
a(S'neurodimension'
p263
g2
(g6
S'Zv\xa4\x17\xb7.\xda?'
p264
tp265
Rp266
tp267
a(S'neural machine translation'
p268
g2
(g6
S'EB\x96\x7f\x9f"\xda?'
p269
tp270
Rp271
tp272
a(S'mnist database'
p273
g2
(g6
S'\xee\xc4W0\x99\x1c\xda?'
p274
tp275
Rp276
tp277
a(S'neural crest'
p278
g2
(g6
S'\x8c\x1aA\xe9\xb9\xfb\xd9?'
p279
tp280
Rp281
tp282
a(S'optical neural network'
p283
g2
(g6
S'\xdb3\xec\xdd\xfa\xf2\xd9?'
p284
tp285
Rp286
tp287
a(S'neurulation'
p288
g2
(g6
S'\x0cO]\xaf\xbc\x83\xd9?'
p289
tp290
Rp291
tp292
a(S'multilayer perceptron'
p293
g2
(g6
S'\xc4C%\xc90s\xd9?'
p294
tp295
Rp296
tp297
a(S'competitive learning'
p298
g2
(g6
S'\xfbx#s\x1di\xd9?'
p299
tp300
Rp301
tp302
a(S'neural fold'
p303
g2
(g6
S'\xef\xad\x8ba0]\xd9?'
p304
tp305
Rp306
tp307
a(S'neural tube'
p308
g2
(g6
S'7eh\x19:\x08\xd9?'
p309
tp310
Rp311
tp312
a(S'james a. anderson'
p313
g2
(g6
S'n\xb7\xca\xf3O\x07\xd9?'
p314
tp315
Rp316
tp317
a(S'sepp hochreiter'
p318
g2
(g6
S'- \xb2\x9f\x83\x03\xd9?'
p319
tp320
Rp321
tp322
a(S'european neural network society'
p323
g2
(g6
S'\xf6\xabY`\x8e\xf5\xd8?'
p324
tp325
Rp326
tp327
a(S'stochastic neural network'
p328
g2
(g6
S'\xbb\xf3\xb1\x8b\x04\xd2\xd8?'
p329
tp330
Rp331
tp332
a(S'autoencoder'
p333
g2
(g6
S'Igv \x8f\xbf\xd8?'
p334
tp335
Rp336
tp337
a(S'rectifier (neural networks)'
p338
g2
(g6
S'g\xd3`\x87\xb0\x96\xd8?'
p339
tp340
Rp341
tp342
a(S'kak neural network'
p343
g2
(g6
S'\xa1\xf0o\x98\xc4e\xd8?'
p344
tp345
Rp346
tp347
a(S'liquid state machine'
p348
g2
(g6
S'\xcbQk\xc5\xfaU\xd8?'
p349
tp350
Rp351
tp352
a(S'neocognitron'
p353
g2
(g6
S'\x15Vf\x0cy*\xd8?'
p354
tp355
Rp356
tp357
a(S'quantum neural network'
p358
g2
(g6
S'\xcauhM\x98\n\xd8?'
p359
tp360
Rp361
tp362
a(S'neural groove'
p363
g2
(g6
S'\xc7Z\xb1B\x88\xd6\xd7?'
p364
tp365
Rp366
tp367
a(S'hyper basis function network'
p368
g2
(g6
S'm\x88\x98\x01}\xb5\xd7?'
p369
tp370
Rp371
tp372
a(S'snn'
p373
g2
(g6
S'\xd5\xa9-\xee\xe3v\xd7?'
p374
tp375
Rp376
tp377
a(S'ensemble averaging (machine learning)'
p378
g2
(g6
S'_u\xef\xac\xe3Y\xd7?'
p379
tp380
Rp381
tp382
a(S'nervous system network models'
p383
g2
(g6
S'\xd9\xef\xb3\xccxR\xd7?'
p384
tp385
Rp386
tp387
a(S'extension neural network'
p388
g2
(g6
S'&\x97\xcf\x1d:M\xd7?'
p389
tp390
Rp391
tp392
a(S'neural clique'
p393
g2
(g6
S'\xdcG\xa6\xb4W\x1d\xd7?'
p394
tp395
Rp396
tp397
a(S'intelligent flight control system'
p398
g2
(g6
S'=Hp\xb3M\n\xd7?'
p399
tp400
Rp401
tp402
a(S'marketing and artificial intelligence'
p403
g2
(g6
S'G\x85\xf1\xea\xda\x00\xd7?'
p404
tp405
Rp406
tp407
a(S'opennn'
p408
g2
(g6
S'\x91\xfd\xe0\x0b/\xe8\xd6?'
p409
tp410
Rp411
tp412
a(S'neurorobotics'
p413
g2
(g6
S'R\x7f$\x00 \xb5\xd6?'
p414
tp415
Rp416
tp417
a(S'evolutionary acquisition of neural topologies'
p418
g2
(g6
S'\xd0k=\xeb~\xac\xd6?'
p419
tp420
Rp421
tp422
a(S'christoph von der malsburg'
p423
g2
(g6
S'a\xc1\xe9\x08\x19e\xd6?'
p424
tp425
Rp426
tp427
a(S'neuroectoderm'
p428
g2
(g6
S'\xc6\x1b\x12\xba:R\xd6?'
p429
tp430
Rp431
tp432
a(S'feature learning'
p433
g2
(g6
S'\xd8\r_\x85RQ\xd6?'
p434
tp435
Rp436
tp437
a(S'neurula'
p438
g2
(g6
S'\xa7\x98&Q\x169\xd6?'
p439
tp440
Rp441
tp442
a(S'models of neural computation'
p443
g2
(g6
S'\x1dc\xbd&+*\xd6?'
p444
tp445
Rp446
tp447
a(S'madaline'
p448
g2
(g6
S'\x00\x9d\x9eN\xab\x19\xd6?'
p449
tp450
Rp451
tp452
a(S'extreme learning machine'
p453
g2
(g6
S'\xbe9\xddW\x00\x0b\xd6?'
p454
tp455
Rp456
tp457
a(S'list of machine learning concepts'
p458
g2
(g6
S'4\xdcy\x8e\xc6\t\xd6?'
p459
tp460
Rp461
tp462
a(S'nonlinear system identification'
p463
g2
(g6
S'wP\x99\x9a\xe4\x00\xd6?'
p464
tp465
Rp466
tp467
a(S'neural development'
p468
g2
(g6
S'\x836\xa9\x94\xa1\xf9\xd5?'
p469
tp470
Rp471
tp472
a(S'generalization error'
p473
g2
(g6
S'v\xe2.\xfdd\xed\xd5?'
p474
tp475
Rp476
tp477
a(S'intelligent control'
p478
g2
(g6
S'\xf9\x11vcA\xd8\xd5?'
p479
tp480
Rp481
tp482
a(S"artur d'avila garcez"
p483
g2
(g6
S'\x08\x82\xb7\xf7O\xcd\xd5?'
p484
tp485
Rp486
tp487
a(S'neural engineering object'
p488
g2
(g6
S'r\xffvL\xd4\xbf\xd5?'
p489
tp490
Rp491
tp492
a(S'keras'
p493
g2
(g6
S'CZ>i\xfd\xb7\xd5?'
p494
tp495
Rp496
tp497
a(S'small-world network'
p498
g2
(g6
S'\n\xb9\xcdCX\x81\xd5?'
p499
tp500
Rp501
tp502
a(S'radial basis function network'
p503
g2
(g6
S'|\xb5W\xe3\xdeu\xd5?'
p504
tp505
Rp506
tp507
a(S'artificial neuron'
p508
g2
(g6
S'~\xa6\xf6\x9e\x9fs\xd5?'
p509
tp510
Rp511
tp512
a(S'classification system for serial criminal patterns'
p513
g2
(g6
S'\x83\xc2Dg\x9dr\xd5?'
p514
tp515
Rp516
tp517
a(S'neural substrate'
p518
g2
(g6
S'Wp7\xe9\xc8p\xd5?'
p519
tp520
Rp521
tp522
a(S'hyperneat'
p523
g2
(g6
S'J\xe23\x87\xb8p\xd5?'
p524
tp525
Rp526
tp527
a(S'regulatory feedback network'
p528
g2
(g6
S'//\xbcXvn\xd5?'
p529
tp530
Rp531
tp532
a(S'leabra'
p533
g2
(g6
S'\t\xdc \x1d\x81c\xd5?'
p534
tp535
Rp536
tp537
a(S'gated recurrent unit'
p538
g2
(g6
S'\xd5\xbcM\x14\xf7a\xd5?'
p539
tp540
Rp541
tp542
a(S'hierarchical temporal memory'
p543
g2
(g6
S'\xc94\xd6*\xf1`\xd5?'
p544
tp545
Rp546
tp547
a(S'cellular neural network'
p548
g2
(g6
S'-\x04\xd8k\xeeA\xd5?'
p549
tp550
Rp551
tp552
a(S'ieee transactions on neural networks and learning systems'
p553
g2
(g6
S'\x15S\xf2c\xc0:\xd5?'
p554
tp555
Rp556
tp557
a(S'michael a. arbib'
p558
g2
(g6
S'@F\xf1\x99S1\xd5?'
p559
tp560
Rp561
tp562
a(S'neural decoding'
p563
g2
(g6
S'\xd5\xddQ6!*\xd5?'
p564
tp565
Rp566
tp567
a(S'lee giles'
p568
g2
(g6
S';\xfd^\x02\x0e(\xd5?'
p569
tp570
Rp571
tp572
a(S'neuroevolution'
p573
g2
(g6
S'\xe5\x8c\x08!\x9e\x1e\xd5?'
p574
tp575
Rp576
tp577
a(S'self-organizing map'
p578
g2
(g6
S'\xd6\x19\xfa\xa5t\x1e\xd5?'
p579
tp580
Rp581
tp582
a(S'hava siegelmann'
p583
g2
(g6
S'\xabB\xc4\x97\xb6\x10\xd5?'
p584
tp585
Rp586
tp587
a(S'network dynamics'
p588
g2
(g6
S'\x03\xa0\x8a\xcc(\xf7\xd4?'
p589
tp590
Rp591
tp592
a(S'deeplearning4j'
p593
g2
(g6
S'\x9c}\xa2\xd2\xdb\xea\xd4?'
p594
tp595
Rp596
tp597
a(S'split up (expert system)'
p598
g2
(g6
S'\x9c\xb6\x8e\xf5U\xe6\xd4?'
p599
tp600
Rp601
tp602
a(S'neural designer'
p603
g2
(g6
S'z\xaey\x94.\xd3\xd4?'
p604
tp605
Rp606
tp607
a(S'hybrid neural network'
p608
g2
(g6
S'1\x123XV\xcc\xd4?'
p609
tp610
Rp611
tp612
a(S'network science'
p613
g2
(g6
S'\x8e\x0c\x15\xb0\x95\xac\xd4?'
p614
tp615
Rp616
tp617
a(S'deep belief network'
p618
g2
(g6
S'\xa2\x00\x94vW\x8f\xd4?'
p619
tp620
Rp621
tp622
a(S'geoffrey hinton'
p623
g2
(g6
S'\x0cA-\x86Cu\xd4?'
p624
tp625
Rp626
tp627
a(S'biological network'
p628
g2
(g6
S'\x88\x89\xff\xb66g\xd4?'
p629
tp630
Rp631
tp632
a(S'project networks'
p633
g2
(g6
S'K\x8c\xa3\xb7@a\xd4?'
p634
tp635
Rp636
tp637
a(S'neural correlate'
p638
g2
(g6
S'\xa1\x03#o]]\xd4?'
p639
tp640
Rp641
tp642
a(S'tensor product network'
p643
g2
(g6
S'\xa0(`\x16\xd6W\xd4?'
p644
tp645
Rp646
tp647
a(S'speech recognition'
p648
g2
(g6
S'\x10\xe3\xde\xe6\x86U\xd4?'
p649
tp650
Rp651
tp652
a(S'delta rule'
p653
g2
(g6
S'S\x99\xa9W\\Q\xd4?'
p654
tp655
Rp656
tp657
a(S'holographic associative memory'
p658
g2
(g6
S'G\xee\xa9\xdd\xbf9\xd4?'
p659
tp660
Rp661
tp662
a(S'echo state network'
p663
g2
(g6
S']SI\xb3\xad7\xd4?'
p664
tp665
Rp666
tp667
a(S'feedforward'
p668
g2
(g6
S'\xdd\x80\x87<\x827\xd4?'
p669
tp670
Rp671
tp672
a(S'machine learning'
p673
g2
(g6
S'{f\xe0p+6\xd4?'
p674
tp675
Rp676
tp677
a(S'grossberg network'
p678
g2
(g6
S"\xed\x96\xf7'\x12(\xd4?"
p679
tp680
Rp681
tp682
a(S'universal approximation theorem'
p683
g2
(g6
S'4\xd7\xdd|\xff\x13\xd4?'
p684
tp685
Rp686
tp687
a(S'gail carpenter'
p688
g2
(g6
S'X\x87\xbf\xdc}\n\xd4?'
p689
tp690
Rp691
tp692
a(S'evolving networks'
p693
g2
(g6
S'8a\n\x1b\xda\xf3\xd3?'
p694
tp695
Rp696
tp697
a(S'esn'
p698
g2
(g6
S':5\xde\xe00\xe0\xd3?'
p699
tp700
Rp701
tp702
a(S'network theory'
p703
g2
(g6
S'\x1c\xe8\xdd[\x89\xbd\xd3?'
p704
tp705
Rp706
tp707
a(S'\xc5\xa0ar\xc5\xabnas raudys'
p708
g2
(g6
S'g\xec\x12o\xc7\xaf\xd3?'
p709
tp710
Rp711
tp712
a(S'neurocomputational speech processing'
p713
g2
(g6
S'\x11\xe4\xec\x0c\x00\xaa\xd3?'
p714
tp715
Rp716
tp717
a(S'massimiliano versace'
p718
g2
(g6
S'[\t\x8b\xe3\xe0\xa9\xd3?'
p719
tp720
Rp721
tp722
a(S'comparison of deep learning software/resources'
p723
g2
(g6
S'\xed\rn\xd6%\x9c\xd3?'
p724
tp725
Rp726
tp727
a(S'kumpati s. narendra'
p728
g2
(g6
S'\xd1\r\x88Ai\x8a\xd3?'
p729
tp730
Rp731
tp732
a(S'learning vector quantization'
p733
g2
(g6
S'\x9b\xa2i\x86\x9e}\xd3?'
p734
tp735
Rp736
tp737
a(S'dehaene\xe2\x80\x93changeux model'
p738
g2
(g6
S'\xb10\x83\x1c\x02z\xd3?'
p739
tp740
Rp741
tp742
a(S'pulse-coupled networks'
p743
g2
(g6
S'Cg\x98%1t\xd3?'
p744
tp745
Rp746
tp747
a(S'interactive activation and competition networks'
p748
g2
(g6
S'I6Q\xa6=o\xd3?'
p749
tp750
Rp751
tp752
a(S'computational neuroscience'
p753
g2
(g6
S'\x9b\xee\xe0\xdb\xaan\xd3?'
p754
tp755
Rp756
tp757
a(S'semantic neural network'
p758
g2
(g6
S'\x81\xcf\xd0Q\\m\xd3?'
p759
tp760
Rp761
tp762
a(S'j\xc3\xbcrgen schmidhuber'
p763
g2
(g6
S'\x03\xba\xba\xe8\x1a\\\xd3?'
p764
tp765
Rp766
tp767
a(S'alternative explanations of the "grandmother" cell'
p768
g2
(g6
S'Fc\xf9\xf0\xb8N\xd3?'
p769
tp770
Rp771
tp772
a(S'multidimensional network'
p773
g2
(g6
S'\xb2|@\x07\x1aH\xd3?'
p774
tp775
Rp776
tp777
a(S'decoded neurofeedback'
p778
g2
(g6
S'\x16\xd36tZB\xd3?'
p779
tp780
Rp781
tp782
a(S'1-2-ax working memory task'
p783
g2
(g6
S'\xd5\x9e6t\xc4<\xd3?'
p784
tp785
Rp786
tp787
a(S'teuvo kohonen'
p788
g2
(g6
S'\xbd\x9c\x13x\x1b7\xd3?'
p789
tp790
Rp791
tp792
a(S'dynamic network analysis'
p793
g2
(g6
S'h1\x15\xc6\x0b,\xd3?'
p794
tp795
Rp796
tp797
a(S'interdependent networks'
p798
g2
(g6
S'rc\xf1J\xd2*\xd3?'
p799
tp800
Rp801
tp802
a(S'yann lecun'
p803
g2
(g6
S'<\xe8>\x10\x92%\xd3?'
p804
tp805
Rp806
tp807
a(S'neural binding'
p808
g2
(g6
S'\xc85i\xfe.\x10\xd3?'
p809
tp810
Rp811
tp812
a(S'activation function'
p813
g2
(g6
S'4\xe0\x85G\xe4\x0e\xd3?'
p814
tp815
Rp816
tp817
a(S'karim ouazzane'
p818
g2
(g6
S'/-\xdf\xa9H\x0e\xd3?'
p819
tp820
Rp821
tp822
a(S'ai accelerator'
p823
g2
(g6
S'\x8d\xfe\xc7\xcby\t\xd3?'
p824
tp825
Rp826
tp827
a(S'cognitive architecture'
p828
g2
(g6
S'\xe7\x1e$*\xd8\xf0\xd2?'
p829
tp830
Rp831
tp832
a(S'deepdreaming'
p833
g2
(g6
S'`R0\x1b\xf2\xed\xd2?'
p834
tp835
Rp836
tp837
a(S'neurosecurity'
p838
g2
(g6
S'\xe01\x19\xc4\x01\xd8\xd2?'
p839
tp840
Rp841
tp842
a(S'language model'
p843
g2
(g6
S'<j\x91GI\xac\xd2?'
p844
tp845
Rp846
tp847
a(S'connectionist expert system'
p848
g2
(g6
S'%/\x8d\x92\xf0\xa8\xd2?'
p849
tp850
Rp851
tp852
a(S'neural adaptation'
p853
g2
(g6
S'\x99\xfe!i`\x9f\xd2?'
p854
tp855
Rp856
tp857
a(S'time-varying network'
p858
g2
(g6
S'\x076#\xdd\xbc\x99\xd2?'
p859
tp860
Rp861
tp862
a(S'unsupervised learning'
p863
g2
(g6
S'\x7f\xa0\x98\xd2\x98\x96\xd2?'
p864
tp865
Rp866
tp867
a(S'peltarion'
p868
g2
(g6
S'3\xc1\xd7\t\xd0\x82\xd2?'
p869
tp870
Rp871
tp872
a(S'complex network'
p873
g2
(g6
S'\x07\x08\xa5[\xad\x82\xd2?'
p874
tp875
Rp876
tp877
a(S'skymind'
p878
g2
(g6
S'\x80H\xd3MG[\xd2?'
p879
tp880
Rp881
tp882
a(S'gene regulatory network'
p883
g2
(g6
S'\xa0\x00\x0f`KT\xd2?'
p884
tp885
Rp886
tp887
a(S'sparse network'
p888
g2
(g6
S'\xa8\xf5\xaaT\xedF\xd2?'
p889
tp890
Rp891
tp892
a(S'erol gelenbe'
p893
g2
(g6
S'\x91\xf07c\x87D\xd2?'
p894
tp895
Rp896
tp897
a(S'dnn'
p898
g2
(g6
S'}`n\x04g>\xd2?'
p899
tp900
Rp901
tp902
a(S'supervised learning'
p903
g2
(g6
S'\xfa\xf7D\x06<7\xd2?'
p904
tp905
Rp906
tp907
a(S'learning rule'
p908
g2
(g6
S'\xdc\xb2\xb4\x9d\xf6$\xd2?'
p909
tp910
Rp911
tp912
a(S'neuro laboratory'
p913
g2
(g6
S'\x0c\xc3\xc2\xdd\x1e\x18\xd2?'
p914
tp915
Rp916
tp917
a(S'john hopfield'
p918
g2
(g6
S'\x82\xd9\xa6\xe0\xaa\x0e\xd2?'
p919
tp920
Rp921
tp922
a(S'adaptive resonance theory'
p923
g2
(g6
S"\xee'\x97\x99B\n\xd2?"
p924
tp925
Rp926
tp927
a(S'gene expression programming'
p928
g2
(g6
S'F\xefE\xdc\xca\xfb\xd1?'
p929
tp930
Rp931
tp932
a(S'igor aleksander'
p933
g2
(g6
S'Z!\xdf)\xe7\xf9\xd1?'
p934
tp935
Rp936
tp937
a(S'in situ adaptive tabulation'
p938
g2
(g6
S'\xbd<\xf6h\xad\xf6\xd1?'
p939
tp940
Rp941
tp942
a(S'logic learning machine'
p943
g2
(g6
S'\x8e.}Q3\xc7\xd1?'
p944
tp945
Rp946
tp947
a(S'neural dust'
p948
g2
(g6
S'\xed\\)\xdb\x97\xc6\xd1?'
p949
tp950
Rp951
tp952
a(S'restricted boltzmann machine'
p953
g2
(g6
S'8X\x81Gc\xc1\xd1?'
p954
tp955
Rp956
tp957
a(S'list of network theory topics'
p958
g2
(g6
S'\xec//\xe7\x9e\xbf\xd1?'
p959
tp960
Rp961
tp962
a(S'pattern recognition'
p963
g2
(g6
S'\x90\x00\xd1\x98L\xbb\xd1?'
p964
tp965
Rp966
tp967
a(S'wake-sleep algorithm'
p968
g2
(g6
S'h\xdcv\xd1\x8d\xb9\xd1?'
p969
tp970
Rp971
tp972
a(S'genesis (software)'
p973
g2
(g6
S'\xea\x08:\xce\x94\xb4\xd1?'
p974
tp975
Rp976
tp977
a(S'generative adversarial networks'
p978
g2
(g6
S'\x9bZMA\xe6\xab\xd1?'
p979
tp980
Rp981
tp982
a(S'connectomics'
p983
g2
(g6
S'l\x0e\xc3T\xcd\xa5\xd1?'
p984
tp985
Rp986
tp987
a(S'memory-prediction framework'
p988
g2
(g6
S'\x1e\x014\xea\xca\x9e\xd1?'
p989
tp990
Rp991
tp992
a(S'network: computation in neural systems'
p993
g2
(g6
S'P\xd2\xbe\x8bC\x9c\xd1?'
p994
tp995
Rp996
tp997
a(S'parity benchmark'
p998
g2
(g6
S'\xe5\x84\xa8;8\x99\xd1?'
p999
tp1000
Rp1001
tp1002
a(S'growing self-organizing map'
p1003
g2
(g6
S'H#d:\xb5\x90\xd1?'
p1004
tp1005
Rp1006
tp1007
a(S'computer network'
p1008
g2
(g6
S'\x9f8\xee\xa6\xc8\x8c\xd1?'
p1009
tp1010
Rp1011
tp1012
a(S'convolutional deep belief networks'
p1013
g2
(g6
S'\xfaE\xa5\xed\xf9\x88\xd1?'
p1014
tp1015
Rp1016
tp1017
a(S'deepdream'
p1018
g2
(g6
S'>\xf5o\xdf\x96{\xd1?'
p1019
tp1020
Rp1021
tp1022
a(S'associative memory'
p1023
g2
(g6
S'\x0e\xe5t\xdd\xf5z\xd1?'
p1024
tp1025
Rp1026
tp1027
a(S'telecommunications network'
p1028
g2
(g6
S'\xddc\xa3a\xfet\xd1?'
p1029
tp1030
Rp1031
tp1032
a(S'rostral neuropore'
p1033
g2
(g6
S'C6\x13_\x9fn\xd1?'
p1034
tp1035
Rp1036
tp1037
a(S'reservoir computing'
p1038
g2
(g6
S'\x91$\xe2u\xe1[\xd1?'
p1039
tp1040
Rp1041
tp1042
a(S'professional services networks'
p1043
g2
(g6
S"'\xfa \xdc\xb1W\xd1?"
p1044
tp1045
Rp1046
tp1047
a(S'counterpropagation network'
p1048
g2
(g6
S'<\x06\xaf\xc6VM\xd1?'
p1049
tp1050
Rp1051
tp1052
a(S'local world evolving network models'
p1053
g2
(g6
S':z\x7flu*\xd1?'
p1054
tp1055
Rp1056
tp1057
a(S'conference on neural information processing systems'
p1058
g2
(g6
S'\xd2\xbee\xb1\xe0\x19\xd1?'
p1059
tp1060
Rp1061
tp1062
a(S'computation and neural systems'
p1063
g2
(g6
S'B+\xf6\xa3V\n\xd1?'
p1064
tp1065
Rp1066
tp1067
a(S'nettalk (artificial neural network)'
p1068
g2
(g6
S'\x94\x9d\xd7\x0e\x06\x08\xd1?'
p1069
tp1070
Rp1071
tp1072
a(S'neuromorphic engineering'
p1073
g2
(g6
S's\x8bV\xf1\x18\x07\xd1?'
p1074
tp1075
Rp1076
tp1077
a(S'network formation'
p1078
g2
(g6
S'\xe4\xbb\xc6\xe3Z\x05\xd1?'
p1079
tp1080
Rp1081
tp1082
a(S'development of the nervous system in humans'
p1083
g2
(g6
S'\xbaG\xa0?\xa3\xfd\xd0?'
p1084
tp1085
Rp1086
tp1087
a(S'robert kozma'
p1088
g2
(g6
S'\x90]9!\xa7\xfc\xd0?'
p1089
tp1090
Rp1091
tp1092
a(S'leonid perlovsky'
p1093
g2
(g6
S'\xd94\xe3\x88\xe6\xe9\xd0?'
p1094
tp1095
Rp1096
tp1097
a(S'distributed transient network'
p1098
g2
(g6
S'N<.A\x07\xe5\xd0?'
p1099
tp1100
Rp1101
tp1102
a(S'artificial intelligence'
p1103
g2
(g6
S'1i\xaa\x17\xe9\xe4\xd0?'
p1104
tp1105
Rp1106
tp1107
a(S'fusion adaptive resonance theory'
p1108
g2
(g6
S'%S\xfe\x94(\xdb\xd0?'
p1109
tp1110
Rp1111
tp1112
a(S'neurally controlled animat'
p1113
g2
(g6
S'v\xf6nOt\xd3\xd0?'
p1114
tp1115
Rp1116
tp1117
a(S'multistage interconnection networks'
p1118
g2
(g6
S'\x83$\x8f\xab)\xcc\xd0?'
p1119
tp1120
Rp1121
tp1122
a(S'vesicle (embryology)'
p1123
g2
(g6
S'\x00\xb2m\x87s\xca\xd0?'
p1124
tp1125
Rp1126
tp1127
a(S'tensorflow'
p1128
g2
(g6
S'\xacj0\xd6\x13\xc1\xd0?'
p1129
tp1130
Rp1131
tp1132
a(S'rprop'
p1133
g2
(g6
S'\xa8\xd0\x04\x19;\xad\xd0?'
p1134
tp1135
Rp1136
tp1137
a(S'spinnaker'
p1138
g2
(g6
S'6O\xfd\x03\x1a\x9d\xd0?'
p1139
tp1140
Rp1141
tp1142
a(S'center for sensorimotor neural engineering'
p1143
g2
(g6
S'{\xc4\x94\x08;\x98\xd0?'
p1144
tp1145
Rp1146
tp1147
a(S'autapse'
p1148
g2
(g6
S'\xab\x9a\x13\xe1\xb4\x93\xd0?'
p1149
tp1150
Rp1151
tp1152
a(S'quickprop'
p1153
g2
(g6
S'&{}\xaa\xe7\x8c\xd0?'
p1154
tp1155
Rp1156
tp1157
a(S'neurogammon'
p1158
g2
(g6
S'\xd7\x00-v\x00\x8a\xd0?'
p1159
tp1160
Rp1161
tp1162
a(S'esther thelen'
p1163
g2
(g6
S'\xf1\xb8\xb8\x15Eu\xd0?'
p1164
tp1165
Rp1166
tp1167
a(S'developmental plasticity'
p1168
g2
(g6
S'\x0ci8\x89eq\xd0?'
p1169
tp1170
Rp1171
tp1172
a(S'group method of data handling'
p1173
g2
(g6
S'\x86\x8f\x0fG\x9bl\xd0?'
p1174
tp1175
Rp1176
tp1177
a(S'neural therapy'
p1178
g2
(g6
S'\x1dA!\x18-a\xd0?'
p1179
tp1180
Rp1181
tp1182
a(S'neural audio corporation'
p1183
g2
(g6
S"R\xa7h\x9d'Y\xd0?"
p1184
tp1185
Rp1186
tp1187
a(S'network science cta'
p1188
g2
(g6
S'\xbfU\xbe\xa3\xeaX\xd0?'
p1189
tp1190
Rp1191
tp1192
a(S'graphcrunch'
p1193
g2
(g6
S'*\xc8\xed\x14(W\xd0?'
p1194
tp1195
Rp1196
tp1197
a(S'optimization mechanism'
p1198
g2
(g6
S'\xda\xe4~\x81\xb5T\xd0?'
p1199
tp1200
Rp1201
tp1202
a(S'synaptic weight'
p1203
g2
(g6
S'\x93ZvI\xfeM\xd0?'
p1204
tp1205
Rp1206
tp1207
a(S'assortativity'
p1208
g2
(g6
S'D\x0e\x916/L\xd0?'
p1209
tp1210
Rp1211
tp1212
a(S'gradient network'
p1213
g2
(g6
S'\xb2\xca\x9d\xa4\xb3D\xd0?'
p1214
tp1215
Rp1216
tp1217
a(S'phase resetting in neurons'
p1218
g2
(g6
S'\xa9\xc4Z\x13\xe99\xd0?'
p1219
tp1220
Rp1221
tp1222
a(S'cultured neuronal network'
p1223
g2
(g6
S'<C\xc7\xd607\xd0?'
p1224
tp1225
Rp1226
tp1227
a(S'network homophily'
p1228
g2
(g6
S'\xbc\xe9"\x19\x951\xd0?'
p1229
tp1230
Rp1231
tp1232
a(S'biological network inference'
p1233
g2
(g6
S'\x919\xe6\xa6M%\xd0?'
p1234
tp1235
Rp1236
tp1237
a(S'weighted network'
p1238
g2
(g6
S'\xb4Pk\x1b}\x19\xd0?'
p1239
tp1240
Rp1241
tp1242
a(S'plxnb1'
p1243
g2
(g6
S'Y\xffZxM\x15\xd0?'
p1244
tp1245
Rp1246
tp1247
a(S'terry sejnowski'
p1248
g2
(g6
S'b\x86\x8bR\x8b\x13\xd0?'
p1249
tp1250
Rp1251
tp1252
a(S'hub (network science concept)'
p1253
g2
(g6
S'\x1a\x90=\xc8;\x13\xd0?'
p1254
tp1255
Rp1256
tp1257
a(S'list of genetic algorithm applications'
p1258
g2
(g6
S'k\xab\xfb;\xd8\x07\xd0?'
p1259
tp1260
Rp1261
tp1262
a(S'lognkosauria'
p1263
g2
(g6
S'g\xed\xec\x12\xda\x05\xd0?'
p1264
tp1265
Rp1266
tp1267
a(S'networks in marketing'
p1268
g2
(g6
S'\x00\x8bd\xdd[\xf9\xcf?'
p1269
tp1270
Rp1271
tp1272
a(S'network management software'
p1273
g2
(g6
S'\xa0\xe5\x99\xb9\xe5\xd1\xcf?'
p1274
tp1275
Rp1276
tp1277
a(S'neural oscillation'
p1278
g2
(g6
S'\x138\xb4I?\xa8\xcf?'
p1279
tp1280
Rp1281
tp1282
a(S'b3gat2'
p1283
g2
(g6
S'\x922K>\xb4\xa3\xcf?'
p1284
tp1285
Rp1286
tp1287
a(S'recurrent word'
p1288
g2
(g6
S'"=\xda\xe3\xd3\x87\xcf?'
p1289
tp1290
Rp1291
tp1292
a(S'mark h. johnson'
p1293
g2
(g6
S'\x8d\xed\x1c\xb1\x84{\xcf?'
p1294
tp1295
Rp1296
tp1297
a(S'network description language'
p1298
g2
(g6
S'\xaf\xce]\xba\xffy\xcf?'
p1299
tp1300
Rp1301
tp1302
a(S'regulated activation networks'
p1303
g2
(g6
S'\xac\x08\xa4h\xb0u\xcf?'
p1304
tp1305
Rp1306
tp1307
a(S'exponential random graph models'
p1308
g2
(g6
S'\xd63f\xe1+i\xcf?'
p1309
tp1310
Rp1311
tp1312
a(S'social network (sociolinguistics)'
p1313
g2
(g6
S'\xa3k!\xfe\x9ce\xcf?'
p1314
tp1315
Rp1316
tp1317
a(S'neural tube defect'
p1318
g2
(g6
S'\t\xec\xfe#~Y\xcf?'
p1319
tp1320
Rp1321
tp1322
a(S'social network'
p1323
g2
(g6
S'\xd5\xc6\xea\x81\xa2X\xcf?'
p1324
tp1325
Rp1326
tp1327
a(S'psipred'
p1328
g2
(g6
S'cJ\xe9m\x8cC\xcf?'
p1329
tp1330
Rp1331
tp1332
a(S'softmax function'
p1333
g2
(g6
S'i\x84~1\xbdB\xcf?'
p1334
tp1335
Rp1336
tp1337
a(S'spatial network'
p1338
g2
(g6
S'[G\xec\xe7\xba<\xcf?'
p1339
tp1340
Rp1341
tp1342
a(S'xulvi-brunet - sokolov algorithm'
p1343
g2
(g6
S'\x8az\xa6:\xff6\xcf?'
p1344
tp1345
Rp1346
tp1347
a(S'journal of interconnection networks'
p1348
g2
(g6
S'\xdb\xb1q_&\x08\xcf?'
p1349
tp1350
Rp1351
tp1352
a(S'autoassociative memory'
p1353
g2
(g6
S'\x1c\x19=\x16\xc2\x05\xcf?'
p1354
tp1355
Rp1356
tp1357
a(S'systems neuroscience'
p1358
g2
(g6
S'\x98N\x9f\xe2\xd1\x00\xcf?'
p1359
tp1360
Rp1361
tp1362
a(S'ed posner'
p1363
g2
(g6
S'\x8bi\x0b\x890\xf6\xce?'
p1364
tp1365
Rp1366
tp1367
a(S'frank h. guenther'
p1368
g2
(g6
S'\x9b\xe5\xf0\xe5\x15\xf4\xce?'
p1369
tp1370
Rp1371
tp1372
a(S'metastability in the brain'
p1373
g2
(g6
S'\xe8M\xaeo\xa7\xf0\xce?'
p1374
tp1375
Rp1376
tp1377
a(S'recurrent point'
p1378
g2
(g6
S'\xce\xe3-\xc5/\xe3\xce?'
p1379
tp1380
Rp1381
tp1382
a(S'core network'
p1383
g2
(g6
S'*;Z\xe4\xf1\xd7\xce?'
p1384
tp1385
Rp1386
tp1387
a(S'sequence learning'
p1388
g2
(g6
S'L\x90\xb9N\x83\xcd\xce?'
p1389
tp1390
Rp1391
tp1392
a(S'network search engine'
p1393
g2
(g6
S'wG\xf0\x94\x9c\xc0\xce?'
p1394
tp1395
Rp1396
tp1397
a(S'repetition priming'
p1398
g2
(g6
S'#t\xdf\x06\xbc\xbe\xce?'
p1399
tp1400
Rp1401
tp1402
a(S'list of protein secondary structure prediction programs'
p1403
g2
(g6
S'\xffmP\xce\xc8\xba\xce?'
p1404
tp1405
Rp1406
tp1407
a(S'randal a. koene'
p1408
g2
(g6
S'W:\xeb\xf1\xc8\xb5\xce?'
p1409
tp1410
Rp1411
tp1412
a(S'network architecture'
p1413
g2
(g6
S'\xebd\xa8\xe8\x00\xab\xce?'
p1414
tp1415
Rp1416
tp1417
a(S'nonlinear autoregressive exogenous model'
p1418
g2
(g6
S'\xd3\x80\x96\xebb\xa1\xce?'
p1419
tp1420
Rp1421
tp1422
a(S'neuronal noise'
p1423
g2
(g6
S'\xd65\xab\x89\x94\x92\xce?'
p1424
tp1425
Rp1426
tp1427
a(S'malleability of intelligence'
p1428
g2
(g6
S'\x13:\xd6z\xb7\x90\xce?'
p1429
tp1430
Rp1431
tp1432
a(S'mixing patterns'
p1433
g2
(g6
S'v\xce\xf9\x0bw\x87\xce?'
p1434
tp1435
Rp1436
tp1437
a(S'zero instruction set computer'
p1438
g2
(g6
S'a@^\xe3^s\xce?'
p1439
tp1440
Rp1441
tp1442
a(S'efficiency (network science)'
p1443
g2
(g6
S'\xc6\x99\x98\xac@m\xce?'
p1444
tp1445
Rp1446
tp1447
a(S'steve omohundro'
p1448
g2
(g6
S'\xdfy\xd5\xa4\x88_\xce?'
p1449
tp1450
Rp1451
tp1452
a(S'personal network'
p1453
g2
(g6
S'9\x87\x1b\xabSZ\xce?'
p1454
tp1455
Rp1456
tp1457
a(S'codi'
p1458
g2
(g6
S"\x85\x17'\xd7\x9eY\xce?"
p1459
tp1460
Rp1461
tp1462
a(S'global network'
p1463
g2
(g6
S'9\x97\x95\x854U\xce?'
p1464
tp1465
Rp1466
tp1467
a(S'network resource planning'
p1468
g2
(g6
S'\x8a\x9at\x12](\xce?'
p1469
tp1470
Rp1471
tp1472
a(S'cardiac neural crest complex'
p1473
g2
(g6
S"-\xd4*}T'\xce?"
p1474
tp1475
Rp1476
tp1477
a(S'gain-field encoding'
p1478
g2
(g6
S'lV\xecQ\xcd!\xce?'
p1479
tp1480
Rp1481
tp1482
a(S'wireless ad hoc network'
p1483
g2
(g6
S';\x165d\x17\x15\xce?'
p1484
tp1485
Rp1486
tp1487
a(S'network society'
p1488
g2
(g6
S'N\xd3y@\xc4\x08\xce?'
p1489
tp1490
Rp1491
tp1492
a(S'neural stem cell'
p1493
g2
(g6
S'Mx\xec\xc3?\xff\xcd?'
p1494
tp1495
Rp1496
tp1497
a(S'sparse distributed memory'
p1498
g2
(g6
S'\x04\x15\xdb\x0e\xe8\xf8\xcd?'
p1499
tp1500
Rp1501
tp1502
a(S'city network'
p1503
g2
(g6
S'\xd2\xd6\x18}\xf5\xcc\xcd?'
p1504
tp1505
Rp1506
tp1507
a(S'dbn'
p1508
g2
(g6
S'<6\xad\x7f\xe6\xc7\xcd?'
p1509
tp1510
Rp1511
tp1512
a.