(lp0
(S'robust optimization'
p1
cnumpy.core.multiarray
scalar
p2
(cnumpy
dtype
p3
(S'f8'
p4
I0
I1
tp5
Rp6
(I3
S'<'
p7
NNNI-1
I-1
I0
tp8
bS'\x00\x00\x00\x00\x00\x00\xf0?'
p9
tp10
Rp11
tp12
a(S'robust fuzzy programming'
p13
g2
(g6
S'\xd1\x90~\xbfm\x9e\xe1?'
p14
tp15
Rp16
tp17
a(S'ioso'
p18
g2
(g6
S'\xf9\x9bq\x9ce.\xe1?'
p19
tp20
Rp21
tp22
a(S'robustness'
p23
g2
(g6
S'ml\xb3F/\n\xe1?'
p24
tp25
Rp26
tp27
a(S'online optimization'
p28
g2
(g6
S'vc\xb8\x8c3t\xdf?'
p29
tp30
Rp31
tp32
a(S'mathematical optimization'
p33
g2
(g6
S'\xb0[\xcd8)\xa1\xde?'
p34
tp35
Rp36
tp37
a(S'global optimization'
p38
g2
(g6
S')\x1624\x05\xdb\xdd?'
p39
tp40
Rp41
tp42
a(S'bilevel optimization'
p43
g2
(g6
S'\xcb\xd7\x95\x80\x19.\xdd?'
p44
tp45
Rp46
tp47
a(S'scenario optimization'
p48
g2
(g6
S'Id\xcb\x01\xb3\xdf\xdc?'
p49
tp50
Rp51
tp52
a(S'engineering optimization'
p53
g2
(g6
S'o~p\\)\x81\xdb?'
p54
tp55
Rp56
tp57
a(S'topology optimization'
p58
g2
(g6
S')FWLWH\xdb?'
p59
tp60
Rp61
tp62
a(S'list of optimization software'
p63
g2
(g6
S'\xdc\x94\xc3\xdd\xed&\xdb?'
p64
tp65
Rp66
tp67
a(S'info-gap decision theory'
p68
g2
(g6
S'2w\xe5\x86\xb4&\xdb?'
p69
tp70
Rp71
tp72
a(S'graduated optimization'
p73
g2
(g6
S'\x9a\xa5\x85y\x1a\xe6\xda?'
p74
tp75
Rp76
tp77
a(S'optislang'
p78
g2
(g6
S'\x15\xa3\xb5\x06\xb8\x8c\xda?'
p79
tp80
Rp81
tp82
a(S'combinatorial optimization'
p83
g2
(g6
S':\xdf\x864\xed\xd1\xd9?'
p84
tp85
Rp86
tp87
a(S'smartdo'
p88
g2
(g6
S'L\xe7\x14`\x04P\xd9?'
p89
tp90
Rp91
tp92
a(S'trajectory optimization'
p93
g2
(g6
S'i\xb2\xa8`i\xe9\xd8?'
p94
tp95
Rp96
tp97
a(S'robustness (computer science)'
p98
g2
(g6
S'\xd1\xf2\xc3\x02{\xcb\xd8?'
p99
tp100
Rp101
tp102
a(S'hydrological optimization'
p103
g2
(g6
S"f\xa3'\x97DR\xd8?"
p104
tp105
Rp106
tp107
a(S'international society for structural and multidisciplinary optimization'
p108
g2
(g6
S'\xebE\xab\x94L-\xd8?'
p109
tp110
Rp111
tp112
a(S'vector optimization'
p113
g2
(g6
S'\xa4@P)\xd6\x15\xd8?'
p114
tp115
Rp116
tp117
a(S'optimization toolbox'
p118
g2
(g6
S'\xa1OD\xb5\xea\xea\xd7?'
p119
tp120
Rp121
tp122
a(S'europt, continuous optimization working group of euro'
p123
g2
(g6
S'j\xf1\t\xe7]\xe1\xd7?'
p124
tp125
Rp126
tp127
a(S'robust control'
p128
g2
(g6
S'7\xd2m\x9b\x03\xd3\xd7?'
p129
tp130
Rp131
tp132
a(S'grapheur'
p133
g2
(g6
S'\xf3\x14\x06|9\x87\xd7?'
p134
tp135
Rp136
tp137
a(S'continuous optimization'
p138
g2
(g6
S'\xa1L\xe2\xf3\xd1:\xd7?'
p139
tp140
Rp141
tp142
a(S'optiy'
p143
g2
(g6
S'[\x87k\x9d\xb8.\xd7?'
p144
tp145
Rp146
tp147
a(S'simulation-based optimization'
p148
g2
(g6
S'u\xa8b\x17\x0e"\xd7?'
p149
tp150
Rp151
tp152
a(S'enterprise optimization'
p153
g2
(g6
S'\xd0\xa5\xe9J\xfb\x1e\xd7?'
p154
tp155
Rp156
tp157
a(S'pseven'
p158
g2
(g6
S'\x8d\xfa\x97\xf7J\xed\xd6?'
p159
tp160
Rp161
tp162
a(S'multidisciplinary design optimization'
p163
g2
(g6
S'\x13q\xe1\x90i\xcb\xd6?'
p164
tp165
Rp166
tp167
a(S"wald's maximin model"
p168
g2
(g6
S'\xef\xa2N\xf4i\xc9\xd6?'
p169
tp170
Rp171
tp172
a(S'lionsolver'
p173
g2
(g6
S'-"?\xa1\xb9\xad\xd6?'
p174
tp175
Rp176
tp177
a(S'hyperparameter optimization'
p178
g2
(g6
S'\xc3\xc8\xe1\x85\xb9\xa2\xd6?'
p179
tp180
Rp181
tp182
a(S'dimitri bertsekas'
p183
g2
(g6
S'\x96\t3\x83\x82t\xd6?'
p184
tp185
Rp186
tp187
a(S'arkadi nemirovski'
p188
g2
(g6
S'\xb6n\x81HS_\xd6?'
p189
tp190
Rp191
tp192
a(S'optimization problem'
p193
g2
(g6
S'\xadL|\xbe,H\xd6?'
p194
tp195
Rp196
tp197
a(S'robustness (evolution)'
p198
g2
(g6
S'\xb1`\xdcx\x0bA\xd6?'
p199
tp200
Rp201
tp202
a(S'derivative-free optimization'
p203
g2
(g6
S'\x90\x16\x85\xfcn=\xd6?'
p204
tp205
Rp206
tp207
a(S'mathematical optimization society'
p208
g2
(g6
S'w\x95.\xe3\x91\x1b\xd6?'
p209
tp210
Rp211
tp212
a(S'shape optimization'
p213
g2
(g6
S'\xea\xdd\x1f\xff%\x19\xd6?'
p214
tp215
Rp216
tp217
a(S'nonlinear programming'
p218
g2
(g6
S"\xcd\xcf\x80'\x94\x0f\xd6?"
p219
tp220
Rp221
tp222
a(S'steve sashihara'
p223
g2
(g6
S'Z\xd6\x17b\xb7\xfd\xd5?'
p224
tp225
Rp226
tp227
a(S'comparison of optimization software'
p228
g2
(g6
S'z\xb4\x17I\x89\xd5\xd5?'
p229
tp230
Rp231
tp232
a(S'constraint (mathematics)'
p233
g2
(g6
S'\x83\x80\x84l\xe2\xd3\xd5?'
p234
tp235
Rp236
tp237
a(S'couenne'
p238
g2
(g6
S'"fr\xca\xbd\xd3\xd5?'
p239
tp240
Rp241
tp242
a(S'program optimization'
p243
g2
(g6
S'\xc1\n=\xfd]\xd2\xd5?'
p244
tp245
Rp246
tp247
a(S'robustness testing'
p248
g2
(g6
S'\x98\xf00\xb1\xcc\xa5\xd5?'
p249
tp250
Rp251
tp252
a(S'deterministic global optimization'
p253
g2
(g6
S'79\x13\x0eF\x90\xd5?'
p254
tp255
Rp256
tp257
a(S'kimeme'
p258
g2
(g6
S'\x07\x8bJ\x82\xf2\x8d\xd5?'
p259
tp260
Rp261
tp262
a(S'dimitris bertsimas'
p263
g2
(g6
S'\xc9\xfd\xfc\xd5\xfd\x80\xd5?'
p264
tp265
Rp266
tp267
a(S'extremal optimization'
p268
g2
(g6
S'b\xf3\xcc>\xf2r\xd5?'
p269
tp270
Rp271
tp272
a(S'price optimization'
p273
g2
(g6
S'\x04\x05\xa2\xffCL\xd5?'
p274
tp275
Rp276
tp277
a(S'evolutionary multimodal optimization'
p278
g2
(g6
S'^\x95\x12u\x12H\xd5?'
p279
tp280
Rp281
tp282
a(S'collective tuning initiative'
p283
g2
(g6
S'F\x9dO\x10V@\xd5?'
p284
tp285
Rp286
tp287
a(S'tomview'
p288
g2
(g6
S'\x11\xd6L_\xbd\x01\xd5?'
p289
tp290
Rp291
tp292
a(S'constraint satisfaction'
p293
g2
(g6
S':8\xf2s\x82\xe7\xd4?'
p294
tp295
Rp296
tp297
a(S'stochastic optimization'
p298
g2
(g6
S'\xa3B\x11\x1a^\xcc\xd4?'
p299
tp300
Rp301
tp302
a(S'constraint'
p303
g2
(g6
S'\x0e#\x9c\x03\xf6\xc0\xd4?'
p304
tp305
Rp306
tp307
a(S'second-order cone programming'
p308
g2
(g6
S'6\xbf)x[\xaf\xd4?'
p309
tp310
Rp311
tp312
a(S'immanuel bomze'
p313
g2
(g6
S'\xc46\xe1\xeaa\xab\xd4?'
p314
tp315
Rp316
tp317
a(S'rastrigin function'
p318
g2
(g6
S'j\xad?j\x89\x93\xd4?'
p319
tp320
Rp321
tp322
a(S'constrained optimization'
p323
g2
(g6
S'\xa9bK#\xdeS\xd4?'
p324
tp325
Rp326
tp327
a(S'journal of industrial and management optimization'
p328
g2
(g6
S'\x85AV\xd0\xabJ\xd4?'
p329
tp330
Rp331
tp332
a(S'multi-objective optimization'
p333
g2
(g6
S'H\xb4YE\xf1I\xd4?'
p334
tp335
Rp336
tp337
a(S'infinite-dimensional optimization'
p338
g2
(g6
S'h\xb6\xb5\xcc4E\xd4?'
p339
tp340
Rp341
tp342
a(S'aimms'
p343
g2
(g6
S'\x16k\xe4?\xe3C\xd4?'
p344
tp345
Rp346
tp347
a(S'stability radius'
p348
g2
(g6
S'\xf9\x8f\xdb\xf1\xd4@\xd4?'
p349
tp350
Rp351
tp352
a(S'red cedar technology'
p353
g2
(g6
S'\xc8\xa9\xbfkZ@\xd4?'
p354
tp355
Rp356
tp357
a(S'cobyla'
p358
g2
(g6
S'4\xb9]\xfc0:\xd4?'
p359
tp360
Rp361
tp362
a(S'social optimization'
p363
g2
(g6
S'\x0f\x1br\xaf\x17:\xd4?'
p364
tp365
Rp366
tp367
a(S'tomlab'
p368
g2
(g6
S'\xeb\x81\xb9C\x95-\xd4?'
p369
tp370
Rp371
tp372
a(S'metaheuristic'
p373
g2
(g6
S'\x9a\xba%*\xee,\xd4?'
p374
tp375
Rp376
tp377
a(S'kaisa miettinen'
p378
g2
(g6
S'\x03\xa5sKZ)\xd4?'
p379
tp380
Rp381
tp382
a(S'comet (programming language)'
p383
g2
(g6
S'\xc2\xd9\xc9\x85\x04\x0c\xd4?'
p384
tp385
Rp386
tp387
a(S'meta-optimization'
p388
g2
(g6
S'\xc0\x85\x0caw\x07\xd4?'
p389
tp390
Rp391
tp392
a(S'constraint programming'
p393
g2
(g6
S'\x1fT\xfd\x83\xef\xfb\xd3?'
p394
tp395
Rp396
tp397
a(S'optimization (disambiguation)'
p398
g2
(g6
S'\xd6\xe04\x99\x1c\xcb\xd3?'
p399
tp400
Rp401
tp402
a(S'stochastic programming'
p403
g2
(g6
S'oM\x8b9\x8d\xa5\xd3?'
p404
tp405
Rp406
tp407
a(S'semi-infinite programming'
p408
g2
(g6
S'\xb4\xbf\xbf\xcc\xe1\xa0\xd3?'
p409
tp410
Rp411
tp412
a(S'artelys knitro'
p413
g2
(g6
S'\xf3\xb0{\xe0e\x84\xd3?'
p414
tp415
Rp416
tp417
a(S'jon lee (mathematician)'
p418
g2
(g6
S'\xa9\x1d\xf5\xf1\x96\x80\xd3?'
p419
tp420
Rp421
tp422
a(S'robust decision-making'
p423
g2
(g6
S',t9\xb1+v\xd3?'
p424
tp425
Rp426
tp427
a(S'discrete optimization'
p428
g2
(g6
S'\x9d\x08\xb6X\xe4k\xd3?'
p429
tp430
Rp431
tp432
a(S'quadratic programming'
p433
g2
(g6
S'\xb2\x0726Qa\xd3?'
p434
tp435
Rp436
tp437
a(S'parametric programming'
p438
g2
(g6
S'hK\x05\xb9\xe6G\xd3?'
p439
tp440
Rp441
tp442
a(S'self-optimization'
p443
g2
(g6
S'tKZ\x13?C\xd3?'
p444
tp445
Rp446
tp447
a(S'darinka dentcheva'
p448
g2
(g6
S'\xab;\xcd\xb7T8\xd3?'
p449
tp450
Rp451
tp452
a(S'conic optimization'
p453
g2
(g6
S'\x0e\x99b\xd3Q/\xd3?'
p454
tp455
Rp456
tp457
a(S'alexander schrijver'
p458
g2
(g6
S'\xc6\xabo\xf9\x0b%\xd3?'
p459
tp460
Rp461
tp462
a(S'sampl'
p463
g2
(g6
S'\x0ey\x06\xd6\xd0\xc6\xd2?'
p464
tp465
Rp466
tp467
a(S'constraint satisfaction problem'
p468
g2
(g6
S'\x01]\x84\xf5c\xb1\xd2?'
p469
tp470
Rp471
tp472
a(S'constraint logic programming'
p473
g2
(g6
S'rX\xa0\x8d\x11\xb1\xd2?'
p474
tp475
Rp476
tp477
a(S'karush\xe2\x80\x93kuhn\xe2\x80\x93tucker conditions'
p478
g2
(g6
S'\xa6\x17S\xba\xc8\x96\xd2?'
p479
tp480
Rp481
tp482
a(S'energy minimization'
p483
g2
(g6
S'\xb9\x95\x03\x90\xd4\x92\xd2?'
p484
tp485
Rp486
tp487
a(S'highly optimized tolerance'
p488
g2
(g6
S'4\xfa\x9b\xc5\xc1\x92\xd2?'
p489
tp490
Rp491
tp492
a(S'robust regression'
p493
g2
(g6
S'q\xba\xb3\x0c\xa2y\xd2?'
p494
tp495
Rp496
tp497
a(S'product optimization'
p498
g2
(g6
S'\xe4E\xe8\x1b\xfcq\xd2?'
p499
tp500
Rp501
tp502
a(S'optimization (role-playing games)'
p503
g2
(g6
S'\x11\xf6n]\x82e\xd2?'
p504
tp505
Rp506
tp507
a(S'dynamic creative optimization'
p508
g2
(g6
S'r\x88\x02\xff\xba[\xd2?'
p509
tp510
Rp511
tp512
a(S'complexity of constraint satisfaction'
p513
g2
(g6
S'`\xcc\x90\xd20Z\xd2?'
p514
tp515
Rp516
tp517
a(S'robust details limited'
p518
g2
(g6
S'\xad\xbb5\x92YL\xd2?'
p519
tp520
Rp521
tp522
a(S'demand optimization'
p523
g2
(g6
S'q\x14\xb6\x8c1H\xd2?'
p524
tp525
Rp526
tp527
a(S'cooperative distributed problem solving'
p528
g2
(g6
S'F\x93Q7\xdb"\xd2?'
p529
tp530
Rp531
tp532
a(S'capacity optimization'
p533
g2
(g6
S'\xff,\xff_\xef!\xd2?'
p534
tp535
Rp536
tp537
a(S'quantum optimization algorithms'
p538
g2
(g6
S'\x82x\x10\xba\xac!\xd2?'
p539
tp540
Rp541
tp542
a(S'rbo'
p543
g2
(g6
S'\x8e\x85\x14\t*\x16\xd2?'
p544
tp545
Rp546
tp547
a(S'humant (humanoid ant) algorithm'
p548
g2
(g6
S'4\x15\x8d\x0c\xab\x01\xd2?'
p549
tp550
Rp551
tp552
a(S'andrzej piotr ruszczy\xc5\x84ski'
p553
g2
(g6
S"\x84\xd0\x87\xcb'\x01\xd2?"
p554
tp555
Rp556
tp557
a(S'pyomo'
p558
g2
(g6
S'\x85\\|h\x0f\xe7\xd1?'
p559
tp560
Rp561
tp562
a(S'quadratically constrained quadratic program'
p563
g2
(g6
S'\xcbw\xa0\xc5\xda\xdb\xd1?'
p564
tp565
Rp566
tp567
a(S'evolutionary algorithm'
p568
g2
(g6
S'Ec+N0\xc4\xd1?'
p569
tp570
Rp571
tp572
a(S'constraint inference'
p573
g2
(g6
S':\xd8\x1f\xcbY\xba\xd1?'
p574
tp575
Rp576
tp577
a(S'venkat chandrasekaran'
p578
g2
(g6
S'PB\x10\x12\xa4\xa8\xd1?'
p579
tp580
Rp581
tp582
a(S'differential evolution'
p583
g2
(g6
S'R\xf4\x99\x12\xa3\x95\xd1?'
p584
tp585
Rp586
tp587
a(S'george nemhauser'
p588
g2
(g6
S'\\\xbb\x8a\xf4\x1b\x95\xd1?'
p589
tp590
Rp591
tp592
a(S'modelcenter'
p593
g2
(g6
S'\xf1\xe9\xd7a\x12\x95\xd1?'
p594
tp595
Rp596
tp597
a(S'bayesian optimization'
p598
g2
(g6
S'\xb13\xfa|\xa4\x8a\xd1?'
p599
tp600
Rp601
tp602
a(S'robust redhorse'
p603
g2
(g6
S'eJ\xccj\xa7h\xd1?'
p604
tp605
Rp606
tp607
a(S'decision problem'
p608
g2
(g6
S'\xeet2\x13\x1b5\xd1?'
p609
tp610
Rp611
tp612
a(S"himmelblau's function"
p613
g2
(g6
S'o\x98@\xf9-\x10\xd1?'
p614
tp615
Rp616
tp617
a(S'h-infinity methods in control theory'
p618
g2
(g6
S'>\x04#Tv\x0f\xd1?'
p619
tp620
Rp621
tp622
a(S'generalized semi-infinite programming'
p623
g2
(g6
S'\x905uq\x90\x01\xd1?'
p624
tp625
Rp626
tp627
a(S'canalisation (genetics)'
p628
g2
(g6
S'\xa6i\xaf\xddB\xd9\xd0?'
p629
tp630
Rp631
tp632
a(S'optimj'
p633
g2
(g6
S'R\x96\xe2PE\xd8\xd0?'
p634
tp635
Rp636
tp637
a(S'constraint graph'
p638
g2
(g6
S'\x17%"\xe7_\xd3\xd0?'
p639
tp640
Rp641
tp642
a(S'optimus platform'
p643
g2
(g6
S'}G\xafmD\xb7\xd0?'
p644
tp645
Rp646
tp647
a(S'conversion rate optimization'
p648
g2
(g6
S'\xe9\xd7\xb9\xb6\xff\xb1\xd0?'
p649
tp650
Rp651
tp652
a(S'enrique alba'
p653
g2
(g6
S'+\xa1n\xf4\xfd\xa3\xd0?'
p654
tp655
Rp656
tp657
a(S'portfolio optimization'
p658
g2
(g6
S'\xb1/\x89=\xa2\x9d\xd0?'
p659
tp660
Rp661
tp662
a(S'newuoa'
p663
g2
(g6
S'\xe9K\x05\xe5\xdb\x7f\xd0?'
p664
tp665
Rp666
tp667
a(S'hidden transformation'
p668
g2
(g6
S'U\x0f\xe3l\x05m\xd0?'
p669
tp670
Rp671
tp672
a(S'constraint learning'
p673
g2
(g6
S'\x1c\x06\x1a+\xe6^\xd0?'
p674
tp675
Rp676
tp677
a(S'mathematics of operations research'
p678
g2
(g6
S'\xee\xe2\x88\xda\x1cV\xd0?'
p679
tp680
Rp681
tp682
a(S'robustness validation'
p683
g2
(g6
S'\xd1\x13\x0b[\xaaU\xd0?'
p684
tp685
Rp686
tp687
a(S'process optimization'
p688
g2
(g6
S'n\x08\x8b\x06 U\xd0?'
p689
tp690
Rp691
tp692
a(S'g\xc3\xa9rard cornu\xc3\xa9jols'
p693
g2
(g6
S'\x15[8\x9c\xe5H\xd0?'
p694
tp695
Rp696
tp697
a(S'roberto battiti'
p698
g2
(g6
S'"\xean\xfd\xe2H\xd0?'
p699
tp700
Rp701
tp702
a(S'space mapping'
p703
g2
(g6
S'\xe2\r\x94s\xca.\xd0?'
p704
tp705
Rp706
tp707
a(S'peter richtarik'
p708
g2
(g6
S'\xb2y\xba\x1a\x93-\xd0?'
p709
tp710
Rp711
tp712
a(S'service chain optimization'
p713
g2
(g6
S'\xd0r\x13\x84Q-\xd0?'
p714
tp715
Rp716
tp717
a(S'constraint composite graph'
p718
g2
(g6
S'\xcc\x88\xb8\x992\x1a\xd0?'
p719
tp720
Rp721
tp722
a(S'roger j-b wets'
p723
g2
(g6
S'\x8e[\x83\xc0\xc5\x15\xd0?'
p724
tp725
Rp726
tp727
a(S'logic optimization'
p728
g2
(g6
S'\x8d\xdfgn\xf9\x06\xd0?'
p729
tp730
Rp731
tp732
a(S'robust bayesian analysis'
p733
g2
(g6
S'\xf1`5\xa4`\x02\xd0?'
p734
tp735
Rp736
tp737
a(S'biconvex optimization'
p738
g2
(g6
S'\xed\xc9!\x80(\xe1\xcf?'
p739
tp740
Rp741
tp742
a(S'jmodelica.org'
p743
g2
(g6
S"r\x9aS'\x83\xd0\xcf?"
p744
tp745
Rp746
tp747
a(S'signomial'
p748
g2
(g6
S'W: \x0e4\xc0\xcf?'
p749
tp750
Rp751
tp752
a(S'binary constraint'
p753
g2
(g6
S'*\x19\x172\x16\xb9\xcf?'
p754
tp755
Rp756
tp757
a(S'utku k\xc3\xb6se'
p758
g2
(g6
S'H\x02\xeaW`x\xcf?'
p759
tp760
Rp761
tp762
a(S'geometric programming'
p763
g2
(g6
S'\xa1\x93\x1d\x8c:e\xcf?'
p764
tp765
Rp766
tp767
a(S'linear programming'
p768
g2
(g6
S'Y\xb0\x05\x1b<J\xcf?'
p769
tp770
Rp771
tp772
a(S'copy elision'
p773
g2
(g6
S'\x9d\x93\xce\x11|C\xcf?'
p774
tp775
Rp776
tp777
a(S'coreset'
p778
g2
(g6
S'\x92\xbd5*\xaf3\xcf?'
p779
tp780
Rp781
tp782
a(S'michael j. d. powell'
p783
g2
(g6
S'}iQM\x00%\xcf?'
p784
tp785
Rp786
tp787
a(S'lindo'
p788
g2
(g6
S'\x9e\xc1\x84\x05[\x18\xcf?'
p789
tp790
Rp791
tp792
a(S'process flowsheeting'
p793
g2
(g6
S'\x16\xb5\xa1\xaf\x0e\x06\xcf?'
p794
tp795
Rp796
tp797
a(S'european chapter on combinatorial optimization'
p798
g2
(g6
S'\x0b\xdew\xa5;\xec\xce?'
p799
tp800
Rp801
tp802
a(S'lagrange multiplier'
p803
g2
(g6
S'\x98\xe1f\x84\x0b\xdd\xce?'
p804
tp805
Rp806
tp807
a(S'active set method'
p808
g2
(g6
S'\xf8\x9a\xc2\xe3\x98\xdb\xce?'
p809
tp810
Rp811
tp812
a(S'polynomial-time approximation scheme'
p813
g2
(g6
S'\xccg\x9a\x08\x0c\xda\xce?'
p814
tp815
Rp816
tp817
a(S'robust measures of scale'
p818
g2
(g6
S'J\xe3\xd6\x96z\xc6\xce?'
p819
tp820
Rp821
tp822
a(S'holonomic constraints'
p823
g2
(g6
S'\xef\xf8\xfe]\xba\xac\xce?'
p824
tp825
Rp826
tp827
a(S'interprocedural optimization'
p828
g2
(g6
S'\xba\x11a\x9d?\xa6\xce?'
p829
tp830
Rp831
tp832
a(S'strong duality'
p833
g2
(g6
S'\x90|&\xf1+\x96\xce?'
p834
tp835
Rp836
tp837
a(S'structural and multidisciplinary optimization'
p838
g2
(g6
S'\xa7\xe8\xaa\x85:\x90\xce?'
p839
tp840
Rp841
tp842
a(S'augmented lagrangian method'
p843
g2
(g6
S'\xf8|aL\x1c\x81\xce?'
p844
tp845
Rp846
tp847
a(S'modefrontier'
p848
g2
(g6
S'G%u\x98\xd3k\xce?'
p849
tp850
Rp851
tp852
a(S'workforce optimization'
p853
g2
(g6
S'\x11\x1a\xcb\x01\xe8A\xce?'
p854
tp855
Rp856
tp857
a(S'general algebraic modeling system'
p858
g2
(g6
S'\x03\x00X\xc8\xce>\xce?'
p859
tp860
Rp861
tp862
a(S'algebraic modeling language'
p863
g2
(g6
S'\x82E6i<!\xce?'
p864
tp865
Rp866
tp867
a(S'profile-guided optimization'
p868
g2
(g6
S'k\xd4\xe2\x9f6!\xce?'
p869
tp870
Rp871
tp872
a(S'supply chain optimization'
p873
g2
(g6
S's\xa1\x0ch\xeb\x11\xce?'
p874
tp875
Rp876
tp877
a(S'passer program suite'
p878
g2
(g6
S'\x9fM\x80\xff\xd0\r\xce?'
p879
tp880
Rp881
tp882
a(S"fredkin's paradox"
p883
g2
(g6
S'\x90b#+3\xe7\xcd?'
p884
tp885
Rp886
tp887
a(S'transyt-7f'
p888
g2
(g6
S'\x0cBdU(\xe7\xcd?'
p889
tp890
Rp891
tp892
a(S'minos (optimization software)'
p893
g2
(g6
S'\x99xY0\x86\xe0\xcd?'
p894
tp895
Rp896
tp897
a(S'wolfe duality'
p898
g2
(g6
S'\x16\xdc\xba\xf3\x8c\xd8\xcd?'
p899
tp900
Rp901
tp902
a(S'andreas wagner'
p903
g2
(g6
S'>\xda\x9b\xef\x17\xd1\xcd?'
p904
tp905
Rp906
tp907
a(S'biological constraints'
p908
g2
(g6
S'v\x1f\xeaba\xb4\xcd?'
p909
tp910
Rp911
tp912
a(S'fred w. glover'
p913
g2
(g6
S'\x80-\x8cby\xac\xcd?'
p914
tp915
Rp916
tp917
a(S'bregman method'
p918
g2
(g6
S'\xb2\xe9\xc2\x18\x7f\x98\xcd?'
p919
tp920
Rp921
tp922
a(S'robustness (morphology)'
p923
g2
(g6
S'\x8a\x96\xf9\xd8\x99\x90\xcd?'
p924
tp925
Rp926
tp927
a(S'variational monte carlo'
p928
g2
(g6
S'f\x8a\xe62^\x90\xcd?'
p929
tp930
Rp931
tp932
a(S'constrained conditional model'
p933
g2
(g6
S'\x8ebs\xf4\xb3~\xcd?'
p934
tp935
Rp936
tp937
a(S'robust statistics'
p938
g2
(g6
S'\xad\xda\x06~\x8ax\xcd?'
p939
tp940
Rp941
tp942
a(S'finite element updating'
p943
g2
(g6
S'VU\xd1\x82\xf4j\xcd?'
p944
tp945
Rp946
tp947
a(S'local consistency'
p948
g2
(g6
S'V\xde^\xad\x84e\xcd?'
p949
tp950
Rp951
tp952
a(S'variable neighborhood search'
p953
g2
(g6
S'!d K\x07S\xcd?'
p954
tp955
Rp956
tp957
a(S'cplex'
p958
g2
(g6
S'\xa7\xebi\xae\xf0J\xcd?'
p959
tp960
Rp961
tp962
a(S'brst algorithm'
p963
g2
(g6
S'\x98\x89\xab\xe1jD\xcd?'
p964
tp965
Rp966
tp967
a(S'extended newsvendor model'
p968
g2
(g6
S'\x16j\xff\x03\x838\xcd?'
p969
tp970
Rp971
tp972
a(S'relaxation (approximation)'
p973
g2
(g6
S'~7\x86s\x860\xcd?'
p974
tp975
Rp976
tp977
a(S'antifragility'
p978
g2
(g6
S'w\x14\xd3\x9b\x8c,\xcd?'
p979
tp980
Rp981
tp982
a(S'ampl'
p983
g2
(g6
S'\xaf\x9a=Q\x8e+\xcd?'
p984
tp985
Rp986
tp987
a(S'john von neumann theory prize'
p988
g2
(g6
S'8sm \xf3&\xcd?'
p989
tp990
Rp991
tp992
a(S'luca maria gambardella'
p993
g2
(g6
S"\xb7\xae'6\xe1#\xcd?"
p994
tp995
Rp996
tp997
a(S'apmonitor'
p998
g2
(g6
S'\xa5)\x9aZN\r\xcd?'
p999
tp1000
Rp1001
tp1002
a(S'packeteer'
p1003
g2
(g6
S'P&6\xa7\xd0\xf1\xcc?'
p1004
tp1005
Rp1006
tp1007
a(S'eflag'
p1008
g2
(g6
S'\x19\x7f\xc9\x15\xbb\xdd\xcc?'
p1009
tp1010
Rp1011
tp1012
a(S'search engine optimization, inc.'
p1013
g2
(g6
S'U\xcd\xec\x01"\xdd\xcc?'
p1014
tp1015
Rp1016
tp1017
a(S'datadvance'
p1018
g2
(g6
S'rY\x14VX\xd6\xcc?'
p1019
tp1020
Rp1021
tp1022
a(S'shadow price'
p1023
g2
(g6
S'\x04P,7L\xd4\xcc?'
p1024
tp1025
Rp1026
tp1027
a(S'weighted constraint satisfaction problem'
p1028
g2
(g6
S'\x1c\x80\xf1\xe5\xf5\xce\xcc?'
p1029
tp1030
Rp1031
tp1032
a(S'lagrangian relaxation'
p1033
g2
(g6
S'\x83\x88`\xe6`\xc5\xcc?'
p1034
tp1035
Rp1036
tp1037
a(S'duality (optimization)'
p1038
g2
(g6
S'Y[\xc1\xeb\x93\xc1\xcc?'
p1039
tp1040
Rp1041
tp1042
a(S'margaret h. wright'
p1043
g2
(g6
S'\xe2\x0fh]\xc0\xbc\xcc?'
p1044
tp1045
Rp1046
tp1047
a(S'ant colony optimization algorithms'
p1048
g2
(g6
S'\xea\x0bB\xcf\xbd\xb8\xcc?'
p1049
tp1050
Rp1051
tp1052
a(S'website overseer'
p1053
g2
(g6
S'%"6\xe4&\xb6\xcc?'
p1054
tp1055
Rp1056
tp1057
a(S'patrick prosser'
p1058
g2
(g6
S'NR\xf6\xd7N\xa6\xcc?'
p1059
tp1060
Rp1061
tp1062
a(S'fitness approximation'
p1063
g2
(g6
S';kB\xcf\xfd\xa4\xcc?'
p1064
tp1065
Rp1066
tp1067
a(S'invex function'
p1068
g2
(g6
S'\xb8\xf8\x7f\x01S\xa2\xcc?'
p1069
tp1070
Rp1071
tp1072
a(S'ptas reduction'
p1073
g2
(g6
S'\xa5\xafD>-\x9a\xcc?'
p1074
tp1075
Rp1076
tp1077
a(S'cross-entropy method'
p1078
g2
(g6
S'\x88\xbdg\x88Tu\xcc?'
p1079
tp1080
Rp1081
tp1082
a(S"benson's algorithm"
p1083
g2
(g6
S'7U#\x85\x96t\xcc?'
p1084
tp1085
Rp1086
tp1087
a(S'successive linear programming'
p1088
g2
(g6
S'\x94\xe9.\xd6vm\xcc?'
p1089
tp1090
Rp1091
tp1092
a(S'sangfor technologies'
p1093
g2
(g6
S'\x7f\xdfp\x1fx^\xcc?'
p1094
tp1095
Rp1096
tp1097
a(S'power system simulation'
p1098
g2
(g6
S'C\x1d/2\xc1Y\xcc?'
p1099
tp1100
Rp1101
tp1102
a(S'location search optimization'
p1103
g2
(g6
S'\xf2\xb3c\xbd\x8dB\xcc?'
p1104
tp1105
Rp1106
tp1107
a(S'discontinuity layout optimization'
p1108
g2
(g6
S'\x05\xe9\xcb\xae\x1a?\xcc?'
p1109
tp1110
Rp1111
tp1112
a(S'lagrange multipliers on banach spaces'
p1113
g2
(g6
S'\x18\xda\xd4}\xa1/\xcc?'
p1114
tp1115
Rp1116
tp1117
a(S'searchmetrics'
p1118
g2
(g6
S"'\xf5\x02\xc6\x05\x16\xcc?"
p1119
tp1120
Rp1121
tp1122
a(S'ellipsoid method'
p1123
g2
(g6
S'\x14/b\x1d\xf3\xf7\xcb?'
p1124
tp1125
Rp1126
tp1127
a(S'linear matrix inequality'
p1128
g2
(g6
S'8\x83\x81r\xfb\xf0\xcb?'
p1129
tp1130
Rp1131
tp1132
a(S'claude lemar\xc3\xa9chal'
p1133
g2
(g6
S'dk\x1c\x81H\xc6\xcb?'
p1134
tp1135
Rp1136
tp1137
a(S'rule-developing experimentation'
p1138
g2
(g6
S'\x18\x86\xc2\x12_\xb0\xcb?'
p1139
tp1140
Rp1141
tp1142
a(S'sequential minimal optimization'
p1143
g2
(g6
S'\xe2\xc1p\x80~\xae\xcb?'
p1144
tp1145
Rp1146
tp1147
a(S'3-opt'
p1148
g2
(g6
S'\xb7 >\\\x18\x91\xcb?'
p1149
tp1150
Rp1151
tp1152
a(S'ho\xc3\xa0ng t\xe1\xbb\xa5y'
p1153
g2
(g6
S'\x1b\x1aW\x86\x01z\xcb?'
p1154
tp1155
Rp1156
tp1157
a(S'gecode'
p1158
g2
(g6
S'\xaf\\\xe2\xaatq\xcb?'
p1159
tp1160
Rp1161
tp1162
a(S'theory of constraints'
p1163
g2
(g6
S'8\xe7a\xfa\xa4m\xcb?'
p1164
tp1165
Rp1166
tp1167
a(S'special ordered set'
p1168
g2
(g6
S'\xd4+\xd3\xf3il\xcb?'
p1169
tp1170
Rp1171
tp1172
a(S'ilog'
p1173
g2
(g6
S'o\xd0\x85|:g\xcb?'
p1174
tp1175
Rp1176
tp1177
a(S'concurrent constraint logic programming'
p1178
g2
(g6
S'\xac\xce\x8b7\xac0\xcb?'
p1179
tp1180
Rp1181
tp1182
a(S'ordinal optimization'
p1183
g2
(g6
S'\xed\xc7lx\xce.\xcb?'
p1184
tp1185
Rp1186
tp1187
a(S'web performance'
p1188
g2
(g6
S'.\xa6f\xb9@*\xcb?'
p1189
tp1190
Rp1191
tp1192
a(S'optimizing compiler'
p1193
g2
(g6
S'\xdeo;\xdc\x8b)\xcb?'
p1194
tp1195
Rp1196
tp1197
a(S'extended mathematical programming (emp)'
p1198
g2
(g6
S'\x04f\xf6\xf9\xae\x1d\xcb?'
p1199
tp1200
Rp1201
tp1202
a(S'bobyqa'
p1203
g2
(g6
S'\x84\xabJw\xff\x1b\xcb?'
p1204
tp1205
Rp1206
tp1207
a(S'inventory optimization'
p1208
g2
(g6
S'R\x07\xb4\xf0\x98\x14\xcb?'
p1209
tp1210
Rp1211
tp1212
a(S'multicube'
p1213
g2
(g6
S'\x97\xfeZ\xd6\xe1\xed\xca?'
p1214
tp1215
Rp1216
tp1217
a(S'cognitive constraints on compositional systems'
p1218
g2
(g6
S'\xd3:\x02++\xed\xca?'
p1219
tp1220
Rp1221
tp1222
a(S'peter rousseeuw'
p1223
g2
(g6
S't\xeb\x87 \xaf\xe9\xca?'
p1224
tp1225
Rp1226
tp1227
a(S'check constraint'
p1228
g2
(g6
S'>7\xa5\x97\xc8\xe0\xca?'
p1229
tp1230
Rp1231
tp1232
a(S'distributed constraint optimization'
p1233
g2
(g6
S'\x10\x0fH\xa4\x12\xdd\xca?'
p1234
tp1235
Rp1236
tp1237
a(S'variable splitting'
p1238
g2
(g6
S'\x7f\xba\xd8\x99\x9f\xd9\xca?'
p1239
tp1240
Rp1241
tp1242
a(S'submodular set function'
p1243
g2
(g6
S'9\x05\xc0<6\xd7\xca?'
p1244
tp1245
Rp1246
tp1247
a(S'soliton distribution'
p1248
g2
(g6
S'\xba\xcda\xac\xf9\xc9\xca?'
p1249
tp1250
Rp1251
tp1252
a(S'linear programming relaxation'
p1253
g2
(g6
S'I\x0e\xdfE\x1d\xb7\xca?'
p1254
tp1255
Rp1256
tp1257
a(S'quadratic bottleneck assignment problem'
p1258
g2
(g6
S'\x8bE\xff!\x0f\xb5\xca?'
p1259
tp1260
Rp1261
tp1262
a(S'naum z. shor'
p1263
g2
(g6
S'\xdc\xd7}{\x1a\xb1\xca?'
p1264
tp1265
Rp1266
tp1267
a(S'midaco'
p1268
g2
(g6
S'bs\x89\xbe\x8c\xa8\xca?'
p1269
tp1270
Rp1271
tp1272
a(S'cuter'
p1273
g2
(g6
S's\x15\xb8\xd3o\xa7\xca?'
p1274
tp1275
Rp1276
tp1277
a(S'prose modeling language'
p1278
g2
(g6
S'\xcaG\x15\x87,\x9b\xca?'
p1279
tp1280
Rp1281
tp1282
a(S'train speed optimization'
p1283
g2
(g6
S'lQ\xe3R\xf7\x96\xca?'
p1284
tp1285
Rp1286
tp1287
a(S'penalty method'
p1288
g2
(g6
S'\xd2k\x85\xa2\xce\x83\xca?'
p1289
tp1290
Rp1291
tp1292
a(S'milepost gcc'
p1293
g2
(g6
S'Hm K\x8e\x83\xca?'
p1294
tp1295
Rp1296
tp1297
a(S'optimal substructure'
p1298
g2
(g6
S'\xa4U\x98W\x17y\xca?'
p1299
tp1300
Rp1301
tp1302
a(S'semidefinite programming'
p1303
g2
(g6
S'\x90\xe7\xf1\xb6\x0bu\xca?'
p1304
tp1305
Rp1306
tp1307
a(S'zionts\xe2\x80\x93wallenius method'
p1308
g2
(g6
S'rs\xe4\xf0\xc7t\xca?'
p1309
tp1310
Rp1311
tp1312
a(S'optimal control'
p1313
g2
(g6
S'V\xce\xc5\xf1\xees\xca?'
p1314
tp1315
Rp1316
tp1317
a(S'constraint graph (layout)'
p1318
g2
(g6
S'G\x9aw<\xb9I\xca?'
p1319
tp1320
Rp1321
tp1322
a(S'moea framework'
p1323
g2
(g6
S'\x8et\x83y\xb0H\xca?'
p1324
tp1325
Rp1326
tp1327
a(S'heteroclinic cycle'
p1328
g2
(g6
S'\xcc\xf6\xdfj\x0b:\xca?'
p1329
tp1330
Rp1331
tp1332
a(S'fuzzy transportation'
p1333
g2
(g6
S'\xdb\x822\xfa\xef7\xca?'
p1334
tp1335
Rp1336
tp1337
a(S'neos server'
p1338
g2
(g6
S'\xc1W*_M\x1f\xca?'
p1339
tp1340
Rp1341
tp1342
a(S'constraint satisfaction dual problem'
p1343
g2
(g6
S'\xbc0`\xeb$\x1b\xca?'
p1344
tp1345
Rp1346
tp1347
a(S'cutting-plane method'
p1348
g2
(g6
S'\x0e\xdfSTQ\x0e\xca?'
p1349
tp1350
Rp1351
tp1352
a(S'bellman equation'
p1353
g2
(g6
S'\xce\xd8\xd1_\x91\n\xca?'
p1354
tp1355
Rp1356
tp1357
a(S'clinus robustus'
p1358
g2
(g6
S'S\xe9\x04\xa8\xb2\xf1\xc9?'
p1359
tp1360
Rp1361
tp1362
a(S'list of people in systems and control'
p1363
g2
(g6
S'\xb5\xdek\xbd\x90\xee\xc9?'
p1364
tp1365
Rp1366
tp1367
a(S'wide area application services'
p1368
g2
(g6
S'S2\n\xc6,\xd2\xc9?'
p1369
tp1370
Rp1371
tp1372
a(S'marguerite frank'
p1373
g2
(g6
S'\x84\xcb[\xca\xd0\xc4\xc9?'
p1374
tp1375
Rp1376
tp1377
a(S'random optimization'
p1378
g2
(g6
S'|f\xffy-\xaa\xc9?'
p1379
tp1380
Rp1381
tp1382
a(S'jakob stoustrup'
p1383
g2
(g6
S'\xd3.\xc5X\x1c\x9e\xc9?'
p1384
tp1385
Rp1386
tp1387
a(S'william j. cook'
p1388
g2
(g6
S'\xf3R\xca\x19\xa9\x82\xc9?'
p1389
tp1390
Rp1391
tp1392
a(S'hans georg bock'
p1393
g2
(g6
S'O\xceYe\x8c\x81\xc9?'
p1394
tp1395
Rp1396
tp1397
a(S'regina s. burachik'
p1398
g2
(g6
S'vh\xf8\x12/\x80\xc9?'
p1399
tp1400
Rp1401
tp1402
a(S'paul tseng'
p1403
g2
(g6
S"'\xa1Ea\xfex\xc9?"
p1404
tp1405
Rp1406
tp1407
a(S'mathematical programming with equilibrium constraints'
p1408
g2
(g6
S'\t:\xa9hKl\xc9?'
p1409
tp1410
Rp1411
tp1412
a(S'h-infinity loop-shaping'
p1413
g2
(g6
S'\x1a\xa9\xfb\xd2\xa6b\xc9?'
p1414
tp1415
Rp1416
tp1417
a(S'openmdao'
p1418
g2
(g6
S'\xdc\x91\xd8 \xc9V\xc9?'
p1419
tp1420
Rp1421
tp1422
a(S'low-rank approximation'
p1423
g2
(g6
S'\xff\xe2\x04\xa8\x9fT\xc9?'
p1424
tp1425
Rp1426
tp1427
a(S'genetic algorithm'
p1428
g2
(g6
S'#{\x839\x13R\xc9?'
p1429
tp1430
Rp1431
tp1432
a(S'local search (optimization)'
p1433
g2
(g6
S'\x00\xa7\xd7\x9d*9\xc9?'
p1434
tp1435
Rp1436
tp1437
a(S'list of numerical analysis topics'
p1438
g2
(g6
S'\x01\x7f\x9a\xd8\xd1-\xc9?'
p1439
tp1440
Rp1441
tp1442
a(S'uobyqa'
p1443
g2
(g6
S'\x97\xdf\x9a\xa7\xa6&\xc9?'
p1444
tp1445
Rp1446
tp1447
a(S'jan brinkhuis'
p1448
g2
(g6
S'\x03\xcd;`\xcf\x0c\xc9?'
p1449
tp1450
Rp1451
tp1452
a(S'satisficing'
p1453
g2
(g6
S']\xa4h\xc3#\xfa\xc8?'
p1454
tp1455
Rp1456
tp1457
a(S'feasible region'
p1458
g2
(g6
S'\x85\xe4\xb6\xfc\xca\xf3\xc8?'
p1459
tp1460
Rp1461
tp1462
a(S'symmetry-breaking constraints'
p1463
g2
(g6
S'\x07\xae\xf0\xa6\xff\xf0\xc8?'
p1464
tp1465
Rp1466
tp1467
a(S'price markdown'
p1468
g2
(g6
S'\x90\xbb\xa0\x1c\x1a\xe3\xc8?'
p1469
tp1470
Rp1471
tp1472
a(S'difference-map algorithm'
p1473
g2
(g6
S'\x8e\x8diP\xdd\xdb\xc8?'
p1474
tp1475
Rp1476
tp1477
a(S'dynamic programming'
p1478
g2
(g6
S'\xd5\x7f\x12id\xd4\xc8?'
p1479
tp1480
Rp1481
tp1482
a(S'convex optimization'
p1483
g2
(g6
S'\x9b\xa9Q\r\xf8\xcc\xc8?'
p1484
tp1485
Rp1486
tp1487
a(S'interior point method'
p1488
g2
(g6
S'\xc8\xaf\xdd.t\xc1\xc8?'
p1489
tp1490
Rp1491
tp1492
a(S"bland's rule"
p1493
g2
(g6
S'\x02\xbe\x8a\xe3-\xb6\xc8?'
p1494
tp1495
Rp1496
tp1497
a(S'parallel metaheuristic'
p1498
g2
(g6
S'\xa8\r\xebT\x82\xb2\xc8?'
p1499
tp1500
Rp1501
tp1502
a(S'list of metaphor-based metaheuristics'
p1503
g2
(g6
S'~b\x97\xdf@\xb1\xc8?'
p1504
tp1505
Rp1506
tp1507
a(S'weapon target assignment problem'
p1508
g2
(g6
S'`\xf7uau\xab\xc8?'
p1509
tp1510
Rp1511
tp1512
a.