(lp0
(S'rpc'
p1
cnumpy.core.multiarray
scalar
p2
(cnumpy
dtype
p3
(S'f8'
p4
I0
I1
tp5
Rp6
(I3
S'<'
p7
NNNI-1
I-1
I0
tp8
bS'\xfc\xff\xff\xff\xff\xff\xef?'
p9
tp10
Rp11
tp12
a(S'open network computing remote procedure call'
p13
g2
(g6
S'\x0b\xd7\xaed\x05\x9d\xde?'
p14
tp15
Rp16
tp17
a(S'xml-rpc'
p18
g2
(g6
S'\xb0q\x91V\xff\x14\xde?'
p19
tp20
Rp21
tp22
a(S'remote procedure call'
p23
g2
(g6
S'\xb4\xd7W4\x9c\x8f\xdd?'
p24
tp25
Rp26
tp27
a(S'json-rpc'
p28
g2
(g6
S'\xe3l\x04K\x8d\x0e\xdb?'
p29
tp30
Rp31
tp32
a(S'regional planning councils'
p33
g2
(g6
S'\xf2$\x9b\x81 ;\xd9?'
p34
tp35
Rp36
tp37
a(S'dce/rpc'
p38
g2
(g6
S'\x1a\x9d\xf2\x1c\x8d\xe8\xd8?'
p39
tp40
Rp41
tp42
a(S'revolutionary policy committee'
p43
g2
(g6
S'\x8d\x11;0\xf6\xd0\xd8?'
p44
tp45
Rp46
tp47
a(S'regional playback control'
p48
g2
(g6
S'\xe9\x8b\x84l\x96\x98\xd7?'
p49
tp50
Rp51
tp52
a(S'list of uk judgments relating to excluded subject matter'
p53
g2
(g6
S'\xbc:\xdfv\xe5\xf2\xd6?'
p54
tp55
Rp56
tp57
a(S'list of web service protocols'
p58
g2
(g6
S'\x8f<\xe2/h\x9f\xd6?'
p59
tp60
Rp61
tp62
a(S'revolutionary policy committee (u.s.)'
p63
g2
(g6
S'9\xb35\r\x98z\xd5?'
p64
tp65
Rp66
tp67
a(S'microsoft rpc'
p68
g2
(g6
S'*\x0c4\xb0hV\xd5?'
p69
tp70
Rp71
tp72
a(S'jayrock'
p73
g2
(g6
S'U\xa1\xad\xbd\xcc\xd0\xd4?'
p74
tp75
Rp76
tp77
a(S'java api for xml-based rpc'
p78
g2
(g6
S'6\xd4\xf3A7\x97\xd4?'
p79
tp80
Rp81
tp82
a(S'wddx'
p83
g2
(g6
S'\x9d\xdd\xf9\xab\xf1\x17\xd4?'
p84
tp85
Rp86
tp87
a(S'rpc-tv'
p88
g2
(g6
S'~\xb3\xe7\xe2v\xfb\xd3?'
p89
tp90
Rp91
tp92
a(S'royal mcbee'
p93
g2
(g6
S'\xaa\xc3i-O\xe0\xd3?'
p94
tp95
Rp96
tp97
a(S'rpcgen'
p98
g2
(g6
S'\xa6\xe3\\\x93r\x1f\xd3?'
p99
tp100
Rp101
tp102
a(S'soapjr'
p103
g2
(g6
S'\x9c\xa4\xc9\xd3\xe3\x83\xd1?'
p104
tp105
Rp106
tp107
a(S'celerra'
p108
g2
(g6
S'\xd3\xf2\x085\xe2e\xd1?'
p109
tp110
Rp111
tp112
a(S'webmention'
p113
g2
(g6
S'\x7f\x10)\x9d\x7f\x01\xd1?'
p114
tp115
Rp116
tp117
a(S'rational polynomial coefficient'
p118
g2
(g6
S'h\xf9@\\I\xac\xd0?'
p119
tp120
Rp121
tp122
a(S'rally for caledonia'
p123
g2
(g6
S'*\x89\tq\xc5}\xd0?'
p124
tp125
Rp126
tp127
a(S'badlock'
p128
g2
(g6
S'`"\xf3\x90S>\xd0?'
p129
tp130
Rp131
tp132
a(S'json-wsp'
p133
g2
(g6
S'\t:V\xc8b\xe8\xcf?'
p134
tp135
Rp136
tp137
a(S'freemed'
p138
g2
(g6
S'-(V`\x16\x92\xcf?'
p139
tp140
Rp141
tp142
a(S'rajasthan pharmacy college'
p143
g2
(g6
S'\x035\x80&\xb7\x14\xce?'
p144
tp145
Rp146
tp147
a(S'royal parks operational command unit'
p148
g2
(g6
S'\xd0\xd4\xa3\xd7\xb1\xd2\xcd?'
p149
tp150
Rp151
tp152
a(S'xml interface for network services'
p153
g2
(g6
S';\xc6\xc3\xc2a\xca\xcc?'
p154
tp155
Rp156
tp157
a(S'web application messaging protocol'
p158
g2
(g6
S'\x14\xf2\x13\xdb\xf1\xc4\xcc?'
p159
tp160
Rp161
tp162
a(S'versatile message transaction protocol'
p163
g2
(g6
S'\x89?\xc2\x14\xb5\xad\xcb?'
p164
tp165
Rp166
tp167
a(S'apache xml'
p168
g2
(g6
S'b\xaf\xb0G@e\xcb?'
p169
tp170
Rp171
tp172
a(S'royal parks constabulary'
p173
g2
(g6
S'\x99o\xe7\xac\x9fZ\xcb?'
p174
tp175
Rp176
tp177
a(S'distributed component object model'
p178
g2
(g6
S'n\xf6~\xe1\xdc\x11\xcb?'
p179
tp180
Rp181
tp182
a(S'json'
p183
g2
(g6
S'A\xdb\xd2\xb4E\x08\xcb?'
p184
tp185
Rp186
tp187
a(S'rpc group'
p188
g2
(g6
S'\x88F\xe9\xb5\xc4\xe5\xca?'
p189
tp190
Rp191
tp192
a(S'v (operating system)'
p193
g2
(g6
S'\xfa\x80p\xcc\x8c\xc9\xca?'
p194
tp195
Rp196
tp197
a(S'userland software'
p198
g2
(g6
S'V\xeej\x1f\xfe\xb6\xc9?'
p199
tp200
Rp201
tp202
a(S'jonathan d. c. turner'
p203
g2
(g6
S'\xe0\xe0\x13\xbd\xb9\x8e\xc9?'
p204
tp205
Rp206
tp207
a(S'dcethreads'
p208
g2
(g6
S'\xfa\x01\xc5)l\x16\xc9?'
p209
tp210
Rp211
tp212
a(S'list of systems management systems'
p213
g2
(g6
S'\xa44LH\x06\r\xc9?'
p214
tp215
Rp216
tp217
a(S'portmap'
p218
g2
(g6
S'\x11\x834\xfe,\xeb\xc8?'
p219
tp220
Rp221
tp222
a(S'enquire'
p223
g2
(g6
S'{\xf2\xd7\xa1\x14\xac\xc8?'
p224
tp225
Rp226
tp227
a(S'netconf'
p228
g2
(g6
S'\xfc\xed\xa7\x84\xc1\xa5\xc8?'
p229
tp230
Rp231
tp232
a(S'jsoniq'
p233
g2
(g6
S'\xad\x90H\xb3\x90_\xc8?'
p234
tp235
Rp236
tp237
a(S'xml protocol'
p238
g2
(g6
S'"\xabW\x0ex\xf3\xc7?'
p239
tp240
Rp241
tp242
a(S'mapi'
p243
g2
(g6
S'K)\x06\xf7\xc9\x93\xc7?'
p244
tp245
Rp246
tp247
a(S'exist'
p248
g2
(g6
S'LPC1\xc3\x8d\xc7?'
p249
tp250
Rp251
tp252
a(S'movement for diversity'
p253
g2
(g6
S"Y\xc8'H6i\xc7?"
p254
tp255
Rp256
tp257
a(S'bruce jay nelson'
p258
g2
(g6
S'\xb1:\xcd\xc0\x95\x15\xc7?'
p259
tp260
Rp261
tp262
a(S'grpc'
p263
g2
(g6
S'\x91RVU8\xc1\xc6?'
p264
tp265
Rp266
tp267
a(S'java web services development pack'
p268
g2
(g6
S'7\x80\xb2\xd5\xcf\xb1\xc6?'
p269
tp270
Rp271
tp272
a(S'xaira'
p273
g2
(g6
S'\xf7\xb5\xdf!o\x9e\xc6?'
p274
tp275
Rp276
tp277
a(S'simon willison'
p278
g2
(g6
S'm8\x15@l\xcf\xc5?'
p279
tp280
Rp281
tp282
a(S'inter-language unification'
p283
g2
(g6
S'\t\xfb\x80=\xad\xcd\xc5?'
p284
tp285
Rp286
tp287
a(S'distributed computing environment'
p288
g2
(g6
S'\x83s)\xa6n\xa9\xc5?'
p289
tp290
Rp291
tp292
a(S'pingback'
p293
g2
(g6
S'\xb20\xa8\xd8@\xa6\xc5?'
p294
tp295
Rp296
tp297
a(S'json2ldap'
p298
g2
(g6
S':\x94\xf5\n\x84t\xc5?'
p299
tp300
Rp301
tp302
a(S'intergroup rhabdomyosarcoma study group'
p303
g2
(g6
S'\xd6\xb9\xac\x012O\xc5?'
p304
tp305
Rp306
tp307
a(S'remote application programming interface'
p308
g2
(g6
S"\x86/\x1c?'O\xc5?"
p309
tp310
Rp311
tp312
a(S'reversed-phase chromatography'
p313
g2
(g6
S':#\x10\x91\xf5A\xc5?'
p314
tp315
Rp316
tp317
a(S'american college of surgeons oncology group'
p318
g2
(g6
S'\x1d\x05c\xb1\xbc\xfe\xc4?'
p319
tp320
Rp321
tp322
a(S'xupdate'
p323
g2
(g6
S'\xad\xf7OaF\xb8\xc4?'
p324
tp325
Rp326
tp327
a(S'distributed object middleware'
p328
g2
(g6
S'\x1eBJ\xe6\x99o\xc4?'
p329
tp330
Rp331
tp332
a(S'json streaming'
p333
g2
(g6
S'\xf4fR\xf3\xafT\xc4?'
p334
tp335
Rp336
tp337
a(S'texy!'
p338
g2
(g6
S'\xc42\xde\xb3\x897\xc4?'
p339
tp340
Rp341
tp342
a(S'blaster (computer worm)'
p343
g2
(g6
S'\xfb\xc8\xc1\xd056\xc4?'
p344
tp345
Rp346
tp347
a(S'jsonml'
p348
g2
(g6
S'd\xf4a\n.\x1a\xc4?'
p349
tp350
Rp351
tp352
a(S'fault-tolerant messaging'
p353
g2
(g6
S'o\xb2k\xb5\x90\x10\xc4?'
p354
tp355
Rp356
tp357
a(S'stub (distributed computing)'
p358
g2
(g6
S'\xb0\xfc \xe4\xa7\x0e\xc4?'
p359
tp360
Rp361
tp362
a(S'vancouver asian film festival'
p363
g2
(g6
S'\x95\xae\x80\x1d\x94\xd7\xc3?'
p364
tp365
Rp366
tp367
a(S'press review'
p368
g2
(g6
S'\xd5 \x85\x01\x8a\xbb\xc3?'
p369
tp370
Rp371
tp372
a(S'bson'
p373
g2
(g6
S'\xae^\xa3\x19\x10\xa8\xc3?'
p374
tp375
Rp376
tp377
a(S'reynolds porter chamberlain'
p378
g2
(g6
S'\x11\x84\x182\xaf\x9c\xc3?'
p379
tp380
Rp381
tp382
a(S'science policy'
p383
g2
(g6
S'\xd7\xabJ\x90\xd2\x86\xc3?'
p384
tp385
Rp386
tp387
a(S'pediatric oncology group'
p388
g2
(g6
S'\xc1\x17\x06\x1bMR\xc3?'
p389
tp390
Rp391
tp392
a(S"children's cancer study group"
p393
g2
(g6
S'\xa8\x92\xa20\xbf1\xc3?'
p394
tp395
Rp396
tp397
a(S'science and engineering research council'
p398
g2
(g6
S"\xc0\xbd:T\xd4'\xc3?"
p399
tp400
Rp401
tp402
a(S'hibari (database)'
p403
g2
(g6
S'Po\xd1k\x18&\xc3?'
p404
tp405
Rp406
tp407
a(S'research councils uk'
p408
g2
(g6
S'@\xa9\xc8\x1b\x99%\xc3?'
p409
tp410
Rp411
tp412
a(S'interface description language'
p413
g2
(g6
S'\xbd\x98\xea\xdeh\xf6\xc2?'
p414
tp415
Rp416
tp417
a(S'zeroc'
p418
g2
(g6
S'\xfc\xee\x00\xbas\xb2\xc2?'
p419
tp420
Rp421
tp422
a(S'dvd copy control association'
p423
g2
(g6
S'QJ\x97\x19\xeb\x92\xc2?'
p424
tp425
Rp426
tp427
a(S'inter-process communication'
p428
g2
(g6
S'\xa3\xba\xfc\xbf\xb3\x87\xc2?'
p429
tp430
Rp431
tp432
a(S'java xml'
p433
g2
(g6
S'\xd4^"\xdb\xf3\x81\xc2?'
p434
tp435
Rp436
tp437
a(S'spalding v gamage'
p438
g2
(g6
S'7\xe9\xe3\x9eKw\xc2?'
p439
tp440
Rp441
tp442
a(S'general inter-orb protocol'
p443
g2
(g6
S'\xd6S\x162\x93p\xc2?'
p444
tp445
Rp446
tp447
a(S'metaserver'
p448
g2
(g6
S'\xdd\x97\xdb\x966o\xc2?'
p449
tp450
Rp451
tp452
a(S'ews (disambiguation)'
p453
g2
(g6
S'\xe2\x8c\xc3IEb\xc2?'
p454
tp455
Rp456
tp457
a(S'ssrc'
p458
g2
(g6
S'5\xb1S\x13\x10>\xc2?'
p459
tp460
Rp461
tp462
a(S'global closure systems'
p463
g2
(g6
S'\xff\xbd\x8dfP8\xc2?'
p464
tp465
Rp466
tp467
a(S'idtp'
p468
g2
(g6
S'\x1c\xf5_\xe5\xa01\xc2?'
p469
tp470
Rp471
tp472
a(S'xinetd'
p473
g2
(g6
S'\xabOH\xa6\xaa\x10\xc2?'
p474
tp475
Rp476
tp477
a(S'eastern cooperative oncology group'
p478
g2
(g6
S'\xa2F\xf0\xd9{\x04\xc2?'
p479
tp480
Rp481
tp482
a(S'xml'
p483
g2
(g6
S'_<\xb5\x9b5\xec\xc1?'
p484
tp485
Rp486
tp487
a(S'json-ld'
p488
g2
(g6
S'*\x91!?G\xe9\xc1?'
p489
tp490
Rp491
tp492
a(S'ubjson'
p493
g2
(g6
S'[\xd8\xbe.\x18\xd5\xc1?'
p494
tp495
Rp496
tp497
a(S'rpyc'
p498
g2
(g6
S'\xa6\x19\xa7\x15y\xd3\xc1?'
p499
tp500
Rp501
tp502
a(S'campcaster'
p503
g2
(g6
S'\x8eQ[\xf8\xe7\xc7\xc1?'
p504
tp505
Rp506
tp507
a(S'xml data binding'
p508
g2
(g6
S'R<r\xd6\x91\xc0\xc1?'
p509
tp510
Rp511
tp512
a(S'science park'
p513
g2
(g6
S'\x95J\x8c~\xdc\xa4\xc1?'
p514
tp515
Rp516
tp517
a(S'rotary phase converter'
p518
g2
(g6
S'\xab\x9a\xf6wB\x9c\xc1?'
p519
tp520
Rp521
tp522
a(S'xml database'
p523
g2
(g6
S'\x9b\xe5\xfe\xa8\xba\x8e\xc1?'
p524
tp525
Rp526
tp527
a(S'xmlspy'
p528
g2
(g6
S'\xb4B\x93\xe2\xf5u\xc1?'
p529
tp530
Rp531
tp532
a(S"history of science and technology in the people's republic of china"
p533
g2
(g6
S' 2\x1f\xa0Qo\xc1?'
p534
tp535
Rp536
tp537
a(S'bindows'
p538
g2
(g6
S'\xe1\x14\n\x97\xa5k\xc1?'
p539
tp540
Rp541
tp542
a(S'journeyweb'
p543
g2
(g6
S'\x8b(\x13\xc1\xd7Q\xc1?'
p544
tp545
Rp546
tp547
a(S'medical research council'
p548
g2
(g6
S'\xe1!\x0f\xad\x06E\xc1?'
p549
tp550
Rp551
tp552
a(S'natural scientific research in canada'
p553
g2
(g6
S'\\\xb9\xcd\xd3\x8d;\xc1?'
p554
tp555
Rp556
tp557
a(S'particle physics and astronomy research council'
p558
g2
(g6
S'\xa9\x98\\\x16\x80+\xc1?'
p559
tp560
Rp561
tp562
a(S'xml uk'
p563
g2
(g6
S' \x1esG #\xc1?'
p564
tp565
Rp566
tp567
a(S"science and technology in the people's republic of china"
p568
g2
(g6
S'\x14+\xa2\x9a\xba\xf9\xc0?'
p569
tp570
Rp571
tp572
a(S'james stirling (physicist)'
p573
g2
(g6
S'\x02QI@\x88\xf4\xc0?'
p574
tp575
Rp576
tp577
a(S'gdata'
p578
g2
(g6
S'\x94bf\xfdE\xea\xc0?'
p579
tp580
Rp581
tp582
a(S'web services protocol stack'
p583
g2
(g6
S'\xf2\xb8\xc1\xc1#\xe8\xc0?'
p584
tp585
Rp586
tp587
a(S'json patch'
p588
g2
(g6
S'sD\xb5\xb3\xed\xc9\xc0?'
p589
tp590
Rp591
tp592
a(S'xml log'
p593
g2
(g6
S'\xee\xba\xbe\x07\x9c\xc8\xc0?'
p594
tp595
Rp596
tp597
a(S'rpc12'
p598
g2
(g6
S'\xe4\x97\x9e\x99\xf3\xbc\xc0?'
p599
tp600
Rp601
tp602
a(S'xml certification program'
p603
g2
(g6
S'\t\x16,Fd\xa2\xc0?'
p604
tp605
Rp606
tp607
a(S'swog'
p608
g2
(g6
S'\xfa\xe3\xb6u\xa3\x91\xc0?'
p609
tp610
Rp611
tp612
a(S'xml transformation language'
p613
g2
(g6
S'9\x1d[\x01\xdb\x8e\xc0?'
p614
tp615
Rp616
tp617
a(S'web service'
p618
g2
(g6
S'\xbaw\xbb\xe5\xa8\x8c\xc0?'
p619
tp620
Rp621
tp622
a(S'microsoft office xml formats'
p623
g2
(g6
S'\x96_\x82\xab\x83n\xc0?'
p624
tp625
Rp626
tp627
a(S'vtd-xml'
p628
g2
(g6
S'\r[\xb7+pe\xc0?'
p629
tp630
Rp631
tp632
a(S'unmarshalling'
p633
g2
(g6
S'\x13\xb2\x18\x88\xfeP\xc0?'
p634
tp635
Rp636
tp637
a(S'gsoap'
p638
g2
(g6
S'\x14\x92G\xa2%M\xc0?'
p639
tp640
Rp641
tp642
a(S'liquid xml studio'
p643
g2
(g6
S'f\xda\xcc\rPF\xc0?'
p644
tp645
Rp646
tp647
a(S'dan suciu'
p648
g2
(g6
S'\xea\xce\xc8\xb9\x8c<\xc0?'
p649
tp650
Rp651
tp652
a(S'xquery'
p653
g2
(g6
S'\x87\xed\xf7\x13\x9b:\xc0?'
p654
tp655
Rp656
tp657
a(S'list of types of xml schemas'
p658
g2
(g6
S'=\x08\x90\x93\r:\xc0?'
p659
tp660
Rp661
tp662
a(S'state council research office'
p663
g2
(g6
S'j\xd1\x95u\xaa2\xc0?'
p664
tp665
Rp666
tp667
a(S'application control management system'
p668
g2
(g6
S'!\xae\xbd\xdf 0\xc0?'
p669
tp670
Rp671
tp672
a(S'journal of physics g'
p673
g2
(g6
S'\x1b\x16^A?\x14\xc0?'
p674
tp675
Rp676
tp677
a(S'cannone da 90/53'
p678
g2
(g6
S'\xecD\xc4\xe7+\x04\xc0?'
p679
tp680
Rp681
tp682
a(S'list of computing and it abbreviations'
p683
g2
(g6
S'\xdf[\xd1j\xf2\x03\xc0?'
p684
tp685
Rp686
tp687
a(S'rrl'
p688
g2
(g6
S'<\xb6\xb1+q\xfb\xbf?'
p689
tp690
Rp691
tp692
a(S'srp'
p693
g2
(g6
S'.\xfa\xa6;\x97\xda\xbf?'
p694
tp695
Rp696
tp697
a(S'xml data package'
p698
g2
(g6
S'7\xf7:xt\xd5\xbf?'
p699
tp700
Rp701
tp702
a(S'provincial research organization'
p703
g2
(g6
S'9\xfd.\xac(\xd0\xbf?'
p704
tp705
Rp706
tp707
a(S'jira (software)'
p708
g2
(g6
S'\xa6\xdd\x19x\xa6\xc9\xbf?'
p709
tp710
Rp711
tp712
a(S'yaml'
p713
g2
(g6
S'\r.DPp\xb6\xbf?'
p714
tp715
Rp716
tp717
a(S'ncp'
p718
g2
(g6
S'\xfd\x966\x93\x9d\xb4\xbf?'
p719
tp720
Rp721
tp722
a(S'elemenope'
p723
g2
(g6
S'\x9e\xae\xe2+a\x9f\xbf?'
p724
tp725
Rp726
tp727
a(S'transaction processing over xml'
p728
g2
(g6
S'\xea\x7f\x1b\xa8s\x96\xbf?'
p729
tp730
Rp731
tp732
a(S'smile (data interchange format)'
p733
g2
(g6
S'\x1ba\x02D[x\xbf?'
p734
tp735
Rp736
tp737
a(S'church of christ in china'
p738
g2
(g6
S')a\x0b\xbb\x17u\xbf?'
p739
tp740
Rp741
tp742
a(S'tryton'
p743
g2
(g6
S'==\xce\xe7\xc0m\xbf?'
p744
tp745
Rp746
tp747
a(S'research'
p748
g2
(g6
S'\x05\xf7\xf5_\x9dk\xbf?'
p749
tp750
Rp751
tp752
a(S'application layer'
p753
g2
(g6
S'6\x06\xfa\x8e\xf7X\xbf?'
p754
tp755
Rp756
tp757
a(S'simple xml'
p758
g2
(g6
S'\xf4\x02\xd4\x98\xf7V\xbf?'
p759
tp760
Rp761
tp762
a(S'xml signature'
p763
g2
(g6
S'\x95}\x9c7\\P\xbf?'
p764
tp765
Rp766
tp767
a(S'national research council'
p768
g2
(g6
S'\xa5_\x84\xb5\xd0G\xbf?'
p769
tp770
Rp771
tp772
a(S'comparison of data serialization formats'
p773
g2
(g6
S'\x14h\x88\xf6\xdc>\xbf?'
p774
tp775
Rp776
tp777
a(S'department of scientific and industrial research (united kingdom)'
p778
g2
(g6
S'Y\xa8\xf4j\x9b/\xbf?'
p779
tp780
Rp781
tp782
a(S'foundation for science and technology'
p783
g2
(g6
S' \x9e\x9a\x06\xa0\x1a\xbf?'
p784
tp785
Rp786
tp787
a(S'funding of science'
p788
g2
(g6
S'j\xf9\xca\xca\x80\x13\xbf?'
p789
tp790
Rp791
tp792
a(S'xml firewall'
p793
g2
(g6
S'\xa5\xda\xd1\x84R\x01\xbf?'
p794
tp795
Rp796
tp797
a(S'dvd region code'
p798
g2
(g6
S'\xa1\t;h\xed\xf1\xbe?'
p799
tp800
Rp801
tp802
a(S'north china university of technology'
p803
g2
(g6
S'V\x7f\x85\xf9\xd3\xf1\xbe?'
p804
tp805
Rp806
tp807
a(S'development research center of the state council'
p808
g2
(g6
S'p\x9c\xea\xe7\x83\xee\xbe?'
p809
tp810
Rp811
tp812
a(S'iso 20252'
p813
g2
(g6
S'\xfd\xb4w?\x1a\xed\xbe?'
p814
tp815
Rp816
tp817
a(S'peter kalmus'
p818
g2
(g6
S'^q\xb1\xaa=\xcb\xbe?'
p819
tp820
Rp821
tp822
a(S'royal parks of london'
p823
g2
(g6
S'>o?\xb6\xb1\xc4\xbe?'
p824
tp825
Rp826
tp827
a(S'i4'
p828
g2
(g6
S'9n\xda{\x9c\xb5\xbe?'
p829
tp830
Rp831
tp832
a(S'well-formed document'
p833
g2
(g6
S'\x10\x08\xcb8\xd7\xb4\xbe?'
p834
tp835
Rp836
tp837
a(S'brian scarlett'
p838
g2
(g6
S'j6\xa7C\xe5\xb1\xbe?'
p839
tp840
Rp841
tp842
a(S'script (ahrc centre)'
p843
g2
(g6
S'\xd4\xec\xe8\x87\xca\x9f\xbe?'
p844
tp845
Rp846
tp847
a(S'united kingdom'
p848
g2
(g6
S'y:LQ\x81\x9e\xbe?'
p849
tp850
Rp851
tp852
a(S'research funding in the uk'
p853
g2
(g6
S'\x887\xdb\x14\xc5\x99\xbe?'
p854
tp855
Rp856
tp857
a(S'oxygen xml editor'
p858
g2
(g6
S'\xd5m\n\xfb\x1a\x93\xbe?'
p859
tp860
Rp861
tp862
a(S'canonical xml'
p863
g2
(g6
S'\x80\xa6\x14\x9a4\x87\xbe?'
p864
tp865
Rp866
tp867
a(S'gramps'
p868
g2
(g6
S'\t\x12\xa8.\x8a\x80\xbe?'
p869
tp870
Rp871
tp872
a(S'research council of norway'
p873
g2
(g6
S'\xadM\x1c\xed\xe6s\xbe?'
p874
tp875
Rp876
tp877
a(S'science and technology facilities council'
p878
g2
(g6
S'\xb1#\x80\xcc\xd6s\xbe?'
p879
tp880
Rp881
tp882
a(S'quark xml author'
p883
g2
(g6
S'\x8c3\xef\xdbwp\xbe?'
p884
tp885
Rp886
tp887
a(S'directory system agent'
p888
g2
(g6
S'\x85,5"\xc5f\xbe?'
p889
tp890
Rp891
tp892
a(S'western regional research center'
p893
g2
(g6
S'L\xe9\xf4\xe0\xd4a\xbe?'
p894
tp895
Rp896
tp897
a(S'legal ethics'
p898
g2
(g6
S'\x046\xfa<\xfdZ\xbe?'
p899
tp900
Rp901
tp902
a(S'st\xc3\xa9phanie balme'
p903
g2
(g6
S'Rv\x9f\x0f#U\xbe?'
p904
tp905
Rp906
tp907
a(S'list of xml markup languages'
p908
g2
(g6
S'pK\n\xf1\xddQ\xbe?'
p909
tp910
Rp911
tp912
a(S'list of php extensions'
p913
g2
(g6
S'\x10\x0c\xc6_tP\xbe?'
p914
tp915
Rp916
tp917
a(S'network file system'
p918
g2
(g6
S'=\x89\xa8\xc7xN\xbe?'
p919
tp920
Rp921
tp922
a(S'vera l\xc3\xbcth'
p923
g2
(g6
S'\xfcz\x16\xc1\x0fL\xbe?'
p924
tp925
Rp926
tp927
a(S'abdus salam centre for physics'
p928
g2
(g6
S'3\x19N\xda\xbc8\xbe?'
p929
tp930
Rp931
tp932
a(S'efficient xml interchange'
p933
g2
(g6
S'\xc3\xe1\x0e\xc0(7\xbe?'
p934
tp935
Rp936
tp937
a(S'london protocol'
p938
g2
(g6
S'\x13\x9d\xe3s\xcc6\xbe?'
p939
tp940
Rp941
tp942
a(S'david megginson'
p943
g2
(g6
S"~\x88\x05\xe3'2\xbe?"
p944
tp945
Rp946
tp947
a(S'science policy of the united states'
p948
g2
(g6
S't\xd9dyS.\xbe?'
p949
tp950
Rp951
tp952
a(S"japan's space development"
p953
g2
(g6
S"XDQ\x82f'\xbe?"
p954
tp955
Rp956
tp957
a(S'council for scientific policy'
p958
g2
(g6
S'`\xd9\x14\xd8\x05 \xbe?'
p959
tp960
Rp961
tp962
a(S'network computing system'
p963
g2
(g6
S'|\xab0\xaa\xeb\x1f\xbe?'
p964
tp965
Rp966
tp967
a(S'xml framework'
p968
g2
(g6
S'\x9b\x85a m\x06\xbe?'
p969
tp970
Rp971
tp972
a(S'semi-structured data'
p973
g2
(g6
S'v\xdc\xd0\xb6%\x02\xbe?'
p974
tp975
Rp976
tp977
a(S'g7 research group'
p978
g2
(g6
S'-\xff\xacsX\xf9\xbd?'
p979
tp980
Rp981
tp982
a(S'o:xml'
p983
g2
(g6
S'\x85\x89)"\xa9\xf3\xbd?'
p984
tp985
Rp986
tp987
a(S'protocol buffers'
p988
g2
(g6
S'\x88\xc6\xa9H\x17\xeb\xbd?'
p989
tp990
Rp991
tp992
a(S'recorded picture company'
p993
g2
(g6
S'_\xb8DuP\xe4\xbd?'
p994
tp995
Rp996
tp997
a(S"labour law of the people's republic of china"
p998
g2
(g6
S'\xce0L\xba\xc5\xdc\xbd?'
p999
tp1000
Rp1001
tp1002
a(S'xml tree'
p1003
g2
(g6
S'\xcd?\x8a\xcf\x8e\xd9\xbd?'
p1004
tp1005
Rp1006
tp1007
a(S'list of network protocols (osi model)'
p1008
g2
(g6
S'X\xb5\xdeY2\xd4\xbd?'
p1009
tp1010
Rp1011
tp1012
a(S'economic and social research council'
p1013
g2
(g6
S'I\xe7\xed\xe3z\xd2\xbd?'
p1014
tp1015
Rp1016
tp1017
a(S'xml validation'
p1018
g2
(g6
S'l\xf7\xfd\x19&\xce\xbd?'
p1019
tp1020
Rp1021
tp1022
a(S'london travelwatch'
p1023
g2
(g6
S"'\xa0\xc7\x13\x96\xbb\xbd?"
p1024
tp1025
Rp1026
tp1027
a(S'presbyterianism'
p1028
g2
(g6
S'W\xc2*\xd9A\xa5\xbd?'
p1029
tp1030
Rp1031
tp1032
a(S'rpc fort'
p1033
g2
(g6
S'b\xad\x99-\xa0\xa1\xbd?'
p1034
tp1035
Rp1036
tp1037
a(S'nucleus cms'
p1038
g2
(g6
S'f\xc2\xc5\xe9\x87\x99\xbd?'
p1039
tp1040
Rp1041
tp1042
a(S'politics of china'
p1043
g2
(g6
S'!r\xc1\x86U\x98\xbd?'
p1044
tp1045
Rp1046
tp1047
a(S'kilden \xe2\x80\x93 information centre for gender research'
p1048
g2
(g6
S'>s\xa6#\x82\x93\xbd?'
p1049
tp1050
Rp1051
tp1052
a(S'rpc54'
p1053
g2
(g6
S'w%\xa0\x08N\x8b\xbd?'
p1054
tp1055
Rp1056
tp1057
a(S'web services invocation framework'
p1058
g2
(g6
S'M\xae\xb5m\xae{\xbd?'
p1059
tp1060
Rp1061
tp1062
a(S'mutalyzer'
p1063
g2
(g6
S'\xbe\xd7@\x90\x83y\xbd?'
p1064
tp1065
Rp1066
tp1067
a(S'list of uk government scientific research institutes'
p1068
g2
(g6
S'\x07\xd6\xf6\xaa\xeds\xbd?'
p1069
tp1070
Rp1071
tp1072
a(S'xmlbeans'
p1073
g2
(g6
S'\xda^\xfd\x81cr\xbd?'
p1074
tp1075
Rp1076
tp1077
a(S'xml script'
p1078
g2
(g6
S'\x98n\xd0\xf9\ng\xbd?'
p1079
tp1080
Rp1081
tp1082
a(S'zefania xml'
p1083
g2
(g6
S'\xcd\xb6\x82\x9bvf\xbd?'
p1084
tp1085
Rp1086
tp1087
a(S'reformed presbyterian church \xe2\x80\x93 hanover presbytery'
p1088
g2
(g6
S'\xd8\x99\xf5\x0c:Z\xbd?'
p1089
tp1090
Rp1091
tp1092
a(S'american bar association model code of professional responsibility'
p1093
g2
(g6
S'\x99\x16\xfa\xc8\x15X\xbd?'
p1094
tp1095
Rp1096
tp1097
a(S'streaming xml'
p1098
g2
(g6
S'<\xf8\xf7\xb9\xabR\xbd?'
p1099
tp1100
Rp1101
tp1102
a(S'xml encryption'
p1103
g2
(g6
S'\x978\n!WP\xbd?'
p1104
tp1105
Rp1106
tp1107
a(S'american southern presbyterian mission'
p1108
g2
(g6
S'NZ\xc5a\x94>\xbd?'
p1109
tp1110
Rp1111
tp1112
a(S'xml/edifact'
p1113
g2
(g6
S'\x8a@\xfa\xa1\xb2;\xbd?'
p1114
tp1115
Rp1116
tp1117
a(S'binary xml'
p1118
g2
(g6
S"\xaa\xd8Lap'\xbd?"
p1119
tp1120
Rp1121
tp1122
a(S'educational research'
p1123
g2
(g6
S'\xdb\x03\r\x97L$\xbd?'
p1124
tp1125
Rp1126
tp1127
a(S'nik nanos'
p1128
g2
(g6
S'\xb5k\xd9\xba\xe5\x1b\xbd?'
p1129
tp1130
Rp1131
tp1132
a(S'fort-17'
p1133
g2
(g6
S'\xfb\xb8\x89`\xed\x18\xbd?'
p1134
tp1135
Rp1136
tp1137
a(S'indian council of medical research'
p1138
g2
(g6
S'Mk\x0b\xff\x92\x18\xbd?'
p1139
tp1140
Rp1141
tp1142
a(S'wbxml'
p1143
g2
(g6
S'\x86\x0b\xfe\xff\xd3\x0b\xbd?'
p1144
tp1145
Rp1146
tp1147
a(S'reformed presbyterian churches'
p1148
g2
(g6
S'b\x10\x1aR\xe6\x00\xbd?'
p1149
tp1150
Rp1151
tp1152
a(S'naming and design rules'
p1153
g2
(g6
S'I\xa4\xe6\x84\xac\xfd\xbc?'
p1154
tp1155
Rp1156
tp1157
a(S'reformed presbyterian church'
p1158
g2
(g6
S'\x14\xc9\xdf=\xae\xf9\xbc?'
p1159
tp1160
Rp1161
tp1162
a(S'spreadsheetml'
p1163
g2
(g6
S'\x87pR\x92\xfe\xf2\xbc?'
p1164
tp1165
Rp1166
tp1167
a(S'design science research'
p1168
g2
(g6
S'\x1d\xb5\xae\x1e\xd5\xec\xbc?'
p1169
tp1170
Rp1171
tp1172
a(S'g. michael morris'
p1173
g2
(g6
S'8\xc5\xb9\x14\xa4\xeb\xbc?'
p1174
tp1175
Rp1176
tp1177
a(S'valid characters in xml'
p1178
g2
(g6
S'\xb6\x08\xdf\xcf\xcf\xe9\xbc?'
p1179
tp1180
Rp1181
tp1182
a(S'xslt'
p1183
g2
(g6
S' \x1cK>\x80\xe9\xbc?'
p1184
tp1185
Rp1186
tp1187
a(S'long march 2 (rocket family)'
p1188
g2
(g6
S'r\xe6\xaf\xcd\xcb\xe4\xbc?'
p1189
tp1190
Rp1191
tp1192
a(S'xml pipeline'
p1193
g2
(g6
S'\xac\xfcqR\xb8\xe0\xbc?'
p1194
tp1195
Rp1196
tp1197
a(S'oaxal'
p1198
g2
(g6
S'\xac$\xcc\x9aB\xd3\xbc?'
p1199
tp1200
Rp1201
tp1202
a(S'schematron'
p1203
g2
(g6
S'J\x1bl\xd07\xd3\xbc?'
p1204
tp1205
Rp1206
tp1207
a(S'channel'
p1208
g2
(g6
S'\x13\xdb\xf7\xc2\x01\xc9\xbc?'
p1209
tp1210
Rp1211
tp1212
a(S'outline of china'
p1213
g2
(g6
S'2\xfa\xda7p\xc7\xbc?'
p1214
tp1215
Rp1216
tp1217
a(S'xml-binary optimized packaging'
p1218
g2
(g6
S'\xfd\x10\xac\xa9\x03\xc7\xbc?'
p1219
tp1220
Rp1221
tp1222
a(S'american educational research association'
p1223
g2
(g6
S':\x9eGFT\xc3\xbc?'
p1224
tp1225
Rp1226
tp1227
a(S'hypertext application language'
p1228
g2
(g6
S'\xbdk\xf0\xe5\xff\xc1\xbc?'
p1229
tp1230
Rp1231
tp1232
a(S'xmlstarlet'
p1233
g2
(g6
S'd\xf9\xa7\xf7\xe2\xbc\xbc?'
p1234
tp1235
Rp1236
tp1237
a(S'secondary research'
p1238
g2
(g6
S'\x10\xa5,#\xa4\xbc\xbc?'
p1239
tp1240
Rp1241
tp1242
a(S'wang junfeng'
p1243
g2
(g6
S'\x8c\xfc\x9f\xefE\xb7\xbc?'
p1244
tp1245
Rp1246
tp1247
a(S'presbyterian church (disambiguation)'
p1248
g2
(g6
S'Q(\xd0uc\xb0\xbc?'
p1249
tp1250
Rp1251
tp1252
a(S'channel 4'
p1253
g2
(g6
S'\xac\xe90\xb6(\xad\xbc?'
p1254
tp1255
Rp1256
tp1257
a(S"law of the people's republic of china"
p1258
g2
(g6
S'&G\xbb\x9f\xac\xab\xbc?'
p1259
tp1260
Rp1261
tp1262
a(S'china education television'
p1263
g2
(g6
S'\xb8\xe6\x97\x8aU\xab\xbc?'
p1264
tp1265
Rp1266
tp1267
a(S'law'
p1268
g2
(g6
S'\xa5\xff\x16"<\xa5\xbc?'
p1269
tp1270
Rp1271
tp1272
a(S'basex'
p1273
g2
(g6
S'\xcb\x89d2)\x9f\xbc?'
p1274
tp1275
Rp1276
tp1277
a(S'xml and mime'
p1278
g2
(g6
S'G\xff6T\xf1\x97\xbc?'
p1279
tp1280
Rp1281
tp1282
a(S'david de roure'
p1283
g2
(g6
S'\xd1r&0\t\x8f\xbc?'
p1284
tp1285
Rp1286
tp1287
a(S'china low carbon forum'
p1288
g2
(g6
S'\xef\xeaZ?}\x8c\xbc?'
p1289
tp1290
Rp1291
tp1292
a(S'oasis (organization)'
p1293
g2
(g6
S'\xc6&\xbc\xd3s\x86\xbc?'
p1294
tp1295
Rp1296
tp1297
a(S'remote scripting'
p1298
g2
(g6
S'97\xdb\x89\xb6\x83\xbc?'
p1299
tp1300
Rp1301
tp1302
a(S'research statement'
p1303
g2
(g6
S'\x0f\x07\x8ak\x83}\xbc?'
p1304
tp1305
Rp1306
tp1307
a(S'xdr schema'
p1308
g2
(g6
S'\x06\xac|\xff\xd4|\xbc?'
p1309
tp1310
Rp1311
tp1312
a(S'national hellenic research foundation'
p1313
g2
(g6
S'T\x12\xd7\x1ary\xbc?'
p1314
tp1315
Rp1316
tp1317
a(S'channel four television corporation'
p1318
g2
(g6
S'\xfd\x9f\x877\xc0t\xbc?'
p1319
tp1320
Rp1321
tp1322
a(S'china'
p1323
g2
(g6
S'\xe29:#\xa8f\xbc?'
p1324
tp1325
Rp1326
tp1327
a(S'v-2 rocket'
p1328
g2
(g6
S'_r\xac*\x9bc\xbc?'
p1329
tp1330
Rp1331
tp1332
a(S'red river valley research corridor'
p1333
g2
(g6
S'\xa59\x8b\xcb\xa5]\xbc?'
p1334
tp1335
Rp1336
tp1337
a(S'canonical s-expressions'
p1338
g2
(g6
S'\x8dL\xa5\xa1gS\xbc?'
p1339
tp1340
Rp1341
tp1342
a(S'particle (disambiguation)'
p1343
g2
(g6
S'\xa1\x8a\x99H\xa8N\xbc?'
p1344
tp1345
Rp1346
tp1347
a(S'pavell\xc3\xb3 de la rep\xc3\xbablica crai library'
p1348
g2
(g6
S'}\x1e\xbbE2F\xbc?'
p1349
tp1350
Rp1351
tp1352
a(S'purexml'
p1353
g2
(g6
S'E"\x85I\xdc@\xbc?'
p1354
tp1355
Rp1356
tp1357
a(S'list of software that supports office open xml'
p1358
g2
(g6
S'\xeez1\xf3\x88@\xbc?'
p1359
tp1360
Rp1361
tp1362
a(S'ccpit patent & trademark law office'
p1363
g2
(g6
S'}\x06O<%:\xbc?'
p1364
tp1365
Rp1366
tp1367
a(S'rpp'
p1368
g2
(g6
S'\xca\xca*\x1c\xa48\xbc?'
p1369
tp1370
Rp1371
tp1372
a(S'haringey parks constabulary'
p1373
g2
(g6
S'\xa37n\xe4\xb2 \xbc?'
p1374
tp1375
Rp1376
tp1377
a(S'list of statutes of china'
p1378
g2
(g6
S'K\xf0\x16\xee\x89\x1f\xbc?'
p1379
tp1380
Rp1381
tp1382
a(S'science policy research unit'
p1383
g2
(g6
S'\xffp$\xe1\x9f\x1c\xbc?'
p1384
tp1385
Rp1386
tp1387
a(S'brunswick, victoria'
p1388
g2
(g6
S'HW\x02\xd1\x08\x1c\xbc?'
p1389
tp1390
Rp1391
tp1392
a(S'list of chinese-language television channels'
p1393
g2
(g6
S'\xb6\x17#LG\x17\xbc?'
p1394
tp1395
Rp1396
tp1397
a(S'idea: the intellectual property law review'
p1398
g2
(g6
S'\x95\t\x89\xbcr\x12\xbc?'
p1399
tp1400
Rp1401
tp1402
a(S'list of unix daemons'
p1403
g2
(g6
S'\xaa\xa0im\xc7\x01\xbc?'
p1404
tp1405
Rp1406
tp1407
a(S'xml events'
p1408
g2
(g6
S'S`\xdbiT\xf3\xbb?'
p1409
tp1410
Rp1411
tp1412
a(S'jackson (api)'
p1413
g2
(g6
S'\xe69f\xe6\xc7\xf2\xbb?'
p1414
tp1415
Rp1416
tp1417
a(S'amoeba (operating system)'
p1418
g2
(g6
S'2\xfc\x06\xae\xc2\xec\xbb?'
p1419
tp1420
Rp1421
tp1422
a(S'clinical practice research datalink'
p1423
g2
(g6
S'R\x0e \x9b\x9e\xec\xbb?'
p1424
tp1425
Rp1426
tp1427
a(S'american bar association model rules of professional conduct'
p1428
g2
(g6
S'\x1b\xef\xd0^;\xea\xbb?'
p1429
tp1430
Rp1431
tp1432
a(S'paul s\xc3\xb6ding'
p1433
g2
(g6
S']T\xf19\x01\xe7\xbb?'
p1434
tp1435
Rp1436
tp1437
a(S'canarie'
p1438
g2
(g6
S'\xd7\xd2u\xfbQ\xe2\xbb?'
p1439
tp1440
Rp1441
tp1442
a(S'east asian bureau of economic research'
p1443
g2
(g6
S'\x88\x9b\xba\x99\x99\xe1\xbb?'
p1444
tp1445
Rp1446
tp1447
a(S'channel 5'
p1448
g2
(g6
S'Z\xe1j\xd4\xf6\xdc\xbb?'
p1449
tp1450
Rp1451
tp1452
a(S'unique particle attribution'
p1453
g2
(g6
S'\xe0\xec\x1e\x94z\xd4\xbb?'
p1454
tp1455
Rp1456
tp1457
a(S'networked transport of rtcm via internet protocol'
p1458
g2
(g6
S'\xb8\tKU\xe1\xcb\xbb?'
p1459
tp1460
Rp1461
tp1462
a(S'china economic yearbook'
p1463
g2
(g6
S'p@*\x949\xca\xbb?'
p1464
tp1465
Rp1466
tp1467
a(S'cduce'
p1468
g2
(g6
S'\xca\xda\x7f\xfe*\xc8\xbb?'
p1469
tp1470
Rp1471
tp1472
a(S'gujarat national law university'
p1473
g2
(g6
S'\xb8\x1f/\x19=\xc6\xbb?'
p1474
tp1475
Rp1476
tp1477
a(S'north american presbyterian and reformed council'
p1478
g2
(g6
S'\xab\x0e\t\xa3\xa9\xc3\xbb?'
p1479
tp1480
Rp1481
tp1482
a(S'la rep\xc3\xbablica'
p1483
g2
(g6
S'\xa5\xdcj\xc3\xcf\xbf\xbb?'
p1484
tp1485
Rp1486
tp1487
a(S'canadian property law'
p1488
g2
(g6
S'X\xf0\xfc\xde/\xb9\xbb?'
p1489
tp1490
Rp1491
tp1492
a(S'sharon hayes'
p1493
g2
(g6
S'BH)g\x94\xb8\xbb?'
p1494
tp1495
Rp1496
tp1497
a(S'contention-based protocol'
p1498
g2
(g6
S'_\xd8K!\xf1\xb5\xbb?'
p1499
tp1500
Rp1501
tp1502
a(S'research ethics'
p1503
g2
(g6
S' \xca\x89\xc1\xc2\xab\xbb?'
p1504
tp1505
Rp1506
tp1507
a(S'china academy of launch vehicle technology'
p1508
g2
(g6
S'\x1dI\xa2(\xae\xab\xbb?'
p1509
tp1510
Rp1511
tp1512
a.