(lp0
(S'salesforce.com'
p1
cnumpy.core.multiarray
scalar
p2
(cnumpy
dtype
p3
(S'f8'
p4
I0
I1
tp5
Rp6
(I3
S'<'
p7
NNNI-1
I-1
I0
tp8
bS'\x00\x00\x00\x00\x00\x00\xf0?'
p9
tp10
Rp11
tp12
a(S'salesforce marketing cloud'
p13
g2
(g6
S'G\x88\xcc\x1b\xdc\x10\xe7?'
p14
tp15
Rp16
tp17
a(S'marc benioff'
p18
g2
(g6
S'\xac\xe0b+L\xa3\xe6?'
p19
tp20
Rp21
tp22
a(S'financialforce.com'
p23
g2
(g6
S'\xc3\xe9:\xb4b\x1e\xe6?'
p24
tp25
Rp26
tp27
a(S'crm science'
p28
g2
(g6
S'\x19\x84\xc3#\xda\x15\xe5?'
p29
tp30
Rp31
tp32
a(S'cirrus insight'
p33
g2
(g6
S'5\xd3\x81\x88\xd8\x96\xe3?'
p34
tp35
Rp36
tp37
a(S'50 fremont center'
p38
g2
(g6
S'%\xa1\xc2\x14X3\xe3?'
p39
tp40
Rp41
tp42
a(S'symphonic source, inc.'
p43
g2
(g6
S'q!\xd4H\xc9\xfa\xe2?'
p44
tp45
Rp46
tp47
a(S'desk.com'
p48
g2
(g6
S'\xb5\x01\x88\n\xfeE\xe2?'
p49
tp50
Rp51
tp52
a(S'hoopla software'
p53
g2
(g6
S'\x9a\xcc]\xee>:\xe2?'
p54
tp55
Rp56
tp57
a(S'sharemethods'
p58
g2
(g6
S'n\xa1\xdap\x04\x16\xe2?'
p59
tp60
Rp61
tp62
a(S'clearmeeting'
p63
g2
(g6
S'\xda\x9e\xe0^\x9f\xa8\xe0?'
p64
tp65
Rp66
tp67
a(S'ribbit (telecommunications company)'
p68
g2
(g6
S'G,\xc6L=\xa2\xe0?'
p69
tp70
Rp71
tp72
a(S'coveo'
p73
g2
(g6
S'\xae#<\xd1\t\x0e\xe0?'
p74
tp75
Rp76
tp77
a(S'advendio'
p78
g2
(g6
S'\xac\x11\xc7\xf9\xc6$\xde?'
p79
tp80
Rp81
tp82
a(S'appirio'
p83
g2
(g6
S'\xc9\xb1\n)\xec@\xdc?'
p84
tp85
Rp86
tp87
a(S'salesforce tower'
p88
g2
(g6
S'a\xba\xc8\xfb\xedt\xda?'
p89
tp90
Rp91
tp92
a(S'servicemax'
p93
g2
(g6
S'\x99\x80\xfb\x01\xb9\xbf\xd9?'
p94
tp95
Rp96
tp97
a(S'fileboard'
p98
g2
(g6
S'\\(\x9f:/\xa2\xd9?'
p99
tp100
Rp101
tp102
a(S'comparison of psa systems'
p103
g2
(g6
S'\xff\x16\xf2\xd1\xd7{\xd9?'
p104
tp105
Rp106
tp107
a(S'salesforceiq'
p108
g2
(g6
S'\xa8m\xd1\x0f ^\xd9?'
p109
tp110
Rp111
tp112
a(S'chuck dietrich'
p113
g2
(g6
S'\xc1l\x11/B\x00\xd9?'
p114
tp115
Rp116
tp117
a(S'appextremes'
p118
g2
(g6
S'\x0f\xef\x0c@\x87\x12\xd8?'
p119
tp120
Rp121
tp122
a(S'zuora'
p123
g2
(g6
S'\x89\x19\x83\xce\xa8\xf8\xd7?'
p124
tp125
Rp126
tp127
a(S'1095 avenue of the americas'
p128
g2
(g6
S'\xb8\xb0\x95\xb5\x1d\x93\xd7?'
p129
tp130
Rp131
tp132
a(S'interactive marketing'
p133
g2
(g6
S'^\x05\xbe\xfe\x07~\xd7?'
p134
tp135
Rp136
tp137
a(S'lucidera'
p138
g2
(g6
S'"I\x1ayq\xd8\xd6?'
p139
tp140
Rp141
tp142
a(S'marlabs'
p143
g2
(g6
S'g\x08\xce\x93\xb0\xbe\xd6?'
p144
tp145
Rp146
tp147
a(S'springcm'
p148
g2
(g6
S'\xabb\x92\x18 >\xd6?'
p149
tp150
Rp151
tp152
a(S'kenshoo'
p153
g2
(g6
S't\xb9B\xa6d\xb1\xd5?'
p154
tp155
Rp156
tp157
a(S'clicksoftware technologies'
p158
g2
(g6
S'\xf9\x07\x1e\x05q\xa6\xd5?'
p159
tp160
Rp161
tp162
a(S'julian teicke'
p163
g2
(g6
S'\x9d&\xc9\xe2\x87\x92\xd5?'
p164
tp165
Rp166
tp167
a(S'radius (software company)'
p168
g2
(g6
S'\xde\x89\xf199\x91\xd5?'
p169
tp170
Rp171
tp172
a(S'perficient'
p173
g2
(g6
S'3&#U\xd0\x85\xd5?'
p174
tp175
Rp176
tp177
a(S'shareoffice'
p178
g2
(g6
S'y\xc7\xe7\x08\xe3A\xd5?'
p179
tp180
Rp181
tp182
a(S'apatar'
p183
g2
(g6
S'~&&g\xa1$\xd5?'
p184
tp185
Rp186
tp187
a(S'dreamfactory software'
p188
g2
(g6
S'\x16\xc1\x91\x01\xbe\x01\xd5?'
p189
tp190
Rp191
tp192
a(S'baseline ventures'
p193
g2
(g6
S"\x8b'\xc7j\x10M\xd4?"
p194
tp195
Rp196
tp197
a(S'350 mission street'
p198
g2
(g6
S'\xd6\x01$\x9cy\x04\xd4?'
p199
tp200
Rp201
tp202
a(S'pulse impact investing management software'
p203
g2
(g6
S'\xfcz} ,p\xd3?'
p204
tp205
Rp206
tp207
a(S'angel (company)'
p208
g2
(g6
S'\xa4\x95\xa8\xa6A\x14\xd3?'
p209
tp210
Rp211
tp212
a(S'qontext'
p213
g2
(g6
S'\xea\x1fAg\xdd\xf5\xd2?'
p214
tp215
Rp216
tp217
a(S'salesforce tower (indianapolis)'
p218
g2
(g6
S'\xa7\x9e\x035\x8b\xd7\xd2?'
p219
tp220
Rp221
tp222
a(S'velaro, inc.'
p223
g2
(g6
S'\x98\xa5\xa2\xd8\xcf\xb6\xd2?'
p224
tp225
Rp226
tp227
a(S'natterbox'
p228
g2
(g6
S'vJGJb1\xd2?'
p229
tp230
Rp231
tp232
a(S'system for cross-domain identity management'
p233
g2
(g6
S'\xd2p$\x15D\x99\xd1?'
p234
tp235
Rp236
tp237
a(S'cloudlock'
p238
g2
(g6
S'\xb7\x88\x13\x93\xc2\x91\xd1?'
p239
tp240
Rp241
tp242
a(S'business.com'
p243
g2
(g6
S'K\xact\xd3\xc6\\\xd1?'
p244
tp245
Rp246
tp247
a(S'cloud sherpas'
p248
g2
(g6
S'\xb4\xf8<E\xac-\xd1?'
p249
tp250
Rp251
tp252
a(S'seesmic'
p253
g2
(g6
S'\x95RJ\xe0\xfe\xe7\xd0?'
p254
tp255
Rp256
tp257
a(S'surveymonkey'
p258
g2
(g6
S'\xc4\xc2\xa7\xf0\xcc\xd3\xd0?'
p259
tp260
Rp261
tp262
a(S'openview venture partners'
p263
g2
(g6
S'~8\xfeXZ\xc5\xd0?'
p264
tp265
Rp266
tp267
a(S'introhive'
p268
g2
(g6
S'\xcf\xf7)\x85h\xa4\xd0?'
p269
tp270
Rp271
tp272
a(S'freespee'
p273
g2
(g6
S'\x18\r\xbf\xb7,\xa2\xd0?'
p274
tp275
Rp276
tp277
a(S'angoss'
p278
g2
(g6
S'\xeen\x95\xaaB|\xd0?'
p279
tp280
Rp281
tp282
a(S'pipedrive'
p283
g2
(g6
S'a\x12\x99\x83\x96v\xd0?'
p284
tp285
Rp286
tp287
a(S'contactually'
p288
g2
(g6
S'j\x9b\xe8E\xb7^\xd0?'
p289
tp290
Rp291
tp292
a(S'insideview'
p293
g2
(g6
S'8!l-RU\xd0?'
p294
tp295
Rp296
tp297
a(S'netdocuments'
p298
g2
(g6
S'\xe9[J"S@\xd0?'
p299
tp300
Rp301
tp302
a(S'scott dorsey'
p303
g2
(g6
S'\xdf;m\xe9 .\xd0?'
p304
tp305
Rp306
tp307
a(S'samepage'
p308
g2
(g6
S'$\xc2\x18)\xd5\x17\xd0?'
p309
tp310
Rp311
tp312
a(S'formassembly'
p313
g2
(g6
S'{E)50\x12\xd0?'
p314
tp315
Rp316
tp317
a(S'keith raffel'
p318
g2
(g6
S'6\x9f*\xdb\xa7\xe7\xcf?'
p319
tp320
Rp321
tp322
a(S'lendingpoint'
p323
g2
(g6
S'm\x1a\x89Zg\xe4\xcf?'
p324
tp325
Rp326
tp327
a(S'yesware'
p328
g2
(g6
S'\x9d\xb7\x1f=\x03\xd6\xcf?'
p329
tp330
Rp331
tp332
a(S'southern pacific building'
p333
g2
(g6
S' \xada)]\xc1\xcf?'
p334
tp335
Rp336
tp337
a(S'bullhorn, inc.'
p338
g2
(g6
S'\xa5J \xf2C\x86\xcf?'
p339
tp340
Rp341
tp342
a(S'zoho corporation'
p343
g2
(g6
S'a\xf2\x1c\x99<a\xcf?'
p344
tp345
Rp346
tp347
a(S'helloworld inc'
p348
g2
(g6
S'\xf2\xacq0\x89L\xcf?'
p349
tp350
Rp351
tp352
a(S'thousandeyes'
p353
g2
(g6
S'\x00\x1e\x16\xf2\xbf?\xcf?'
p354
tp355
Rp356
tp357
a(S'bluejeans network'
p358
g2
(g6
S'\xd6\xba\x7f*\xce\x1d\xcf?'
p359
tp360
Rp361
tp362
a(S'oracle powerbrowser'
p363
g2
(g6
S'\xcd\xb9\xa7\xf4\x05\x1d\xcf?'
p364
tp365
Rp366
tp367
a(S'involver, inc.'
p368
g2
(g6
S'\xa0e\xb1\xcf\x1b\x12\xcf?'
p369
tp370
Rp371
tp372
a(S'vivek kundra'
p373
g2
(g6
S'\xa1\xd4R\x03\x16\xd4\xce?'
p374
tp375
Rp376
tp377
a(S'syscloud'
p378
g2
(g6
S'tpa\x10\xac\xb4\xce?'
p379
tp380
Rp381
tp382
a(S'customer relationship management'
p383
g2
(g6
S'\x0e\xf8\xbf\xe8O\xa0\xce?'
p384
tp385
Rp386
tp387
a(S'e-novation'
p388
g2
(g6
S'\xb2\xda\xb0\x88/\x9c\xce?'
p389
tp390
Rp391
tp392
a(S'xactly corporation'
p393
g2
(g6
S'C\x04\x00\xb3r\x95\xce?'
p394
tp395
Rp396
tp397
a(S'concursive'
p398
g2
(g6
S'[i\xeb\xfb\xd4~\xce?'
p399
tp400
Rp401
tp402
a(S'jotform'
p403
g2
(g6
S'\xce\xb8\xc6H\xf0|\xce?'
p404
tp405
Rp406
tp407
a(S'gary william flake'
p408
g2
(g6
S'\\z\x9c\x17\x84r\xce?'
p409
tp410
Rp411
tp412
a(S'clark construction'
p413
g2
(g6
S'\r\xcd\xe5}\xb1p\xce?'
p414
tp415
Rp416
tp417
a(S'coderdojo'
p418
g2
(g6
S'\tnc\x1f\xa9l\xce?'
p419
tp420
Rp421
tp422
a(S'heroku'
p423
g2
(g6
S'D\xb6x\xcb\x05W\xce?'
p424
tp425
Rp426
tp427
a(S'method (experience design firm)'
p428
g2
(g6
S'\x15R\x1b?u\x13\xce?'
p429
tp430
Rp431
tp432
a(S'assuresign'
p433
g2
(g6
S'\x9fR\x18q\xd9\xcc\xcd?'
p434
tp435
Rp436
tp437
a(S'bigmachines'
p438
g2
(g6
S'\xd3\xe6\x9aWy\xac\xcd?'
p439
tp440
Rp441
tp442
a(S'perspecsys'
p443
g2
(g6
S'\xaf\xa4\xf1"\xca\x89\xcd?'
p444
tp445
Rp446
tp447
a(S'newvoicemedia'
p448
g2
(g6
S']C\x15/x}\xcd?'
p449
tp450
Rp451
tp452
a(S'mulesoft'
p453
g2
(g6
S'\xe8\xa8\x88\x93\xceK\xcd?'
p454
tp455
Rp456
tp457
a(S'single-letter second-level domain'
p458
g2
(g6
S'|\xe5\x81\x88<<\xcd?'
p459
tp460
Rp461
tp462
a(S'neolane'
p463
g2
(g6
S'\x9d\xae\x8e\xb9z5\xcd?'
p464
tp465
Rp466
tp467
a(S'dimdim'
p468
g2
(g6
S'oe\xebK^0\xcd?'
p469
tp470
Rp471
tp472
a(S'helpshift'
p473
g2
(g6
S'\x1c\xa3*\xf4\xb4(\xcd?'
p474
tp475
Rp476
tp477
a(S'inovall\xc3\xa9e'
p478
g2
(g6
S'\xc6\xeb\x98\x83\xbc\xf6\xcc?'
p479
tp480
Rp481
tp482
a(S'.com'
p483
g2
(g6
S'\x03\xe3\x19\xc1\xfe\xbb\xcc?'
p484
tp485
Rp486
tp487
a(S'xait'
p488
g2
(g6
S'P\xbc\xba_f\x83\xcc?'
p489
tp490
Rp491
tp492
a(S'esnatech'
p493
g2
(g6
S'\x0f\x80\xb3\x1d\xd9q\xcc?'
p494
tp495
Rp496
tp497
a(S'editgrid'
p498
g2
(g6
S'\xa1\x93\xe9w\x1e\xf7\xcb?'
p499
tp500
Rp501
tp502
a(S'leadspace'
p503
g2
(g6
S'^\xbe+DQ\xed\xcb?'
p504
tp505
Rp506
tp507
a(S'sitrion'
p508
g2
(g6
S'0\xf8C\xffU\xe5\xcb?'
p509
tp510
Rp511
tp512
a(S'stratton sclavos'
p513
g2
(g6
S'h\xbd\x91\xdb\xed\xd9\xcb?'
p514
tp515
Rp516
tp517
a(S'roambi'
p518
g2
(g6
S'\xa4e\xe2/\xda\xc4\xcb?'
p519
tp520
Rp521
tp522
a(S'base crm'
p523
g2
(g6
S'\xae\xd1\xe4\x13{\xb9\xcb?'
p524
tp525
Rp526
tp527
a(S'michael lazerow'
p528
g2
(g6
S'\xbd\xed\x12\xb0(\xa7\xcb?'
p529
tp530
Rp531
tp532
a(S'revulytics'
p533
g2
(g6
S'\xd1\x0b[HV\x9d\xcb?'
p534
tp535
Rp536
tp537
a(S'pegasystems'
p538
g2
(g6
S'\xa1\xc5\x9c\x9f\x12\x92\xcb?'
p539
tp540
Rp541
tp542
a(S'aprimo'
p543
g2
(g6
S'?\xfab\xe6\xdbf\xcb?'
p544
tp545
Rp546
tp547
a(S'demandbase'
p548
g2
(g6
S'{R\xf7r\xabK\xcb?'
p549
tp550
Rp551
tp552
a(S'mark skapinker'
p553
g2
(g6
S'^:\xfe\x8d\xceI\xcb?'
p554
tp555
Rp556
tp557
a(S'peoplelinx'
p558
g2
(g6
S"\xca\xcd'\xde\x8d1\xcb?"
p559
tp560
Rp561
tp562
a(S'calliduscloud'
p563
g2
(g6
S'\xae4b\xeen\x19\xcb?'
p564
tp565
Rp566
tp567
a(S'mindtouch'
p568
g2
(g6
S'\x06O\xf0\xdc\xa5\t\xcb?'
p569
tp570
Rp571
tp572
a(S'pitchbook data'
p573
g2
(g6
S'\x8e\x0c\xfa8\x00\xf0\xca?'
p574
tp575
Rp576
tp577
a(S'vsee'
p578
g2
(g6
S'\xcc\xab]\x97\x96\x95\xca?'
p579
tp580
Rp581
tp582
a(S'the alchemist accelerator'
p583
g2
(g6
S'\x99#\xf7\xd5\xac\x88\xca?'
p584
tp585
Rp586
tp587
a(S'meritech capital partners'
p588
g2
(g6
S'\xd6h\x14\xc3\xbd\x85\xca?'
p589
tp590
Rp591
tp592
a(S'velocify'
p593
g2
(g6
S'Z3|\x87Hz\xca?'
p594
tp595
Rp596
tp597
a(S'list of oauth providers'
p598
g2
(g6
S'\xb8\x92\x81\xde\x04y\xca?'
p599
tp600
Rp601
tp602
a(S'list of most expensive domain names'
p603
g2
(g6
S'\xb2\xeb\xa5u\xd9k\xca?'
p604
tp605
Rp606
tp607
a(S'xendo'
p608
g2
(g6
S'\x8f\xf2\xadY\xb2_\xca?'
p609
tp610
Rp611
tp612
a(S'act-on'
p613
g2
(g6
S'1\nx\xa3\x9bI\xca?'
p614
tp615
Rp616
tp617
a(S'informatica'
p618
g2
(g6
S'\x0f\xc3\x9e\x18\xf7@\xca?'
p619
tp620
Rp621
tp622
a(S'telesoft partners'
p623
g2
(g6
S'o\xd5\x11\xce7?\xca?'
p624
tp625
Rp626
tp627
a(S'usher (software)'
p628
g2
(g6
S'?\xbc\x8b7\xe13\xca?'
p629
tp630
Rp631
tp632
a(S'customer intelligence'
p633
g2
(g6
S'\n\xec\xcdt\x9a-\xca?'
p634
tp635
Rp636
tp637
a(S'telax hosted call center'
p638
g2
(g6
S'\xf1\xa0&\xaa\xb4\x11\xca?'
p639
tp640
Rp641
tp642
a(S'livechat'
p643
g2
(g6
S'\x96:\x14\xc1*\t\xca?'
p644
tp645
Rp646
tp647
a(S'navatar group'
p648
g2
(g6
S'\x14\t\xb2\xe0P\x08\xca?'
p649
tp650
Rp651
tp652
a(S'persistent systems'
p653
g2
(g6
S'\xa8\x84N\xc8\xa0\xc2\xc9?'
p654
tp655
Rp656
tp657
a(S'addepar'
p658
g2
(g6
S']\xe4\x98R\\\xbb\xc9?'
p659
tp660
Rp661
tp662
a(S'mileiq'
p663
g2
(g6
S'vn\xe2b\x9d\xb9\xc9?'
p664
tp665
Rp666
tp667
a(S'snaplogic'
p668
g2
(g6
S'\xbb\x1eH\xee&\xa4\xc9?'
p669
tp670
Rp671
tp672
a(S'ecrm'
p673
g2
(g6
S'\xf2#\xe6s\x83\x97\xc9?'
p674
tp675
Rp676
tp677
a(S'glance networks'
p678
g2
(g6
S'\x97h8\x8a\xf5T\xc9?'
p679
tp680
Rp681
tp682
a(S'alex edelstein'
p683
g2
(g6
S'\x8e\xd8}\xfe\xb7P\xc9?'
p684
tp685
Rp686
tp687
a(S'rebecca enonchong'
p688
g2
(g6
S'A\xc6\x81#\x0bB\xc9?'
p689
tp690
Rp691
tp692
a(S'etouches'
p693
g2
(g6
S'\xd3s\x8e\x95\xae/\xc9?'
p694
tp695
Rp696
tp697
a(S'bunchball'
p698
g2
(g6
S'oe\xa1}$\x10\xc9?'
p699
tp700
Rp701
tp702
a(S'dotmailer'
p703
g2
(g6
S'{\xc6|gy\x08\xc9?'
p704
tp705
Rp706
tp707
a(S'independent software vendor'
p708
g2
(g6
S'\xad\x83Z\xec\xc4\xe5\xc8?'
p709
tp710
Rp711
tp712
a(S'servicenow'
p713
g2
(g6
S'\xe0\xeb0\xf8\xc5\xdf\xc8?'
p714
tp715
Rp716
tp717
a(S'inrule technology'
p718
g2
(g6
S'S\xd2\xcc\xfa\xe5\xc1\xc8?'
p719
tp720
Rp721
tp722
a(S'ciphercloud'
p723
g2
(g6
S':\xa6\x1f0|\xb4\xc8?'
p724
tp725
Rp726
tp727
a(S'cloudshare'
p728
g2
(g6
S'\\\xf9\xd3\x08V\xa8\xc8?'
p729
tp730
Rp731
tp732
a(S'san francisco transbay development'
p733
g2
(g6
S'\x92\xec\xc5\x82:\x83\xc8?'
p734
tp735
Rp736
tp737
a(S'hackathon'
p738
g2
(g6
S'I !\xadn\\\xc8?'
p739
tp740
Rp741
tp742
a(S'telemagic'
p743
g2
(g6
S'\x18\xe4\xf4\xcf(X\xc8?'
p744
tp745
Rp746
tp747
a(S'morfik'
p748
g2
(g6
S'\xeb\xea/\xb93@\xc8?'
p749
tp750
Rp751
tp752
a(S'betterworks'
p753
g2
(g6
S'\xd9H\xe7\r\x882\xc8?'
p754
tp755
Rp756
tp757
a(S'component object model'
p758
g2
(g6
S'0\x81\x8d\xa3($\xc8?'
p759
tp760
Rp761
tp762
a(S'filesanywhere'
p763
g2
(g6
S'\x9ev}\x1c\x0f#\xc8?'
p764
tp765
Rp766
tp767
a(S'osf global services'
p768
g2
(g6
S'\xd9x\xf9\x94B\x1f\xc8?'
p769
tp770
Rp771
tp772
a(S'openid connect'
p773
g2
(g6
S'\xe0\x13\xbf\x9f\x9c\xeb\xc7?'
p774
tp775
Rp776
tp777
a(S'backupify'
p778
g2
(g6
S'v\xc9\xaa\x1ca\xc9\xc7?'
p779
tp780
Rp781
tp782
a(S'companionlink'
p783
g2
(g6
S'G\x88\x80\xd61\xb1\xc7?'
p784
tp785
Rp786
tp787
a(S'tempo (app)'
p788
g2
(g6
S'\rV \xb1;\xa9\xc7?'
p789
tp790
Rp791
tp792
a(S'cloud elements'
p793
g2
(g6
S'L\x9b\xef\xe6\xc7\xa1\xc7?'
p794
tp795
Rp796
tp797
a(S'smartsheet'
p798
g2
(g6
S'WC\xfce7\x99\xc7?'
p799
tp800
Rp801
tp802
a(S'boattrader.com'
p803
g2
(g6
S'\x0eK\xb2\xd8Il\xc7?'
p804
tp805
Rp806
tp807
a(S'10th annual cybersocket web awards'
p808
g2
(g6
S'\xd0\xd0\xad\x82\x14k\xc7?'
p809
tp810
Rp811
tp812
a(S'redseal'
p813
g2
(g6
S'\xfb\x86\x88\t\tG\xc7?'
p814
tp815
Rp816
tp817
a(S'talkdesk'
p818
g2
(g6
S'SG\\\x95a<\xc7?'
p819
tp820
Rp821
tp822
a(S'adam bosworth'
p823
g2
(g6
S'/\xca\x8d\xa4Q2\xc7?'
p824
tp825
Rp826
tp827
a(S'nutshell crm'
p828
g2
(g6
S'\x8ba\xf0\xd7\x0e%\xc7?'
p829
tp830
Rp831
tp832
a(S'linguasys'
p833
g2
(g6
S'=\xb9W\xe4]\x1f\xc7?'
p834
tp835
Rp836
tp837
a(S'trello'
p838
g2
(g6
S"'\xcaaB\x84\x08\xc7?"
p839
tp840
Rp841
tp842
a(S'illumio'
p843
g2
(g6
S'\x93\xb1=\xedz\xfe\xc6?'
p844
tp845
Rp846
tp847
a(S'engagio'
p848
g2
(g6
S'E\xa4c\x96\xe9\xf4\xc6?'
p849
tp850
Rp851
tp852
a(S'living direct'
p853
g2
(g6
S'\x11\xaa\x12\x89;\xf0\xc6?'
p854
tp855
Rp856
tp857
a(S'badgeville'
p858
g2
(g6
S'\x84k\x1ewf\xda\xc6?'
p859
tp860
Rp861
tp862
a(S'3com'
p863
g2
(g6
S'H\xe8\x9c\xaa\x95\xd0\xc6?'
p864
tp865
Rp866
tp867
a(S'knoa software'
p868
g2
(g6
S'\xee\xd5+l\xf5\xce\xc6?'
p869
tp870
Rp871
tp872
a(S'tod nielsen'
p873
g2
(g6
S'\x8a\xe7\xd6\xd2\xad\xc5\xc6?'
p874
tp875
Rp876
tp877
a(S'on24'
p878
g2
(g6
S'\xb6\xc5\r\x10\xea\xa4\xc6?'
p879
tp880
Rp881
tp882
a(S'accesspay'
p883
g2
(g6
S'1\xe5\xaa\x0c\xe2\x9c\xc6?'
p884
tp885
Rp886
tp887
a(S'geodomain'
p888
g2
(g6
S'\xa0\xe3/\xb2\xe2\x92\xc6?'
p889
tp890
Rp891
tp892
a(S'socialtext'
p893
g2
(g6
S'\x07\xfa\xb3\xf95\x91\xc6?'
p894
tp895
Rp896
tp897
a(S'morfik fx'
p898
g2
(g6
S'\x13\xec\xe21\x10\x8f\xc6?'
p899
tp900
Rp901
tp902
a(S'mark suster'
p903
g2
(g6
S'D5\xebT\x92\x88\xc6?'
p904
tp905
Rp906
tp907
a(S'scale venture partners'
p908
g2
(g6
S'g\xea\x04l\xc7\x82\xc6?'
p909
tp910
Rp911
tp912
a(S'mail.com'
p913
g2
(g6
S'&\xc3,\xcb\xa8|\xc6?'
p914
tp915
Rp916
tp917
a(S'heron tower'
p918
g2
(g6
S'`\xe3*\x08vu\xc6?'
p919
tp920
Rp921
tp922
a(S'bernard dalle'
p923
g2
(g6
S'\x8f\xf8\xf8E)s\xc6?'
p924
tp925
Rp926
tp927
a(S'playworks (organization)'
p928
g2
(g6
S'\xde\x8d$S%f\xc6?'
p929
tp930
Rp931
tp932
a(S'trumaker & co.'
p933
g2
(g6
S'>w\x8c\xc1\xefQ\xc6?'
p934
tp935
Rp936
tp937
a(S'media in philadelphia'
p938
g2
(g6
S'\xb1\x18\t\x88\xc4A\xc6?'
p939
tp940
Rp941
tp942
a(S'oracle crm'
p943
g2
(g6
S'\xd2<\x15\x92\xc6*\xc6?'
p944
tp945
Rp946
tp947
a(S'simplesignal'
p948
g2
(g6
S'\x06.\xb1\x7f\x1b\x1f\xc6?'
p949
tp950
Rp951
tp952
a(S'sales force management system'
p953
g2
(g6
S'\xc0|\x9e\xd4\x83\x15\xc6?'
p954
tp955
Rp956
tp957
a(S'codie award'
p958
g2
(g6
S'j\xf6\x9d\xba.\x11\xc6?'
p959
tp960
Rp961
tp962
a(S'people finder interchange format'
p963
g2
(g6
S'\x88\xd1\xcc\xfa0\xf2\xc5?'
p964
tp965
Rp966
tp967
a(S'datto, inc.'
p968
g2
(g6
S'\x8f\x0f,\xe6\xf3\xdf\xc5?'
p969
tp970
Rp971
tp972
a(S'arcobjects'
p973
g2
(g6
S'\xf0@\xf8{\x1e\xdd\xc5?'
p974
tp975
Rp976
tp977
a(S'b2w'
p978
g2
(g6
S'`rK\xd0n\xd9\xc5?'
p979
tp980
Rp981
tp982
a(S'zendesk'
p983
g2
(g6
S'u\xe8\xbc<\\\xd3\xc5?'
p984
tp985
Rp986
tp987
a(S'anaplan'
p988
g2
(g6
S'?\x83\x96o\x8d\xd0\xc5?'
p989
tp990
Rp991
tp992
a(S'loginradius'
p993
g2
(g6
S'w\xe9\xe65\xfa\xad\xc5?'
p994
tp995
Rp996
tp997
a(S'augment (app)'
p998
g2
(g6
S'\x07\t\xa2E&\xa5\xc5?'
p999
tp1000
Rp1001
tp1002
a(S'alfresco (software)'
p1003
g2
(g6
S'\xc2\x0b\x1e\x81\xda\xa3\xc5?'
p1004
tp1005
Rp1006
tp1007
a(S'viziapps'
p1008
g2
(g6
S"O'\x1c\x0b\xfc\x9f\xc5?"
p1009
tp1010
Rp1011
tp1012
a(S'twilio'
p1013
g2
(g6
S'\x08\x13N\xe4\xd2\x8d\xc5?'
p1014
tp1015
Rp1016
tp1017
a(S'careerbuilder'
p1018
g2
(g6
S'\x91I\x1eV\xa4\x88\xc5?'
p1019
tp1020
Rp1021
tp1022
a(S'coupa'
p1023
g2
(g6
S'/\x8d\x9c\xa7e\x7f\xc5?'
p1024
tp1025
Rp1026
tp1027
a(S'tx1'
p1028
g2
(g6
S'\x18\xa6\t\x87Ov\xc5?'
p1029
tp1030
Rp1031
tp1032
a(S'crm'
p1033
g2
(g6
S'\x92?\x9a2\xadm\xc5?'
p1034
tp1035
Rp1036
tp1037
a(S'bettercloud'
p1038
g2
(g6
S'1Ub"X^\xc5?'
p1039
tp1040
Rp1041
tp1042
a(S'contractexpress'
p1043
g2
(g6
S'\x8e\xabj\x83HU\xc5?'
p1044
tp1045
Rp1046
tp1047
a(S'scott wainner'
p1048
g2
(g6
S'G\xb9\x05\x98\xd2S\xc5?'
p1049
tp1050
Rp1051
tp1052
a(S'blackbaud'
p1053
g2
(g6
S'\xb9\xbcQ/\xf5L\xc5?'
p1054
tp1055
Rp1056
tp1057
a(S'indegene, inc.'
p1058
g2
(g6
S'n\xb9\xf2\xfa\xa1K\xc5?'
p1059
tp1060
Rp1061
tp1062
a(S'kenneth i. juster'
p1063
g2
(g6
S'\xbbM\x18\xfe\x1d;\xc5?'
p1064
tp1065
Rp1066
tp1067
a(S'comparison of mobile crm systems'
p1068
g2
(g6
S'T\xd04x\x178\xc5?'
p1069
tp1070
Rp1071
tp1072
a(S'match.com'
p1073
g2
(g6
S'\xf9\xa3A})+\xc5?'
p1074
tp1075
Rp1076
tp1077
a(S'quinstreet'
p1078
g2
(g6
S'\xa11[\xc2\xed$\xc5?'
p1079
tp1080
Rp1081
tp1082
a(S'rajiv gupta (technocrat)'
p1083
g2
(g6
S'\x0f\xfby\x80X\x0f\xc5?'
p1084
tp1085
Rp1086
tp1087
a(S'drew bartkiewicz'
p1088
g2
(g6
S'\xf0\x9c\x99\nb\x0b\xc5?'
p1089
tp1090
Rp1091
tp1092
a(S'181 fremont'
p1093
g2
(g6
S'*M*D\xa4\t\xc5?'
p1094
tp1095
Rp1096
tp1097
a(S'domo (company)'
p1098
g2
(g6
S'#\xeb1\xffp\x01\xc5?'
p1099
tp1100
Rp1101
tp1102
a(S'birthdayexpress.com'
p1103
g2
(g6
S'%\xf3\x8b\xfaX\xf2\xc4?'
p1104
tp1105
Rp1106
tp1107
a(S'plangrid'
p1108
g2
(g6
S'T\xa5\x9f\x928\xe2\xc4?'
p1109
tp1110
Rp1111
tp1112
a(S'carros.com.co'
p1113
g2
(g6
S'\xf6\x90\xad\x8a\xf9\xdc\xc4?'
p1114
tp1115
Rp1116
tp1117
a(S'zenefits'
p1118
g2
(g6
S'\xca\xc2e5\xc9\xd6\xc4?'
p1119
tp1120
Rp1121
tp1122
a(S'paradisolms'
p1123
g2
(g6
S'\xef/\x98\x9b1\xc5\xc4?'
p1124
tp1125
Rp1126
tp1127
a(S'hubspot'
p1128
g2
(g6
S'\n\x83\tA\xa7\xbf\xc4?'
p1129
tp1130
Rp1131
tp1132
a(S'register.com'
p1133
g2
(g6
S'\xe9\xbaP7M\xb6\xc4?'
p1134
tp1135
Rp1136
tp1137
a(S'comm100 live chat'
p1138
g2
(g6
S'\xf1\x8f\x9c\xb2V\xa6\xc4?'
p1139
tp1140
Rp1141
tp1142
a(S'infofree'
p1143
g2
(g6
S'"\\G\xd4\xeev\xc4?'
p1144
tp1145
Rp1146
tp1147
a(S'splunk'
p1148
g2
(g6
S'Y\xdeDDPu\xc4?'
p1149
tp1150
Rp1151
tp1152
a(S'netbase solutions, inc.'
p1153
g2
(g6
S'n\x94\x944\x05s\xc4?'
p1154
tp1155
Rp1156
tp1157
a(S'host analytics inc'
p1158
g2
(g6
S'`\x827\x1d\x16o\xc4?'
p1159
tp1160
Rp1161
tp1162
a(S'bankrate'
p1163
g2
(g6
S'\xb6\x04\x1e\x1b\x95m\xc4?'
p1164
tp1165
Rp1166
tp1167
a(S'medallia'
p1168
g2
(g6
S'\xa4\xba%C\xebl\xc4?'
p1169
tp1170
Rp1171
tp1172
a(S'personalized marketing'
p1173
g2
(g6
S'\x1fUs\x15w`\xc4?'
p1174
tp1175
Rp1176
tp1177
a(S'intacct'
p1178
g2
(g6
S'\xf4\xca\xb8j\x99\\\xc4?'
p1179
tp1180
Rp1181
tp1182
a(S'social crm'
p1183
g2
(g6
S'\x8e\x83\x92\xd1\x02[\xc4?'
p1184
tp1185
Rp1186
tp1187
a(S'1995\xe2\x80\x9396 hnk rijeka season'
p1188
g2
(g6
S'\xfa:\xe1\xfb\x12W\xc4?'
p1189
tp1190
Rp1191
tp1192
a(S'1993\xe2\x80\x9394 nk rijeka season'
p1193
g2
(g6
S'\xfc\x17_\xc2\xd5J\xc4?'
p1194
tp1195
Rp1196
tp1197
a(S'demandware'
p1198
g2
(g6
S'\x80\x17\xe6\x86\xd2G\xc4?'
p1199
tp1200
Rp1201
tp1202
a(S'third platform'
p1203
g2
(g6
S'Z\xb1\xcao{?\xc4?'
p1204
tp1205
Rp1206
tp1207
a(S'insightly'
p1208
g2
(g6
S'\x1f\x13<\xae\x0b<\xc4?'
p1209
tp1210
Rp1211
tp1212
a(S'aaron levie'
p1213
g2
(g6
S'\xe9\t\x93~\xe99\xc4?'
p1214
tp1215
Rp1216
tp1217
a(S'aerospike database'
p1218
g2
(g6
S'V\xe3\x85\x1e:9\xc4?'
p1219
tp1220
Rp1221
tp1222
a(S'wercker'
p1223
g2
(g6
S'y\xd6\xe6PV6\xc4?'
p1224
tp1225
Rp1226
tp1227
a(S'1994\xe2\x80\x9395 nk rijeka season'
p1228
g2
(g6
S'\x02\xd8\x94\xf9l5\xc4?'
p1229
tp1230
Rp1231
tp1232
a(S'cloud computing issues'
p1233
g2
(g6
S'[\xacT\xa4p3\xc4?'
p1234
tp1235
Rp1236
tp1237
a(S'thefind.com'
p1238
g2
(g6
S'+\t\xce_Q1\xc4?'
p1239
tp1240
Rp1241
tp1242
a(S'code n'
p1243
g2
(g6
S'&`t\xd1*.\xc4?'
p1244
tp1245
Rp1246
tp1247
a(S'ben behrouzi'
p1248
g2
(g6
S'\x0eA\xc0\xfb\xd1-\xc4?'
p1249
tp1250
Rp1251
tp1252
a(S'inetsoft'
p1253
g2
(g6
S'i\xc6c\xdfx,\xc4?'
p1254
tp1255
Rp1256
tp1257
a(S'govworks'
p1258
g2
(g6
S'_\xbb\xed\x1e\x86*\xc4?'
p1259
tp1260
Rp1261
tp1262
a(S'touchstone software'
p1263
g2
(g6
S'I\x04\xe9\xfd|#\xc4?'
p1264
tp1265
Rp1266
tp1267
a(S'list of acquisitions by oracle'
p1268
g2
(g6
S"h-\x0c'.\x10\xc4?"
p1269
tp1270
Rp1271
tp1272
a(S'ebillz'
p1273
g2
(g6
S'\x10\xea\x94\x1b\x9f\xfb\xc3?'
p1274
tp1275
Rp1276
tp1277
a(S'janrain'
p1278
g2
(g6
S"\xb8s'W\xea\xf5\xc3?"
p1279
tp1280
Rp1281
tp1282
a(S'nuxeo'
p1283
g2
(g6
S'\x8di\x96\xafF\xf4\xc3?'
p1284
tp1285
Rp1286
tp1287
a(S'zesty.io'
p1288
g2
(g6
S'\xa8\xddSHG\xf2\xc3?'
p1289
tp1290
Rp1291
tp1292
a(S'content management interoperability services'
p1293
g2
(g6
S'\x89\x8f\xd6\xb0\x03\xe2\xc3?'
p1294
tp1295
Rp1296
tp1297
a(S'rackspace cloud'
p1298
g2
(g6
S'\xdc\x1b}\x16}\xe0\xc3?'
p1299
tp1300
Rp1301
tp1302
a(S'talentlms'
p1303
g2
(g6
S'&\xaf\x1e\xb8J\xe0\xc3?'
p1304
tp1305
Rp1306
tp1307
a(S'cloud computing'
p1308
g2
(g6
S'\xb4\x9cz5\xd3\xdc\xc3?'
p1309
tp1310
Rp1311
tp1312
a(S'trendyol group'
p1313
g2
(g6
S',\x9d\r\xacP\xd4\xc3?'
p1314
tp1315
Rp1316
tp1317
a(S'1996\xe2\x80\x9397 hnk rijeka season'
p1318
g2
(g6
S'\xd0\xd5yd{\xcf\xc3?'
p1319
tp1320
Rp1321
tp1322
a(S'loqu8'
p1323
g2
(g6
S'\x00\xd0@\xc4\x86\xc8\xc3?'
p1324
tp1325
Rp1326
tp1327
a(S'powertofly'
p1328
g2
(g6
S"'Y\xa9\xec\x11\xc6\xc3?"
p1329
tp1330
Rp1331
tp1332
a(S'owler'
p1333
g2
(g6
S'\x84\x1e+\xf3)\xc5\xc3?'
p1334
tp1335
Rp1336
tp1337
a(S'caspio'
p1338
g2
(g6
S'E\xd71\x896\xc3\xc3?'
p1339
tp1340
Rp1341
tp1342
a(S'wrike'
p1343
g2
(g6
S'\x8f?\x03l\xe1\xbd\xc3?'
p1344
tp1345
Rp1346
tp1347
a(S'microservices'
p1348
g2
(g6
S'\xdc\xbe\x9c\x87\x06\xbc\xc3?'
p1349
tp1350
Rp1351
tp1352
a(S'theglobe.com'
p1353
g2
(g6
S'\x94Z]\x9fB\xba\xc3?'
p1354
tp1355
Rp1356
tp1357
a(S'venturebeat'
p1358
g2
(g6
S'Hk\xfb~I\xb9\xc3?'
p1359
tp1360
Rp1361
tp1362
a(S'web18'
p1363
g2
(g6
S'\x8c\xffj\xca|\xa4\xc3?'
p1364
tp1365
Rp1366
tp1367
a(S'voxeo'
p1368
g2
(g6
S'0\x1f\x96\x19\xda\xa3\xc3?'
p1369
tp1370
Rp1371
tp1372
a(S'xeround'
p1373
g2
(g6
S'\x9a\xdd\xbbvd\x98\xc3?'
p1374
tp1375
Rp1376
tp1377
a(S'centralnic'
p1378
g2
(g6
S'\xda[Aja\x96\xc3?'
p1379
tp1380
Rp1381
tp1382
a(S'dot-com company'
p1383
g2
(g6
S'\xe2\x82\x86Sa\x93\xc3?'
p1384
tp1385
Rp1386
tp1387
a(S'comparison of crm systems'
p1388
g2
(g6
S'\x05\x9e\xf8\x94\xc8\x85\xc3?'
p1389
tp1390
Rp1391
tp1392
a(S'bluekai'
p1393
g2
(g6
S'\x80\x86\xb3\xd69\x83\xc3?'
p1394
tp1395
Rp1396
tp1397
a(S'rightnow technologies'
p1398
g2
(g6
S'\x13\xc5\x9f\xbf\xdc\x7f\xc3?'
p1399
tp1400
Rp1401
tp1402
a(S'mendix'
p1403
g2
(g6
S'y=\xfec\x1d\x7f\xc3?'
p1404
tp1405
Rp1406
tp1407
a(S'pernixdata'
p1408
g2
(g6
S'nm\xe4\xcf\xe0m\xc3?'
p1409
tp1410
Rp1411
tp1412
a(S'2010\xe2\x80\x9311 hnk rijeka season'
p1413
g2
(g6
S'\xa9\x0ff\x96ld\xc3?'
p1414
tp1415
Rp1416
tp1417
a(S'infor'
p1418
g2
(g6
S'\xeb\xc2\x95@>X\xc3?'
p1419
tp1420
Rp1421
tp1422
a(S'cyfe'
p1423
g2
(g6
S'\x13\x86\xe0}0U\xc3?'
p1424
tp1425
Rp1426
tp1427
a(S'2000\xe2\x80\x9301 hnk rijeka season'
p1428
g2
(g6
S'\xe7\xc1\xae\xf9\x19M\xc3?'
p1429
tp1430
Rp1431
tp1432
a(S'mp3.com'
p1433
g2
(g6
S'\x01\xecTv\xd3D\xc3?'
p1434
tp1435
Rp1436
tp1437
a(S'com'
p1438
g2
(g6
S'j/\xf6\xcd\x9d=\xc3?'
p1439
tp1440
Rp1441
tp1442
a(S'workfront'
p1443
g2
(g6
S'&=\xc5\x9bO<\xc3?'
p1444
tp1445
Rp1446
tp1447
a(S'list of google domains'
p1448
g2
(g6
S'4i\xc1\xc6\x0b9\xc3?'
p1449
tp1450
Rp1451
tp1452
a(S'2011\xe2\x80\x9312 hnk rijeka season'
p1453
g2
(g6
S'7\x82\x97\x14V5\xc3?'
p1454
tp1455
Rp1456
tp1457
a(S'fuze (company)'
p1458
g2
(g6
S'\xf6PJ.\xd1-\xc3?'
p1459
tp1460
Rp1461
tp1462
a(S'dot-com commercials during super bowl xxxiv'
p1463
g2
(g6
S'J\xd3V\xba\x9f*\xc3?'
p1464
tp1465
Rp1466
tp1467
a(S'192.com'
p1468
g2
(g6
S".' \x87t)\xc3?"
p1469
tp1470
Rp1471
tp1472
a(S'mouthshut.com'
p1473
g2
(g6
S'\xa0\xf4)\x89\x10(\xc3?'
p1474
tp1475
Rp1476
tp1477
a(S'cloud computing architecture'
p1478
g2
(g6
S'[l\xee8O&\xc3?'
p1479
tp1480
Rp1481
tp1482
a(S'list of online real estate databases'
p1483
g2
(g6
S'\x8aL\xfe\xb5T\x0f\xc3?'
p1484
tp1485
Rp1486
tp1487
a(S'web.com'
p1488
g2
(g6
S'\xce\xcb\xeb\xe6\xa4\n\xc3?'
p1489
tp1490
Rp1491
tp1492
a(S'list of internet entrepreneurs'
p1493
g2
(g6
S'\xc7}=Y\xea\x08\xc3?'
p1494
tp1495
Rp1496
tp1497
a(S'contactengine'
p1498
g2
(g6
S'L l\xf1\xfa\x05\xc3?'
p1499
tp1500
Rp1501
tp1502
a(S'2007\xe2\x80\x9308 hnk rijeka season'
p1503
g2
(g6
S'!7\xef7\xa8\xf8\xc2?'
p1504
tp1505
Rp1506
tp1507
a(S'successful match'
p1508
g2
(g6
S'\xd5\xf3x\xf3p\xf8\xc2?'
p1509
tp1510
Rp1511
tp1512
a.