(lp0
(S'scalability'
p1
cnumpy.core.multiarray
scalar
p2
(cnumpy
dtype
p3
(S'f8'
p4
I0
I1
tp5
Rp6
(I3
S'<'
p7
NNNI-1
I-1
I0
tp8
bS'\xfc\xff\xff\xff\xff\xff\xef?'
p9
tp10
Rp11
tp12
a(S'gigaspaces'
p13
g2
(g6
S'\x00\x88\xc9\x14\xfaS\xde?'
p14
tp15
Rp16
tp17
a(S'scalability testing'
p18
g2
(g6
S'\xa1\xb3e\xa2\xf3\xe8\xdd?'
p19
tp20
Rp21
tp22
a(S'hybrid web cluster'
p23
g2
(g6
S'\xb1\x9c\xc5+\xe2m\xd7?'
p24
tp25
Rp26
tp27
a(S'newsql'
p28
g2
(g6
S'\xebV\x04\x97g\x96\xd6?'
p29
tp30
Rp31
tp32
a(S'distributed operating system'
p33
g2
(g6
S'L.\xe8\xa5\xb5e\xd6?'
p34
tp35
Rp36
tp37
a(S'computer cluster'
p38
g2
(g6
S',#\xe2K\x12\n\xd5?'
p39
tp40
Rp41
tp42
a(S'distributed database'
p43
g2
(g6
S'\x1fz\x8b\xd5\x9f\t\xd5?'
p44
tp45
Rp46
tp47
a(S'performance tuning'
p48
g2
(g6
S'A2\x05`\xbf\xc8\xd4?'
p49
tp50
Rp51
tp52
a(S'computer performance'
p53
g2
(g6
S'j:}cBm\xd4?'
p54
tp55
Rp56
tp57
a(S'clustrix'
p58
g2
(g6
S'%\x82h\xddNi\xd4?'
p59
tp60
Rp61
tp62
a(S'cloudtran'
p63
g2
(g6
S'\xfb\xb0\xa2\x8a\x03i\xd4?'
p64
tp65
Rp66
tp67
a(S'distributed computing'
p68
g2
(g6
S'K@\x8a\x1d_\x12\xd4?'
p69
tp70
Rp71
tp72
a(S'database'
p73
g2
(g6
S'\x0fHC\xa6i\xe3\xd3?'
p74
tp75
Rp76
tp77
a(S'clusterpoint'
p78
g2
(g6
S'\xe7M\xd4U\n\xdd\xd3?'
p79
tp80
Rp81
tp82
a(S'denormalization'
p83
g2
(g6
S'^B\x19\xa9\xc4\xac\xd3?'
p84
tp85
Rp86
tp87
a(S'distributed file system for cloud'
p88
g2
(g6
S'\r\x8f\x8b\x88\xc8\xa0\xd3?'
p89
tp90
Rp91
tp92
a(S'scaling'
p93
g2
(g6
S'T\\\xac\xbb\x8b|\xd3?'
p94
tp95
Rp96
tp97
a(S'hyperscale'
p98
g2
(g6
S'ku\xb0\xbfl?\xd3?'
p99
tp100
Rp101
tp102
a(S'amplidata'
p103
g2
(g6
S'3\x9b\x9d\xa4;?\xd3?'
p104
tp105
Rp106
tp107
a(S'voldemort (distributed data store)'
p108
g2
(g6
S'\xe9\xf7\x81\xcbo\xfd\xd2?'
p109
tp110
Rp111
tp112
a(S'extremedb'
p113
g2
(g6
S'\xf4W8\xa4\xf8\xfa\xd2?'
p114
tp115
Rp116
tp117
a(S'dynamo (storage system)'
p118
g2
(g6
S'4Z:\x8b\xa5\xec\xd2?'
p119
tp120
Rp121
tp122
a(S'scimoredb'
p123
g2
(g6
S'\xad\xe9[\x98\x0e\xcc\xd2?'
p124
tp125
Rp126
tp127
a(S'supercomputer architecture'
p128
g2
(g6
S'\xbf\xfb\x88\xfb\xab\xc4\xd2?'
p129
tp130
Rp131
tp132
a(S'emc isilon'
p133
g2
(g6
S'\xf6b\nx6\xb3\xd2?'
p134
tp135
Rp136
tp137
a(S'data-intensive computing'
p138
g2
(g6
S'OI\xe4\x87F\xab\xd2?'
p139
tp140
Rp141
tp142
a(S'emc scaleio'
p143
g2
(g6
S'e\xa9,E\xcc\xa3\xd2?'
p144
tp145
Rp146
tp147
a(S'tibero'
p148
g2
(g6
S'j\xbe;\x89\xbe\x98\xd2?'
p149
tp150
Rp151
tp152
a(S'site reliability engineer'
p153
g2
(g6
S'>\xf5\x8f#\xd1\x91\xd2?'
p154
tp155
Rp156
tp157
a(S'scale up'
p158
g2
(g6
S'\x04\xd9\xf7\x04J\x85\xd2?'
p159
tp160
Rp161
tp162
a(S'performance engineering'
p163
g2
(g6
S'#h4l\xe2]\xd2?'
p164
tp165
Rp166
tp167
a(S'hazelcast'
p168
g2
(g6
S'\xc9\xe1\x94N>D\xd2?'
p169
tp170
Rp171
tp172
a(S'xtradb'
p173
g2
(g6
S'\x89V\xfb\xd1\xf4\x07\xd2?'
p174
tp175
Rp176
tp177
a(S'parallel computing'
p178
g2
(g6
S'\xc9R\x91\xa9\x12\xea\xd1?'
p179
tp180
Rp181
tp182
a(S'extreme transaction processing'
p183
g2
(g6
S'1\x96\xad\xa0\xa9\xe7\xd1?'
p184
tp185
Rp186
tp187
a(S'beegfs'
p188
g2
(g6
S'\x9f\x8f\x1b\xa3o\xe4\xd1?'
p189
tp190
Rp191
tp192
a(S'lightweight kernel operating system'
p193
g2
(g6
S'~\x82\x1e{\xfa\xd7\xd1?'
p194
tp195
Rp196
tp197
a(S'freenet'
p198
g2
(g6
S'\r_]\xd2\xd5\xa0\xd1?'
p199
tp200
Rp201
tp202
a(S'database virtualization'
p203
g2
(g6
S'~\x14g\xb6\xaa\x83\xd1?'
p204
tp205
Rp206
tp207
a(S'techila grid'
p208
g2
(g6
S'\x93\xfc\xbc\xd7\xdcv\xd1?'
p209
tp210
Rp211
tp212
a(S'converged storage'
p213
g2
(g6
S'\xbb\x1b_\xdc\xa2t\xd1?'
p214
tp215
Rp216
tp217
a(S'shared nothing architecture'
p218
g2
(g6
S"\xc0\xb1k'\xca;\xd1?"
p219
tp220
Rp221
tp222
a(S'google millwheel'
p223
g2
(g6
S'u\\:\x94\xe5\x10\xd1?'
p224
tp225
Rp226
tp227
a(S'noobaa'
p228
g2
(g6
S';U\x958[\n\xd1?'
p229
tp230
Rp231
tp232
a(S'high-availability cluster'
p233
g2
(g6
S'{\xf8\x84:\x99\xfd\xd0?'
p234
tp235
Rp236
tp237
a(S'clustered file system'
p238
g2
(g6
S'\xb8\x13\x0b\xa3<\xfa\xd0?'
p239
tp240
Rp241
tp242
a(S'distributed data store'
p243
g2
(g6
S'!/\xb8Tm\xe9\xd0?'
p244
tp245
Rp246
tp247
a(S'hyperdex'
p248
g2
(g6
S'\x98o \xbc]\xdc\xd0?'
p249
tp250
Rp251
tp252
a(S'nuodb'
p253
g2
(g6
S'?W\xd0||\xbe\xd0?'
p254
tp255
Rp256
tp257
a(S'database engine'
p258
g2
(g6
S'\x1fD\xb2\xe5A\xb4\xd0?'
p259
tp260
Rp261
tp262
a(S'data center network architectures'
p263
g2
(g6
S'0\x0b\xf0\x8a\xcd\xb2\xd0?'
p264
tp265
Rp266
tp267
a(S'gordon bell prize'
p268
g2
(g6
S'J\x98\x85\xfb\xaa\x8f\xd0?'
p269
tp270
Rp271
tp272
a(S'database-centric architecture'
p273
g2
(g6
S'J)I\xf9\xaft\xd0?'
p274
tp275
Rp276
tp277
a(S'sistina software'
p278
g2
(g6
S'8\x8f\x8fu\xb4s\xd0?'
p279
tp280
Rp281
tp282
a(S'versant object database'
p283
g2
(g6
S'\xc4\xb3\xaf;o[\xd0?'
p284
tp285
Rp286
tp287
a(S'online transaction processing'
p288
g2
(g6
S'\x03\x87D:\xc4Y\xd0?'
p289
tp290
Rp291
tp292
a(S'cyrus imap server'
p293
g2
(g6
S'\xcd\xa2\xbdA\x13P\xd0?'
p294
tp295
Rp296
tp297
a(S'safplus'
p298
g2
(g6
S'\x9f\xfd\xd7\xd0FL\xd0?'
p299
tp300
Rp301
tp302
a(S'supercomputer'
p303
g2
(g6
S'\xbc\xc2\x86@w@\xd0?'
p304
tp305
Rp306
tp307
a(S'multi-model database'
p308
g2
(g6
S'\x06ns\xa6%>\xd0?'
p309
tp310
Rp311
tp312
a(S'infinit (storage platform)'
p313
g2
(g6
S'G\xaeX\xf8\x0b8\xd0?'
p314
tp315
Rp316
tp317
a(S'nec hydrastor'
p318
g2
(g6
S'\x1d\n\x19\xc3\x10,\xd0?'
p319
tp320
Rp321
tp322
a(S'loader.io'
p323
g2
(g6
S"\x19*';\xd3*\xd0?"
p324
tp325
Rp326
tp327
a(S'distributed hash table'
p328
g2
(g6
S'\x92\xcc\xdb\xd9\x91 \xd0?'
p329
tp330
Rp331
tp332
a(S'cloud database'
p333
g2
(g6
S'\xac\xfe\xb4\x93\x9e\x19\xd0?'
p334
tp335
Rp336
tp337
a(S'scalable video coding'
p338
g2
(g6
S'\x97!\xd0\xb6&\x18\xd0?'
p339
tp340
Rp341
tp342
a(S'panasas'
p343
g2
(g6
S'*~\xdf\x93\xbd\x0c\xd0?'
p344
tp345
Rp346
tp347
a(S'ibm parallel sysplex'
p348
g2
(g6
S'\xacW\x916\xe8\t\xd0?'
p349
tp350
Rp351
tp352
a(S'point of delivery (networking)'
p353
g2
(g6
S'\xdc\xbb\x00\xb7\x9e\x05\xd0?'
p354
tp355
Rp356
tp357
a(S'autoscaling'
p358
g2
(g6
S'\xa40\xe2\xa6@\xfd\xcf?'
p359
tp360
Rp361
tp362
a(S'monitoring agents using a large integrated services architecture'
p363
g2
(g6
S'\x96DU\xe4\xd0\xec\xcf?'
p364
tp365
Rp366
tp367
a(S'database tuning'
p368
g2
(g6
S'\xf4P\xaf\xcc\xd0\xde\xcf?'
p369
tp370
Rp371
tp372
a(S'online analytical processing'
p373
g2
(g6
S'j\xc6\xafh\x8a\xa7\xcf?'
p374
tp375
Rp376
tp377
a(S'cooperative storage cloud'
p378
g2
(g6
S'\xaf\x14<NZ\xa7\xcf?'
p379
tp380
Rp381
tp382
a(S'texas advanced computing center'
p383
g2
(g6
S'g\xc0\x00\xf4\x87\x97\xcf?'
p384
tp385
Rp386
tp387
a(S'paasage'
p388
g2
(g6
S'\x84\x8b}h\xd9\x8d\xcf?'
p389
tp390
Rp391
tp392
a(S'lightning memory-mapped database'
p393
g2
(g6
S'\xfe\xb4B)\xf5|\xcf?'
p394
tp395
Rp396
tp397
a(S'hierarchical cluster engine project'
p398
g2
(g6
S'\xbe\x19C\xdf%k\xcf?'
p399
tp400
Rp401
tp402
a(S'foundationdb'
p403
g2
(g6
S'\xfc\x17\x05\xafjf\xcf?'
p404
tp405
Rp406
tp407
a(S'symmetric multiprocessing'
p408
g2
(g6
S'\x87\x11NZ\x91]\xcf?'
p409
tp410
Rp411
tp412
a(S'couchbase server'
p413
g2
(g6
S'\x7f\xd4\xfe\xe6\x0c\\\xcf?'
p414
tp415
Rp416
tp417
a(S'nosql'
p418
g2
(g6
S'w\xf2\x17\xeb>T\xcf?'
p419
tp420
Rp421
tp422
a(S'ibm websphere extreme scale'
p423
g2
(g6
S'\xe5\xba\xc1\xd5F\x19\xcf?'
p424
tp425
Rp426
tp427
a(S'outline of databases'
p428
g2
(g6
S'\x17<\xd6 \xc4\x18\xcf?'
p429
tp430
Rp431
tp432
a(S'mapreduce'
p433
g2
(g6
S'\xa6\x92Z\xe5\xce\x11\xcf?'
p434
tp435
Rp436
tp437
a(S'dell fluid file system'
p438
g2
(g6
S'\xf1\xebX\xa5\x0f\t\xcf?'
p439
tp440
Rp441
tp442
a(S'cluster manager'
p443
g2
(g6
S'\xb5):\x17V\xd4\xce?'
p444
tp445
Rp446
tp447
a(S'global file system'
p448
g2
(g6
S'\xf4{\xf4\xc4\x89\xc7\xce?'
p449
tp450
Rp451
tp452
a(S'utility computing'
p453
g2
(g6
S'\x18\xb0s!u\xb7\xce?'
p454
tp455
Rp456
tp457
a(S'transaction processing system'
p458
g2
(g6
S'\xc9\xec\xf2\xf8Q\xb3\xce?'
p459
tp460
Rp461
tp462
a(S'space-based architecture'
p463
g2
(g6
S'D\x9a,\x84\xc8\xa9\xce?'
p464
tp465
Rp466
tp467
a(S'concurrency control'
p468
g2
(g6
S'[Lqs\xcb\x95\xce?'
p469
tp470
Rp471
tp472
a(S'ibm rsct'
p473
g2
(g6
S'\xa0n\x8c\xa4m\x8e\xce?'
p474
tp475
Rp476
tp477
a(S'distributed replicated block device'
p478
g2
(g6
S'N\xf11\xdd\xd7\x8b\xce?'
p479
tp480
Rp481
tp482
a(S'h-store'
p483
g2
(g6
S'\xe5!\x8b\x90\x9a\x83\xce?'
p484
tp485
Rp486
tp487
a(S'peer-to-peer'
p488
g2
(g6
S'\x8f5h\xd1+n\xce?'
p489
tp490
Rp491
tp492
a(S'scaling (geometry)'
p493
g2
(g6
S'\x96\xcc\x05/\xd1J\xce?'
p494
tp495
Rp496
tp497
a(S'capacity management'
p498
g2
(g6
S'\x13\xb5\xbf~\xbc7\xce?'
p499
tp500
Rp501
tp502
a(S'exasol'
p503
g2
(g6
S'<\x83\x93\xbc\xe9$\xce?'
p504
tp505
Rp506
tp507
a(S'distributed networking'
p508
g2
(g6
S'Mg\xbf\xd4\xa9\x19\xce?'
p509
tp510
Rp511
tp512
a(S'neil j. gunther'
p513
g2
(g6
S'\xa9\xda\x0c\xb77\x0e\xce?'
p514
tp515
Rp516
tp517
a(S'distributed memory'
p518
g2
(g6
S'$%O$\xe2\t\xce?'
p519
tp520
Rp521
tp522
a(S'diskless shared-root cluster'
p523
g2
(g6
S'&\x9d\x9ab\x85\x08\xce?'
p524
tp525
Rp526
tp527
a(S'storage virtualization'
p528
g2
(g6
S'\xc7W9,\x04\xea\xcd?'
p529
tp530
Rp531
tp532
a(S'riak'
p533
g2
(g6
S'\xe26p\x8d\x07\xc8\xcd?'
p534
tp535
Rp536
tp537
a(S'software performance testing'
p538
g2
(g6
S'w^\x8a\xdc$\x9e\xcd?'
p539
tp540
Rp541
tp542
a(S'collaborative virtual environment'
p543
g2
(g6
S'Pv+\xce\xb6\x9a\xcd?'
p544
tp545
Rp546
tp547
a(S'dennard scaling'
p548
g2
(g6
S'i\x9c\xaa\xa5\xd0\x98\xcd?'
p549
tp550
Rp551
tp552
a(S'oracle nosql database'
p553
g2
(g6
S'\x8f\xfe\x97,Nv\xcd?'
p554
tp555
Rp556
tp557
a(S'ibm san volume controller'
p558
g2
(g6
S'\x1b(#rOc\xcd?'
p559
tp560
Rp561
tp562
a(S'elliptics'
p563
g2
(g6
S'\x19\xb0\t\xeeNC\xcd?'
p564
tp565
Rp566
tp567
a(S'energy proportional computing'
p568
g2
(g6
S'\xa3G\x87~\xcf2\xcd?'
p569
tp570
Rp571
tp572
a(S'rozofs'
p573
g2
(g6
S'\xbb\x0b9F\xb3/\xcd?'
p574
tp575
Rp576
tp577
a(S'scalebase'
p578
g2
(g6
S'[%\x08\xd5\x82/\xcd?'
p579
tp580
Rp581
tp582
a(S'vmscluster'
p583
g2
(g6
S'\xb3\xb3\xeau\x97\x15\xcd?'
p584
tp585
Rp586
tp587
a(S'torque'
p588
g2
(g6
S'RX\xfdT\x15\x0b\xcd?'
p589
tp590
Rp591
tp592
a(S'ibm system z9'
p593
g2
(g6
S'\xe0\xe8\x07\x9bR\x07\xcd?'
p594
tp595
Rp596
tp597
a(S'dreamhost'
p598
g2
(g6
S'g=\x99\xad\x15\xed\xcc?'
p599
tp600
Rp601
tp602
a(S'yahoo sherpa'
p603
g2
(g6
S'\r\x8c{\x18a\xe5\xcc?'
p604
tp605
Rp606
tp607
a(S'database transaction'
p608
g2
(g6
S'\xe0\xf19\xcb\n\xdc\xcc?'
p609
tp610
Rp611
tp612
a(S'storage area network'
p613
g2
(g6
S'\xf7\xd3bc\xf8\xda\xcc?'
p614
tp615
Rp616
tp617
a(S'ceph (software)'
p618
g2
(g6
S'\x00\x98\x80\xffb\xca\xcc?'
p619
tp620
Rp621
tp622
a(S'in-memory processing'
p623
g2
(g6
S'\xa9\x1ce\\\x89\xc4\xcc?'
p624
tp625
Rp626
tp627
a(S'database model'
p628
g2
(g6
S'\xb8`\x9b!\x85\xc1\xcc?'
p629
tp630
Rp631
tp632
a(S'scale (social sciences)'
p633
g2
(g6
S'q:45\xec\xb3\xcc?'
p634
tp635
Rp636
tp637
a(S'oracle exadata'
p638
g2
(g6
S'\xf7\x99\x164\xa1\xb3\xcc?'
p639
tp640
Rp641
tp642
a(S'file area network'
p643
g2
(g6
S'Q\x84\xe4\xfa\xcb\xa9\xcc?'
p644
tp645
Rp646
tp647
a(S'parsytec'
p648
g2
(g6
S'c\xa3\xff\xd7\xd6\xa2\xcc?'
p649
tp650
Rp651
tp652
a(S'green computing'
p653
g2
(g6
S'\xa2\x90\xe0\x07|\x99\xcc?'
p654
tp655
Rp656
tp657
a(S'redundant array of inexpensive servers'
p658
g2
(g6
S'\x87\xf4\xcf\x92\xb7\x96\xcc?'
p659
tp660
Rp661
tp662
a(S'computer hardware'
p663
g2
(g6
S'\xc3\x02y\xf9\x85\x90\xcc?'
p664
tp665
Rp666
tp667
a(S'parallel running'
p668
g2
(g6
S'\x19\x9e\xa5\xd8\x18\x8d\xcc?'
p669
tp670
Rp671
tp672
a(S'nexenta systems'
p673
g2
(g6
S'\xa8\xb8\x95\x1c\xd2\x87\xcc?'
p674
tp675
Rp676
tp677
a(S'real-time database'
p678
g2
(g6
S'\r\x1ff\x1c\x08\x80\xcc?'
p679
tp680
Rp681
tp682
a(S'ken birman'
p683
g2
(g6
S'\xb3\xa8\xe4\x0e\xb4~\xcc?'
p684
tp685
Rp686
tp687
a(S'computing'
p688
g2
(g6
S'\x87)NbE~\xcc?'
p689
tp690
Rp691
tp692
a(S'mosix'
p693
g2
(g6
S'\x91\xcf\xa2\xd9\xcfo\xcc?'
p694
tp695
Rp696
tp697
a(S'microservices'
p698
g2
(g6
S'\x92r\x80\xf5\xcfh\xcc?'
p699
tp700
Rp701
tp702
a(S'heterogeneous computing'
p703
g2
(g6
S'\xd1\x1f=(\xace\xcc?'
p704
tp705
Rp706
tp707
a(S'storcloud'
p708
g2
(g6
S'M!n\x19\xddb\xcc?'
p709
tp710
Rp711
tp712
a(S'vertica'
p713
g2
(g6
S'\x9a\xb3\x0f\xe4*Z\xcc?'
p714
tp715
Rp716
tp717
a(S'dale skeen'
p718
g2
(g6
S'\xf3HQ\x19\x94T\xcc?'
p719
tp720
Rp721
tp722
a(S'edge computing'
p723
g2
(g6
S'\x03\xe5\xf1\x15\xadN\xcc?'
p724
tp725
Rp726
tp727
a(S'data defined storage'
p728
g2
(g6
S'\x8ed\xdc\r*.\xcc?'
p729
tp730
Rp731
tp732
a(S'arangodb'
p733
g2
(g6
S'\xfcb\xbf\x82&(\xcc?'
p734
tp735
Rp736
tp737
a(S'multitenancy'
p738
g2
(g6
S"\x08w\xdau\x89'\xcc?"
p739
tp740
Rp741
tp742
a(S'safepeak'
p743
g2
(g6
S'#w\xe8"\xc3\x1c\xcc?'
p744
tp745
Rp746
tp747
a(S'scale'
p748
g2
(g6
S'\xfa\x81\xe6\xbbi\x19\xcc?'
p749
tp750
Rp751
tp752
a(S'network operating system'
p753
g2
(g6
S'yU{]f\xfc\xcb?'
p754
tp755
Rp756
tp757
a(S'application control management system'
p758
g2
(g6
S'\xca\x9f\xf0`\xfa\xfb\xcb?'
p759
tp760
Rp761
tp762
a(S'nasuni'
p763
g2
(g6
S'\xab\xbd\xe1J\\\xf5\xcb?'
p764
tp765
Rp766
tp767
a(S'avere systems'
p768
g2
(g6
S'\xf6\xd2kp>\xec\xcb?'
p769
tp770
Rp771
tp772
a(S'representational state transfer'
p773
g2
(g6
S'A\xdb\xf1\xcbl\xe7\xcb?'
p774
tp775
Rp776
tp777
a(S'percona server'
p778
g2
(g6
S'\xd2m\xc7\x81\x83\xd2\xcb?'
p779
tp780
Rp781
tp782
a(S'permabit'
p783
g2
(g6
S'\x0e\xb8\xd1\xef\xf4\xc7\xcb?'
p784
tp785
Rp786
tp787
a(S'shard (database architecture)'
p788
g2
(g6
S'\xeeBH\xcf\x06\xc7\xcb?'
p789
tp790
Rp791
tp792
a(S'operating system'
p793
g2
(g6
S'\xb6\xc9\x7f\x0e\x90\xc3\xcb?'
p794
tp795
Rp796
tp797
a(S'ncar-wyoming supercomputing center'
p798
g2
(g6
S'\xdf\xfe_\x86\xd0\xba\xcb?'
p799
tp800
Rp801
tp802
a(S'sequoiadb'
p803
g2
(g6
S'\xc17\xe3\xa1&\xb4\xcb?'
p804
tp805
Rp806
tp807
a(S'symphony (software)'
p808
g2
(g6
S'\x13\xcfK\x89\x9f\xa8\xcb?'
p809
tp810
Rp811
tp812
a(S'scalable coherent interface'
p813
g2
(g6
S'M"_\xa6\x87\xa7\xcb?'
p814
tp815
Rp816
tp817
a(S'clickhouse'
p818
g2
(g6
S'\x0c\xf4\x8e\x8d\xe7\xa6\xcb?'
p819
tp820
Rp821
tp822
a(S'red storm (computing)'
p823
g2
(g6
S'\x81`\x01}7\x9e\xcb?'
p824
tp825
Rp826
tp827
a(S'diskless node'
p828
g2
(g6
S'\x96v\xc6h\xf2\x94\xcb?'
p829
tp830
Rp831
tp832
a(S'national center for computational sciences'
p833
g2
(g6
S'\x8eD(\xad\x07\x93\xcb?'
p834
tp835
Rp836
tp837
a(S'information technology'
p838
g2
(g6
S'\xdd\x97\xa6\x80t\x90\xcb?'
p839
tp840
Rp841
tp842
a(S'bigtable'
p843
g2
(g6
S'3\x0e!\x18\x98\x8a\xcb?'
p844
tp845
Rp846
tp847
a(S'agile application'
p848
g2
(g6
S'\xafq\xca\x94\x06\x88\xcb?'
p849
tp850
Rp851
tp852
a(S'distributed r'
p853
g2
(g6
S'%\t\x03\x07\xe0\x86\xcb?'
p854
tp855
Rp856
tp857
a(S'grid computing'
p858
g2
(g6
S'\xfd6+\x8b`\x80\xcb?'
p859
tp860
Rp861
tp862
a(S'database machine'
p863
g2
(g6
S'f\xa2\x12\x9dD}\xcb?'
p864
tp865
Rp866
tp867
a(S'function as a service'
p868
g2
(g6
S'\xc9\x1a#\xeb-x\xcb?'
p869
tp870
Rp871
tp872
a(S'suprenum'
p873
g2
(g6
S'\x13\xce\xe3\xcdir\xcb?'
p874
tp875
Rp876
tp877
a(S'extract, transform, load'
p878
g2
(g6
S'\x10\xf6\xcbJ\x85p\xcb?'
p879
tp880
Rp881
tp882
a(S'nasan'
p883
g2
(g6
S'+\xf8s%0n\xcb?'
p884
tp885
Rp886
tp887
a(S'altibase'
p888
g2
(g6
S'm\xe4\x1d\xc8\x8cl\xcb?'
p889
tp890
Rp891
tp892
a(S'list of file systems'
p893
g2
(g6
S'\xbb\xd3\xb8I\xabg\xcb?'
p894
tp895
Rp896
tp897
a(S'service-oriented architecture implementation framework'
p898
g2
(g6
S'\x17\xfa.\xa4\xd5a\xcb?'
p899
tp900
Rp901
tp902
a(S'integrated nanoliter system'
p903
g2
(g6
S'\x90B\xfa~E]\xcb?'
p904
tp905
Rp906
tp907
a(S'quality of data (qod)'
p908
g2
(g6
S'Lw\xd8\xa4\xa6W\xcb?'
p909
tp910
Rp911
tp912
a(S'system administrator'
p913
g2
(g6
S'\xdbe\x9ee\xe1T\xcb?'
p914
tp915
Rp916
tp917
a(S'it performance management'
p918
g2
(g6
S'\xdd\xf4\xb4\xda\x05R\xcb?'
p919
tp920
Rp921
tp922
a(S'raima database manager'
p923
g2
(g6
S'\xf3\x8c<\xa2\xb53\xcb?'
p924
tp925
Rp926
tp927
a(S'objective-defined storage'
p928
g2
(g6
S'\x13\xc9\xc11J/\xcb?'
p929
tp930
Rp931
tp932
a(S'systems design'
p933
g2
(g6
S'\x9e\xdd$\xc7\xbe$\xcb?'
p934
tp935
Rp936
tp937
a(S'ibm system/38'
p938
g2
(g6
S'\xe0>K\xff\x8b\x1d\xcb?'
p939
tp940
Rp941
tp942
a(S'network function virtualization'
p943
g2
(g6
S'\x83\xd8\xb8\rN\x1d\xcb?'
p944
tp945
Rp946
tp947
a(S'history of operating systems'
p948
g2
(g6
S'@\x04,\xb26\x1c\xcb?'
p949
tp950
Rp951
tp952
a(S'distributed file system (disambiguation)'
p953
g2
(g6
S'\xe6n\x80\xd1`\x15\xcb?'
p954
tp955
Rp956
tp957
a(S'webdfs'
p958
g2
(g6
S'\xd7\r\xb63\xa1\x10\xcb?'
p959
tp960
Rp961
tp962
a(S'dome project'
p963
g2
(g6
S'\xf3(5d\xc2\x0f\xcb?'
p964
tp965
Rp966
tp967
a(S'supercomputer operating systems'
p968
g2
(g6
S'\xb4\x9c\x15\x1bZ\xf6\xca?'
p969
tp970
Rp971
tp972
a(S'global serializability'
p973
g2
(g6
S'*\x81\xf0\x8d\xcb\xe5\xca?'
p974
tp975
Rp976
tp977
a(S'moose file system'
p978
g2
(g6
S'\xf7\x836\x9b\xa6\xde\xca?'
p979
tp980
Rp981
tp982
a(S'sector/sphere'
p983
g2
(g6
S'7\x03@\xb7b\xd9\xca?'
p984
tp985
Rp986
tp987
a(S'song (kaist) \xe2\x80\x93 iyengar (lsu) mobicon middleware computing platform'
p988
g2
(g6
S'(\xcf\x11zM\xcd\xca?'
p989
tp990
Rp991
tp992
a(S'distributed transaction'
p993
g2
(g6
S'g\x88\xbe\xedt\xc7\xca?'
p994
tp995
Rp996
tp997
a(S'database administration and automation'
p998
g2
(g6
S'\xc2\x97V\xef\xbb\xba\xca?'
p999
tp1000
Rp1001
tp1002
a(S'node stream'
p1003
g2
(g6
S'\xaaq\nq\xdd\xb6\xca?'
p1004
tp1005
Rp1006
tp1007
a(S'database application'
p1008
g2
(g6
S'\x1d%8\xf3`\xb6\xca?'
p1009
tp1010
Rp1011
tp1012
a(S'enlight cloud'
p1013
g2
(g6
S'}\xe7\xe8z\xc7\xb3\xca?'
p1014
tp1015
Rp1016
tp1017
a(S'memsql'
p1018
g2
(g6
S'gn|Jn\xa8\xca?'
p1019
tp1020
Rp1021
tp1022
a(S'ti-dnos'
p1023
g2
(g6
S'\xa4\xdc\xb9"\x82\xa5\xca?'
p1024
tp1025
Rp1026
tp1027
a(S'transaction processing facility'
p1028
g2
(g6
S';{\xabb\x8c\xa4\xca?'
p1029
tp1030
Rp1031
tp1032
a(S'transaction processing'
p1033
g2
(g6
S'\x89\x12\xeb\x85\x83\x96\xca?'
p1034
tp1035
Rp1036
tp1037
a(S'stornext file system'
p1038
g2
(g6
S'~\xe9\t\x9b\xbe\x94\xca?'
p1039
tp1040
Rp1041
tp1042
a(S'computer architecture'
p1043
g2
(g6
S'C\xa2\xba@+\x8c\xca?'
p1044
tp1045
Rp1046
tp1047
a(S'multics'
p1048
g2
(g6
S'3\x8b\xe1\xbe2\x84\xca?'
p1049
tp1050
Rp1051
tp1052
a(S'work systems'
p1053
g2
(g6
S'1\xca[EQ\x83\xca?'
p1054
tp1055
Rp1056
tp1057
a(S'computer data storage'
p1058
g2
(g6
S'\x85\xe4\xef\x9f\x1b\x83\xca?'
p1059
tp1060
Rp1061
tp1062
a(S'mass storage'
p1063
g2
(g6
S'a:*\xf7P\x80\xca?'
p1064
tp1065
Rp1066
tp1067
a(S'transputer'
p1068
g2
(g6
S'~8\x99\xa3q]\xca?'
p1069
tp1070
Rp1071
tp1072
a(S'memory virtualization'
p1073
g2
(g6
S'{*S\xc9\xb8Z\xca?'
p1074
tp1075
Rp1076
tp1077
a(S'parallel rendering'
p1078
g2
(g6
S'\x1et\xf1\xb9\xa5W\xca?'
p1079
tp1080
Rp1081
tp1082
a(S'visualsim architect'
p1083
g2
(g6
S"\xb0X])'T\xca?"
p1084
tp1085
Rp1086
tp1087
a(S'dynamic scaling'
p1088
g2
(g6
S'\x1f\xb4\xe0\xeb\x01S\xca?'
p1089
tp1090
Rp1091
tp1092
a(S'aerospike (company)'
p1093
g2
(g6
S'\x1c\xcc\x9831N\xca?'
p1094
tp1095
Rp1096
tp1097
a(S'netsukuku'
p1098
g2
(g6
S'\xd4\x1a-\xf3\x94C\xca?'
p1099
tp1100
Rp1101
tp1102
a(S'multiprocessing'
p1103
g2
(g6
S'o\x910\xfbKA\xca?'
p1104
tp1105
Rp1106
tp1107
a(S'gfarm file system'
p1108
g2
(g6
S'f\xf9Co>A\xca?'
p1109
tp1110
Rp1111
tp1112
a(S'epcc'
p1113
g2
(g6
S'\xe2\xf7;\xda\xdb8\xca?'
p1114
tp1115
Rp1116
tp1117
a(S'centralized database'
p1118
g2
(g6
S"'\x1d\xd9XA-\xca?"
p1119
tp1120
Rp1121
tp1122
a(S'consistency model'
p1123
g2
(g6
S'\x86\xfc\r]v&\xca?'
p1124
tp1125
Rp1126
tp1127
a(S'data consistency'
p1128
g2
(g6
S'\xb1]\x02\xf5U\x13\xca?'
p1129
tp1130
Rp1131
tp1132
a(S'uniface (programming language)'
p1133
g2
(g6
S'(V\x89\x00%\x0f\xca?'
p1134
tp1135
Rp1136
tp1137
a(S'onesis'
p1138
g2
(g6
S'Fo\xd5\x12c\x0c\xca?'
p1139
tp1140
Rp1141
tp1142
a(S'openssi'
p1143
g2
(g6
S'9\x98u\xecU\n\xca?'
p1144
tp1145
Rp1146
tp1147
a(S'redis labs'
p1148
g2
(g6
S'6@+%\xde\x00\xca?'
p1149
tp1150
Rp1151
tp1152
a(S'openstack'
p1153
g2
(g6
S'\t\xda\xaf\xc0\x8f\x00\xca?'
p1154
tp1155
Rp1156
tp1157
a(S'k42'
p1158
g2
(g6
S'\xbbP+^\x08\xff\xc9?'
p1159
tp1160
Rp1161
tp1162
a(S'dell compellent'
p1163
g2
(g6
S'\xc5\x8fu3\xf9\xfe\xc9?'
p1164
tp1165
Rp1166
tp1167
a(S'serializability'
p1168
g2
(g6
S'\x92\xf9\x17\xcf5\xfb\xc9?'
p1169
tp1170
Rp1171
tp1172
a(S'graph database'
p1173
g2
(g6
S'\x16\x19\x90\x17"\xfa\xc9?'
p1174
tp1175
Rp1176
tp1177
a(S'international parallel and distributed processing symposium'
p1178
g2
(g6
S'\x14\xef\xcb\xd7\xd3\xf5\xc9?'
p1179
tp1180
Rp1181
tp1182
a(S'infinitydb'
p1183
g2
(g6
S'\xba\xb5\x8bcQ\xf3\xc9?'
p1184
tp1185
Rp1186
tp1187
a(S'management information system'
p1188
g2
(g6
S'\xd4c\xfc\xc0\x9a\xf2\xc9?'
p1189
tp1190
Rp1191
tp1192
a(S'cloud storage'
p1193
g2
(g6
S'\xe2p\xc7\xed\x89\xed\xc9?'
p1194
tp1195
Rp1196
tp1197
a(S'scalable reliable multicast'
p1198
g2
(g6
S'\x16M\x1a\xdfa\xed\xc9?'
p1199
tp1200
Rp1201
tp1202
a(S'multi path file system'
p1203
g2
(g6
S'\xfb\xce\x80\xbc\xd7\xe7\xc9?'
p1204
tp1205
Rp1206
tp1207
a(S'systems architecture'
p1208
g2
(g6
S'\x80\x9c\xee_\x19\xe1\xc9?'
p1209
tp1210
Rp1211
tp1212
a(S'ibm system z10'
p1213
g2
(g6
S'\xa80\x04\xe6#\xe0\xc9?'
p1214
tp1215
Rp1216
tp1217
a(S'raima'
p1218
g2
(g6
S'6\x8eT\xabF\xde\xc9?'
p1219
tp1220
Rp1221
tp1222
a(S'os 2200'
p1223
g2
(g6
S'i\xe8j\xcfq\xdc\xc9?'
p1224
tp1225
Rp1226
tp1227
a(S'icl vme'
p1228
g2
(g6
S'$\x13\xfc\xdb\xb8\xd8\xc9?'
p1229
tp1230
Rp1231
tp1232
a(S'data deduplication'
p1233
g2
(g6
S'\x12\xd8%n\x85\xd8\xc9?'
p1234
tp1235
Rp1236
tp1237
a(S'ciright systems'
p1238
g2
(g6
S'(\xe5\x84\x07\xb2\xd4\xc9?'
p1239
tp1240
Rp1241
tp1242
a(S'concurrent data structure'
p1243
g2
(g6
S'H\xde\xb7A\x19\xd2\xc9?'
p1244
tp1245
Rp1246
tp1247
a(S'gluster'
p1248
g2
(g6
S'7\rxn\xab\xce\xc9?'
p1249
tp1250
Rp1251
tp1252
a(S'blockchain (database)'
p1253
g2
(g6
S'\x9e\x0ca\xd6b\xcc\xc9?'
p1254
tp1255
Rp1256
tp1257
a(S'rajive bagrodia'
p1258
g2
(g6
S'\xa8\xddv\xc6\xc8\xc9\xc9?'
p1259
tp1260
Rp1261
tp1262
a(S'ovirt'
p1263
g2
(g6
S'"\xe6z?9\xc9\xc9?'
p1264
tp1265
Rp1266
tp1267
a(S'slurm workload manager'
p1268
g2
(g6
S'\xfb\x86_\x19\xd5\xc8\xc9?'
p1269
tp1270
Rp1271
tp1272
a(S'software-defined storage'
p1273
g2
(g6
S'\xfd\xbbF\xc7\x88\xbf\xc9?'
p1274
tp1275
Rp1276
tp1277
a(S'cloudstore'
p1278
g2
(g6
S'R_\x9b\x88\xc0\xbe\xc9?'
p1279
tp1280
Rp1281
tp1282
a(S'systems development life cycle'
p1283
g2
(g6
S'K2\x0cW\xea\xbb\xc9?'
p1284
tp1285
Rp1286
tp1287
a(S'cubrid'
p1288
g2
(g6
S'\n\x11\x9f\x8b"\xb5\xc9?'
p1289
tp1290
Rp1291
tp1292
a(S'monero'
p1293
g2
(g6
S'\xbfJ\x8e\x86\xb7\xb2\xc9?'
p1294
tp1295
Rp1296
tp1297
a(S'nmis'
p1298
g2
(g6
S'\xcd\x1dy\x9bm\xae\xc9?'
p1299
tp1300
Rp1301
tp1302
a(S'node (networking)'
p1303
g2
(g6
S'\xb0u9dd\xae\xc9?'
p1304
tp1305
Rp1306
tp1307
a(S'icl series 39'
p1308
g2
(g6
S'\xbdB\x9ct\xd2\xa7\xc9?'
p1309
tp1310
Rp1311
tp1312
a(S'infinidb'
p1313
g2
(g6
S'\x04\x15d\xca\x11\xa6\xc9?'
p1314
tp1315
Rp1316
tp1317
a(S'distributed shared memory'
p1318
g2
(g6
S'\xfc\x0b\x93\x89\xfb\xa3\xc9?'
p1319
tp1320
Rp1321
tp1322
a(S'division of it convergence engineering'
p1323
g2
(g6
S'\x1dh>\x94\xff\x9c\xc9?'
p1324
tp1325
Rp1326
tp1327
a(S'carrier grade linux'
p1328
g2
(g6
S'J\xf9\xf2\t\xf6\x99\xc9?'
p1329
tp1330
Rp1331
tp1332
a(S'mellanox technologies'
p1333
g2
(g6
S'\xde\xc8\xd0L\x8e\x99\xc9?'
p1334
tp1335
Rp1336
tp1337
a(S'sequential consistency'
p1338
g2
(g6
S'\x88\x00\x10\x1c\x0b\x98\xc9?'
p1339
tp1340
Rp1341
tp1342
a(S'centralized computing'
p1343
g2
(g6
S'\x155\xe7\xe9\xc9\x96\xc9?'
p1344
tp1345
Rp1346
tp1347
a(S'network load balancing services'
p1348
g2
(g6
S'\xe1y?\xfd\xd5\x94\xc9?'
p1349
tp1350
Rp1351
tp1352
a(S'exanet'
p1353
g2
(g6
S'\xec\xf8T\xfee\x94\xc9?'
p1354
tp1355
Rp1356
tp1357
a(S'oracle rac'
p1358
g2
(g6
S'\x06\xae\xce;\xb1\x92\xc9?'
p1359
tp1360
Rp1361
tp1362
a(S'accelstor, inc.'
p1363
g2
(g6
S'\xae\x90\xc6\xbf\xb9\x8d\xc9?'
p1364
tp1365
Rp1366
tp1367
a(S'onos'
p1368
g2
(g6
S'\xa4\xb7\xe7\xec\xa3\x8d\xc9?'
p1369
tp1370
Rp1371
tp1372
a(S'cincom systems'
p1373
g2
(g6
S';i\x13\x97\x19\x83\xc9?'
p1374
tp1375
Rp1376
tp1377
a(S'acid'
p1378
g2
(g6
S'\xc5\xb1M\xde\xad\x7f\xc9?'
p1379
tp1380
Rp1381
tp1382
a(S'openlmi'
p1383
g2
(g6
S'0\xc1\xdf\x8b\x10s\xc9?'
p1384
tp1385
Rp1386
tp1387
a(S'data store'
p1388
g2
(g6
S'\xf6\xbf\xf3F$p\xc9?'
p1389
tp1390
Rp1391
tp1392
a(S'oracle exalogic'
p1393
g2
(g6
S'\x8ex\x19\xb33j\xc9?'
p1394
tp1395
Rp1396
tp1397
a(S'nirvana (software)'
p1398
g2
(g6
S'\x08\xd1\xc85\xe4i\xc9?'
p1399
tp1400
Rp1401
tp1402
a(S'xeround'
p1403
g2
(g6
S'\xfa\x1c\xc0\x7f\x96h\xc9?'
p1404
tp1405
Rp1406
tp1407
a(S'h2 (dbms)'
p1408
g2
(g6
S'o\x14\rD\xfae\xc9?'
p1409
tp1410
Rp1411
tp1412
a(S'smartfrog'
p1413
g2
(g6
S'\xb6S\x0e6+e\xc9?'
p1414
tp1415
Rp1416
tp1417
a(S'massively parallel (computing)'
p1418
g2
(g6
S'|\x890ZZd\xc9?'
p1419
tp1420
Rp1421
tp1422
a(S'message passing in computer clusters'
p1423
g2
(g6
S'\x9c\x8c\xd1\x14_a\xc9?'
p1424
tp1425
Rp1426
tp1427
a(S'virtualization'
p1428
g2
(g6
S'%\x80\xe0\x07\xea[\xc9?'
p1429
tp1430
Rp1431
tp1432
a(S'ibm system/36'
p1433
g2
(g6
S'\x7f\xf8g\xdf\xacU\xc9?'
p1434
tp1435
Rp1436
tp1437
a(S'list of computing and it abbreviations'
p1438
g2
(g6
S'\x00\x84\xda\xdd^R\xc9?'
p1439
tp1440
Rp1441
tp1442
a(S'atomicity (database systems)'
p1443
g2
(g6
S'=m\x95\xb3;R\xc9?'
p1444
tp1445
Rp1446
tp1447
a(S'cloud computing'
p1448
g2
(g6
S'\x84\xa277\x8aM\xc9?'
p1449
tp1450
Rp1451
tp1452
a(S'in-memory database'
p1453
g2
(g6
S'Q\x7f.\xc1\x0eE\xc9?'
p1454
tp1455
Rp1456
tp1457
a(S'laser power scaling'
p1458
g2
(g6
S'_KW\x16\xdf>\xc9?'
p1459
tp1460
Rp1461
tp1462
a(S'software-defined mobile network'
p1463
g2
(g6
S'\x0b\xf74\x1cU=\xc9?'
p1464
tp1465
Rp1466
tp1467
a(S'simon model'
p1468
g2
(g6
S'I\x95\xadD\x04=\xc9?'
p1469
tp1470
Rp1471
tp1472
a(S'monetdb'
p1473
g2
(g6
S'\xbd*\x88\xec\xe2;\xc9?'
p1474
tp1475
Rp1476
tp1477
a(S'system'
p1478
g2
(g6
S"'\x80eO\xdd;\xc9?"
p1479
tp1480
Rp1481
tp1482
a(S'legacy system'
p1483
g2
(g6
S'\xac\xfaA\tc7\xc9?'
p1484
tp1485
Rp1486
tp1487
a(S'starcounter'
p1488
g2
(g6
S'>p\xfb\xe2P7\xc9?'
p1489
tp1490
Rp1491
tp1492
a(S'ibm midaw'
p1493
g2
(g6
S'YI\x15\x03y6\xc9?'
p1494
tp1495
Rp1496
tp1497
a(S'glusterfs'
p1498
g2
(g6
S'\xe4\xb1\xcc\x97\xae4\xc9?'
p1499
tp1500
Rp1501
tp1502
a(S'personal computer'
p1503
g2
(g6
S'e\xa5\xd4\x87\xb93\xc9?'
p1504
tp1505
Rp1506
tp1507
a(S'embedded database'
p1508
g2
(g6
S',6C\x9f\x842\xc9?'
p1509
tp1510
Rp1511
tp1512
a.