(lp0
(S'self-consciousness'
p1
cnumpy.core.multiarray
scalar
p2
(cnumpy
dtype
p3
(S'f8'
p4
I0
I1
tp5
Rp6
(I3
S'<'
p7
NNNI-1
I-1
I0
tp8
bS'\x00\x00\x00\x00\x00\x00\xf0?'
p9
tp10
Rp11
tp12
a(S'level of consciousness (esotericism)'
p13
g2
(g6
S'qa\xe9}\xcf.\xe3?'
p14
tp15
Rp16
tp17
a(S'self-awareness'
p18
g2
(g6
S'\t p^\xbc\xd1\xe2?'
p19
tp20
Rp21
tp22
a(S'psychology of self'
p23
g2
(g6
S'26\xbe\x08\x8c\xb5\xe2?'
p24
tp25
Rp26
tp27
a(S'consciousness'
p28
g2
(g6
S'\xe2"\xa6\x84\xcb`\xe2?'
p29
tp30
Rp31
tp32
a(S'outline of self'
p33
g2
(g6
S'\xd4\xb5\x7f\xf0qG\xe2?'
p34
tp35
Rp36
tp37
a(S'self'
p38
g2
(g6
S'jZ\xb4\xee\x87\xe7\xe1?'
p39
tp40
Rp41
tp42
a(S'self-consciousness (vedanta)'
p43
g2
(g6
S'\xac\xectn\xf8\xb7\xe1?'
p44
tp45
Rp46
tp47
a(S'animal consciousness'
p48
g2
(g6
S'\xde\xe0\xbc\xa99\x91\xe1?'
p49
tp50
Rp51
tp52
a(S'self-absorption paradox'
p53
g2
(g6
S'\xd6\xeb\x97M5Q\xe1?'
p54
tp55
Rp56
tp57
a(S'the ballad of esequiel hernandez'
p58
g2
(g6
S'\x02\xd1\x88q\x06\xd0\xe0?'
p59
tp60
Rp61
tp62
a(S'self (disambiguation)'
p63
g2
(g6
S'\x8b;@\xe1\x8d\xc4\xe0?'
p64
tp65
Rp66
tp67
a(S'understanding of self and identity'
p68
g2
(g6
S'\x1fH\xd5\x01\xd8\xc2\xe0?'
p69
tp70
Rp71
tp72
a(S'eight consciousnesses'
p73
g2
(g6
S'\xfa\xacc\xeac\xb0\xe0?'
p74
tp75
Rp76
tp77
a(S'self-knowledge (psychology)'
p78
g2
(g6
S'&$S\xa6\xcc\xa8\xe0?'
p79
tp80
Rp81
tp82
a(S'objective self-awareness'
p83
g2
(g6
S'\xe5vv\xf4\xcd\xa5\xe0?'
p84
tp85
Rp86
tp87
a(S'higher consciousness'
p88
g2
(g6
S'w\x01\x1c\x08\x00\x92\xe0?'
p89
tp90
Rp91
tp92
a(S'self-concept'
p93
g2
(g6
S'\x93 S[\xfeg\xe0?'
p94
tp95
Rp96
tp97
a(S'political consciousness'
p98
g2
(g6
S'y\xf0\x982v[\xe0?'
p99
tp100
Rp101
tp102
a(S'artificial consciousness'
p103
g2
(g6
S'\x89\xa8\xf7\xaa\xd5-\xe0?'
p104
tp105
Rp106
tp107
a(S'self-enhancement'
p108
g2
(g6
S'\xfc\x07\xe8m\xbc\xfc\xdf?'
p109
tp110
Rp111
tp112
a(S'philosophy of self'
p113
g2
(g6
S'\x97c\xadcv\xef\xdf?'
p114
tp115
Rp116
tp117
a(S'chaitanya (consciousness)'
p118
g2
(g6
S'M\xf1\x82\xfa\xcf\xdc\xdf?'
p119
tp120
Rp121
tp122
a(S'self in jungian psychology'
p123
g2
(g6
S'\xa7\x98\x94\xb6V\xc0\xdf?'
p124
tp125
Rp126
tp127
a(S'self-expansion model'
p128
g2
(g6
S'\x06\x1d\xce\xed\x94\xa9\xdf?'
p129
tp130
Rp131
tp132
a(S'consciousness and cognition'
p133
g2
(g6
S'\xeeR\xd1&\x1a^\xdf?'
p134
tp135
Rp136
tp137
a(S'imants baru\xc5\xa1s'
p138
g2
(g6
S'%m\xad\x04\xfd\x16\xdf?'
p139
tp140
Rp141
tp142
a(S'divided consciousness'
p143
g2
(g6
S'h\xc29\xed\xe1\xf4\xde?'
p144
tp145
Rp146
tp147
a(S'secondary consciousness'
p148
g2
(g6
S'2M\x82\xb1\x88\xe5\xde?'
p149
tp150
Rp151
tp152
a(S'self-help'
p153
g2
(g6
S'\x1a\x82]\xcaY\xc1\xde?'
p154
tp155
Rp156
tp157
a(S'self (surname)'
p158
g2
(g6
S'\xc6\x8ds>\x96\xa4\xde?'
p159
tp160
Rp161
tp162
a(S'primary consciousness'
p163
g2
(g6
S'C\xd4\x92\x06\x8cv\xde?'
p164
tp165
Rp166
tp167
a(S'higher self'
p168
g2
(g6
S'\xf3\xdd\xd6\x0e\x80g\xde?'
p169
tp170
Rp171
tp172
a(S'self-complexity'
p173
g2
(g6
S'\xe2;\x02\x99\xcc^\xde?'
p174
tp175
Rp176
tp177
a(S'self-referential encoding'
p178
g2
(g6
S'%\x1b\xcb\xd4\x05\xfe\xdd?'
p179
tp180
Rp181
tp182
a(S'consciousness evolving'
p183
g2
(g6
S'\x88A\x1b>X\xe5\xdd?'
p184
tp185
Rp186
tp187
a(S'cosmic consciousness'
p188
g2
(g6
S'\xc4\x94;dH\xdf\xdd?'
p189
tp190
Rp191
tp192
a(S'social consciousness'
p193
g2
(g6
S'\xdaS\xf4n\xcc\xa0\xdd?'
p194
tp195
Rp196
tp197
a(S'consciousness and the brain'
p198
g2
(g6
S'\xabB\xb2j\x9a;\xdd?'
p199
tp200
Rp201
tp202
a(S'self-verification theory'
p203
g2
(g6
S'\xa6\x01\xf1\x1b\xee \xdd?'
p204
tp205
Rp206
tp207
a(S'self-acceptance'
p208
g2
(g6
S'A\xe7K\x98d\xb8\xdc?'
p209
tp210
Rp211
tp212
a(S'raison oblige theory'
p213
g2
(g6
S'\xbd\xfc\xa6A\xe6\xa2\xdc?'
p214
tp215
Rp216
tp217
a(S'jagra'
p218
g2
(g6
S'\xa2\xa9\x7f[\x92\x89\xdc?'
p219
tp220
Rp221
tp222
a(S'sociology of human consciousness'
p223
g2
(g6
S'\xf5_\x8cc\xfe{\xdc?'
p224
tp225
Rp226
tp227
a(S'vij\xc3\xb1\xc4\x81na'
p228
g2
(g6
S'\xed\xb3\x14\x08\nI\xdc?'
p229
tp230
Rp231
tp232
a(S'understanding consciousness'
p233
g2
(g6
S'\xec\xcf\xe2\x0bCB\xdc?'
p234
tp235
Rp236
tp237
a(S'true self and false self'
p238
g2
(g6
S'ju`\xd1\xd1\t\xdc?'
p239
tp240
Rp241
tp242
a(S'what is living and what is dead in indian philosophy'
p243
g2
(g6
S'\xf07q\x84\x91\x02\xdc?'
p244
tp245
Rp246
tp247
a(S'self-assessment'
p248
g2
(g6
S'JQ\xaf\xd5\xde\xe1\xdb?'
p249
tp250
Rp251
tp252
a(S'self-monitoring'
p253
g2
(g6
S"'\x8dc\xc2\x80\xc6\xdb?"
p254
tp255
Rp256
tp257
a(S'self-made'
p258
g2
(g6
S'\xc6\x1c\x89(\x9a\xc4\xdb?'
p259
tp260
Rp261
tp262
a(S'reflexive self-consciousness'
p263
g2
(g6
S'\xf7\x91&\xd9R\xaf\xdb?'
p264
tp265
Rp266
tp267
a(S'self-management'
p268
g2
(g6
S'a\xaa\xcd\x87\xda\xa6\xdb?'
p269
tp270
Rp271
tp272
a(S'evolutionary theory of the self'
p273
g2
(g6
S'\x04\xeaD\xbdP\x9f\xdb?'
p274
tp275
Rp276
tp277
a(S'religious views on the self'
p278
g2
(g6
S'\x153\x8f\xb1\x12\x97\xdb?'
p279
tp280
Rp281
tp282
a(S'self-confidence'
p283
g2
(g6
S'\xfc~G\xc9\x8f\x8b\xdb?'
p284
tp285
Rp286
tp287
a(S'internet-based self-service'
p288
g2
(g6
S"\x9cg'\xa6\x9d#\xdb?"
p289
tp290
Rp291
tp292
a(S'self-esteem'
p293
g2
(g6
S'D\x9d\x8c}\xc1\x1d\xdb?'
p294
tp295
Rp296
tp297
a(S'study in consciousness'
p298
g2
(g6
S'B\xfa\xf3\x9cf\n\xdb?'
p299
tp300
Rp301
tp302
a(S'self-organization'
p303
g2
(g6
S'\xda\xa6#o\xc3\xd5\xda?'
p304
tp305
Rp306
tp307
a(S'the transcendence of the ego'
p308
g2
(g6
S'\xa6bO\xc51\xb0\xda?'
p309
tp310
Rp311
tp312
a(S'self-help book'
p313
g2
(g6
S'Q\xe9\xbe\x91\xf1\x93\xda?'
p314
tp315
Rp316
tp317
a(S'self-destructive behavior'
p318
g2
(g6
S'.\x16\x1fb\xf7[\xda?'
p319
tp320
Rp321
tp322
a(S'will self'
p323
g2
(g6
S'\xe5\xc3r\x18\xcdR\xda?'
p324
tp325
Rp326
tp327
a(S'master\xe2\x80\x93slave dialectic'
p328
g2
(g6
S'\xe7\x92\xf0$\xa8@\xda?'
p329
tp330
Rp331
tp332
a(S'self-build'
p333
g2
(g6
S'\x16G\n\xae%-\xda?'
p334
tp335
Rp336
tp337
a(S'celer (group)'
p338
g2
(g6
S'\x00\x12\x04j\xe9#\xda?'
p339
tp340
Rp341
tp342
a(S'self-regulation'
p343
g2
(g6
S'\xffS\xca\xa7\xd6\x19\xda?'
p344
tp345
Rp346
tp347
a(S'global workspace theory'
p348
g2
(g6
S'\xa8\x8c\xa050\xe2\xd9?'
p349
tp350
Rp351
tp352
a(S'self-help (disambiguation)'
p353
g2
(g6
S'\xf8\xfaJ^I\xda\xd9?'
p354
tp355
Rp356
tp357
a(S'consciousness (disambiguation)'
p358
g2
(g6
S'\xf8\x05\\/\xff\xd1\xd9?'
p359
tp360
Rp361
tp362
a(S'self-brand'
p363
g2
(g6
S'\xc7\xd3c\xb4v\xce\xd9?'
p364
tp365
Rp366
tp367
a(S'consciousness raising'
p368
g2
(g6
S'\x80}\x9a\x13T\xb6\xd9?'
p369
tp370
Rp371
tp372
a(S'critical consciousness'
p373
g2
(g6
S'\x92\xc1d{s\xa0\xd9?'
p374
tp375
Rp376
tp377
a(S'self-employment'
p378
g2
(g6
S'4\xb8_$\x96\x9c\xd9?'
p379
tp380
Rp381
tp382
a(S'science and consciousness review'
p383
g2
(g6
S'\x01W/d\xa7\x94\xd9?'
p384
tp385
Rp386
tp387
a(S'self-harm'
p388
g2
(g6
S'\xd2\xa0\xbeA0\x87\xd9?'
p389
tp390
Rp391
tp392
a(S'mindville'
p393
g2
(g6
S'\xbe\xf6\xd4rJ\x82\xd9?'
p394
tp395
Rp396
tp397
a(S'stuart hameroff'
p398
g2
(g6
S'\xf3\xe7Ey(v\xd9?'
p399
tp400
Rp401
tp402
a(S'self-construction (disambiguation)'
p403
g2
(g6
S'\x16\xaa|$\xfa`\xd9?'
p404
tp405
Rp406
tp407
a(S'stream of consciousness'
p408
g2
(g6
S']\xf9\xc8s\x8a=\xd9?'
p409
tp410
Rp411
tp412
a(S'self number'
p413
g2
(g6
S'6\x9eg\xc0B8\xd9?'
p414
tp415
Rp416
tp417
a(S'symbolic self-completion theory'
p418
g2
(g6
S'\x9f\x86\nz\x1a"\xd9?'
p419
tp420
Rp421
tp422
a(S'oneself (disambiguation)'
p423
g2
(g6
S'\xe0\xbb\x0b8+\xf2\xd8?'
p424
tp425
Rp426
tp427
a(S'contingent self-esteem'
p428
g2
(g6
S"\xfd!x'U\xeb\xd8?"
p429
tp430
Rp431
tp432
a(S'owen holland (academic)'
p433
g2
(g6
S'\xc2\xf8$Y\xa5\xd7\xd8?'
p434
tp435
Rp436
tp437
a(S'self control (disambiguation)'
p438
g2
(g6
S'!\x02\xa9\xbc\xad\xce\xd8?'
p439
tp440
Rp441
tp442
a(S'prescott lecky'
p443
g2
(g6
S'\x002\x88\x1e\xcc\xc1\xd8?'
p444
tp445
Rp446
tp447
a(S'self-reference effect'
p448
g2
(g6
S'`\x1f\x8f\xd6\x95\xc1\xd8?'
p449
tp450
Rp451
tp452
a(S'christian de quincey'
p453
g2
(g6
S'^{\xda\x1e\xda\xae\xd8?'
p454
tp455
Rp456
tp457
a(S'self-image'
p458
g2
(g6
S'\xe1\xea\xf1\xb4\xa1\xa6\xd8?'
p459
tp460
Rp461
tp462
a(S'self-evaluation motives'
p463
g2
(g6
S'\xb6\xb1\x81e6\x9a\xd8?'
p464
tp465
Rp466
tp467
a(S'higher state of consciousness'
p468
g2
(g6
S'.^\x1d\x9c\xc7\x99\xd8?'
p469
tp470
Rp471
tp472
a(S'self-stereotyping'
p473
g2
(g6
S'\x1f\x0f\xb9\x10O\x99\xd8?'
p474
tp475
Rp476
tp477
a(S'dialogical self'
p478
g2
(g6
S'\xb0#?\xb6\xac\x8c\xd8?'
p479
tp480
Rp481
tp482
a(S"damasio's theory of consciousness"
p483
g2
(g6
S'\x85\xc6g\xed\xc1\x89\xd8?'
p484
tp485
Rp486
tp487
a(S'rustam singh'
p488
g2
(g6
S'\xfe\xd0\x1er\x91\x83\xd8?'
p489
tp490
Rp491
tp492
a(S'jean gebser'
p493
g2
(g6
S'\t\xa5m\xc3Wa\xd8?'
p494
tp495
Rp496
tp497
a(S'danielle baquet-long'
p498
g2
(g6
S'\xe0\xf6\x9c\\CP\xd8?'
p499
tp500
Rp501
tp502
a(S'self-injury awareness day'
p503
g2
(g6
S'2S\xe3J\x08+\xd8?'
p504
tp505
Rp506
tp507
a(S'self-criticism'
p508
g2
(g6
S'\xf7\xd1Z\xaf\xec&\xd8?'
p509
tp510
Rp511
tp512
a(S'hard problem of consciousness'
p513
g2
(g6
S'\xd4\x14\xb7?\x94\x18\xd8?'
p514
tp515
Rp516
tp517
a(S'self-control therapy'
p518
g2
(g6
S',\t\xeb\xe1\xa5\x12\xd8?'
p519
tp520
Rp521
tp522
a(S'turiya'
p523
g2
(g6
S"\xfa'I\nL\x01\xd8?"
p524
tp525
Rp526
tp527
a(S'stream of consciousness (psychology)'
p528
g2
(g6
S'\xcdU\x18\xf76\xf5\xd7?'
p529
tp530
Rp531
tp532
a(S'self-assembly'
p533
g2
(g6
S'W\xcc\xa4\xa3)\xf4\xd7?'
p534
tp535
Rp536
tp537
a(S'class consciousness'
p538
g2
(g6
S'\xcd\x8f\x88\xb8H\xf1\xd7?'
p539
tp540
Rp541
tp542
a(S'apperception'
p543
g2
(g6
S'U\x96TE\xb8\xd3\xd7?'
p544
tp545
Rp546
tp547
a(S'self-realization'
p548
g2
(g6
S'\xdb\xd1.\xc3\x07\xc7\xd7?'
p549
tp550
Rp551
tp552
a(S'self-similarity'
p553
g2
(g6
S'\xf9\xdf\xa4\xff(\xbc\xd7?'
p554
tp555
Rp556
tp557
a(S'altered state of consciousness'
p558
g2
(g6
S'\xc2\x92T\xbf\x89\xa1\xd7?'
p559
tp560
Rp561
tp562
a(S'self-compassion'
p563
g2
(g6
S'\xfbL\x90\xaer\x91\xd7?'
p564
tp565
Rp566
tp567
a(S'subjective consciousness'
p568
g2
(g6
S'\xe5\x03q=\xc0\x83\xd7?'
p569
tp570
Rp571
tp572
a(S'self-regulation theory'
p573
g2
(g6
S'3t\xcf\xcfBv\xd7?'
p574
tp575
Rp576
tp577
a(S'self-care'
p578
g2
(g6
S'\x9d\x1b\x1f\x0f\x11r\xd7?'
p579
tp580
Rp581
tp582
a(S'jonathan self'
p583
g2
(g6
S'\xdd\xd8\xc3\xad\x83Z\xd7?'
p584
tp585
Rp586
tp587
a(S'legal consciousness'
p588
g2
(g6
S'xg\xbb\x9d{W\xd7?'
p589
tp590
Rp591
tp592
a(S'personal identity'
p593
g2
(g6
S'\xc8K\x84}\xd3D\xd7?'
p594
tp595
Rp596
tp597
a(S'self-discrepancy theory'
p598
g2
(g6
S'\xe9.\xc18`<\xd7?'
p599
tp600
Rp601
tp602
a(S'stream of consciousness (narrative mode)'
p603
g2
(g6
S'\xc1\xc4\x0eH\xfe\x1c\xd7?'
p604
tp605
Rp606
tp607
a(S'moscow center for consciousness studies'
p608
g2
(g6
S'D\x1c%|g\x19\xd7?'
p609
tp610
Rp611
tp612
a(S'meca sapiens'
p613
g2
(g6
S'Jq\x18\x97:\x12\xd7?'
p614
tp615
Rp616
tp617
a(S'self-titled (disambiguation)'
p618
g2
(g6
S'\xdd)\x11)\x86\x0f\xd7?'
p619
tp620
Rp621
tp622
a(S'double consciousness'
p623
g2
(g6
S'Aw{\xfc\xcd\xf8\xd6?'
p624
tp625
Rp626
tp627
a(S'looking glass self'
p628
g2
(g6
S'\xa1u%\xd54\xe5\xd6?'
p629
tp630
Rp631
tp632
a(S'self-disorder'
p633
g2
(g6
S'ow"\xd2\xa9\xe2\xd6?'
p634
tp635
Rp636
tp637
a(S'manuel curado'
p638
g2
(g6
S'\xfa\x9d\xad;\xa9\xd8\xd6?'
p639
tp640
Rp641
tp642
a(S'mark leary'
p643
g2
(g6
S'\xb9\x9e\xf0\xecs\xc6\xd6?'
p644
tp645
Rp646
tp647
a(S'kulam\xc4\x81rga'
p648
g2
(g6
S'\xa1\xd2\x0f\xa7\xdd\xbd\xd6?'
p649
tp650
Rp651
tp652
a(S'self religion'
p653
g2
(g6
S'\xd0\x02\x98\xb46\xbb\xd6?'
p654
tp655
Rp656
tp657
a(S'self-serving bias'
p658
g2
(g6
S'\xfb6>\xc4\xad\xb2\xd6?'
p659
tp660
Rp661
tp662
a(S'self-esteem instability'
p663
g2
(g6
S'\x84\x83Dg\xad\xb2\xd6?'
p664
tp665
Rp666
tp667
a(S'self-embedding'
p668
g2
(g6
S'\x186\xfd\xc5\x00\xa8\xd6?'
p669
tp670
Rp671
tp672
a(S'richard maurice bucke'
p673
g2
(g6
S'\xb0\x9a\xdb\x0ev\x90\xd6?'
p674
tp675
Rp676
tp677
a(S'psychosynthesis'
p678
g2
(g6
S'\xbfE\xdal>|\xd6?'
p679
tp680
Rp681
tp682
a(S'online consciousness conference'
p683
g2
(g6
S'zr\xdc\xfb\x18s\xd6?'
p684
tp685
Rp686
tp687
a(S'mestiza double consciousness'
p688
g2
(g6
S'\xf7\xa1\xe5\xf7\xa6n\xd6?'
p689
tp690
Rp691
tp692
a(S'self-interest'
p693
g2
(g6
S'T\xda@\xa9\xedj\xd6?'
p694
tp695
Rp696
tp697
a(S'max velmans'
p698
g2
(g6
S'\xa9H\xb2W\x9aO\xd6?'
p699
tp700
Rp701
tp702
a(S'self-esteem functions'
p703
g2
(g6
S'Y\xef~\xfe\x03B\xd6?'
p704
tp705
Rp706
tp707
a(S'self-evidence'
p708
g2
(g6
S'%\xfe4\x80\xf1;\xd6?'
p709
tp710
Rp711
tp712
a(S'taijasa'
p713
g2
(g6
S'\x1e\x16\x93?\xdd:\xd6?'
p714
tp715
Rp716
tp717
a(S'neural correlates of consciousness'
p718
g2
(g6
S'\x14<\x15\xcb\x82:\xd6?'
p719
tp720
Rp721
tp722
a(S'self defense family'
p723
g2
(g6
S')\xb3\r\x0b\xcb5\xd6?'
p724
tp725
Rp726
tp727
a(S'jennifer crocker'
p728
g2
(g6
S'\x80\xdb\xe8: 3\xd6?'
p729
tp730
Rp731
tp732
a(S'self-control'
p733
g2
(g6
S'\xbaT;\x914\x18\xd6?'
p734
tp735
Rp736
tp737
a(S'abhutaparikalpa'
p738
g2
(g6
S'8\xc7\x1e\x19\x8a\x0c\xd6?'
p739
tp740
Rp741
tp742
a(S'self esteem in communication'
p743
g2
(g6
S'sk\xc4^\xa4\t\xd6?'
p744
tp745
Rp746
tp747
a(S'autonoetic consciousness'
p748
g2
(g6
S'\xfd\xc7\xad\xc7\xdd\xef\xd5?'
p749
tp750
Rp751
tp752
a(S'self-portrait (disambiguation)'
p753
g2
(g6
S'\xa7\x01\x17J\x9c\xe9\xd5?'
p754
tp755
Rp756
tp757
a(S'tat tvam asi'
p758
g2
(g6
S'\xc7\x14]P\x19\xe7\xd5?'
p759
tp760
Rp761
tp762
a(S'self-directedness'
p763
g2
(g6
S'\xdau\xc1f \xdf\xd5?'
p764
tp765
Rp766
tp767
a(S'self system'
p768
g2
(g6
S'M|dE?\xdc\xd5?'
p769
tp770
Rp771
tp772
a(S'self-envy'
p773
g2
(g6
S'`\x07<\xe5\xaf\xd7\xd5?'
p774
tp775
Rp776
tp777
a(S'self-portrait'
p778
g2
(g6
S'\x11)\xff\xbd\x10\xc5\xd5?'
p779
tp780
Rp781
tp782
a(S'anatta'
p783
g2
(g6
S'\xe5^\xd1.{\xc2\xd5?'
p784
tp785
Rp786
tp787
a(S'self-propaganda'
p788
g2
(g6
S'\x88Kk\xd0\x84\xba\xd5?'
p789
tp790
Rp791
tp792
a(S'eternal oblivion'
p793
g2
(g6
S'\x97\x07\xdfR$\xb8\xd5?'
p794
tp795
Rp796
tp797
a(S'self-translation'
p798
g2
(g6
S'\x9b8\xf5\xeah\xb3\xd5?'
p799
tp800
Rp801
tp802
a(S'altered level of consciousness'
p803
g2
(g6
S'\xf7\x15\xed\xd4\x90\xa8\xd5?'
p804
tp805
Rp806
tp807
a(S'self representation'
p808
g2
(g6
S'\x14@\x06x\x0f\xa4\xd5?'
p809
tp810
Rp811
tp812
a(S'implicit self-esteem'
p813
g2
(g6
S'\\\xe3C\x1e\x1f\x8a\xd5?'
p814
tp815
Rp816
tp817
a(S'self-conscious emotions'
p818
g2
(g6
S'B\x12C\x13\xa1y\xd5?'
p819
tp820
Rp821
tp822
a(S'self-handicapping'
p823
g2
(g6
S'e\xfe\xec\x1beo\xd5?'
p824
tp825
Rp826
tp827
a(S'christof koch'
p828
g2
(g6
S'\xfc\x82\xc6\x17\xe2e\xd5?'
p829
tp830
Rp831
tp832
a(S'bad faith (existentialism)'
p833
g2
(g6
S'\xb3<\xc3\x88\xada\xd5?'
p834
tp835
Rp836
tp837
a(S'spiritual development'
p838
g2
(g6
S'\xedGNVsS\xd5?'
p839
tp840
Rp841
tp842
a(S'self-transcendence'
p843
g2
(g6
S'\x89\xe7\xdf\xee\xb6P\xd5?'
p844
tp845
Rp846
tp847
a(S'self-denial'
p848
g2
(g6
S'\x90NH\xcc\xaeD\xd5?'
p849
tp850
Rp851
tp852
a(S'david self'
p853
g2
(g6
S'\xf0\xae\xfb5\x94?\xd5?'
p854
tp855
Rp856
tp857
a(S'user illusion'
p858
g2
(g6
S'&}\xa5\x03*8\xd5?'
p859
tp860
Rp861
tp862
a(S'law of complexity-consciousness'
p863
g2
(g6
S'\x8f\xb7(\xb1\xb2%\xd5?'
p864
tp865
Rp866
tp867
a(S'association for the scientific study of consciousness'
p868
g2
(g6
S'\xcf$\xe8\xcd&\r\xd5?'
p869
tp870
Rp871
tp872
a(S'self-perpetuation'
p873
g2
(g6
S'\xaa\xf2\xc6\x99\x06\x0c\xd5?'
p874
tp875
Rp876
tp877
a(S'the primordial emotions'
p878
g2
(g6
S'j\xcas\xa8p\xe5\xd4?'
p879
tp880
Rp881
tp882
a(S'axel cleeremans'
p883
g2
(g6
S'\xa2\xdd\xf8O\x82\xdc\xd4?'
p884
tp885
Rp886
tp887
a(S'big mind process'
p888
g2
(g6
S'h-\x95\xcd\xb1\xc9\xd4?'
p889
tp890
Rp891
tp892
a(S'anattalakkhana sutta'
p893
g2
(g6
S'\xe4\xc67\xbb\xa2\xb9\xd4?'
p894
tp895
Rp896
tp897
a(S'affect consciousness'
p898
g2
(g6
S'\xaf\x17\xf7\xb4\xe5\xb4\xd4?'
p899
tp900
Rp901
tp902
a(S'william edwin self'
p903
g2
(g6
S'\x12[\x82\x1b\x03\xac\xd4?'
p904
tp905
Rp906
tp907
a(S'money (novel)'
p908
g2
(g6
S'\xf6\xb1,\xe2\xd5\xab\xd4?'
p909
tp910
Rp911
tp912
a(S'transcendental apperception'
p913
g2
(g6
S'\x1a\x86\x07F\xb6\x93\xd4?'
p914
tp915
Rp916
tp917
a(S'relationship-contingent self-esteem'
p918
g2
(g6
S'\x85\x8b\x90B>\x93\xd4?'
p919
tp920
Rp921
tp922
a(S'self mentoring'
p923
g2
(g6
S'\xffa^\x807\x90\xd4?'
p924
tp925
Rp926
tp927
a(S'higher-order theories of consciousness'
p928
g2
(g6
S'i"\xf0\xea\x83\x8b\xd4?'
p929
tp930
Rp931
tp932
a(S'mayatita'
p933
g2
(g6
S'U\x1e\xa9~\x02\x8a\xd4?'
p934
tp935
Rp936
tp937
a(S'sweet dreams (book)'
p938
g2
(g6
S'Guot\x9d\x85\xd4?'
p939
tp940
Rp941
tp942
a(S'journal of consciousness studies'
p943
g2
(g6
S'3V`y\xf9t\xd4?'
p944
tp945
Rp946
tp947
a(S'self-hatred'
p948
g2
(g6
S'\xa2\xb0\xde\xc8Ds\xd4?'
p949
tp950
Rp951
tp952
a(S'self-efficacy'
p953
g2
(g6
S'\x80\x0b\xb0U*s\xd4?'
p954
tp955
Rp956
tp957
a(S'self-abasement'
p958
g2
(g6
S',\xd9\xa7\x11\x16j\xd4?'
p959
tp960
Rp961
tp962
a(S'center for community self-help'
p963
g2
(g6
S'\x14b\xf7\x10\xfce\xd4?'
p964
tp965
Rp966
tp967
a(S'self-concordant function'
p968
g2
(g6
S'\x02R\xf5{\x05e\xd4?'
p969
tp970
Rp971
tp972
a(S'self-optimization'
p973
g2
(g6
S'\n|O\xc0KA\xd4?'
p974
tp975
Rp976
tp977
a(S'national consciousness'
p978
g2
(g6
S'\x94\xb7\xce\xbaJ?\xd4?'
p979
tp980
Rp981
tp982
a(S'self-defense'
p983
g2
(g6
S'eL\xc6%\xf65\xd4?'
p984
tp985
Rp986
tp987
a(S'self-made man (disambiguation)'
p988
g2
(g6
S'\xba\xf7\\F(%\xd4?'
p989
tp990
Rp991
tp992
a(S'self-sustainability'
p993
g2
(g6
S'\xcd\xe5\xb3Ga\x1d\xd4?'
p994
tp995
Rp996
tp997
a(S'new mysterianism'
p998
g2
(g6
S'\x8a\xbbO\\s\x16\xd4?'
p999
tp1000
Rp1001
tp1002
a(S'construals'
p1003
g2
(g6
S'IZ0\xf7\xdb\x03\xd4?'
p1004
tp1005
Rp1006
tp1007
a(S'svatantrya'
p1008
g2
(g6
S'\xdc0\xef\x98\x82\xed\xd3?'
p1009
tp1010
Rp1011
tp1012
a(S'multiple drafts model'
p1013
g2
(g6
S'\xa4\x1f\xe2q\xd0\xcf\xd3?'
p1014
tp1015
Rp1016
tp1017
a(S'\xc4\x80tman (buddhism)'
p1018
g2
(g6
S'\xa9\x05\xc1\xf1\x14\xcf\xd3?'
p1019
tp1020
Rp1021
tp1022
a(S'self-development plan'
p1023
g2
(g6
S'\x90m\xa4\x14P\xc2\xd3?'
p1024
tp1025
Rp1026
tp1027
a(S'abraham tesser'
p1028
g2
(g6
S'0\xb1\x12\x8d\xbb\xbe\xd3?'
p1029
tp1030
Rp1031
tp1032
a(S"women's self image"
p1033
g2
(g6
S'\xda\x94\n\xaf\x84\xba\xd3?'
p1034
tp1035
Rp1036
tp1037
a(S'chidabhasa'
p1038
g2
(g6
S'c-.\xae@\xb1\xd3?'
p1039
tp1040
Rp1041
tp1042
a(S'loob'
p1043
g2
(g6
S'i\xc9\x90\\\xd3\x97\xd3?'
p1044
tp1045
Rp1046
tp1047
a(S'thomas metzinger'
p1048
g2
(g6
S'\x8f\xeb\xb42_z\xd3?'
p1049
tp1050
Rp1051
tp1052
a(S'self-administered zone'
p1053
g2
(g6
S'\x95\x9d\x85|Vq\xd3?'
p1054
tp1055
Rp1056
tp1057
a(S'the origins and history of consciousness'
p1058
g2
(g6
S'hE\xa3\xc1\x17W\xd3?'
p1059
tp1060
Rp1061
tp1062
a(S'william seager (philosopher)'
p1063
g2
(g6
S'\xf7\x18\xfaG\xf8V\xd3?'
p1064
tp1065
Rp1066
tp1067
a(S'technoetics'
p1068
g2
(g6
S'\xcb\xc2\x8a-\xadR\xd3?'
p1069
tp1070
Rp1071
tp1072
a(S'mesita (musical project)'
p1073
g2
(g6
S'\x83D\xb1\xe4\x91M\xd3?'
p1074
tp1075
Rp1076
tp1077
a(S'self service technologies'
p1078
g2
(g6
S'\x98$\xab\x87\xd0K\xd3?'
p1079
tp1080
Rp1081
tp1082
a(S'michael tye (philosopher)'
p1083
g2
(g6
S'|\x1dgJ\xa2;\xd3?'
p1084
tp1085
Rp1086
tp1087
a(S'chidakasha'
p1088
g2
(g6
S'\xb7\xe9e\xcb\x99/\xd3?'
p1089
tp1090
Rp1091
tp1092
a(S'bernard baars'
p1093
g2
(g6
S'7\xf0!\xc7"\x1b\xd3?'
p1094
tp1095
Rp1096
tp1097
a(S'self-actualization'
p1098
g2
(g6
S'\x9eg\xaa\x96\xa8\x14\xd3?'
p1099
tp1100
Rp1101
tp1102
a(S'self-regulated learning'
p1103
g2
(g6
S'=\x15Zl\xea\x01\xd3?'
p1104
tp1105
Rp1106
tp1107
a(S'self-service'
p1108
g2
(g6
S')\x11-\xfc\x01\xf7\xd2?'
p1109
tp1110
Rp1111
tp1112
a(S'self-affirmation'
p1113
g2
(g6
S'\xdf\xa0$\xa0\x83\xf5\xd2?'
p1114
tp1115
Rp1116
tp1117
a(S'jeffrey alan gray'
p1118
g2
(g6
S'<\x08\xe6\x85\xc4\xef\xd2?'
p1119
tp1120
Rp1121
tp1122
a(S'self-abuse'
p1123
g2
(g6
S'\n\t\xf5\xf6\x81\xe7\xd2?'
p1124
tp1125
Rp1126
tp1127
a(S'list of self-portraits in the uffizi gallery'
p1128
g2
(g6
S'\xdf\xb1K\x88f\xe0\xd2?'
p1129
tp1130
Rp1131
tp1132
a(S'colin self'
p1133
g2
(g6
S'\x02\xae\x9d\xb2\xc5\xda\xd2?'
p1134
tp1135
Rp1136
tp1137
a(S'umbrella (novel)'
p1138
g2
(g6
S'Y\xd3\x1f\x89\xec\xd9\xd2?'
p1139
tp1140
Rp1141
tp1142
a(S'antonio damasio'
p1143
g2
(g6
S'\xdd\xc7\x02\x15\xed\xd2\xd2?'
p1144
tp1145
Rp1146
tp1147
a(S'consciousness industry'
p1148
g2
(g6
S'l"\xf7\xc8 \xcc\xd2?'
p1149
tp1150
Rp1151
tp1152
a(S'cartesian other'
p1153
g2
(g6
S'\x90\x9f\xabi\xcb\xc9\xd2?'
p1154
tp1155
Rp1156
tp1157
a(S'rule consciousness'
p1158
g2
(g6
S'\xc7\xcc \xc9.\xc8\xd2?'
p1159
tp1160
Rp1161
tp1162
a(S'participating consciousness'
p1163
g2
(g6
S'=,\x84\\!\xc4\xd2?'
p1164
tp1165
Rp1166
tp1167
a(S'false consciousness'
p1168
g2
(g6
S':$\x82\x15\xe7\xbb\xd2?'
p1169
tp1170
Rp1171
tp1172
a(S'enlightened self-interest'
p1173
g2
(g6
S'\x9a\x11dvT\xb2\xd2?'
p1174
tp1175
Rp1176
tp1177
a(S'clouding of consciousness'
p1178
g2
(g6
S'-NV\xc2\xb4\xb1\xd2?'
p1179
tp1180
Rp1181
tp1182
a(S'the disowned self'
p1183
g2
(g6
S'\x81\xedL\x8b\xff\xab\xd2?'
p1184
tp1185
Rp1186
tp1187
a(S'nonsuicidal self injury (disorder)'
p1188
g2
(g6
S'[\x07\xaf\t\n\xa2\xd2?'
p1189
tp1190
Rp1191
tp1192
a(S'vasubandhu'
p1193
g2
(g6
S'\x91f\xd3+h\x97\xd2?'
p1194
tp1195
Rp1196
tp1197
a(S'ecological self'
p1198
g2
(g6
S'r\x02]G\xf8\x8f\xd2?'
p1199
tp1200
Rp1201
tp1202
a(S'cartesian self'
p1203
g2
(g6
S'\x7f\x94\xc6\xfeV\x8f\xd2?'
p1204
tp1205
Rp1206
tp1207
a(S'no self-government party'
p1208
g2
(g6
S'\xa9\xc9\xc4@\xb5\x8a\xd2?'
p1209
tp1210
Rp1211
tp1212
a(S'self-sufficiency'
p1213
g2
(g6
S'\xd8U\xd3\x03N}\xd2?'
p1214
tp1215
Rp1216
tp1217
a(S'self-realization (disambiguation)'
p1218
g2
(g6
S'1\x19\x05&\xf3|\xd2?'
p1219
tp1220
Rp1221
tp1222
a(S'personal fulfillment'
p1223
g2
(g6
S'+\n\xa5\xbc\x8ez\xd2?'
p1224
tp1225
Rp1226
tp1227
a(S'the six pillars of self-esteem'
p1228
g2
(g6
S'T\xec\xe8BGn\xd2?'
p1229
tp1230
Rp1231
tp1232
a(S'robert kegan'
p1233
g2
(g6
S'W,\x18\xf4Uh\xd2?'
p1234
tp1235
Rp1236
tp1237
a(S'self-deception'
p1238
g2
(g6
S'\x1b0H\xe9O`\xd2?'
p1239
tp1240
Rp1241
tp1242
a(S'donald winnicott'
p1243
g2
(g6
S'\xb2\x02\x8e\xaeQT\xd2?'
p1244
tp1245
Rp1246
tp1247
a(S'franklin henry giddings'
p1248
g2
(g6
S'\xeao\x98\xc7\x8bO\xd2?'
p1249
tp1250
Rp1251
tp1252
a(S'self-propelled'
p1253
g2
(g6
S'\xfd,\x86\xf6\x17?\xd2?'
p1254
tp1255
Rp1256
tp1257
a(S'self-publishing'
p1258
g2
(g6
S'_\x93\xd7aV>\xd2?'
p1259
tp1260
Rp1261
tp1262
a(S'self-authorship'
p1263
g2
(g6
S'\x7fV\xcc\xf7|<\xd2?'
p1264
tp1265
Rp1266
tp1267
a(S'consciousness explained'
p1268
g2
(g6
S'\xb0@\xa1!\xc16\xd2?'
p1269
tp1270
Rp1271
tp1272
a(S'antti revonsuo'
p1273
g2
(g6
S'\x04\x80L\xfd\xdd5\xd2?'
p1274
tp1275
Rp1276
tp1277
a(S'abhimana'
p1278
g2
(g6
S'\xfa\xf5%\xa2+4\xd2?'
p1279
tp1280
Rp1281
tp1282
a(S'a bright red scream'
p1283
g2
(g6
S'd\xef`\xa1\x1d,\xd2?'
p1284
tp1285
Rp1286
tp1287
a(S'awareness'
p1288
g2
(g6
S'\xf1.\xa7%q*\xd2?'
p1289
tp1290
Rp1291
tp1292
a(S'murders of rhonda johnson and sharon shaw'
p1293
g2
(g6
S'\xa2b\x0e?Q&\xd2?'
p1294
tp1295
Rp1296
tp1297
a(S'self-evaluation maintenance theory'
p1298
g2
(g6
S'\xfb\x06\x1bq6&\xd2?'
p1299
tp1300
Rp1301
tp1302
a(S'self-control theory of crime'
p1303
g2
(g6
S'\x94q\x96\xf3\x13%\xd2?'
p1304
tp1305
Rp1306
tp1307
a(S'adhyasa'
p1308
g2
(g6
S'\xf4@j\xfd\xab \xd2?'
p1309
tp1310
Rp1311
tp1312
a(S'mind science foundation'
p1313
g2
(g6
S'\x81\x95\xad\x1f\x1c\r\xd2?'
p1314
tp1315
Rp1316
tp1317
a(S'allan hobson'
p1318
g2
(g6
S'\x8c*F\x17B\t\xd2?'
p1319
tp1320
Rp1321
tp1322
a(S'self-inflicted wound'
p1323
g2
(g6
S'L\xa3\xe3ZX\x08\xd2?'
p1324
tp1325
Rp1326
tp1327
a(S'inr self-monitoring'
p1328
g2
(g6
S'\x17S\xef\xb5\xa1\xfd\xd1?'
p1329
tp1330
Rp1331
tp1332
a(S'self-concealment'
p1333
g2
(g6
S'\x17\xf7\x9c\xb6\xb6\xfb\xd1?'
p1334
tp1335
Rp1336
tp1337
a(S'ujukat\xc4\x81'
p1338
g2
(g6
S'~\x8ds\xe87\xfb\xd1?'
p1339
tp1340
Rp1341
tp1342
a(S'david m. rosenthal (philosopher)'
p1343
g2
(g6
S'\x07(\x83\xacH\xfa\xd1?'
p1344
tp1345
Rp1346
tp1347
a(S'collective self-esteem'
p1348
g2
(g6
S'\xbd\x08\x16H\x86\xf9\xd1?'
p1349
tp1350
Rp1351
tp1352
a(S'neural basis of self'
p1353
g2
(g6
S'\xd3@Z\x99U\xf4\xd1?'
p1354
tp1355
Rp1356
tp1357
a(S'black consciousness movement'
p1358
g2
(g6
S'IS\xf2s\xa5\xee\xd1?'
p1359
tp1360
Rp1361
tp1362
a(S'deindividuation'
p1363
g2
(g6
S'\x7f\xa7H\xfdc\xed\xd1?'
p1364
tp1365
Rp1366
tp1367
a(S'the astonishing hypothesis'
p1368
g2
(g6
S'\xe6\x11#`[\xe1\xd1?'
p1369
tp1370
Rp1371
tp1372
a(S'pratyabhijna'
p1373
g2
(g6
S'\xcb\x87\xadOo\xdd\xd1?'
p1374
tp1375
Rp1376
tp1377
a(S'being and nothingness'
p1378
g2
(g6
S'\xfb\xae\x95kp\xd9\xd1?'
p1379
tp1380
Rp1381
tp1382
a(S'joel piper'
p1383
g2
(g6
S'\x04\x03\xcf\x88B\xd9\xd1?'
p1384
tp1385
Rp1386
tp1387
a(S'crystallized self'
p1388
g2
(g6
S'`\x95\xec\xc4-\xce\xd1?'
p1389
tp1390
Rp1391
tp1392
a(S'the secrets of the self'
p1393
g2
(g6
S'A+\xb8\x85\xfc\xc9\xd1?'
p1394
tp1395
Rp1396
tp1397
a(S'self-fulfillment'
p1398
g2
(g6
S'\xb5\x8f\x82\r\xdc\xc6\xd1?'
p1399
tp1400
Rp1401
tp1402
a(S'in-group favoritism'
p1403
g2
(g6
S'\x97<\xf5\xc3\xcf\xc6\xd1?'
p1404
tp1405
Rp1406
tp1407
a(S'nancy huston'
p1408
g2
(g6
S'[5\x1e\x16\x99\xc4\xd1?'
p1409
tp1410
Rp1411
tp1412
a(S'self-advocacy'
p1413
g2
(g6
S'\x13R\xed\xf7m\xbe\xd1?'
p1414
tp1415
Rp1416
tp1417
a(S'ingratiation'
p1418
g2
(g6
S'M\x07\x9d#\x87\xbb\xd1?'
p1419
tp1420
Rp1421
tp1422
a(S'a universe of consciousness'
p1423
g2
(g6
S'\x1e\xa3\xa6\xb7\xe0\xb5\xd1?'
p1424
tp1425
Rp1426
tp1427
a(S'walking to hollywood'
p1428
g2
(g6
S'#\xf4O\xf4\x8c\xb5\xd1?'
p1429
tp1430
Rp1431
tp1432
a(S'nick day (film director)'
p1433
g2
(g6
S'%\x96\xd3\xed\n\xa7\xd1?'
p1434
tp1435
Rp1436
tp1437
a(S'self-replication'
p1438
g2
(g6
S'\xdb\x0eZ\x0c\xb9\x98\xd1?'
p1439
tp1440
Rp1441
tp1442
a(S'anthroposophical view of the human being'
p1443
g2
(g6
S'/}\xa3\xb0\xae\x95\xd1?'
p1444
tp1445
Rp1446
tp1447
a(S'christopher jacob bostr\xc3\xb6m'
p1448
g2
(g6
S'-\xff\x9d\x01s\x87\xd1?'
p1449
tp1450
Rp1451
tp1452
a(S'nicholas humphrey'
p1453
g2
(g6
S'{\xb6\xc6|\x90\x83\xd1?'
p1454
tp1455
Rp1456
tp1457
a(S'cit (consciousness)'
p1458
g2
(g6
S'\xc14n.\xf1\x82\xd1?'
p1459
tp1460
Rp1461
tp1462
a(S'henry self'
p1463
g2
(g6
S'\x07\xde\x97\xe9Kr\xd1?'
p1464
tp1465
Rp1466
tp1467
a(S'self-marriage'
p1468
g2
(g6
S'\xd7\xc2\xeehjZ\xd1?'
p1469
tp1470
Rp1471
tp1472
a(S'self-medication (disambiguation)'
p1473
g2
(g6
S'\x9f\x98A\xd6 Z\xd1?'
p1474
tp1475
Rp1476
tp1477
a(S'self access language learning centers'
p1478
g2
(g6
S'\xa2\x01L(1Y\xd1?'
p1479
tp1480
Rp1481
tp1482
a(S'the phenomenon of man'
p1483
g2
(g6
S'\xad1Uv\x04T\xd1?'
p1484
tp1485
Rp1486
tp1487
a(S'quantified self'
p1488
g2
(g6
S'\xbf\xb6s*\x8aM\xd1?'
p1489
tp1490
Rp1491
tp1492
a(S'yogachara'
p1493
g2
(g6
S'\xb6\xbc\xa4\xe4\x7fF\xd1?'
p1494
tp1495
Rp1496
tp1497
a(S'self-categorization theory'
p1498
g2
(g6
S'<\xd5\xdcf\x90C\xd1?'
p1499
tp1500
Rp1501
tp1502
a(S'pratibimbavada'
p1503
g2
(g6
S'\xff\xdc\xb3RJ:\xd1?'
p1504
tp1505
Rp1506
tp1507
a(S'so long self'
p1508
g2
(g6
S'\xe4\xc5D\x91\xed8\xd1?'
p1509
tp1510
Rp1511
tp1512
a.