(lp0
(S'semantic knowledge management'
p1
cnumpy.core.multiarray
scalar
p2
(cnumpy
dtype
p3
(S'f8'
p4
I0
I1
tp5
Rp6
(I3
S'<'
p7
NNNI-1
I-1
I0
tp8
bS'\x02\x00\x00\x00\x00\x00\xf0?'
p9
tp10
Rp11
tp12
a(S'content management'
p13
g2
(g6
S':\x82[\xe7\xfd\x84\xdf?'
p14
tp15
Rp16
tp17
a(S'content (media)'
p18
g2
(g6
S'\x00\xfd!\xb02~\xde?'
p19
tp20
Rp21
tp22
a(S'mondeca'
p23
g2
(g6
S'\xd6\x9e\x90\xa9e=\xdd?'
p24
tp25
Rp26
tp27
a(S'content development'
p28
g2
(g6
S'\xbe\xc8s\xd5\xff\xb4\xdc?'
p29
tp30
Rp31
tp32
a(S'web content lifecycle'
p33
g2
(g6
S'%\x88\xe34.\xa2\xdc?'
p34
tp35
Rp36
tp37
a(S'content strategy'
p38
g2
(g6
S'\xef^U/\xe9\x87\xdc?'
p39
tp40
Rp41
tp42
a(S'content engineering'
p43
g2
(g6
S"\xb9$'\xbfx\x80\xdc?"
p44
tp45
Rp46
tp47
a(S'content'
p48
g2
(g6
S'z\x99\xd3\x12\x96\xab\xdb?'
p49
tp50
Rp51
tp52
a(S'content audit'
p53
g2
(g6
S'o\xa2\x1b\xd6\xa89\xda?'
p54
tp55
Rp56
tp57
a(S'content creation'
p58
g2
(g6
S'\x9d\r%^\xec\xca\xd9?'
p59
tp60
Rp61
tp62
a(S'web content development'
p63
g2
(g6
S'-\xc4\xf6\xf1\x11\xc3\xd9?'
p64
tp65
Rp66
tp67
a(S'content delivery platform'
p68
g2
(g6
S'\x9f\x81\xaf\x8e7o\xd9?'
p69
tp70
Rp71
tp72
a(S'content management system'
p73
g2
(g6
S'\xdd\xedE\x0cT\xe4\xd8?'
p74
tp75
Rp76
tp77
a(S'content managed hosting'
p78
g2
(g6
S';\n\x92\xb26U\xd8?'
p79
tp80
Rp81
tp82
a(S'web content'
p83
g2
(g6
S'\x82u\xb9Y%G\xd8?'
p84
tp85
Rp86
tp87
a(S'content repository'
p88
g2
(g6
S'\xc0\xfbt\x82*\x98\xd7?'
p89
tp90
Rp91
tp92
a(S'duplicate content'
p93
g2
(g6
S'S\xe8\x8e-z\x92\xd7?'
p94
tp95
Rp96
tp97
a(S'mobile content management system'
p98
g2
(g6
S'z^\xf7A\xd5\x88\xd7?'
p99
tp100
Rp101
tp102
a(S'content farm'
p103
g2
(g6
S'\xe6\xcc\x89\x1e9N\xd7?'
p104
tp105
Rp106
tp107
a(S'content re-appropriation'
p108
g2
(g6
S'\x9ee\xaf\xe3\x033\xd7?'
p109
tp110
Rp111
tp112
a(S'internet content rating association'
p113
g2
(g6
S'\x18j\xc3\x91\xb8\xfa\xd6?'
p114
tp115
Rp116
tp117
a(S'axmedis'
p118
g2
(g6
S'\x9c-F\xfc\x15\xdc\xd6?'
p119
tp120
Rp121
tp122
a(S'website content writer'
p123
g2
(g6
S'\xa8\xac\xc8%\x11\xd7\xd6?'
p124
tp125
Rp126
tp127
a(S'content migration'
p128
g2
(g6
S'*\x85\xa8T\x90\xc7\xd6?'
p129
tp130
Rp131
tp132
a(S'web syndication'
p133
g2
(g6
S'\xaa\xe2\xcb/\xb4\xc4\xd6?'
p134
tp135
Rp136
tp137
a(S'content package'
p138
g2
(g6
S'\xb8\xab\x1e~\xdb\xbc\xd6?'
p139
tp140
Rp141
tp142
a(S'content format'
p143
g2
(g6
S'M\xbb\xf7 7\x8c\xd6?'
p144
tp145
Rp146
tp147
a(S'content discovery platform'
p148
g2
(g6
S'\x9e\xb3\xf3\x88f\\\xd6?'
p149
tp150
Rp151
tp152
a(S'digital content'
p153
g2
(g6
S'=\xab\xf0L\x97\x04\xd6?'
p154
tp155
Rp156
tp157
a(S'component content management system'
p158
g2
(g6
S'B7zM9\xfc\xd5?'
p159
tp160
Rp161
tp162
a(S'idio'
p163
g2
(g6
S'5\xc28\x0f\x1e\xa6\xd5?'
p164
tp165
Rp166
tp167
a(S'quark author'
p168
g2
(g6
S'\xdcR\x05\xa0\xb5\xa1\xd5?'
p169
tp170
Rp171
tp172
a(S'praxis test'
p173
g2
(g6
S'{8\xa1\xcf\xd9\x93\xd5?'
p174
tp175
Rp176
tp177
a(S'poolparty semantic suite'
p178
g2
(g6
S'\xe9\xbbc\xdc\x10P\xd5?'
p179
tp180
Rp181
tp182
a(S'content inventory'
p183
g2
(g6
S'\xdf 3\x06oJ\xd5?'
p184
tp185
Rp186
tp187
a(S'semantic technology'
p188
g2
(g6
S'!\xda\xfe\x945G\xd5?'
p189
tp190
Rp191
tp192
a(S'scribblelive'
p193
g2
(g6
S'\xd3S \x9a&E\xd5?'
p194
tp195
Rp196
tp197
a(S'open content'
p198
g2
(g6
S'\xdc\xa9\x84\x1e\r>\xd5?'
p199
tp200
Rp201
tp202
a(S'plagtracker'
p203
g2
(g6
S'\x93~s\x90:\xa8\xd4?'
p204
tp205
Rp206
tp207
a(S'content marketing'
p208
g2
(g6
S'\xf7,b\x98Lj\xd4?'
p209
tp210
Rp211
tp212
a(S'zoomin.tv'
p213
g2
(g6
S'\xd3\xc1\x00L\x05S\xd4?'
p214
tp215
Rp216
tp217
a(S'yahoo! voices'
p218
g2
(g6
S'k\x82H\xb2\xef=\xd4?'
p219
tp220
Rp221
tp222
a(S'content designer'
p223
g2
(g6
S'E\x89\xf6h\x03&\xd4?'
p224
tp225
Rp226
tp227
a(S'content delivery network'
p228
g2
(g6
S'\x07\xccZ\xeef\xf3\xd3?'
p229
tp230
Rp231
tp232
a(S'loomia'
p233
g2
(g6
S'\xb3\xee6\x04L\xf2\xd3?'
p234
tp235
Rp236
tp237
a(S'drumup'
p238
g2
(g6
S'b\xe3g\x82\xcb\xc9\xd3?'
p239
tp240
Rp241
tp242
a(S'h5p'
p243
g2
(g6
S'\xa9L\xed\xfd\x19\xc1\xd3?'
p244
tp245
Rp246
tp247
a(S'atcom'
p248
g2
(g6
S'n\x86\x1a\xf7\xf8\xba\xd3?'
p249
tp250
Rp251
tp252
a(S'web content management system'
p253
g2
(g6
S'\x80\xb6\xafb\xe1\xad\xd3?'
p254
tp255
Rp256
tp257
a(S'content centric networking'
p258
g2
(g6
S'\xefH\xb3\x83\xaf\xa1\xd3?'
p259
tp260
Rp261
tp262
a(S'content security'
p263
g2
(g6
S'S)E\x183\x94\xd3?'
p264
tp265
Rp266
tp267
a(S'paid content'
p268
g2
(g6
S'\xa5\x12\xe9\xc1\x12\x85\xd3?'
p269
tp270
Rp271
tp272
a(S'zemanta'
p273
g2
(g6
S'nI\x8cPtq\xd3?'
p274
tp275
Rp276
tp277
a(S'apache stanbol'
p278
g2
(g6
S'D\n\xbd\xd9\xb4g\xd3?'
p279
tp280
Rp281
tp282
a(S'capacity theory'
p283
g2
(g6
S'u*\xe34\x03J\xd3?'
p284
tp285
Rp286
tp287
a(S'editorial calendar'
p288
g2
(g6
S'9\xe1S\xac\x9cD\xd3?'
p289
tp290
Rp291
tp292
a(S'bunnycdn'
p293
g2
(g6
S'\xef\xa9\xd5\x17\x8c@\xd3?'
p294
tp295
Rp296
tp297
a(S'learning management system'
p298
g2
(g6
S'\xdd\xea\x82\xc7\xd8%\xd3?'
p299
tp300
Rp301
tp302
a(S'documentum'
p303
g2
(g6
S'\x94\xb4\t\x1a=\xff\xd2?'
p304
tp305
Rp306
tp307
a(S'semantic web'
p308
g2
(g6
S'1O2\xb88\xfd\xd2?'
p309
tp310
Rp311
tp312
a(S'hyperlocal'
p313
g2
(g6
S'\xc4\xe8@\xd6\x17\xf5\xd2?'
p314
tp315
Rp316
tp317
a(S'universal multimedia access'
p318
g2
(g6
S'\x0fs\xac\x8e\x8a\xf4\xd2?'
p319
tp320
Rp321
tp322
a(S'openurl knowledge base'
p323
g2
(g6
S'H\x91Y\xe8\xea\xf1\xd2?'
p324
tp325
Rp326
tp327
a(S'advanced content'
p328
g2
(g6
S'\xb7Y\xac\xa8O\xea\xd2?'
p329
tp330
Rp331
tp332
a(S'semantic publishing'
p333
g2
(g6
S'~\x14\x92\xaa\xfc\xe5\xd2?'
p334
tp335
Rp336
tp337
a(S'semantic computing'
p338
g2
(g6
S'F\xfc\x13\x08c\xdd\xd2?'
p339
tp340
Rp341
tp342
a(S'greenscreen animals'
p343
g2
(g6
S'Y\xaa\x15#|\xd7\xd2?'
p344
tp345
Rp346
tp347
a(S'micro content'
p348
g2
(g6
S'\x97n\xbb\xa5D\xcd\xd2?'
p349
tp350
Rp351
tp352
a(S'slidewiki'
p353
g2
(g6
S'\xe0\xc8\x97?6\xc4\xd2?'
p354
tp355
Rp356
tp357
a(S'david henzel'
p358
g2
(g6
S'\xb10\xcfK\xa4\xbe\xd2?'
p359
tp360
Rp361
tp362
a(S'content analysis'
p363
g2
(g6
S'\x96\x81)\x13z\xbd\xd2?'
p364
tp365
Rp366
tp367
a(S'ehow'
p368
g2
(g6
S'{\xfb\xb6I"\xb9\xd2?'
p369
tp370
Rp371
tp372
a(S'semantic network'
p373
g2
(g6
S'\x1f($#5\xb0\xd2?'
p374
tp375
Rp376
tp377
a(S'topic-based authoring'
p378
g2
(g6
S'\x8f\xe7b\x0b\\\x9a\xd2?'
p379
tp380
Rp381
tp382
a(S'content reserve'
p383
g2
(g6
S'b\\\x1a\xe6e\x90\xd2?'
p384
tp385
Rp386
tp387
a(S'flickrocket'
p388
g2
(g6
S'\x1b\x88A\x0c\x12\x8f\xd2?'
p389
tp390
Rp391
tp392
a(S'content writing services'
p393
g2
(g6
S'\x8a\x8b\xa7\xa2\x9c\x8e\xd2?'
p394
tp395
Rp396
tp397
a(S'skyword'
p398
g2
(g6
S'\xea\xce\xbf\xcd\xde|\xd2?'
p399
tp400
Rp401
tp402
a(S'media aggregation platform'
p403
g2
(g6
S'.\xfc\xba-\xbbk\xd2?'
p404
tp405
Rp406
tp407
a(S'copyscape'
p408
g2
(g6
S'\x9f\x0b\xbf\x1e\xfa]\xd2?'
p409
tp410
Rp411
tp412
a(S'lee shulman'
p413
g2
(g6
S'\xe1\xe8\xff\x00TF\xd2?'
p414
tp415
Rp416
tp417
a(S'european film gateway'
p418
g2
(g6
S'\x84\x06\x04\xae\xcfD\xd2?'
p419
tp420
Rp421
tp422
a(S'semantic interoperability community of practice'
p423
g2
(g6
S'\xe7K\x1e\xbeaA\xd2?'
p424
tp425
Rp426
tp427
a(S'semantic p2p networks'
p428
g2
(g6
S'7\xb5\xd1\xe4,0\xd2?'
p429
tp430
Rp431
tp432
a(S'semantic social network'
p433
g2
(g6
S'pR=Y\x8a%\xd2?'
p434
tp435
Rp436
tp437
a(S'shemaroo entertainment'
p438
g2
(g6
S'\x96\xa2{\xd0\x90"\xd2?'
p439
tp440
Rp441
tp442
a(S'openwga'
p443
g2
(g6
S'9z6\xbd\xb2 \xd2?'
p444
tp445
Rp446
tp447
a(S'branded content'
p448
g2
(g6
S'\xeb\xafX\xa5\x86\x19\xd2?'
p449
tp450
Rp451
tp452
a(S'self-protecting digital content'
p453
g2
(g6
S'\xb7+\xa7\x8b\xdd\x14\xd2?'
p454
tp455
Rp456
tp457
a(S'atomic reach'
p458
g2
(g6
S'\x85$\xbe\xc1\xee\n\xd2?'
p459
tp460
Rp461
tp462
a(S'freshwire'
p463
g2
(g6
S'\x8b\xf1\xf6\x8c\x13\x08\xd2?'
p464
tp465
Rp466
tp467
a(S'ontotext'
p468
g2
(g6
S'.\x12^\xf8\xc0\x07\xd2?'
p469
tp470
Rp471
tp472
a(S'open content project'
p473
g2
(g6
S'\x02\xeai\xb3\x82\x05\xd2?'
p474
tp475
Rp476
tp477
a(S'content-control software'
p478
g2
(g6
S'hv\xf7\xe4\xd7\x01\xd2?'
p479
tp480
Rp481
tp482
a(S'reddot'
p483
g2
(g6
S'\xca\x0eBf\xdb\xfc\xd1?'
p484
tp485
Rp486
tp487
a(S'ann rockley'
p488
g2
(g6
S'\x06Ca&\x97\xf9\xd1?'
p489
tp490
Rp491
tp492
a(S'hylos'
p493
g2
(g6
S'\x96rF\x1e\xf6\xef\xd1?'
p494
tp495
Rp496
tp497
a(S'semantic search'
p498
g2
(g6
S']4\x84&/\xef\xd1?'
p499
tp500
Rp501
tp502
a(S'semantic field'
p503
g2
(g6
S' 0\x89\xff\x1a\xec\xd1?'
p504
tp505
Rp506
tp507
a(S'free content'
p508
g2
(g6
S'n\xbag\x95\xb4\xe8\xd1?'
p509
tp510
Rp511
tp512
a(S'content processor'
p513
g2
(g6
S'X\x06u\xa6&\xe5\xd1?'
p514
tp515
Rp516
tp517
a(S'strategic content alliance'
p518
g2
(g6
S'b\nA\xd9\x06\xd8\xd1?'
p519
tp520
Rp521
tp522
a(S'uniformity of content'
p523
g2
(g6
S'\xc5\x94\xd57\x15\xd4\xd1?'
p524
tp525
Rp526
tp527
a(S'spirit and volume'
p528
g2
(g6
S'\x94F\xbb\xb6s\xd0\xd1?'
p529
tp530
Rp531
tp532
a(S'lcms foundation'
p533
g2
(g6
S'\x7f\x02y2U\xcd\xd1?'
p534
tp535
Rp536
tp537
a(S'digitalnz'
p538
g2
(g6
S'v\xc5\xfc\xfd\xcb\xb1\xd1?'
p539
tp540
Rp541
tp542
a(S'locallabs'
p543
g2
(g6
S'\x8b(U\x80\xa5\xa9\xd1?'
p544
tp545
Rp546
tp547
a(S'digital supply chain'
p548
g2
(g6
S']I\xbf\x00\x1a\xa2\xd1?'
p549
tp550
Rp551
tp552
a(S'multi-screen video'
p553
g2
(g6
S'2\xdf\x1e\xc5r\x94\xd1?'
p554
tp555
Rp556
tp557
a(S'semantic desktop'
p558
g2
(g6
S'[\xe2~\xf9[\x92\xd1?'
p559
tp560
Rp561
tp562
a(S'cyn.in'
p563
g2
(g6
S'ub\xc8\x94\xa0\x88\xd1?'
p564
tp565
Rp566
tp567
a(S'semantic feature'
p568
g2
(g6
S'9\x1f%\xcf\xa2~\xd1?'
p569
tp570
Rp571
tp572
a(S'content curation'
p573
g2
(g6
S'\x11\\\xb0;\xebp\xd1?'
p574
tp575
Rp576
tp577
a(S'semantic memory'
p578
g2
(g6
S'$\xa2|/\xb1p\xd1?'
p579
tp580
Rp581
tp582
a(S'article spinning'
p583
g2
(g6
S'\x1dVZ\x0e\xd2i\xd1?'
p584
tp585
Rp586
tp587
a(S'knowledge management'
p588
g2
(g6
S'\x92C{\xcap`\xd1?'
p589
tp590
Rp591
tp592
a(S'automatic content recognition'
p593
g2
(g6
S'V\xce1;\xefW\xd1?'
p594
tp595
Rp596
tp597
a(S'semantic intelligence'
p598
g2
(g6
S'\xa2h\x97hEN\xd1?'
p599
tp600
Rp601
tp602
a(S'content protection network'
p603
g2
(g6
S'\xd3\xb0\x99\x156(\xd1?'
p604
tp605
Rp606
tp607
a(S'videolectures.net'
p608
g2
(g6
S'\x96\xb2Xz\x1a \xd1?'
p609
tp610
Rp611
tp612
a(S'downloadable content'
p613
g2
(g6
S'\x10\x13\x01tb\x1e\xd1?'
p614
tp615
Rp616
tp617
a(S'gregoris mentzas'
p618
g2
(g6
S'_\xbf\x9f%\xd4\x0e\xd1?'
p619
tp620
Rp621
tp622
a(S'digital distribution'
p623
g2
(g6
S"l!b'\xde\x08\xd1?"
p624
tp625
Rp626
tp627
a(S'semantic broker'
p628
g2
(g6
S'\x08<WQ\xb3\x07\xd1?'
p629
tp630
Rp631
tp632
a(S'powerlinks media'
p633
g2
(g6
S'\x14\n\x7f\xb8\x0f\x03\xd1?'
p634
tp635
Rp636
tp637
a(S'mirror image internet'
p638
g2
(g6
S'n\xa0Dg)\xfe\xd0?'
p639
tp640
Rp641
tp642
a(S'openmath'
p643
g2
(g6
S'\x1a\x9czRR\xd6\xd0?'
p644
tp645
Rp646
tp647
a(S'servio'
p648
g2
(g6
S'L\xa7\x91\x8c\x0f\xc4\xd0?'
p649
tp650
Rp651
tp652
a(S'semantic unification'
p653
g2
(g6
S':\x92\x10Oy\xbe\xd0?'
p654
tp655
Rp656
tp657
a(S'civolution'
p658
g2
(g6
S'\xa6\x03\x1d\xd45\xbd\xd0?'
p659
tp660
Rp661
tp662
a(S"heart's content, newfoundland and labrador"
p663
g2
(g6
S'\xe821+\x8c\xb9\xd0?'
p664
tp665
Rp666
tp667
a(S'semantic wiki'
p668
g2
(g6
S'\xd3&O\xd6<\xb6\xd0?'
p669
tp670
Rp671
tp672
a(S'internet community ports act'
p673
g2
(g6
S'\x9a\x85\xe9\xe8\xd9\xb0\xd0?'
p674
tp675
Rp676
tp677
a(S'marjorie content'
p678
g2
(g6
S'\xd6\x94\x83\xac\xac\xa7\xd0?'
p679
tp680
Rp681
tp682
a(S'semantic web stack'
p683
g2
(g6
S'\x02\x9d\x04\xdde\xa3\xd0?'
p684
tp685
Rp686
tp687
a(S'skuvantage'
p688
g2
(g6
S'\xa2\xc2 \xbac\x87\xd0?'
p689
tp690
Rp691
tp692
a(S'unizin'
p693
g2
(g6
S'\x1e\xeb/\xa8\xbd\x83\xd0?'
p694
tp695
Rp696
tp697
a(S'concerto signage'
p698
g2
(g6
S'\x86\xe55\xafu\x83\xd0?'
p699
tp700
Rp701
tp702
a(S'bite, snack and meal'
p703
g2
(g6
S'nV\x89\x06\xd9h\xd0?'
p704
tp705
Rp706
tp707
a(S'amazon cloudfront'
p708
g2
(g6
S'Vpa\xddwc\xd0?'
p709
tp710
Rp711
tp712
a(S'highmat'
p713
g2
(g6
S'3\n\xab\xfd\x95a\xd0?'
p714
tp715
Rp716
tp717
a(S'richard p. smiraglia'
p718
g2
(g6
S'\x80E\x9a\xc5\xdaO\xd0?'
p719
tp720
Rp721
tp722
a(S'impelsys'
p723
g2
(g6
S'ikz\xe1\x18J\xd0?'
p724
tp725
Rp726
tp727
a(S'produsage'
p728
g2
(g6
S'\x0e\xe2X\xef%B\xd0?'
p729
tp730
Rp731
tp732
a(S'440c'
p733
g2
(g6
S'\xb6\xed\xfc\xe0\x83>\xd0?'
p734
tp735
Rp736
tp737
a(S'resources of a resource'
p738
g2
(g6
S'BW\xab\xc0\x98<\xd0?'
p739
tp740
Rp741
tp742
a(S'microsoft content management server'
p743
g2
(g6
S'\xf50Z\xa5\x8b:\xd0?'
p744
tp745
Rp746
tp747
a(S'uss content (sp-538)'
p748
g2
(g6
S'"\x1fOW\xb12\xd0?'
p749
tp750
Rp751
tp752
a(S'konbini (company)'
p753
g2
(g6
S'\x96\xd5\x1bE\x8d.\xd0?'
p754
tp755
Rp756
tp757
a(S'drama annotation'
p758
g2
(g6
S'\tqH\x9c\xf8!\xd0?'
p759
tp760
Rp761
tp762
a(S'semantic grid'
p763
g2
(g6
S'\x80~\xe2\xb9,!\xd0?'
p764
tp765
Rp766
tp767
a(S'content delivery network interconnection'
p768
g2
(g6
S'\x92\xe6\x80&\x06\x17\xd0?'
p769
tp770
Rp771
tp772
a(S'semantic property'
p773
g2
(g6
S'\x19\xfc\x1c\x86\x90\x16\xd0?'
p774
tp775
Rp776
tp777
a(S'julian togelius'
p778
g2
(g6
S'\xcf\xd2;\xf3\x89\x0e\xd0?'
p779
tp780
Rp781
tp782
a(S'trapit'
p783
g2
(g6
S'\x9a#54\x98\x08\xd0?'
p784
tp785
Rp786
tp787
a(S'decent network'
p788
g2
(g6
S'\xd5\xb8>\xdb\t\xfc\xcf?'
p789
tp790
Rp791
tp792
a(S'native advertising'
p793
g2
(g6
S'\xdf\xf6\x8d\x0b\xe1\xee\xcf?'
p794
tp795
Rp796
tp797
a(S'content reference identifier'
p798
g2
(g6
S"\xfe#\xd5X'\xec\xcf?"
p799
tp800
Rp801
tp802
a(S'enterprise content integration'
p803
g2
(g6
S'J\x0c-\xf0>\xdd\xcf?'
p804
tp805
Rp806
tp807
a(S'previewnetworks'
p808
g2
(g6
S'Z\x1f\xd5\x04l\xdc\xcf?'
p809
tp810
Rp811
tp812
a(S'semantic folding'
p813
g2
(g6
S'\xc2\xb6\x10r\xb8\xda\xcf?'
p814
tp815
Rp816
tp817
a(S'cross-reference'
p818
g2
(g6
S')SV1\xbb\xd6\xcf?'
p819
tp820
Rp821
tp822
a(S'personal knowledge networking'
p823
g2
(g6
S'\xbc\xeb\xd2_\x0c\xb8\xcf?'
p824
tp825
Rp826
tp827
a(S'expert system s.p.a.'
p828
g2
(g6
S'\xe2\n\xf6\xda\x06\xb7\xcf?'
p829
tp830
Rp831
tp832
a(S'opensesame inc'
p833
g2
(g6
S'-\x80\x03\xc2;\xae\xcf?'
p834
tp835
Rp836
tp837
a(S'akamai technologies'
p838
g2
(g6
S'\x1eO\xecfx\xaa\xcf?'
p839
tp840
Rp841
tp842
a(S'advanced content analysis'
p843
g2
(g6
S'-38_Y\x98\xcf?'
p844
tp845
Rp846
tp847
a(S'dotcms'
p848
g2
(g6
S'%c %\xa3\x92\xcf?'
p849
tp850
Rp851
tp852
a(S'virginia open education foundation'
p853
g2
(g6
S'\xd2\xf2\xae\x9c\x06\x8a\xcf?'
p854
tp855
Rp856
tp857
a(S'speedera networks'
p858
g2
(g6
S'\x7f\xaar\x9f\x98~\xcf?'
p859
tp860
Rp861
tp862
a(S'taazi'
p863
g2
(g6
S'\x1dqe_\xb1s\xcf?'
p864
tp865
Rp866
tp867
a(S'sawsdl'
p868
g2
(g6
S'\x9b\xa5\xc73\xd4g\xcf?'
p869
tp870
Rp871
tp872
a(S'playbuzz'
p873
g2
(g6
S'\xaa\x05\xb3ZCZ\xcf?'
p874
tp875
Rp876
tp877
a(S'zuitube'
p878
g2
(g6
S'\xe6&\xacOPB\xcf?'
p879
tp880
Rp881
tp882
a(S'spankwire'
p883
g2
(g6
S'\xa7\x10\xa6w\xe54\xcf?'
p884
tp885
Rp886
tp887
a(S'planetmath'
p888
g2
(g6
S'\x06Ab\x83\x14.\xcf?'
p889
tp890
Rp891
tp892
a(S'composr cms'
p893
g2
(g6
S'6\x9f]\xc1\xdf!\xcf?'
p894
tp895
Rp896
tp897
a(S'outline of knowledge'
p898
g2
(g6
S'\xf7\xba(\xeck\x1a\xcf?'
p899
tp900
Rp901
tp902
a(S'content as a service'
p903
g2
(g6
S'I2\xd4]v\n\xcf?'
p904
tp905
Rp906
tp907
a(S'semantic mapping'
p908
g2
(g6
S'\xa3\x97qZ{\xf9\xce?'
p909
tp910
Rp911
tp912
a(S'knowledge market'
p913
g2
(g6
S'\x82]2p\xb1\xe7\xce?'
p914
tp915
Rp916
tp917
a(S'smw+'
p918
g2
(g6
S'a\xad\t_}\xdc\xce?'
p919
tp920
Rp921
tp922
a(S'semantic role labeling'
p923
g2
(g6
S'\xac\xacM\xb3$\xcc\xce?'
p924
tp925
Rp926
tp927
a(S'social semantic web'
p928
g2
(g6
S'\xc5\xde2ow\xad\xce?'
p929
tp930
Rp931
tp932
a(S'enterprise content management'
p933
g2
(g6
S',\xde\x15G\xe5\xac\xce?'
p934
tp935
Rp936
tp937
a(S'online content analysis'
p938
g2
(g6
S'&\xdd\x1ep\xac\xa0\xce?'
p939
tp940
Rp941
tp942
a(S'content-addressable storage'
p943
g2
(g6
S'@\xffv,\xa3\x91\xce?'
p944
tp945
Rp946
tp947
a(S'semantic mapper'
p948
g2
(g6
S'}\x90\x8fH\xb4\x8f\xce?'
p949
tp950
Rp951
tp952
a(S'wildscreen.tv'
p953
g2
(g6
S'\xa4\xed\x9eq\xeb\x83\xce?'
p954
tp955
Rp956
tp957
a(S'knowledge organization (management)'
p958
g2
(g6
S'\xe2\xdb\xa3\x13\x91\x82\xce?'
p959
tp960
Rp961
tp962
a(S'semantic primes'
p963
g2
(g6
S'\xba\xd4fl\xcf\x7f\xce?'
p964
tp965
Rp966
tp967
a(S'semantic query'
p968
g2
(g6
S'\x84 \x00\xfbd|\xce?'
p969
tp970
Rp971
tp972
a(S'amit sheth'
p973
g2
(g6
S'~)a\xe0\xb0v\xce?'
p974
tp975
Rp976
tp977
a(S'semantic domain'
p978
g2
(g6
S'\x1f\x04\x92\xb1Dp\xce?'
p979
tp980
Rp981
tp982
a(S'crazytalk'
p983
g2
(g6
S'SX\x83)1f\xce?'
p984
tp985
Rp986
tp987
a(S'ibm lotus web content management'
p988
g2
(g6
S'\x13\x12\xe3\xf8z^\xce?'
p989
tp990
Rp991
tp992
a(S'theneeds'
p993
g2
(g6
S'\x04\xff*\xc7\x1eS\xce?'
p994
tp995
Rp996
tp997
a(S'baltika breweries'
p998
g2
(g6
S'g\xcc\xb2\x80{0\xce?'
p999
tp1000
Rp1001
tp1002
a(S'diagonal view'
p1003
g2
(g6
S'\x87eC*\xb2 \xce?'
p1004
tp1005
Rp1006
tp1007
a(S'christopher peacocke'
p1008
g2
(g6
S'\xe1\x17\xb1Z\xe2\x16\xce?'
p1009
tp1010
Rp1011
tp1012
a(S"kido'z"
p1013
g2
(g6
S'Y\xaf\xcfwF\x12\xce?'
p1014
tp1015
Rp1016
tp1017
a(S'tiptop technologies'
p1018
g2
(g6
S'\x07\x8c\x91\xdeU\xfc\xcd?'
p1019
tp1020
Rp1021
tp1022
a(S'naaya'
p1023
g2
(g6
S'\x08~\xa0\xb3\x9a\xf9\xcd?'
p1024
tp1025
Rp1026
tp1027
a(S'rr media'
p1028
g2
(g6
S'W\xe8\xb2\x92\xfb\xee\xcd?'
p1029
tp1030
Rp1031
tp1032
a(S'water content'
p1033
g2
(g6
S'\x956{Q\x8d\xed\xcd?'
p1034
tp1035
Rp1036
tp1037
a(S'pens (software)'
p1038
g2
(g6
S'-^\xd7\x1b\x06\xe7\xcd?'
p1039
tp1040
Rp1041
tp1042
a(S'wood briquette'
p1043
g2
(g6
S'\x80\x9b\x02\xd8x\xe0\xcd?'
p1044
tp1045
Rp1046
tp1047
a(S'knowledge society'
p1048
g2
(g6
S'\xcd9V\x7f\xe3\xde\xcd?'
p1049
tp1050
Rp1051
tp1052
a(S'frank van harmelen'
p1053
g2
(g6
S'\xee(G[\xbe\xde\xcd?'
p1054
tp1055
Rp1056
tp1057
a(S'personal knowledge management'
p1058
g2
(g6
S'\x06Z\xb5G\x86\xd6\xcd?'
p1059
tp1060
Rp1061
tp1062
a(S'semantic data model'
p1063
g2
(g6
S'\x02\x9d\x9b\xd7\xc1\xcb\xcd?'
p1064
tp1065
Rp1066
tp1067
a(S'qitera'
p1068
g2
(g6
S'\xf7\xdb\x0c\xd1\x19\xc5\xcd?'
p1069
tp1070
Rp1071
tp1072
a(S'clickhole'
p1073
g2
(g6
S'\xda\t\xab$\x11\xa6\xcd?'
p1074
tp1075
Rp1076
tp1077
a(S'semantic mediawiki'
p1078
g2
(g6
S'\x96\x95-\x94g\x8f\xcd?'
p1079
tp1080
Rp1081
tp1082
a(S'semantic similarity'
p1083
g2
(g6
S'\x14\x9d}\x94\xd5z\xcd?'
p1084
tp1085
Rp1086
tp1087
a(S'sciencestage'
p1088
g2
(g6
S'\xed\x1b\xaa\xb0\xf7p\xcd?'
p1089
tp1090
Rp1091
tp1092
a(S'najdi!'
p1093
g2
(g6
S'">|\xd2lm\xcd?'
p1094
tp1095
Rp1096
tp1097
a(S'scoop.it'
p1098
g2
(g6
S'\xa8ZF\x1f\xefV\xcd?'
p1099
tp1100
Rp1101
tp1102
a(S'semantic dispute'
p1103
g2
(g6
S'b\n\xb7a\xcfP\xcd?'
p1104
tp1105
Rp1106
tp1107
a(S'kidzui'
p1108
g2
(g6
S'\xdaz3\x9a\xcbP\xcd?'
p1109
tp1110
Rp1111
tp1112
a(S'high-definition audio-video network alliance'
p1113
g2
(g6
S'\xe0_5\xa7\xa79\xcd?'
p1114
tp1115
Rp1116
tp1117
a(S'mavshack'
p1118
g2
(g6
S"/\xc7(\xaa\x82'\xcd?"
p1119
tp1120
Rp1121
tp1122
a(S'knowledge'
p1123
g2
(g6
S'd\x92\xf8\xdb&\x1b\xcd?'
p1124
tp1125
Rp1126
tp1127
a(S'encyclopedia of earth'
p1128
g2
(g6
S'\x9bD\xdc\x12z\x0c\xcd?'
p1129
tp1130
Rp1131
tp1132
a(S'relegence'
p1133
g2
(g6
S'\x02\xbd\xa9\x81\xcc\xff\xcc?'
p1134
tp1135
Rp1136
tp1137
a(S'clearplay'
p1138
g2
(g6
S'\xb0o&v\xce\xf1\xcc?'
p1139
tp1140
Rp1141
tp1142
a(S'content adaptation'
p1143
g2
(g6
S'\xc6\xaf\x04\x89<\xe7\xcc?'
p1144
tp1145
Rp1146
tp1147
a(S'knowledge worker'
p1148
g2
(g6
S'\xa3\x99T/\xd0\xe6\xcc?'
p1149
tp1150
Rp1151
tp1152
a(S'not safe for work'
p1153
g2
(g6
S'\xd67`\r{\xe6\xcc?'
p1154
tp1155
Rp1156
tp1157
a(S'internet television'
p1158
g2
(g6
S'q\x807\xc6\xd9\xe5\xcc?'
p1159
tp1160
Rp1161
tp1162
a(S'content management interface'
p1163
g2
(g6
S'\x8a\xa6B0\x9b\xd4\xcc?'
p1164
tp1165
Rp1166
tp1167
a(S'opencms'
p1168
g2
(g6
S'a\xa3\x15\xfd\x18\xd1\xcc?'
p1169
tp1170
Rp1171
tp1172
a(S'geo-content'
p1173
g2
(g6
S'T\xa4|1\x83\xcf\xcc?'
p1174
tp1175
Rp1176
tp1177
a(S'social knowledge management'
p1178
g2
(g6
S'\xe0\xac\xb8\xf7\x00\xca\xcc?'
p1179
tp1180
Rp1181
tp1182
a(S'authoring system'
p1183
g2
(g6
S'\x05M\x1b\x87\x9a\xc1\xcc?'
p1184
tp1185
Rp1186
tp1187
a(S'general knowledge'
p1188
g2
(g6
S'\x95\x83\xabv\xc7\xb8\xcc?'
p1189
tp1190
Rp1191
tp1192
a(S'multi-frequency network'
p1193
g2
(g6
S']\x85}\xb6q\xb4\xcc?'
p1194
tp1195
Rp1196
tp1197
a(S'outlit'
p1198
g2
(g6
S'5\xb7\xe4\xd7B\xb4\xcc?'
p1199
tp1200
Rp1201
tp1202
a(S'internet content adaptation protocol'
p1203
g2
(g6
S'\x18\\\xafGM\xb0\xcc?'
p1204
tp1205
Rp1206
tp1207
a(S'content-first marketing'
p1208
g2
(g6
S'\x82\xbb72o\xa0\xcc?'
p1209
tp1210
Rp1211
tp1212
a(S'midgard (software)'
p1213
g2
(g6
S'\x84\xc6}L\x8b\x9d\xcc?'
p1214
tp1215
Rp1216
tp1217
a(S'separation of presentation and content'
p1218
g2
(g6
S'\x96f\x9b\x07w\x9c\xcc?'
p1219
tp1220
Rp1221
tp1222
a(S'content (measure theory)'
p1223
g2
(g6
S'n\xd9\xe5\xc8\xa1\x8f\xcc?'
p1224
tp1225
Rp1226
tp1227
a(S'science.tv'
p1228
g2
(g6
S'\xdc\xb0\xc2\x83\x16\x8e\xcc?'
p1229
tp1230
Rp1231
tp1232
a(S'semantic analysis (machine learning)'
p1233
g2
(g6
S'\x07\xe4\xb9\xec\xaf\x8c\xcc?'
p1234
tp1235
Rp1236
tp1237
a(S'webnodes cms'
p1238
g2
(g6
S'\x8c&\x9c\xb7\x91\x8c\xcc?'
p1239
tp1240
Rp1241
tp1242
a(S'semantic integration'
p1243
g2
(g6
S'\xcew\xd6\\\xc9\x8b\xcc?'
p1244
tp1245
Rp1246
tp1247
a(S'semantic warehousing'
p1248
g2
(g6
S'\xb0\xb7\xe8\x9a\x17\x89\xcc?'
p1249
tp1250
Rp1251
tp1252
a(S'semantic analytics'
p1253
g2
(g6
S'6G\x13\x04\x82\x87\xcc?'
p1254
tp1255
Rp1256
tp1257
a(S'1% rule (internet culture)'
p1258
g2
(g6
S'\xf3I\xef 6\x84\xcc?'
p1259
tp1260
Rp1261
tp1262
a(S'alfresco (software)'
p1263
g2
(g6
S'q2\xd2\xactx\xcc?'
p1264
tp1265
Rp1266
tp1267
a(S'dynamic site acceleration'
p1268
g2
(g6
S'\x0b\xbaW\x1bOt\xcc?'
p1269
tp1270
Rp1271
tp1272
a(S'edugraphic'
p1273
g2
(g6
S'\x95\x8b\xaf\tkq\xcc?'
p1274
tp1275
Rp1276
tp1277
a(S'form and content'
p1278
g2
(g6
S'\x86\xde\x17\xe6\xdcf\xcc?'
p1279
tp1280
Rp1281
tp1282
a(S'private label rights'
p1283
g2
(g6
S'\xd8\xe9\xd9\x15\x11a\xcc?'
p1284
tp1285
Rp1286
tp1287
a(S'video browsing'
p1288
g2
(g6
S'Z\xebxM\x12Q\xcc?'
p1289
tp1290
Rp1291
tp1292
a(S'semantic web service'
p1293
g2
(g6
S'\xf1c\x18\xab"J\xcc?'
p1294
tp1295
Rp1296
tp1297
a(S'knowledge value'
p1298
g2
(g6
S'J\xd7\x1a\xc8\xb1D\xcc?'
p1299
tp1300
Rp1301
tp1302
a(S'xerox docushare'
p1303
g2
(g6
S"'k\x02q\x9aA\xcc?"
p1304
tp1305
Rp1306
tp1307
a(S'dean allemang'
p1308
g2
(g6
S'@\xd1\\\x1aM%\xcc?'
p1309
tp1310
Rp1311
tp1312
a(S'semantic audio'
p1313
g2
(g6
S'\x05\xf1u\x0fu$\xcc?'
p1314
tp1315
Rp1316
tp1317
a(S'real time policy'
p1318
g2
(g6
S'|\x1b\xd9W-\x10\xcc?'
p1319
tp1320
Rp1321
tp1322
a(S'atutor'
p1323
g2
(g6
S'\x87\x9d#G\x0f\x0e\xcc?'
p1324
tp1325
Rp1326
tp1327
a(S'stochastic semantic analysis'
p1328
g2
(g6
S'\xea\x86\xd2\x13\x81\n\xcc?'
p1329
tp1330
Rp1331
tp1332
a(S'akimbo (on-demand service)'
p1333
g2
(g6
S'\xe4\x92PL\xd2\x04\xcc?'
p1334
tp1335
Rp1336
tp1337
a(S'semantic analysis (knowledge representation)'
p1338
g2
(g6
S'\x7f|\xf0\xa0\xe5\x01\xcc?'
p1339
tp1340
Rp1341
tp1342
a(S'pay television content descriptors'
p1343
g2
(g6
S'\xb8h\x00!\x9d\xfe\xcb?'
p1344
tp1345
Rp1346
tp1347
a(S'knowledge engine'
p1348
g2
(g6
S'\xb2JN\xa4F\xf6\xcb?'
p1349
tp1350
Rp1351
tp1352
a(S'film and publication board'
p1353
g2
(g6
S'\xc5\x99\xbch\xb9\xf3\xcb?'
p1354
tp1355
Rp1356
tp1357
a(S'user-generated content'
p1358
g2
(g6
S'G\xd7\xf3K\x8c\xf0\xcb?'
p1359
tp1360
Rp1361
tp1362
a(S'wysiwym (interaction technique)'
p1363
g2
(g6
S'\x01\xd6,\xf1T\xe6\xcb?'
p1364
tp1365
Rp1366
tp1367
a(S'acrcloud'
p1368
g2
(g6
S'G{\x0f\xe6\xb7\xda\xcb?'
p1369
tp1370
Rp1371
tp1372
a(S'chief knowledge officer'
p1373
g2
(g6
S'\xb2]\x8b\x81\x10\xd7\xcb?'
p1374
tp1375
Rp1376
tp1377
a(S'knowledge transfer'
p1378
g2
(g6
S'\xc5\x18\xc2\xb0W\xcc\xcb?'
p1379
tp1380
Rp1381
tp1382
a(S'journalism and freedom'
p1383
g2
(g6
S'\xedA>\xe9\xf8\xc7\xcb?'
p1384
tp1385
Rp1386
tp1387
a(S'tom gerace'
p1388
g2
(g6
S'`\x87\xa9V\xc9\xc3\xcb?'
p1389
tp1390
Rp1391
tp1392
a(S'cdnetworks'
p1393
g2
(g6
S'\n`\x9b"\xee\xc0\xcb?'
p1394
tp1395
Rp1396
tp1397
a(S'yupptv'
p1398
g2
(g6
S'j\x8f\xbd\xcb\xc5\xbd\xcb?'
p1399
tp1400
Rp1401
tp1402
a(S'dday one'
p1403
g2
(g6
S'GT\xf5\x03F\xb9\xcb?'
p1404
tp1405
Rp1406
tp1407
a(S'vubiquity'
p1408
g2
(g6
S'%{m\x1bK\xb7\xcb?'
p1409
tp1410
Rp1411
tp1412
a(S'content-based instruction'
p1413
g2
(g6
S'7\x02\xe2\xa77\xb2\xcb?'
p1414
tp1415
Rp1416
tp1417
a(S'association for information and image management'
p1418
g2
(g6
S'\x1c\x8a-h\x9d\xa7\xcb?'
p1419
tp1420
Rp1421
tp1422
a(S'content & company'
p1423
g2
(g6
S'\x91D\xda\x81\x98\xa5\xcb?'
p1424
tp1425
Rp1426
tp1427
a(S'drama 2.0'
p1428
g2
(g6
S'#xx\xf5\x1c\xa4\xcb?'
p1429
tp1430
Rp1431
tp1432
a(S'semantic copyright'
p1433
g2
(g6
S'\x9d\x06]\xf8\x9f\x95\xcb?'
p1434
tp1435
Rp1436
tp1437
a(S'mobile cdn'
p1438
g2
(g6
S'\x0f\xbb|\xafx\x8f\xcb?'
p1439
tp1440
Rp1441
tp1442
a(S'idiomag'
p1443
g2
(g6
S'\xc5R\x0c\x08\x1b\x86\xcb?'
p1444
tp1445
Rp1446
tp1447
a(S'content storage management'
p1448
g2
(g6
S'\xe4!p4[x\xcb?'
p1449
tp1450
Rp1451
tp1452
a(S'varjojenkirja'
p1453
g2
(g6
S'\x87\x80\xc6z\xccw\xcb?'
p1454
tp1455
Rp1456
tp1457
a(S'gerald b. kieschnick'
p1458
g2
(g6
S'\xeahO\x16Hr\xcb?'
p1459
tp1460
Rp1461
tp1462
a(S'lectora'
p1463
g2
(g6
S'\xcc\x1d\xa1\xb4 l\xcb?'
p1464
tp1465
Rp1466
tp1467
a(S'list of postcodes in victoria'
p1468
g2
(g6
S'\xb3\xa37\xfaP`\xcb?'
p1469
tp1470
Rp1471
tp1472
a(S'semantic class'
p1473
g2
(g6
S'\xf3\xd9\x98+\xe5Y\xcb?'
p1474
tp1475
Rp1476
tp1477
a(S'medical education agency'
p1478
g2
(g6
S'Z\x06\xb9C\xf1X\xcb?'
p1479
tp1480
Rp1481
tp1482
a(S'semantic research'
p1483
g2
(g6
S'6\xce\x10\xb7\x92W\xcb?'
p1484
tp1485
Rp1486
tp1487
a(S'cache invalidation'
p1488
g2
(g6
S'\xe8z\x98\x80\x13F\xcb?'
p1489
tp1490
Rp1491
tp1492
a(S'page interchange language'
p1493
g2
(g6
S'y$\xb4%ND\xcb?'
p1494
tp1495
Rp1496
tp1497
a(S'acemedia'
p1498
g2
(g6
S'\x83\xbe\xbe\xb8\x168\xcb?'
p1499
tp1500
Rp1501
tp1502
a(S'logik (book)'
p1503
g2
(g6
S'\x01\xaf\x1a\x9a]5\xcb?'
p1504
tp1505
Rp1506
tp1507
a(S'korea creative content agency'
p1508
g2
(g6
S'\x84\tU\xf2\x1a3\xcb?'
p1509
tp1510
Rp1511
tp1512
a.