(lp0
(S'semantic web'
p1
cnumpy.core.multiarray
scalar
p2
(cnumpy
dtype
p3
(S'f8'
p4
I0
I1
tp5
Rp6
(I3
S'<'
p7
NNNI-1
I-1
I0
tp8
bS'\xf4\xff\xff\xff\xff\xff\xef?'
p9
tp10
Rp11
tp12
a(S'semantic web stack'
p13
g2
(g6
S'\x00\x95~\xec\x17\x9e\xea?'
p14
tp15
Rp16
tp17
a(S'semantic publishing'
p18
g2
(g6
S'\xdf\x96\x1d\x06Hx\xe8?'
p19
tp20
Rp21
tp22
a(S'semantic web service'
p23
g2
(g6
S'4\x0c\xceU-\x91\xe7?'
p24
tp25
Rp26
tp27
a(S'social semantic web'
p28
g2
(g6
S'\xa8#W\x10!X\xe7?'
p29
tp30
Rp31
tp32
a(S'data web'
p33
g2
(g6
S'tqM\xbc\x10\x88\xe5?'
p34
tp35
Rp36
tp37
a(S'hyperdata'
p38
g2
(g6
S'\xaf[\x8f\xf3S6\xe5?'
p39
tp40
Rp41
tp42
a(S'dean allemang'
p43
g2
(g6
S'Ug\xb9\xed\xb9\xbe\xe4?'
p44
tp45
Rp46
tp47
a(S'semantic technology'
p48
g2
(g6
S'\xa1\xbb\xf3)\xb1\xbd\xe4?'
p49
tp50
Rp51
tp52
a(S'ontotext'
p53
g2
(g6
S'x<^S\x9f\xa3\xe4?'
p54
tp55
Rp56
tp57
a(S'poolparty semantic suite'
p58
g2
(g6
S'\xdf\x13\xfd\x02v\x8a\xe4?'
p59
tp60
Rp61
tp62
a(S'qitera'
p63
g2
(g6
S'\xf7rK\x88\x87[\xe4?'
p64
tp65
Rp66
tp67
a(S'semantic html'
p68
g2
(g6
S'h`\xa7\x03\xee\xaa\xe3?'
p69
tp70
Rp71
tp72
a(S'wsmo'
p73
g2
(g6
S'\x82in\x0ff\xaa\xe3?'
p74
tp75
Rp76
tp77
a(S'semantic desktop'
p78
g2
(g6
S'z\x94\xf3\xdb\x9e\x8b\xe3?'
p79
tp80
Rp81
tp82
a(S'swoogle'
p83
g2
(g6
S'\xbf\xfd\xbc7 \xe5\xe2?'
p84
tp85
Rp86
tp87
a(S'semantic wiki'
p88
g2
(g6
S'\x83\x93\x99\x9c\xd4\xf8\xe1?'
p89
tp90
Rp91
tp92
a(S'amit sheth'
p93
g2
(g6
S"'a\xbcs\x94\xf3\xe1?"
p94
tp95
Rp96
tp97
a(S'semantic search'
p98
g2
(g6
S'\xe92\xfa\xa9\xac\x9d\xe1?'
p99
tp100
Rp101
tp102
a(S'sawsdl'
p103
g2
(g6
S'g\x12#\xba`\x88\xe1?'
p104
tp105
Rp106
tp107
a(S'ora lassila'
p108
g2
(g6
S'\xc9|\xdf\xc1\xe7r\xe1?'
p109
tp110
Rp111
tp112
a(S'business intelligence 2.0'
p113
g2
(g6
S'\x9b\xee\x8b}bj\xe1?'
p114
tp115
Rp116
tp117
a(S'semantic network'
p118
g2
(g6
S'\xfbu5\xe9\xeeh\xe1?'
p119
tp120
Rp121
tp122
a(S'foaf (ontology)'
p123
g2
(g6
S'\xd9\xc5\xfdF\xf8^\xe1?'
p124
tp125
Rp126
tp127
a(S'ontoprise gmbh'
p128
g2
(g6
S'/\x9cO\xbcwP\xe1?'
p129
tp130
Rp131
tp132
a(S'data feed'
p133
g2
(g6
S'\x07\x98\\\xd26F\xe1?'
p134
tp135
Rp136
tp137
a(S'semantic social network'
p138
g2
(g6
S'\x1c\xfaL>\xb3E\xe1?'
p139
tp140
Rp141
tp142
a(S'semantic interoperability community of practice'
p143
g2
(g6
S'\xc4\xb7\xe3l\xb4/\xe1?'
p144
tp145
Rp146
tp147
a(S'semantic mapper'
p148
g2
(g6
S'\x96\xf1\xa2+v&\xe1?'
p149
tp150
Rp151
tp152
a(S'semantic field'
p153
g2
(g6
S'\nM\xae=\xf6\x1d\xe1?'
p154
tp155
Rp156
tp157
a(S'semantic feature'
p158
g2
(g6
S'\xba\x0c\xc1(\xb6\x07\xe1?'
p159
tp160
Rp161
tp162
a(S'semantic intelligence'
p163
g2
(g6
S'\x16o\x98@\xa7\xff\xe0?'
p164
tp165
Rp166
tp167
a(S'semantic grid'
p168
g2
(g6
S'\xd4\x04\xe6G\xfd\xf4\xe0?'
p169
tp170
Rp171
tp172
a(S'world wide web'
p173
g2
(g6
S'\xc8\xee>\xd9\x8e\xdd\xe0?'
p174
tp175
Rp176
tp177
a(S'semantic query'
p178
g2
(g6
S'7N\xad\x11Q\xca\xe0?'
p179
tp180
Rp181
tp182
a(S'semantic translation'
p183
g2
(g6
S'\xbc\xd31*\xeb\xb8\xe0?'
p184
tp185
Rp186
tp187
a(S'semantic data model'
p188
g2
(g6
S'%\xa5~l\x1b\xb7\xe0?'
p189
tp190
Rp191
tp192
a(S'semantic p2p networks'
p193
g2
(g6
S']\x1d\xf6L(\xa6\xe0?'
p194
tp195
Rp196
tp197
a(S'gregoris mentzas'
p198
g2
(g6
S'\x13\xb0\x06\xa2\x7f|\xe0?'
p199
tp200
Rp201
tp202
a(S'web 2.0'
p203
g2
(g6
S'B\xe6\xbd\xf8\xc0{\xe0?'
p204
tp205
Rp206
tp207
a(S'simple knowledge organization system'
p208
g2
(g6
S'\xda$\xeb\xc6$Q\xe0?'
p209
tp210
Rp211
tp212
a(S'frank van harmelen'
p213
g2
(g6
S'\x08\xf6\xbf6\xa9F\xe0?'
p214
tp215
Rp216
tp217
a(S'semantic integration'
p218
g2
(g6
S'N\xa5\xf4\x0f\xa1\x10\xe0?'
p219
tp220
Rp221
tp222
a(S'semantic analytics'
p223
g2
(g6
S'\xf1%\xb9\xac\xf5\xf8\xdf?'
p224
tp225
Rp226
tp227
a(S'semantic broker'
p228
g2
(g6
S'\xb6\x065*\xc8\xed\xdf?'
p229
tp230
Rp231
tp232
a(S'microformat'
p233
g2
(g6
S'\xcc\x1e\x1d\xf7\x01\xdd\xdf?'
p234
tp235
Rp236
tp237
a(S'giant global graph'
p238
g2
(g6
S'R\xe291\x1d\xc2\xdf?'
p239
tp240
Rp241
tp242
a(S'semantic sensor web'
p243
g2
(g6
S'E\x01A4F\xab\xdf?'
p244
tp245
Rp246
tp247
a(S'semantic folding'
p248
g2
(g6
S'\xc0\x01\x94(7\xa2\xdf?'
p249
tp250
Rp251
tp252
a(S'semantic property'
p253
g2
(g6
S'\x997z\xdd\x93\x9b\xdf?'
p254
tp255
Rp256
tp257
a(S'semantic memory'
p258
g2
(g6
S'h\xbc\xcb@\xa7x\xdf?'
p259
tp260
Rp261
tp262
a(S'semantic geospatial web'
p263
g2
(g6
S')P]\x8b\xd2_\xdf?'
p264
tp265
Rp266
tp267
a(S'semantic mapping'
p268
g2
(g6
S'B\x11\xc3*nX\xdf?'
p269
tp270
Rp271
tp272
a(S'sebastian schaffert'
p273
g2
(g6
S'>(\x00\xc6\x996\xdf?'
p274
tp275
Rp276
tp277
a(S'web service'
p278
g2
(g6
S'\x7f\x19\x9dn\x08\xda\xde?'
p279
tp280
Rp281
tp282
a(S'semantic interoperability'
p283
g2
(g6
S'\x97\xf4o\xec\x91\x8b\xde?'
p284
tp285
Rp286
tp287
a(S'owl-s'
p288
g2
(g6
S'\xfdm\xeb\xb8Al\xde?'
p289
tp290
Rp291
tp292
a(S'digital enterprise research institute'
p293
g2
(g6
S'\x0b0\xdbKga\xde?'
p294
tp295
Rp296
tp297
a(S'semantic mediawiki'
p298
g2
(g6
S'\x90\xcb0*\x10X\xde?'
p299
tp300
Rp301
tp302
a(S'tiptop technologies'
p303
g2
(g6
S'X[%\x06\x93Q\xde?'
p304
tp305
Rp306
tp307
a(S'semantic warehousing'
p308
g2
(g6
S'Y)\xbb\xd0\xcd,\xde?'
p309
tp310
Rp311
tp312
a(S'semantic computing'
p313
g2
(g6
S'\xd20\xba\xeb%+\xde?'
p314
tp315
Rp316
tp317
a(S'semantic spectrum'
p318
g2
(g6
S'\x9e\xe9p\xa6\xc8)\xde?'
p319
tp320
Rp321
tp322
a(S'semantic primes'
p323
g2
(g6
S'\xfa\x07\xce\x9a\x12(\xde?'
p324
tp325
Rp326
tp327
a(S'oohdm'
p328
g2
(g6
S'$-M\x995\x1b\xde?'
p329
tp330
Rp331
tp332
a(S'semantic domain'
p333
g2
(g6
S'\x95\xdcP\x9cb\x02\xde?'
p334
tp335
Rp336
tp337
a(S'cubicweb'
p338
g2
(g6
S',\xa3\x15.\x9b\xd2\xdd?'
p339
tp340
Rp341
tp342
a(S'wysiwym (interaction technique)'
p343
g2
(g6
S'\xf7+\xd6f\xc9\xcf\xdd?'
p344
tp345
Rp346
tp347
a(S'semantic similarity'
p348
g2
(g6
S'\xcen\xc7\xe8\xddR\xdd?'
p349
tp350
Rp351
tp352
a(S'web page'
p353
g2
(g6
S'\xaeJ\x1fQ\xde5\xdd?'
p354
tp355
Rp356
tp357
a(S'semantic unification'
p358
g2
(g6
S'\xf6\x88(\xca\x92\x1e\xdd?'
p359
tp360
Rp361
tp362
a(S'semantic role labeling'
p363
g2
(g6
S'\x06\xd2\xddG\x9b\xfa\xdc?'
p364
tp365
Rp366
tp367
a(S'web services modeling language'
p368
g2
(g6
S'\xfb"\x9c\xb2l\xef\xdc?'
p369
tp370
Rp371
tp372
a(S'deep web'
p373
g2
(g6
S'?at\xe0\xe3\xaf\xdc?'
p374
tp375
Rp376
tp377
a(S'extended semantic web conference'
p378
g2
(g6
S'\xe5\xa1\xc1\xb6\x18\x99\xdc?'
p379
tp380
Rp381
tp382
a(S'profium'
p383
g2
(g6
S'\xca\x1d\xe4\xca\r\x92\xdc?'
p384
tp385
Rp386
tp387
a(S'simple html ontology extensions'
p388
g2
(g6
S'"i\xd8\x80\'|\xdc?'
p389
tp390
Rp391
tp392
a(S'history of the world wide web'
p393
g2
(g6
S'\xbdLr/\x98z\xdc?'
p394
tp395
Rp396
tp397
a(S'rudi studer'
p398
g2
(g6
S'Ix\x83\xa6Xw\xdc?'
p399
tp400
Rp401
tp402
a(S'web development'
p403
g2
(g6
S'\xa1\x93=\x11\x1cr\xdc?'
p404
tp405
Rp406
tp407
a(S'james hendler'
p408
g2
(g6
S'\x17J\xc2~\xb0m\xdc?'
p409
tp410
Rp411
tp412
a(S'smw+'
p413
g2
(g6
S'\t\xe4}C\xe7\\\xdc?'
p414
tp415
Rp416
tp417
a(S'tassilo pellegrini'
p418
g2
(g6
S'\xe9\x03\xd1\xf00N\xdc?'
p419
tp420
Rp421
tp422
a(S'web standards'
p423
g2
(g6
S'\xbbk\xf8.\xc1=\xdc?'
p424
tp425
Rp426
tp427
a(S'web services semantics'
p428
g2
(g6
S'\x14L\xd6\xfc\xd4\x14\xdc?'
p429
tp430
Rp431
tp432
a(S'web engineering'
p433
g2
(g6
S'u\xfb\xc1\xcb\xad\x08\xdc?'
p434
tp435
Rp436
tp437
a(S'surface web'
p438
g2
(g6
S'O\x02\xff\xf62\x06\xdc?'
p439
tp440
Rp441
tp442
a(S'web intelligence'
p443
g2
(g6
S'\xc1L\xdb2\x04\xf9\xdb?'
p444
tp445
Rp446
tp447
a(S'semantic copyright'
p448
g2
(g6
S'\x9ah\x0e\x1a\xac\xa3\xdb?'
p449
tp450
Rp451
tp452
a(S'web mining'
p453
g2
(g6
S'\xa9o\x03+\xbe\xa0\xdb?'
p454
tp455
Rp456
tp457
a(S'semantic web data space'
p458
g2
(g6
S'\xd0\x13\x13\xb7\x9b\x91\xdb?'
p459
tp460
Rp461
tp462
a(S'semantic analysis (knowledge representation)'
p463
g2
(g6
S'$\xc5\xedFq\x80\xdb?'
p464
tp465
Rp466
tp467
a(S'web3d'
p468
g2
(g6
S'\x11\x02\xeb\xc6\xcfz\xdb?'
p469
tp470
Rp471
tp472
a(S'ontowiki'
p473
g2
(g6
S'\xbbA\xc7\x1f\xbal\xdb?'
p474
tp475
Rp476
tp477
a(S'germanet'
p478
g2
(g6
S'D\xa0\x1dSpl\xdb?'
p479
tp480
Rp481
tp482
a(S'semantic architecture'
p483
g2
(g6
S'% Y\x8eO=\xdb?'
p484
tp485
Rp486
tp487
a(S'semantic dispute'
p488
g2
(g6
S'\x87\xc5\xff\x19\xaa.\xdb?'
p489
tp490
Rp491
tp492
a(S'web archiving'
p493
g2
(g6
S'^\xf9#`\xff"\xdb?'
p494
tp495
Rp496
tp497
a(S'list of simile projects'
p498
g2
(g6
S'\xbb\xc6\x1eN8\x1b\xdb?'
p499
tp500
Rp501
tp502
a(S'intelligent web business laboratory'
p503
g2
(g6
S'Q\x07\xa1\xe8\xe4\x12\xdb?'
p504
tp505
Rp506
tp507
a(S'pragmatic web'
p508
g2
(g6
S'/\xe4\xc0\xb5j\x10\xdb?'
p509
tp510
Rp511
tp512
a(S'web series'
p513
g2
(g6
S'0\x9aM\x18\x88\xee\xda?'
p514
tp515
Rp516
tp517
a(S'asset description metadata schema'
p518
g2
(g6
S'\x85\xe7v.\xc9\xe9\xda?'
p519
tp520
Rp521
tp522
a(S'semantically-interlinked online communities'
p523
g2
(g6
S'\x8b\xbd\xc3\x86\x85\xe1\xda?'
p524
tp525
Rp526
tp527
a(S'unified medical language system'
p528
g2
(g6
S'\x1e\xe9\x0e\x87\xad\xc6\xda?'
p529
tp530
Rp531
tp532
a(S'institutional web management workshop'
p533
g2
(g6
S'm\xda\x82O\xb1\xc2\xda?'
p534
tp535
Rp536
tp537
a(S'linked data'
p538
g2
(g6
S"2'\x17\x90\x8f\xbf\xda?"
p539
tp540
Rp541
tp542
a(S'ontology versioning'
p543
g2
(g6
S'\xcfyW\xd6\x8c\xbb\xda?'
p544
tp545
Rp546
tp547
a(S'web of things'
p548
g2
(g6
S'\x7f\x9dp\x01;\xab\xda?'
p549
tp550
Rp551
tp552
a(S'web modeling'
p553
g2
(g6
S'\xbe\xc3&1\x81\x9a\xda?'
p554
tp555
Rp556
tp557
a(S'web life'
p558
g2
(g6
S'd\xf6\xdd\x10Cv\xda?'
p559
tp560
Rp561
tp562
a(S'designing with web standards'
p563
g2
(g6
S'ClW\xd8en\xda?'
p564
tp565
Rp566
tp567
a(S'mondeca'
p568
g2
(g6
S'\xc275\xaenl\xda?'
p569
tp570
Rp571
tp572
a(S'web'
p573
g2
(g6
S'\x8e\xb4\xa6\x13\xa4Y\xda?'
p574
tp575
Rp576
tp577
a(S'semantic analysis (machine learning)'
p578
g2
(g6
S':\t*\x00\xe9X\xda?'
p579
tp580
Rp581
tp582
a(S'stochastic semantic analysis'
p583
g2
(g6
S'\x12_9\xe6\xecV\xda?'
p584
tp585
Rp586
tp587
a(S'ruleml symposium'
p588
g2
(g6
S"'\xf9\x9e\xa7\xceK\xda?"
p589
tp590
Rp591
tp592
a(S'darpa agent markup language'
p593
g2
(g6
S'ZR/m\xa7E\xda?'
p594
tp595
Rp596
tp597
a(S'open web'
p598
g2
(g6
S'!<\xafT[D\xda?'
p599
tp600
Rp601
tp602
a(S'dan connolly (computer scientist)'
p603
g2
(g6
S'\x02\xa6\x91\x00\xf5\xff\xd9?'
p604
tp605
Rp606
tp607
a(S'semeval'
p608
g2
(g6
S'=\x80\\\n\x80\xfb\xd9?'
p609
tp610
Rp611
tp612
a(S'health web science'
p613
g2
(g6
S'\xbcI\xdb\xa5\xb6\xe3\xd9?'
p614
tp615
Rp616
tp617
a(S'semantic class'
p618
g2
(g6
S'\x9f`\xc5\xd7\x06\xe3\xd9?'
p619
tp620
Rp621
tp622
a(S'relationship extraction'
p623
g2
(g6
S'\x1b\x9c\x0f\x1b\xf3\xd9\xd9?'
p624
tp625
Rp626
tp627
a(S'expert system s.p.a.'
p628
g2
(g6
S'\x1d\x0c\x16\xc9W\xbb\xd9?'
p629
tp630
Rp631
tp632
a(S'jeffrey zeldman'
p633
g2
(g6
S'\x16/t<\xd5\xb9\xd9?'
p634
tp635
Rp636
tp637
a(S'best of the web'
p638
g2
(g6
S'\xf9H\x15\x11E\xb6\xd9?'
p639
tp640
Rp641
tp642
a(S'web services discovery'
p643
g2
(g6
S'W\xfa\x07\x83\x14\xb3\xd9?'
p644
tp645
Rp646
tp647
a(S'web interoperability'
p648
g2
(g6
S'\x8e\x12\xb7\xb9\xe6\xb0\xd9?'
p649
tp650
Rp651
tp652
a(S'ruleml'
p653
g2
(g6
S'\x90\x05F\x9a\x01\x91\xd9?'
p654
tp655
Rp656
tp657
a(S'rdfa'
p658
g2
(g6
S'\x04\xbb\x06\xe4d\x89\xd9?'
p659
tp660
Rp661
tp662
a(S'semantic analysis (computational)'
p663
g2
(g6
S'k\x9e ;\x06\x87\xd9?'
p664
tp665
Rp666
tp667
a(S'deborah mcguinness'
p668
g2
(g6
S'\xd9\x10\x84z/~\xd9?'
p669
tp670
Rp671
tp672
a(S'data exchange'
p673
g2
(g6
S'\xe2\xf8<X\xb4x\xd9?'
p674
tp675
Rp676
tp677
a(S'semantic audio'
p678
g2
(g6
S'\xfe\xcaU\xdd\x7fx\xd9?'
p679
tp680
Rp681
tp682
a(S'simile'
p683
g2
(g6
S'\xc3\xda\x8c\xa1\xb7c\xd9?'
p684
tp685
Rp686
tp687
a(S'intraweb'
p688
g2
(g6
S'=\x99Q3\x0cN\xd9?'
p689
tp690
Rp691
tp692
a(S'verbal fluency test'
p693
g2
(g6
S'p$nY\xbfM\xd9?'
p694
tp695
Rp696
tp697
a(S'web science trust'
p698
g2
(g6
S'cy\xef\xe2U@\xd9?'
p699
tp700
Rp701
tp702
a(S'web resource'
p703
g2
(g6
S'JI\xe6\xf5h3\xd9?'
p704
tp705
Rp706
tp707
a(S'web application'
p708
g2
(g6
S'\x8e3\xa0\x15\xb22\xd9?'
p709
tp710
Rp711
tp712
a(S'babelnet'
p713
g2
(g6
S'\xc9ZH\xa2^2\xd9?'
p714
tp715
Rp716
tp717
a(S'streamy awards'
p718
g2
(g6
S'\x94Gn\xd0\x93-\xd9?'
p719
tp720
Rp721
tp722
a(S'web science'
p723
g2
(g6
S'.<\xd9\x17\xa8\xfb\xd8?'
p724
tp725
Rp726
tp727
a(S'web data services'
p728
g2
(g6
S'\x10\x80\x18\xe1h\xf2\xd8?'
p729
tp730
Rp731
tp732
a(S'web content'
p733
g2
(g6
S'\xfan\x82Dw\xe6\xd8?'
p734
tp735
Rp736
tp737
a(S'semantic triple'
p738
g2
(g6
S'\x80!6tS\xd8\xd8?'
p739
tp740
Rp741
tp742
a(S'web developer'
p743
g2
(g6
S'\x17/\xb4 w\xb5\xd8?'
p744
tp745
Rp746
tp747
a(S'real-time web'
p748
g2
(g6
S'f5s4\xeb\xa5\xd8?'
p749
tp750
Rp751
tp752
a(S'web information system'
p753
g2
(g6
S'\xa9-n\xde\xe2\xa0\xd8?'
p754
tp755
Rp756
tp757
a(S'katia sycara'
p758
g2
(g6
S'\x0fu\xbcj\x9c\x89\xd8?'
p759
tp760
Rp761
tp762
a(S'freebase'
p763
g2
(g6
S'\xf0\xb6\xd14o^\xd8?'
p764
tp765
Rp766
tp767
a(S'semantic matching'
p768
g2
(g6
S'\xf4\xbfr\xa51X\xd8?'
p769
tp770
Rp771
tp772
a(S'semantic file system'
p773
g2
(g6
S'\x03tfhQG\xd8?'
p774
tp775
Rp776
tp777
a(S'web literacy'
p778
g2
(g6
S'O\x17\xb2\x99\x8e6\xd8?'
p779
tp780
Rp781
tp782
a(S'semantic layer'
p783
g2
(g6
S'&w\x1f\xd1\xb22\xd8?'
p784
tp785
Rp786
tp787
a(S'web scraping'
p788
g2
(g6
S'\xc3\xcc&\xf7\xd80\xd8?'
p789
tp790
Rp791
tp792
a(S'comparison of online music stores'
p793
g2
(g6
S'\x19_QX\xaa.\xd8?'
p794
tp795
Rp796
tp797
a(S'nigel shadbolt'
p798
g2
(g6
S'E\xfcP\xe8\xb2\x12\xd8?'
p799
tp800
Rp801
tp802
a(S'semantic-oriented programming'
p803
g2
(g6
S'\x97\xfa\xf7\xb8;\x10\xd8?'
p804
tp805
Rp806
tp807
a(S'babelfy'
p808
g2
(g6
S'\xe7i\xbc\xa0\xf7\xe9\xd7?'
p809
tp810
Rp811
tp812
a(S'web mapping'
p813
g2
(g6
S'\xd7JOX\x1f\xe5\xd7?'
p814
tp815
Rp816
tp817
a(S'business semantics management'
p818
g2
(g6
S'\x81l\x91\xae\xab\xd9\xd7?'
p819
tp820
Rp821
tp822
a(S'journal of web semantics'
p823
g2
(g6
S'x\x8d\x8e\xeb\xc9\xbf\xd7?'
p824
tp825
Rp826
tp827
a(S'web server'
p828
g2
(g6
S'\x94b\xd2\xbd\xbe\xba\xd7?'
p829
tp830
Rp831
tp832
a(S'cyberstatistics'
p833
g2
(g6
S'\xf0\xf2\x96\xfa\x8e\xb7\xd7?'
p834
tp835
Rp836
tp837
a(S'distinguo'
p838
g2
(g6
S'\x12\xb5\xc8\xa0\x8c\xb1\xd7?'
p839
tp840
Rp841
tp842
a(S'metaweb (disambiguation)'
p843
g2
(g6
S' \xc2\x05\xe9\xcb\xa0\xd7?'
p844
tp845
Rp846
tp847
a(S'semantic web rule language'
p848
g2
(g6
S'\x13$\x95\xb9y\xa0\xd7?'
p849
tp850
Rp851
tp852
a(S'diffbot'
p853
g2
(g6
S"\xb1'\x10\xabS\x9c\xd7?"
p854
tp855
Rp856
tp857
a(S'web idl'
p858
g2
(g6
S'\xe8\x82\xb6\xcb\xa8\x92\xd7?'
p859
tp860
Rp861
tp862
a(S'semantic compression'
p863
g2
(g6
S'\xfa\x8dykW\x91\xd7?'
p864
tp865
Rp866
tp867
a(S'web tasking'
p868
g2
(g6
S'\x19\xb8\xf0>}\x7f\xd7?'
p869
tp870
Rp871
tp872
a(S'personal web page'
p873
g2
(g6
S'\x82m"U\x8e|\xd7?'
p874
tp875
Rp876
tp877
a(S'resource description framework'
p878
g2
(g6
S'&\x8b\xf9Aqg\xd7?'
p879
tp880
Rp881
tp882
a(S'biomoby'
p883
g2
(g6
S'\xdai\xaf&\x8b]\xd7?'
p884
tp885
Rp886
tp887
a(S'semantic analysis (book)'
p888
g2
(g6
S'\xd08\xdc\xc2\x81[\xd7?'
p889
tp890
Rp891
tp892
a(S'lexxe'
p893
g2
(g6
S'\xd4\x00\xe9\x91\xbfC\xd7?'
p894
tp895
Rp896
tp897
a(S'dbpedia'
p898
g2
(g6
S'\xc0\x16\x9b\xab\x0c%\xd7?'
p899
tp900
Rp901
tp902
a(S'web project'
p903
g2
(g6
S'\xb9\x8c\x96\xc7\xa6\x17\xd7?'
p904
tp905
Rp906
tp907
a(S'leon shklar'
p908
g2
(g6
S'\x1e\x9bn\x00;\x16\xd7?'
p909
tp910
Rp911
tp912
a(S'web television'
p913
g2
(g6
S'\xc1\xb1?\xa4i\x11\xd7?'
p914
tp915
Rp916
tp917
a(S'semantic discord'
p918
g2
(g6
S'\xa4m}\x9b\xa9\x01\xd7?'
p919
tp920
Rp921
tp922
a(S'web index'
p923
g2
(g6
S'\xe7\x93\xdeag\xff\xd6?'
p924
tp925
Rp926
tp927
a(S'webometrics'
p928
g2
(g6
S'V\x00\xe3\xa5\x83\xed\xd6?'
p929
tp930
Rp931
tp932
a(S'semantic loan'
p933
g2
(g6
S'b\xfe\x894$\xe2\xd6?'
p934
tp935
Rp936
tp937
a(S'semantic heterogeneity'
p938
g2
(g6
S'\x9c\x04\x03\xcbi\xdb\xd6?'
p939
tp940
Rp941
tp942
a(S'tableless web design'
p943
g2
(g6
S'Pd\xb1r$\xd9\xd6?'
p944
tp945
Rp946
tp947
a(S'latent semantic mapping'
p948
g2
(g6
S'\xe4\x86A\xdf1\xd8\xd6?'
p949
tp950
Rp951
tp952
a(S'common look and feel'
p953
g2
(g6
S'\xdda\xb9\x8bh\xd4\xd6?'
p954
tp955
Rp956
tp957
a(S'web framework'
p958
g2
(g6
S'hu;b\x19\xce\xd6?'
p959
tp960
Rp961
tp962
a(S'notation3'
p963
g2
(g6
S'\x10\xae\xa3\x9d\xec\xc7\xd6?'
p964
tp965
Rp966
tp967
a(S'automatic acquisition of sense-tagged corpora'
p968
g2
(g6
S'<\x18\xe3\xb7\x82\xc4\xd6?'
p969
tp970
Rp971
tp972
a(S'applicative universal grammar'
p973
g2
(g6
S'\x96\xa9s\xf5\x88\xa4\xd6?'
p974
tp975
Rp976
tp977
a(S'semantics'
p978
g2
(g6
S'I\xa0\xbe\xb4\x98q\xd6?'
p979
tp980
Rp981
tp982
a(S'john domingue'
p983
g2
(g6
S'\x1cw\xe3\xa9\xfbn\xd6?'
p984
tp985
Rp986
tp987
a(S'trellix'
p988
g2
(g6
S'\x93C\xe5=\xbel\xd6?'
p989
tp990
Rp991
tp992
a(S'named graph'
p993
g2
(g6
S'=\x93f\x84Kl\xd6?'
p994
tp995
Rp996
tp997
a(S'web operations'
p998
g2
(g6
S'\xce\x12\xe3\xef\xefj\xd6?'
p999
tp1000
Rp1001
tp1002
a(S'self-service semantic suite'
p1003
g2
(g6
S'r\xdf1\x88\x1bh\xd6?'
p1004
tp1005
Rp1006
tp1007
a(S'web design'
p1008
g2
(g6
S'\x87\xca\xf9]\xd6g\xd6?'
p1009
tp1010
Rp1011
tp1012
a(S'molly holzschlag'
p1013
g2
(g6
S'yL\xd2\xd7\xd2g\xd6?'
p1014
tp1015
Rp1016
tp1017
a(S'kevin hughes (internet pioneer)'
p1018
g2
(g6
S'Afg]Ef\xd6?'
p1019
tp1020
Rp1021
tp1022
a(S'talis group'
p1023
g2
(g6
S'\x1b\x00\xc9/\xe7e\xd6?'
p1024
tp1025
Rp1026
tp1027
a(S'calais (reuters product)'
p1028
g2
(g6
S'\x7f\x04g\x03\xdd`\xd6?'
p1029
tp1030
Rp1031
tp1032
a(S'semantic equivalence'
p1033
g2
(g6
S'\x1d&Z\xebIZ\xd6?'
p1034
tp1035
Rp1036
tp1037
a(S'web development tools'
p1038
g2
(g6
S'\xc4\xe1&#>X\xd6?'
p1039
tp1040
Rp1041
tp1042
a(S'bulnet'
p1043
g2
(g6
S'F\x0c\x8cd\x13N\xd6?'
p1044
tp1045
Rp1046
tp1047
a(S'semantic view of theories'
p1048
g2
(g6
S'M3\xe3\xe6$K\xd6?'
p1049
tp1050
Rp1051
tp1052
a(S'web presence'
p1053
g2
(g6
S'?\xb8\xe4\x83\x9e@\xd6?'
p1054
tp1055
Rp1056
tp1057
a(S'semantic research'
p1058
g2
(g6
S'p\x90\x91\xfae6\xd6?'
p1059
tp1060
Rp1061
tp1062
a(S'david de roure'
p1063
g2
(g6
S'\x08H\xe4\xa5\x0c\x1c\xd6?'
p1064
tp1065
Rp1066
tp1067
a(S'web standards project'
p1068
g2
(g6
S'\x86\xb0\xd5\xd8\x1f\x15\xd6?'
p1069
tp1070
Rp1071
tp1072
a(S'languageware'
p1073
g2
(g6
S'\xec\x98\x98\x9fN\x14\xd6?'
p1074
tp1075
Rp1076
tp1077
a(S'microdata (html)'
p1078
g2
(g6
S'\x95b\xff\xcb\xf2\x11\xd6?'
p1079
tp1080
Rp1081
tp1082
a(S'augmented web'
p1083
g2
(g6
S'*\xa3\xfe\xbb\xa9\x0c\xd6?'
p1084
tp1085
Rp1086
tp1087
a(S'web api'
p1088
g2
(g6
S'o\xca\x02\x99j\x0b\xd6?'
p1089
tp1090
Rp1091
tp1092
a(S'httprange-14'
p1093
g2
(g6
S'}\xd6\xca\xef\x96\t\xd6?'
p1094
tp1095
Rp1096
tp1097
a(S'data mapping'
p1098
g2
(g6
S'\xfe\xf2}\xe0s\xf8\xd5?'
p1099
tp1100
Rp1101
tp1102
a(S'cwm (software)'
p1103
g2
(g6
S'\xad}\xda\x81\xa8\xef\xd5?'
p1104
tp1105
Rp1106
tp1107
a(S'federal web managers council'
p1108
g2
(g6
S'\xd00\x02\x15\xd0\xe2\xd5?'
p1109
tp1110
Rp1111
tp1112
a(S'web.com (1995 \xe2\x80\x93 2007)'
p1113
g2
(g6
S'\x9ak"t\xb7\xd8\xd5?'
p1114
tp1115
Rp1116
tp1117
a(S'reclinervellus nielseni'
p1118
g2
(g6
S'\x10\xed\xf9\xf6v\xc8\xd5?'
p1119
tp1120
Rp1121
tp1122
a(S'aida/web'
p1123
g2
(g6
S'\xf9\nX\xfc\x06\xc7\xd5?'
p1124
tp1125
Rp1126
tp1127
a(S'open web platform'
p1128
g2
(g6
S'R\xb7\xdcf\x8c\xc4\xd5?'
p1129
tp1130
Rp1131
tp1132
a(S'redland rdf application framework'
p1133
g2
(g6
S'\xbf\xc2\x8d\x00e\xa4\xd5?'
p1134
tp1135
Rp1136
tp1137
a(S'web 2.0 for development'
p1138
g2
(g6
S'h`\x8d0\x15\x98\xd5?'
p1139
tp1140
Rp1141
tp1142
a(S'omdoc'
p1143
g2
(g6
S'\xbb"\x8b=Z\x97\xd5?'
p1144
tp1145
Rp1146
tp1147
a(S'semantic url'
p1148
g2
(g6
S'\x83\x94+5\x04\x97\xd5?'
p1149
tp1150
Rp1151
tp1152
a(S'web testing'
p1153
g2
(g6
S'\xbe\xeaA[\xea\x8c\xd5?'
p1154
tp1155
Rp1156
tp1157
a(S'd3web'
p1158
g2
(g6
S'\xc9\x94\x19\x83;q\xd5?'
p1159
tp1160
Rp1161
tp1162
a(S'transclusion'
p1163
g2
(g6
S'\x0c\xf3\xb2\x02Wn\xd5?'
p1164
tp1165
Rp1166
tp1167
a(S'apache stanbol'
p1168
g2
(g6
S'b\xb5\x07\xdfed\xd5?'
p1169
tp1170
Rp1171
tp1172
a(S'cooperative web'
p1173
g2
(g6
S'\xd1\x8aB\xf8\x0bd\xd5?'
p1174
tp1175
Rp1176
tp1177
a(S'ontogame'
p1178
g2
(g6
S'\x8b\xceqC\xbd]\xd5?'
p1179
tp1180
Rp1181
tp1182
a(S'social web'
p1183
g2
(g6
S'\x83\xf4YC\xefV\xd5?'
p1184
tp1185
Rp1186
tp1187
a(S'vocabulary-based transformation'
p1188
g2
(g6
S'+\x1eg\xf6\xb9R\xd5?'
p1189
tp1190
Rp1191
tp1192
a(S'triplestore'
p1193
g2
(g6
S'vvc\xad\xcaQ\xd5?'
p1194
tp1195
Rp1196
tp1197
a(S'service-oriented communications'
p1198
g2
(g6
S'`#\x04X6O\xd5?'
p1199
tp1200
Rp1201
tp1202
a(S'san francisco women on the web'
p1203
g2
(g6
S'/YV\nMA\xd5?'
p1204
tp1205
Rp1206
tp1207
a(S'notable websites founded before 1995'
p1208
g2
(g6
S'\xd0zA!\xf2=\xd5?'
p1209
tp1210
Rp1211
tp1212
a(S'semantic mapping (statistics)'
p1213
g2
(g6
S'\xd4\x0b\r+\x85=\xd5?'
p1214
tp1215
Rp1216
tp1217
a(S'list of web archiving initiatives'
p1218
g2
(g6
S'\x8fS\x82\x1e\xc7<\xd5?'
p1219
tp1220
Rp1221
tp1222
a(S'world wide web foundation'
p1223
g2
(g6
S'U,\x8e\xc0d;\xd5?'
p1224
tp1225
Rp1226
tp1227
a(S'association of ioc recognised international sports federations'
p1228
g2
(g6
S'J\xe5\xfe\xfcs3\xd5?'
p1229
tp1230
Rp1231
tp1232
a(S'semantic analysis (linguistics)'
p1233
g2
(g6
S'u3\x176\x911\xd5?'
p1234
tp1235
Rp1236
tp1237
a(S'web annotation'
p1238
g2
(g6
S'LG?\xc3B)\xd5?'
p1239
tp1240
Rp1241
tp1242
a(S'frame semantics (linguistics)'
p1243
g2
(g6
S'n\x14\xce\x7f\xa1\x1f\xd5?'
p1244
tp1245
Rp1246
tp1247
a(S'multimedia web ontology language'
p1248
g2
(g6
S'\x90\x93e1\x8c\x18\xd5?'
p1249
tp1250
Rp1251
tp1252
a(S'open semantic framework'
p1253
g2
(g6
S'b\xbfe\xf2\x91\x15\xd5?'
p1254
tp1255
Rp1256
tp1257
a(S'soaplab'
p1258
g2
(g6
S'\xa5X\x88g\xcd\x11\xd5?'
p1259
tp1260
Rp1261
tp1262
a(S'prova'
p1263
g2
(g6
S'\xc9pF\xf4\xcd\x0c\xd5?'
p1264
tp1265
Rp1266
tp1267
a(S'span and div'
p1268
g2
(g6
S'B5+E\x0c\t\xd5?'
p1269
tp1270
Rp1271
tp1272
a(S'chris welty'
p1273
g2
(g6
S'\x9a\xf8U6B\xfd\xd4?'
p1274
tp1275
Rp1276
tp1277
a(S'geosparql'
p1278
g2
(g6
S'\xd8\\e\r\xf7\xfc\xd4?'
p1279
tp1280
Rp1281
tp1282
a(S'agris'
p1283
g2
(g6
S'\xbdk[\xc2<\xf9\xd4?'
p1284
tp1285
Rp1286
tp1287
a(S'vocabulary onesource'
p1288
g2
(g6
S'\x01L\xb8\x1bJ\xf2\xd4?'
p1289
tp1290
Rp1291
tp1292
a(S'web archives (file format)'
p1293
g2
(g6
S'\x1a\xe7p\xf6\xe5\xef\xd4?'
p1294
tp1295
Rp1296
tp1297
a(S'franz inc'
p1298
g2
(g6
S'\xd9*\x8b\xb1\xf9\xe8\xd4?'
p1299
tp1300
Rp1301
tp1302
a(S'digital web'
p1303
g2
(g6
S'Y\r(\xa9\\\xe8\xd4?'
p1304
tp1305
Rp1306
tp1307
a(S'hatom'
p1308
g2
(g6
S'R\xb6\xc0S\xe2\xe5\xd4?'
p1309
tp1310
Rp1311
tp1312
a(S'relegence'
p1313
g2
(g6
S'\x92gJ\xfe\xff\xe0\xd4?'
p1314
tp1315
Rp1316
tp1317
a(S'web help'
p1318
g2
(g6
S'\x85\xdb\xb5\xb9\xe0\xdc\xd4?'
p1319
tp1320
Rp1321
tp1322
a(S'tubefilter'
p1323
g2
(g6
S'\x16\xe5p(\xdf\xd1\xd4?'
p1324
tp1325
Rp1326
tp1327
a(S'topincs'
p1328
g2
(g6
S'\x8e\xe3\xf1\x18\xac\xb1\xd4?'
p1329
tp1330
Rp1331
tp1332
a(S'readspeaker'
p1333
g2
(g6
S'_\x911\xb5=\xa8\xd4?'
p1334
tp1335
Rp1336
tp1337
a(S'international conference on web services'
p1338
g2
(g6
S'\xd5A@\xc8\xea\xa7\xd4?'
p1339
tp1340
Rp1341
tp1342
a(S'progressive web app'
p1343
g2
(g6
S'\xf1Ac\x0f:\x9f\xd4?'
p1344
tp1345
Rp1346
tp1347
a(S'metaclass (semantic web)'
p1348
g2
(g6
S'9k\xcf\xc0\x0e\x9d\xd4?'
p1349
tp1350
Rp1351
tp1352
a(S'robert cailliau'
p1353
g2
(g6
S'~\xab\x14Gf\x90\xd4?'
p1354
tp1355
Rp1356
tp1357
a(S'clearforest'
p1358
g2
(g6
S'\x9e\xdc\x85\xec`\x8d\xd4?'
p1359
tp1360
Rp1361
tp1362
a(S'annotea'
p1363
g2
(g6
S'*\xf4\x9e\t\x9a\x89\xd4?'
p1364
tp1365
Rp1366
tp1367
a(S'strikeiron'
p1368
g2
(g6
S'\x90;\xcc\x82\x15\x89\xd4?'
p1369
tp1370
Rp1371
tp1372
a(S'enterprise information integration'
p1373
g2
(g6
S'\xbf\xa5;\x95\xa6}\xd4?'
p1374
tp1375
Rp1376
tp1377
a(S'mirabyte web architect'
p1378
g2
(g6
S'_v\xf5\xc4\xdc{\xd4?'
p1379
tp1380
Rp1381
tp1382
a(S'dynamic web page'
p1383
g2
(g6
S'\x03]\xd3sAt\xd4?'
p1384
tp1385
Rp1386
tp1387
a(S'fcl-web'
p1388
g2
(g6
S'\xab\xd4KdIP\xd4?'
p1389
tp1390
Rp1391
tp1392
a(S'schema-agnostic databases'
p1393
g2
(g6
S'Y\x07\x7fR:O\xd4?'
p1394
tp1395
Rp1396
tp1397
a(S'probabilistic semantics'
p1398
g2
(g6
S'\x16\xa0\xee\xf6<E\xd4?'
p1399
tp1400
Rp1401
tp1402
a(S'worldwideweb'
p1403
g2
(g6
S'\x9d\x9c\xe5%\xd3B\xd4?'
p1404
tp1405
Rp1406
tp1407
a(S'web application security'
p1408
g2
(g6
S'\xb5\x9c]L\xcd9\xd4?'
p1409
tp1410
Rp1411
tp1412
a(S'linked data page'
p1413
g2
(g6
S'\xa7 \x11\x10\xb56\xd4?'
p1414
tp1415
Rp1416
tp1417
a(S'allegrograph'
p1418
g2
(g6
S'\x15s\xab>&1\xd4?'
p1419
tp1420
Rp1421
tp1422
a(S'web3s'
p1423
g2
(g6
S'\x81\x06\xa4\xd7\xdc,\xd4?'
p1424
tp1425
Rp1426
tp1427
a(S'anna wierzbicka'
p1428
g2
(g6
S'\xf8uqZ\xc4&\xd4?'
p1429
tp1430
Rp1431
tp1432
a(S'web performance'
p1433
g2
(g6
S'\x83\x8c\x91\xc9\xbd \xd4?'
p1434
tp1435
Rp1436
tp1437
a(S'turtle (syntax)'
p1438
g2
(g6
S'~r E\xf5\x13\xd4?'
p1439
tp1440
Rp1441
tp1442
a(S'void'
p1443
g2
(g6
S'\x89\xe0\xcf_\x10\x0e\xd4?'
p1444
tp1445
Rp1446
tp1447
a(S'musical semantics'
p1448
g2
(g6
S'\xb0\xce\x11\xb2\x94\x0c\xd4?'
p1449
tp1450
Rp1451
tp1452
a(S'semantic change'
p1453
g2
(g6
S'cQ\x9c\xbeH\x00\xd4?'
p1454
tp1455
Rp1456
tp1457
a(S'semantic bootstrapping'
p1458
g2
(g6
S'kR\xa0\xf8\xc9\xfe\xd3?'
p1459
tp1460
Rp1461
tp1462
a(S'web application description language'
p1463
g2
(g6
S'\xf1\xf6\xee\x0f\xb5\xfd\xd3?'
p1464
tp1465
Rp1466
tp1467
a(S'website'
p1468
g2
(g6
S'\x9d~\xcd\xf9\xbe\xf5\xd3?'
p1469
tp1470
Rp1471
tp1472
a(S'fusker'
p1473
g2
(g6
S'b%!\x87\x8c\xf5\xd3?'
p1474
tp1475
Rp1476
tp1477
a(S'web3d consortium'
p1478
g2
(g6
S'\xd2\xdd\xcem\xc4\xf3\xd3?'
p1479
tp1480
Rp1481
tp1482
a(S'chief web officer'
p1483
g2
(g6
S'\x90n\x89l\xf1\xe1\xd3?'
p1484
tp1485
Rp1486
tp1487
a(S'web feed'
p1488
g2
(g6
S'WLC\xfci\xe0\xd3?'
p1489
tp1490
Rp1491
tp1492
a(S'meaningcloud'
p1493
g2
(g6
S'\xeb\xd8\x9f\xf3\x8a\xdf\xd3?'
p1494
tp1495
Rp1496
tp1497
a(S'dssim'
p1498
g2
(g6
S'\xde\x05\x87\xb0\xe6\xdb\xd3?'
p1499
tp1500
Rp1501
tp1502
a(S'tropes zoom'
p1503
g2
(g6
S'0v?^\x9c\xdb\xd3?'
p1504
tp1505
Rp1506
tp1507
a(S'biositemap'
p1508
g2
(g6
S'\xa7\xe8\x8c\x05\xc4\xd6\xd3?'
p1509
tp1510
Rp1511
tp1512
a.