(lp0
(S'sliding window protocol'
p1
cnumpy.core.multiarray
scalar
p2
(cnumpy
dtype
p3
(S'f8'
p4
I0
I1
tp5
Rp6
(I3
S'<'
p7
NNNI-1
I-1
I0
tp8
bS'\x01\x00\x00\x00\x00\x00\xf0?'
p9
tp10
Rp11
tp12
a(S'packet loss'
p13
g2
(g6
S'\x1f\xbd3E\xdb\x9e\xe4?'
p14
tp15
Rp16
tp17
a(S'packet crafting'
p18
g2
(g6
S'\x1e9\xaf\xeb\xb0\xc0\xe3?'
p19
tp20
Rp21
tp22
a(S'virtual packet'
p23
g2
(g6
S'\xae\xf2O\\\xcb\xe9\xe1?'
p24
tp25
Rp26
tp27
a(S'packet injection'
p28
g2
(g6
S'\xa9\xe5\x84y\xfd\xc9\xe1?'
p29
tp30
Rp31
tp32
a(S'network packet'
p33
g2
(g6
S'2\x87i\x07*\x15\xe1?'
p34
tp35
Rp36
tp37
a(S'connectionless routing'
p38
g2
(g6
S'\xbby\xae\xe8\xb5\xc0\xe0?'
p39
tp40
Rp41
tp42
a(S'packet delay variation'
p43
g2
(g6
S'\xe9\x16\xbd\x9c\x18\xb0\xe0?'
p44
tp45
Rp46
tp47
a(S'christmas tree packet'
p48
g2
(g6
S'\xf21\x86^B\x9e\xe0?'
p49
tp50
Rp51
tp52
a(S'xmodem'
p53
g2
(g6
S'J\xb2\x7f-\x003\xe0?'
p54
tp55
Rp56
tp57
a(S'sealink'
p58
g2
(g6
S'\x9c\xea.{\xa3\xfb\xdf?'
p59
tp60
Rp61
tp62
a(S'go-back-n arq'
p63
g2
(g6
S'\xd2z\xce\xef\x1b\xd1\xdf?'
p64
tp65
Rp66
tp67
a(S'packet sender'
p68
g2
(g6
S'\x06\xdb\x14\xaa\xab\xc0\xdf?'
p69
tp70
Rp71
tp72
a(S'packet processing'
p73
g2
(g6
S'u\x02\xb1\xf8\xaa\xb1\xdf?'
p74
tp75
Rp76
tp77
a(S'packet trade'
p78
g2
(g6
S'\xe1\xb3^\xe1j\xa8\xdf?'
p79
tp80
Rp81
tp82
a(S'link state packet'
p83
g2
(g6
S'F\xb2\xa0i\xff\x9f\xdf?'
p84
tp85
Rp86
tp87
a(S'error concealment'
p88
g2
(g6
S'\xd6\xf9"\xa1\x1b\x98\xdf?'
p89
tp90
Rp91
tp92
a(S'rapidio'
p93
g2
(g6
S'\xbd\xaa\x0f=\xecE\xdf?'
p94
tp95
Rp96
tp97
a(S'deflection routing'
p98
g2
(g6
S'\xbfS\x0e\x9e\xa3\xc3\xde?'
p99
tp100
Rp101
tp102
a(S'luby transform code'
p103
g2
(g6
S'\x07@\xaf\xf5\x81\xc1\xde?'
p104
tp105
Rp106
tp107
a(S'more protocol'
p108
g2
(g6
S'\xacY\xd1]5\x9a\xde?'
p109
tp110
Rp111
tp112
a(S'b protocol'
p113
g2
(g6
S'\xb1\xb6\x9cE\x8b\x8f\xde?'
p114
tp115
Rp116
tp117
a(S'exor (wireless network protocol)'
p118
g2
(g6
S'WR{\xd4\x08\x80\xde?'
p119
tp120
Rp121
tp122
a(S'packet'
p123
g2
(g6
S'j|I`=X\xde?'
p124
tp125
Rp126
tp127
a(S'anti-replay'
p128
g2
(g6
S'\xe7\x8acR\xf0j\xdd?'
p129
tp130
Rp131
tp132
a(S'fair queuing'
p133
g2
(g6
S'e5\xdb\x96JZ\xdd?'
p134
tp135
Rp136
tp137
a(S'sqlfilter'
p138
g2
(g6
S'AF\xe8u\xb6O\xdd?'
p139
tp140
Rp141
tp142
a(S'automatic packet reporting system'
p143
g2
(g6
S'I"\xb1\xb5\xc0D\xdd?'
p144
tp145
Rp146
tp147
a(S'island packet yachts'
p148
g2
(g6
S"\x81'\x97\xe4~\n\xdd?"
p149
tp150
Rp151
tp152
a(S'retransmission (data networks)'
p153
g2
(g6
S'l\x8c\x81\xa63\xc6\xdc?'
p154
tp155
Rp156
tp157
a(S'roofnet'
p158
g2
(g6
S'7Q\x1a\xfa\xe0\x8c\xdc?'
p159
tp160
Rp161
tp162
a(S'packet radio'
p163
g2
(g6
S'NR\x9f^)\x87\xdc?'
p164
tp165
Rp166
tp167
a(S'packetsquare'
p168
g2
(g6
S'.B\xff\xc9\xaez\xdc?'
p169
tp170
Rp171
tp172
a(S'out-of-order delivery'
p173
g2
(g6
S'B?L\x8f\xe7\xe2\xdb?'
p174
tp175
Rp176
tp177
a(S"sorcerer's apprentice syndrome"
p178
g2
(g6
S'\xf62\xb0~@q\xdb?'
p179
tp180
Rp181
tp182
a(S'mausezahn'
p183
g2
(g6
S'\xc3tyu\x17\t\xdb?'
p184
tp185
Rp186
tp187
a(S'media delivery index'
p188
g2
(g6
S'r\xddD_v\xe0\xda?'
p189
tp190
Rp191
tp192
a(S'l-packet'
p193
g2
(g6
S'\xfay\x00\x910\xc1\xda?'
p194
tp195
Rp196
tp197
a(S'ip traceback'
p198
g2
(g6
S'|\xa6z\x87\x12N\xda?'
p199
tp200
Rp201
tp202
a(S'netbios frames protocol'
p203
g2
(g6
S'jTB\x9b2K\xda?'
p204
tp205
Rp206
tp207
a(S'packet aggregation'
p208
g2
(g6
S'c\xf1O\xfamF\xda?'
p209
tp210
Rp211
tp212
a(S'protocol spoofing'
p213
g2
(g6
S'\xfd\x8d\xf9\xc1>\xfe\xd9?'
p214
tp215
Rp216
tp217
a(S'packet newspapers'
p218
g2
(g6
S'\x1b\xc2\x1du%\xf9\xd9?'
p219
tp220
Rp221
tp222
a(S'post office packet service'
p223
g2
(g6
S'\xad\xd9\xd0i\xc5\xc7\xd9?'
p224
tp225
Rp226
tp227
a(S'berkeley packet filter'
p228
g2
(g6
S'Q\x9a?\xb0\x06\xc1\xd9?'
p229
tp230
Rp231
tp232
a(S'scalable tcp'
p233
g2
(g6
S'\x1a\x1c1&E{\xd9?'
p234
tp235
Rp236
tp237
a(S'packet (container)'
p238
g2
(g6
S'\x06^\x95\xf7\xd7\xf2\xd8?'
p239
tp240
Rp241
tp242
a(S'transmission time'
p243
g2
(g6
S'\xed\x89\x87\x1e\x8e\xc3\xd8?'
p244
tp245
Rp246
tp247
a(S'iptables'
p248
g2
(g6
S'\x01\xa0\rL\xdf\xb2\xd8?'
p249
tp250
Rp251
tp252
a(S'sequenced packet exchange'
p253
g2
(g6
S'J\xd33\xf5\x16\xaa\xd8?'
p254
tp255
Rp256
tp257
a(S'bit-twist'
p258
g2
(g6
S'\r\xf1|\xbbg\x9a\xd8?'
p259
tp260
Rp261
tp262
a(S'queuing delay'
p263
g2
(g6
S'\xa8`\x80\xd8or\xd8?'
p264
tp265
Rp266
tp267
a(S'packet telephony'
p268
g2
(g6
S'\x83\xf1\xae\xd8\xa7O\xd8?'
p269
tp270
Rp271
tp272
a(S'packet switching'
p273
g2
(g6
S'~\x8d6j#\x0b\xd8?'
p274
tp275
Rp276
tp277
a(S'puan chan cheong'
p278
g2
(g6
S'OA*\x92\xf6\xe1\xd7?'
p279
tp280
Rp281
tp282
a(S'flits'
p283
g2
(g6
S')T`\xe4\x84\xd6\xd7?'
p284
tp285
Rp286
tp287
a(S'traceroute'
p288
g2
(g6
S'I\xc8\x06\x17\xcb\xc0\xd7?'
p289
tp290
Rp291
tp292
a(S'goodput'
p293
g2
(g6
S'\xc2xS\xe1\xfc\xb0\xd7?'
p294
tp295
Rp296
tp297
a(S'radio link protocol'
p298
g2
(g6
S'\x8e\xf6(\xbb\xda\xaf\xd7?'
p299
tp300
Rp301
tp302
a(S'pcap'
p303
g2
(g6
S'r\x05\xf5\xf7\xcd\x94\xd7?'
p304
tp305
Rp306
tp307
a(S'internet mix'
p308
g2
(g6
S'\xce\xb9Rw\x1fb\xd7?'
p309
tp310
Rp311
tp312
a(S'netfilter'
p313
g2
(g6
S'\x81\xbf\xcc3ZV\xd7?'
p314
tp315
Rp316
tp317
a(S'wormhole switching'
p318
g2
(g6
S'H\x15\xd1\x1b\xf3C\xd7?'
p319
tp320
Rp321
tp322
a(S'desert rat scrap book'
p323
g2
(g6
S'>\xe2\xc7\x843@\xd7?'
p324
tp325
Rp326
tp327
a(S'codel'
p328
g2
(g6
S'\x1d\x8c\xfd>\xb8?\xd7?'
p329
tp330
Rp331
tp332
a(S'transmission control protocol'
p333
g2
(g6
S"!\x81Y#W'\xd7?"
p334
tp335
Rp336
tp337
a(S'green packet'
p338
g2
(g6
S'6\xe6Y4\xa0\x0c\xd7?'
p339
tp340
Rp341
tp342
a(S'transmission delay'
p343
g2
(g6
S'1\x92y\xe8\xc5\xec\xd6?'
p344
tp345
Rp346
tp347
a(S'stateful firewall'
p348
g2
(g6
S'\x81\xb0Eh\xb8\xe7\xd6?'
p349
tp350
Rp351
tp352
a(S'packet analyzer'
p353
g2
(g6
S'\xb1\x05\xc8\xda\xc1\xe0\xd6?'
p354
tp355
Rp356
tp357
a(S'dynamic source routing'
p358
g2
(g6
S'\xf3\xc7\xf0\xb7\x00\xb8\xd6?'
p359
tp360
Rp361
tp362
a(S'tcpdump'
p363
g2
(g6
S'\x01\x0e\x93?\x82\xb4\xd6?'
p364
tp365
Rp366
tp367
a(S'triangular network coding'
p368
g2
(g6
S'\xd0SS&\x05\x9e\xd6?'
p369
tp370
Rp371
tp372
a(S'uip (micro ip)'
p373
g2
(g6
S'\x00T\xe6$2\x91\xd6?'
p374
tp375
Rp376
tp377
a(S'secure multicast'
p378
g2
(g6
S'\x11:\xcao\xaa\x8b\xd6?'
p379
tp380
Rp381
tp382
a(S'packet capture appliance'
p383
g2
(g6
S'T\x02\xa1\x14\x1bx\xd6?'
p384
tp385
Rp386
tp387
a(S'packet loss concealment'
p388
g2
(g6
S'L\x9d!\x0c\xd4R\xd6?'
p389
tp390
Rp391
tp392
a(S'datagram'
p393
g2
(g6
S'[\x1cp\xdd0Q\xd6?'
p394
tp395
Rp396
tp397
a(S'packet design'
p398
g2
(g6
S'"\x80s>\xbdP\xd6?'
p399
tp400
Rp401
tp402
a(S'packet segmentation'
p403
g2
(g6
S'\xb2\xf3\xd9\x11\xe4O\xd6?'
p404
tp405
Rp406
tp407
a(S'ping of death'
p408
g2
(g6
S'\xe5\x19\xe7\xcb\xf4N\xd6?'
p409
tp410
Rp411
tp412
a(S'visca protocol'
p413
g2
(g6
S'\xb1\x85Q6\x9cK\xd6?'
p414
tp415
Rp416
tp417
a(S'packet forwarding'
p418
g2
(g6
S'\xe4\x1b\x92\xd9\x83J\xd6?'
p419
tp420
Rp421
tp422
a(S'mangled packet'
p423
g2
(g6
S'\x84\xa4\xa9\xb6)I\xd6?'
p424
tp425
Rp426
tp427
a(S'packet-switching node'
p428
g2
(g6
S'\x07I\xca1^8\xd6?'
p429
tp430
Rp431
tp432
a(S'packet drop attack'
p433
g2
(g6
S'\xcfy\xec\\\x1f0\xd6?'
p434
tp435
Rp436
tp437
a(S'circuit switching'
p438
g2
(g6
S'\x1a@\x1ev\xa8\x1a\xd6?'
p439
tp440
Rp441
tp442
a(S'the columbus packet'
p443
g2
(g6
S'h\x7f\x8eT=\x12\xd6?'
p444
tp445
Rp446
tp447
a(S'princeton packet'
p448
g2
(g6
S'\xcfhGL\x19\x08\xd6?'
p449
tp450
Rp451
tp452
a(S'processing delay'
p453
g2
(g6
S'\xd5\xc3\xdam\x15\xfb\xd5?'
p454
tp455
Rp456
tp457
a(S'segmentation and reassembly'
p458
g2
(g6
S'^[\xcd\xc5\xdd\xf1\xd5?'
p459
tp460
Rp461
tp462
a(S'packet writing'
p463
g2
(g6
S'hm\x18f\x81\xec\xd5?'
p464
tp465
Rp466
tp467
a(S'automatic repeat request'
p468
g2
(g6
S'\xd4\x93%\xf6\x86\xe8\xd5?'
p469
tp470
Rp471
tp472
a(S'tcp sequence prediction attack'
p473
g2
(g6
S'\xec&\x12\xa5\xe8\xe2\xd5?'
p474
tp475
Rp476
tp477
a(S'mix network'
p478
g2
(g6
S'\xd4\xa0#\xa1\x89\xcf\xd5?'
p479
tp480
Rp481
tp482
a(S'selective repeat arq'
p483
g2
(g6
S'\xb8v)\x14\x90\xcb\xd5?'
p484
tp485
Rp486
tp487
a(S'topbt'
p488
g2
(g6
S'\t\x81\x85\x99\xb0\xc9\xd5?'
p489
tp490
Rp491
tp492
a(S'hping'
p493
g2
(g6
S'\tl\x94P\x8f\xa4\xd5?'
p494
tp495
Rp496
tp497
a(S'temporal key integrity protocol'
p498
g2
(g6
S'\x7f\x18z\xeao\xa0\xd5?'
p499
tp500
Rp501
tp502
a(S'sflow'
p503
g2
(g6
S'\x85\xcb\xa5\x92#p\xd5?'
p504
tp505
Rp506
tp507
a(S'network processor'
p508
g2
(g6
S'\xa7\xe5J{Dn\xd5?'
p509
tp510
Rp511
tp512
a(S'weighted round robin'
p513
g2
(g6
S'\t\xfe\x1dU\xea`\xd5?'
p514
tp515
Rp516
tp517
a(S'art-net'
p518
g2
(g6
S'y\x8c\xa1\x91\xdf]\xd5?'
p519
tp520
Rp521
tp522
a(S'explicit congestion notification'
p523
g2
(g6
S'q%,iMO\xd5?'
p524
tp525
Rp526
tp527
a(S'chaosnet'
p528
g2
(g6
S'\x1fo\xe3\x88\x04L\xd5?'
p529
tp530
Rp531
tp532
a(S'content processor'
p533
g2
(g6
S'c\xbe\x0b\n\x85=\xd5?'
p534
tp535
Rp536
tp537
a(S'liverpool packet'
p538
g2
(g6
S'05\xad\x13t<\xd5?'
p539
tp540
Rp541
tp542
a(S'source routing'
p543
g2
(g6
S'l\xf2\xb1p\xbb\x1b\xd5?'
p544
tp545
Rp546
tp547
a(S'the british packet, and argentine news'
p548
g2
(g6
S'\x9e\xff\x94\xdb\xcf\x14\xd5?'
p549
tp550
Rp551
tp552
a(S'commview'
p553
g2
(g6
S'[\xc2\x1d\x00\xba\x13\xd5?'
p554
tp555
Rp556
tp557
a(S'link quality report'
p558
g2
(g6
S'\x98\xee\x19\x1dX\x05\xd5?'
p559
tp560
Rp561
tp562
a(S'new api'
p563
g2
(g6
S'\xf6Q\xf8Y\x1a\xf7\xd4?'
p564
tp565
Rp566
tp567
a(S'adrenalyn xl'
p568
g2
(g6
S'Cp\xf2-0\xaa\xd4?'
p569
tp570
Rp571
tp572
a(S'lapwing (eic packet ship)'
p573
g2
(g6
S'\xcb%\x8c\xad\xc4\x97\xd4?'
p574
tp575
Rp576
tp577
a(S'stop-and-wait arq'
p578
g2
(g6
S'\xb3[%\xda\xc4\x87\xd4?'
p579
tp580
Rp581
tp582
a(S'zmodem'
p583
g2
(g6
S'\x7f#\x90\xf49c\xd4?'
p584
tp585
Rp586
tp587
a(S'named data networking'
p588
g2
(g6
S'\xe7\x9d\x80\xef\xb5[\xd4?'
p589
tp590
Rp591
tp592
a(S'unicast flood'
p593
g2
(g6
S'\xc6\xb3\xf0\xbf\x98R\xd4?'
p594
tp595
Rp596
tp597
a(S'symmetrical double-sided two-way ranging'
p598
g2
(g6
S'\xd2\xa7\x87\xd9\xe9H\xd4?'
p599
tp600
Rp601
tp602
a(S'wireshark'
p603
g2
(g6
S'\xaa\xabhbHH\xd4?'
p604
tp605
Rp606
tp607
a(S'silly window syndrome'
p608
g2
(g6
S'G \x12)6F\xd4?'
p609
tp610
Rp611
tp612
a(S'justniffer'
p613
g2
(g6
S'K\xfe%\xc6QB\xd4?'
p614
tp615
Rp616
tp617
a(S'tzsp'
p618
g2
(g6
S'\xf9\x9e7\x9d\xdc;\xd4?'
p619
tp620
Rp621
tp622
a(S'leaky bucket'
p623
g2
(g6
S';\xe7\n\xf7\xf18\xd4?'
p624
tp625
Rp626
tp627
a(S'smodem'
p628
g2
(g6
S'j\x88\xdf\xc4\x037\xd4?'
p629
tp630
Rp631
tp632
a(S'time-driven priority'
p633
g2
(g6
S'\xd8\xbb\xb5?X6\xd4?'
p634
tp635
Rp636
tp637
a(S'network scheduler'
p638
g2
(g6
S'\xc9H2\xdbj*\xd4?'
p639
tp640
Rp641
tp642
a(S'ingress filtering'
p643
g2
(g6
S'`CN\\\x89&\xd4?'
p644
tp645
Rp646
tp647
a(S'traffic generation model'
p648
g2
(g6
S"\x0b\xc3T3'%\xd4?"
p649
tp650
Rp651
tp652
a(S'rythubandhu'
p653
g2
(g6
S'`K\xba\x14\xe0\xeb\xd3?'
p654
tp655
Rp656
tp657
a(S'firewall (computing)'
p658
g2
(g6
S'\x17\x99\xaa\xc4\xe9\xba\xd3?'
p659
tp660
Rp661
tp662
a(S'x.25'
p663
g2
(g6
S'\xa0V\x82\xf1\r\xab\xd3?'
p664
tp665
Rp666
tp667
a(S'tcptrace'
p668
g2
(g6
S'\xabUO>:\x9b\xd3?'
p669
tp670
Rp671
tp672
a(S'traffic flow (computer networking)'
p673
g2
(g6
S',K\x17\xd0:\x99\xd3?'
p674
tp675
Rp676
tp677
a(S'link control protocol'
p678
g2
(g6
S'\x19\x0c\xd2\x19{\x96\xd3?'
p679
tp680
Rp681
tp682
a(S'flooding (computer networking)'
p683
g2
(g6
S'\xd2p.\x94g\x95\xd3?'
p684
tp685
Rp686
tp687
a(S'nufw'
p688
g2
(g6
S'h\x91I\xeb\xca\x8b\xd3?'
p689
tp690
Rp691
tp692
a(S'tcp friendly rate control'
p693
g2
(g6
S'\x19\x9d$\xb0\x02}\xd3?'
p694
tp695
Rp696
tp697
a(S'bufferbloat'
p698
g2
(g6
S'\xdc\xc0\x9c\x8al{\xd3?'
p699
tp700
Rp701
tp702
a(S'netsniff-ng'
p703
g2
(g6
S'h\xfd\x0c\x9b+g\xd3?'
p704
tp705
Rp706
tp707
a(S'icmp tunnel'
p708
g2
(g6
S'\xde\x059\xdf\x02a\xd3?'
p709
tp710
Rp711
tp712
a(S'packet tracer'
p713
g2
(g6
S'\xd3\x04\x17KB]\xd3?'
p714
tp715
Rp716
tp717
a(S'trojan wave packet'
p718
g2
(g6
S'3\xd1\x9d0\xed6\xd3?'
p719
tp720
Rp721
tp722
a(S'fairchild c-82 packet'
p723
g2
(g6
S"\xa7#\x0f}\xb3'\xd3?"
p724
tp725
Rp726
tp727
a(S'weighted fair queueing'
p728
g2
(g6
S'\xa7\xc6p\x1f\xc6\x18\xd3?'
p729
tp730
Rp731
tp732
a(S'microcom networking protocol'
p733
g2
(g6
S'\xbe\x04\xe3.\x0f\x15\xd3?'
p734
tp735
Rp736
tp737
a(S'udp hole punching'
p738
g2
(g6
S'bj\x17\xa9^\x14\xd3?'
p739
tp740
Rp741
tp742
a(S'chaffing and winnowing'
p743
g2
(g6
S'bz\xc9\x15\xfd\x11\xd3?'
p744
tp745
Rp746
tp747
a(S'p4 (programming language)'
p748
g2
(g6
S'\xc1\x1b](\x81\x08\xd3?'
p749
tp750
Rp751
tp752
a(S'micro-bursting (networking)'
p753
g2
(g6
S'\x9bD\x87\xf2I\x00\xd3?'
p754
tp755
Rp756
tp757
a(S'transparent inter-process communication'
p758
g2
(g6
S'\xed\xd8~\xaf\xf6\xcd\xd2?'
p759
tp760
Rp761
tp762
a(S'decbit'
p763
g2
(g6
S'\xbc\xb1\xc9\xf0\xda\xc6\xd2?'
p764
tp765
Rp766
tp767
a(S'source route bridging'
p768
g2
(g6
S'\xf0\x85\xd8\n\xde\xc3\xd2?'
p769
tp770
Rp771
tp772
a(S'tcp tuning'
p773
g2
(g6
S'\xd97\xe0\xe6a\xc1\xd2?'
p774
tp775
Rp776
tp777
a(S'tcp congestion control'
p778
g2
(g6
S'P]\xbe\xd4\xcf\x98\xd2?'
p779
tp780
Rp781
tp782
a(S'sydney packet'
p783
g2
(g6
S'\xbaW\x01\x81\xd0x\xd2?'
p784
tp785
Rp786
tp787
a(S'expected transmission count'
p788
g2
(g6
S'\xd8U\xc8\xa6\xban\xd2?'
p789
tp790
Rp791
tp792
a(S'synchronization of tv transmitter and receiver'
p793
g2
(g6
S'\xf1\xf1u\x81;Z\xd2?'
p794
tp795
Rp796
tp797
a(S'parallel line internet protocol'
p798
g2
(g6
S'\xe3\x05Dk\x01S\xd2?'
p799
tp800
Rp801
tp802
a(S'ss tynwald'
p803
g2
(g6
S'@\xfd\xe4k\x8aO\xd2?'
p804
tp805
Rp806
tp807
a(S"mona's isle"
p808
g2
(g6
S'\x17G\x02\xcezG\xd2?'
p809
tp810
Rp811
tp812
a(S'acme packet'
p813
g2
(g6
S':\x94\x0e4\x9bF\xd2?'
p814
tp815
Rp816
tp817
a(S'merlin-class packet boat'
p818
g2
(g6
S'ZQ0\xa1\xb4C\xd2?'
p819
tp820
Rp821
tp822
a(S'ancillary data'
p823
g2
(g6
S'\xdc\x9ac\xb8\xbb3\xd2?'
p824
tp825
Rp826
tp827
a(S'tcp global synchronization'
p828
g2
(g6
S'\x9dIl\x90\xbb-\xd2?'
p829
tp830
Rp831
tp832
a(S'packet boat'
p833
g2
(g6
S'F\xb9/\x19\xe6#\xd2?'
p834
tp835
Rp836
tp837
a(S'public switched data network'
p838
g2
(g6
S'b\xb4\xfd\xbb\t\x14\xd2?'
p839
tp840
Rp841
tp842
a(S'deep packet inspection'
p843
g2
(g6
S'\xfe`.\x91\xcd\x03\xd2?'
p844
tp845
Rp846
tp847
a(S'packetized elementary stream'
p848
g2
(g6
S'\x83\x1d\x14YA\xfa\xd1?'
p849
tp850
Rp851
tp852
a(S'acknowledgement (data networks)'
p853
g2
(g6
S'\x07\xad\x7fv\xf7\xf7\xd1?'
p854
tp855
Rp856
tp857
a(S'xpress transport protocol'
p858
g2
(g6
S'\xc2\xb6\n<\x9f\xf1\xd1?'
p859
tp860
Rp861
tp862
a(S'tcp reset attack'
p863
g2
(g6
S'rFw\xc9\xb4\xee\xd1?'
p864
tp865
Rp866
tp867
a(S'robust random early detection'
p868
g2
(g6
S"\x8f\x13'\xafA\xeb\xd1?"
p869
tp870
Rp871
tp872
a(S'trivial file transfer protocol'
p873
g2
(g6
S'\x8e\x01\x96f\x9b\xe7\xd1?'
p874
tp875
Rp876
tp877
a(S'coast lines'
p878
g2
(g6
S'1\xd3!s\xd7\xd8\xd1?'
p879
tp880
Rp881
tp882
a(S'ngrep'
p883
g2
(g6
S's.Wng\xce\xd1?'
p884
tp885
Rp886
tp887
a(S"nagle's algorithm"
p888
g2
(g6
S'\\c.\xe7\xee\xc4\xd1?'
p889
tp890
Rp891
tp892
a(S'ipchains'
p893
g2
(g6
S'7\x8d\xc0\x98\xe3\xbf\xd1?'
p894
tp895
Rp896
tp897
a(S'ipv6 packet'
p898
g2
(g6
S'\xe7\x0c\xa1r.\xbb\xd1?'
p899
tp900
Rp901
tp902
a(S'head-of-line blocking'
p903
g2
(g6
S'JwNa\n\xba\xd1?'
p904
tp905
Rp906
tp907
a(S'rate based satellite control protocol'
p908
g2
(g6
S'\xfc\xa8M\xfa\t\xb5\xd1?'
p909
tp910
Rp911
tp912
a(S'spartan packet radio experiment'
p913
g2
(g6
S'M\xdd\x95\x19\xfb\xb4\xd1?'
p914
tp915
Rp916
tp917
a(S'mixminion'
p918
g2
(g6
S'7\xcet\xdf\xc9\xa4\xd1?'
p919
tp920
Rp921
tp922
a(S'idle scan'
p923
g2
(g6
S'\x85\xc4\x19\x1a~\xa2\xd1?'
p924
tp925
Rp926
tp927
a(S'port scanner'
p928
g2
(g6
S'Q\xb5)5#\xa2\xd1?'
p929
tp930
Rp931
tp932
a(S'mass storage control protocol'
p933
g2
(g6
S'\xb7\x89\xf3\x0c\xc1\x81\xd1?'
p934
tp935
Rp936
tp937
a(S'sugar packet'
p938
g2
(g6
S'\x99\x80\xb4\x99\xe9o\xd1?'
p939
tp940
Rp941
tp942
a(S'ipv4'
p943
g2
(g6
S'\xec7-\x15\xcca\xd1?'
p944
tp945
Rp946
tp947
a(S'oscar protocol'
p948
g2
(g6
S'\xca\xe5c96_\xd1?'
p949
tp950
Rp951
tp952
a(S'bristol packet (1801 ship)'
p953
g2
(g6
S'\xd5\xb0I\x02\xebJ\xd1?'
p954
tp955
Rp956
tp957
a(S'generic routing encapsulation'
p958
g2
(g6
S'\xb5\xe8\x9f/ +\xd1?'
p959
tp960
Rp961
tp962
a(S'datagram congestion control protocol'
p963
g2
(g6
S'\xd3\xf6\x17D\xf7\x1f\xd1?'
p964
tp965
Rp966
tp967
a(S'eurobalise'
p968
g2
(g6
S'\xa2\xba\x1c\xf6\xb5\x1f\xd1?'
p969
tp970
Rp971
tp972
a(S'transport layer'
p973
g2
(g6
S'A}\xb3D\xcd\x11\xd1?'
p974
tp975
Rp976
tp977
a(S'packet digital'
p978
g2
(g6
S'?@A^}\x04\xd1?'
p979
tp980
Rp981
tp982
a(S'cjdns'
p983
g2
(g6
S'm\x06\xc9\x13\xf4\xfa\xd0?'
p984
tp985
Rp986
tp987
a(S'swipe (protocol)'
p988
g2
(g6
S'\r\xcatS\x91\xf9\xd0?'
p989
tp990
Rp991
tp992
a(S'q15x25'
p993
g2
(g6
S'\xf1\x03o\x08\xe0\xf6\xd0?'
p994
tp995
Rp996
tp997
a(S'stc104'
p998
g2
(g6
S'\x1deZ\xff\x91\xf2\xd0?'
p999
tp1000
Rp1001
tp1002
a(S'dynamic packet transport'
p1003
g2
(g6
S'P\xe0\xd4\xb36\xe6\xd0?'
p1004
tp1005
Rp1006
tp1007
a(S'flow control (data)'
p1008
g2
(g6
S'\x1b\xdc\x18\xb7\xcd\xe0\xd0?'
p1009
tp1010
Rp1011
tp1012
a(S'fx.25 forward error correction'
p1013
g2
(g6
S'g0\xa4\xfa\x01\xbf\xd0?'
p1014
tp1015
Rp1016
tp1017
a(S'triangular routing'
p1018
g2
(g6
S'\xef\xe6\xffkG\xbc\xd0?'
p1019
tp1020
Rp1021
tp1022
a(S'pl-3'
p1023
g2
(g6
S'oH@#\xea\xba\xd0?'
p1024
tp1025
Rp1026
tp1027
a(S'dundalk and newry steam packet company'
p1028
g2
(g6
S'\x8b9\xee\x97D\xb8\xd0?'
p1029
tp1030
Rp1031
tp1032
a(S'real-time messaging protocol'
p1033
g2
(g6
S'\x85\xd2\xba\n\x99\xb4\xd0?'
p1034
tp1035
Rp1036
tp1037
a(S'mavlink'
p1038
g2
(g6
S'<\xda\x88|\xf4\xaa\xd0?'
p1039
tp1040
Rp1041
tp1042
a(S'packet generator'
p1043
g2
(g6
S'1N\xc1\xd5\xe6\x90\xd0?'
p1044
tp1045
Rp1046
tp1047
a(S'statistical time division multiplexing'
p1048
g2
(g6
S'P\x16\xf2\xce\xc1\x8e\xd0?'
p1049
tp1050
Rp1051
tp1052
a(S'wake-on-lan'
p1053
g2
(g6
S'bo_\x8a\xbew\xd0?'
p1054
tp1055
Rp1056
tp1057
a(S'blind transmission'
p1058
g2
(g6
S'@:QV^v\xd0?'
p1059
tp1060
Rp1061
tp1062
a(S'eripax'
p1063
g2
(g6
S'i1U#\xa4m\xd0?'
p1064
tp1065
Rp1066
tp1067
a(S'connection-oriented communication'
p1068
g2
(g6
S'\x11\xea%t|b\xd0?'
p1069
tp1070
Rp1071
tp1072
a(S'the island packet'
p1073
g2
(g6
S'\x82\x04\x1aT!b\xd0?'
p1074
tp1075
Rp1076
tp1077
a(S'connnet'
p1078
g2
(g6
S'\xc3\x9c\xb8K\xa8K\xd0?'
p1079
tp1080
Rp1081
tp1082
a(S'netbios'
p1083
g2
(g6
S'\xb8\xc4\x10%\x06@\xd0?'
p1084
tp1085
Rp1086
tp1087
a(S'simple key-management for internet protocol'
p1088
g2
(g6
S'\xc2,\xbd\x04\xe08\xd0?'
p1089
tp1090
Rp1091
tp1092
a(S'burst mode clock and data recovery'
p1093
g2
(g6
S'\x7f\x8b\x8f\xd2p6\xd0?'
p1094
tp1095
Rp1096
tp1097
a(S'traffic policing (communications)'
p1098
g2
(g6
S'M\xa9r4}2\xd0?'
p1099
tp1100
Rp1101
tp1102
a(S'end-to-end delay'
p1103
g2
(g6
S"L\xcex\xae\x81'\xd0?"
p1104
tp1105
Rp1106
tp1107
a(S'gnutella2'
p1108
g2
(g6
S'(\x1e&\xa6\xbf&\xd0?'
p1109
tp1110
Rp1111
tp1112
a(S'connectionless communication'
p1113
g2
(g6
S'\xdaX\x86\xc2*\x1f\xd0?'
p1114
tp1115
Rp1116
tp1117
a(S'vlan hopping'
p1118
g2
(g6
S'\xb3d\x1b\xfaz\x1c\xd0?'
p1119
tp1120
Rp1121
tp1122
a(S'generalized ttl security mechanism'
p1123
g2
(g6
S'\xf2\xb7\x93\x93\xb4\x14\xd0?'
p1124
tp1125
Rp1126
tp1127
a(S'pl-4'
p1128
g2
(g6
S'_\x0c\xe7\xe02\x12\xd0?'
p1129
tp1130
Rp1131
tp1132
a(S'mpeg transport stream'
p1133
g2
(g6
S'\xf4\x12@\x7fs\n\xd0?'
p1134
tp1135
Rp1136
tp1137
a(S'multilink procedure'
p1138
g2
(g6
S'7i\x19\xbe\x8c\t\xd0?'
p1139
tp1140
Rp1141
tp1142
a(S'ss prince of wales (1887)'
p1143
g2
(g6
S'\xa6\xdayD\xbc\xd5\xcf?'
p1144
tp1145
Rp1146
tp1147
a(S'tdmoip'
p1148
g2
(g6
S'\x99\x15\xfa\xdc\xb0\xd3\xcf?'
p1149
tp1150
Rp1151
tp1152
a(S'fast path'
p1153
g2
(g6
S'\x01V\xc8up\xc0\xcf?'
p1154
tp1155
Rp1156
tp1157
a(S'cobranet'
p1158
g2
(g6
S'\xaf\xf6uMT\xbf\xcf?'
p1159
tp1160
Rp1161
tp1162
a(S'consistent overhead byte stuffing'
p1163
g2
(g6
S'\xbb\xd5<\xca\x9c\xbd\xcf?'
p1164
tp1165
Rp1166
tp1167
a(S'network simulation'
p1168
g2
(g6
S'\xeaD}\xec\xda\xb2\xcf?'
p1169
tp1170
Rp1171
tp1172
a(S'internetwork packet exchange'
p1173
g2
(g6
S'\x95\xa4\x04\xf9\xa5\xb0\xcf?'
p1174
tp1175
Rp1176
tp1177
a(S'default route'
p1178
g2
(g6
S'\xbb\xe6\xc9\x08\xce\xaf\xcf?'
p1179
tp1180
Rp1181
tp1182
a(S'reverse path forwarding'
p1183
g2
(g6
S'\'\t"\x96^\xae\xcf?'
p1184
tp1185
Rp1186
tp1187
a(S'encoder receiver transmitter'
p1188
g2
(g6
S'\xad%\x8b\xf5\x8e\xa5\xcf?'
p1189
tp1190
Rp1191
tp1192
a(S'suran'
p1193
g2
(g6
S'\x7f\xd9(\x95\xd3\x8c\xcf?'
p1194
tp1195
Rp1196
tp1197
a(S'loose source routing'
p1198
g2
(g6
S'\xcc\xd8t:\xf9w\xcf?'
p1199
tp1200
Rp1201
tp1202
a(S'rtp control protocol'
p1203
g2
(g6
S'trDtLg\xcf?'
p1204
tp1205
Rp1206
tp1207
a(S'piggybacking (data transmission)'
p1208
g2
(g6
S'\x04\x12\x13\x13\xd6a\xcf?'
p1209
tp1210
Rp1211
tp1212
a(S'tdm-to-packet conversion'
p1213
g2
(g6
S'n\xe4\xe7\x8c\x87J\xcf?'
p1214
tp1215
Rp1216
tp1217
a(S'knowledge-based processor'
p1218
g2
(g6
S'\xe4\t\xc97\xa3I\xcf?'
p1219
tp1220
Rp1221
tp1222
a(S'netflow'
p1223
g2
(g6
S'\n\xe2\x86\xa3\xbd8\xcf?'
p1224
tp1225
Rp1226
tp1227
a(S'etherape'
p1228
g2
(g6
S"\x1f**\x83\xee'\xcf?"
p1229
tp1230
Rp1231
tp1232
a(S'black ball line'
p1233
g2
(g6
S'\xf3\x10\x03\xcbg"\xcf?'
p1234
tp1235
Rp1236
tp1237
a(S'reference broadcast time synchronization'
p1238
g2
(g6
S']\x89\x0bu\x99\x18\xcf?'
p1239
tp1240
Rp1241
tp1242
a(S'internet layer'
p1243
g2
(g6
S'J\xce\xfeP\x95\x05\xcf?'
p1244
tp1245
Rp1246
tp1247
a(S'ps hercules (1838)'
p1248
g2
(g6
S'Y\xb9\xfd$%\xf8\xce?'
p1249
tp1250
Rp1251
tp1252
a(S'jumbogram'
p1253
g2
(g6
S'\xc3\xf6|^\xaf\xde\xce?'
p1254
tp1255
Rp1256
tp1257
a(S'policy-based routing'
p1258
g2
(g6
S'PZt\xa1\x13\xc1\xce?'
p1259
tp1260
Rp1261
tp1262
a(S'datagram socket'
p1263
g2
(g6
S'\xeb\x05\xbfr\x1a\xb1\xce?'
p1264
tp1265
Rp1266
tp1267
a(S'professional video over ip'
p1268
g2
(g6
S'\xc0\xc4\x00\xd2\xac\xae\xce?'
p1269
tp1270
Rp1271
tp1272
a(S'attack-time delay'
p1273
g2
(g6
S'\xf9\x9f\x0e\x1e\xfd\x8b\xce?'
p1274
tp1275
Rp1276
tp1277
a(S'hsc master jet'
p1278
g2
(g6
S'\x80+ZS\xfca\xce?'
p1279
tp1280
Rp1281
tp1282
a(S'omnipeek'
p1283
g2
(g6
S'\xccd&\xacAN\xce?'
p1284
tp1285
Rp1286
tp1287
a(S'packet over sonet/sdh'
p1288
g2
(g6
S'\x1e\x9ez\x13\x93"\xce?'
p1289
tp1290
Rp1291
tp1292
a(S'ipfc'
p1293
g2
(g6
S'x\x96N7\x86\x07\xce?'
p1294
tp1295
Rp1296
tp1297
a(S'ps ocean (1836)'
p1298
g2
(g6
S'\x0cV=Y\x1f\xf5\xcd?'
p1299
tp1300
Rp1301
tp1302
a(S't.38'
p1303
g2
(g6
S'Sb\xf2\xb5\x0c\xda\xcd?'
p1304
tp1305
Rp1306
tp1307
a(S'zone routing protocol'
p1308
g2
(g6
S'\xcc\x16M"+\xd0\xcd?'
p1309
tp1310
Rp1311
tp1312
a(S'udp-lite'
p1313
g2
(g6
S"\xe5$\xac'\xe1\xc8\xcd?"
p1314
tp1315
Rp1316
tp1317
a(S'rms fenella'
p1318
g2
(g6
S'\xa7\xf7\xc8\xc2\x12\xc7\xcd?'
p1319
tp1320
Rp1321
tp1322
a(S'cyclades'
p1323
g2
(g6
S'&h\x96\xd1V\xa6\xcd?'
p1324
tp1325
Rp1326
tp1327
a(S'weighted random early detection'
p1328
g2
(g6
S'\xe7\xb4\x00\x97\xe0\x96\xcd?'
p1329
tp1330
Rp1331
tp1332
a(S'data stream'
p1333
g2
(g6
S'\x8b\xa0\xe9\xdbMx\xcd?'
p1334
tp1335
Rp1336
tp1337
a(S'alkmaar packet'
p1338
g2
(g6
S'\x90\xb2\xd8s\x00k\xcd?'
p1339
tp1340
Rp1341
tp1342
a(S'kathleen nichols'
p1343
g2
(g6
S'\xdd\xd67JQh\xcd?'
p1344
tp1345
Rp1346
tp1347
a(S'wave packet'
p1348
g2
(g6
S'OXF&\x16_\xcd?'
p1349
tp1350
Rp1351
tp1352
a(S'rivera request'
p1353
g2
(g6
S'u"\x81\xac{T\xcd?'
p1354
tp1355
Rp1356
tp1357
a(S'secure socket tunneling protocol'
p1358
g2
(g6
S'\xfb\x03\x04Y\xf5A\xcd?'
p1359
tp1360
Rp1361
tp1362
a(S'network address translation'
p1363
g2
(g6
S'\x01\xbd\t\xb2\xc59\xcd?'
p1364
tp1365
Rp1366
tp1367
a(S'localhost'
p1368
g2
(g6
S'i[T\xee\x927\xcd?'
p1369
tp1370
Rp1371
tp1372
a(S'packet assembler/disassembler'
p1373
g2
(g6
S'\xb1]#\xd3\x111\xcd?'
p1374
tp1375
Rp1376
tp1377
a(S'mawi'
p1378
g2
(g6
S';/\xe5\xcdb+\xcd?'
p1379
tp1380
Rp1381
tp1382
a(S'generalized processor sharing'
p1383
g2
(g6
S'\x94\x9431R\x1e\xcd?'
p1384
tp1385
Rp1386
tp1387
a(S'performance-enhancing proxy'
p1388
g2
(g6
S'\xa2;\xd8\xaa\x80\x16\xcd?'
p1389
tp1390
Rp1391
tp1392
a(S'netbios over tcp/ip'
p1393
g2
(g6
S'\xbb\x190\xedm\x0c\xcd?'
p1394
tp1395
Rp1396
tp1397
a(S'robust header compression'
p1398
g2
(g6
S'J\x04\xfbf\x06\n\xcd?'
p1399
tp1400
Rp1401
tp1402
a(S'twistees'
p1403
g2
(g6
S'\x89!\xf5$\x1f\xfd\xcc?'
p1404
tp1405
Rp1406
tp1407
a(S'acknowledgment'
p1408
g2
(g6
S'\xa8m\xda\x88\x8f\xf8\xcc?'
p1409
tp1410
Rp1411
tp1412
a(S'internet protocol'
p1413
g2
(g6
S'6\xba\xb4\xb7,\xe3\xcc?'
p1414
tp1415
Rp1416
tp1417
a(S'i-frame delay'
p1418
g2
(g6
S'\xac\xc8n.\x8f\xcf\xcc?'
p1419
tp1420
Rp1421
tp1422
a(S'system packet interface'
p1423
g2
(g6
S's\xaf-\xa9\x1e\xc8\xcc?'
p1424
tp1425
Rp1426
tp1427
a(S'receive-after-transmit time delay'
p1428
g2
(g6
S'\x172\xb1\x0c\xbc\xc3\xcc?'
p1429
tp1430
Rp1431
tp1432
a(S'ccmp'
p1433
g2
(g6
S'>\x05t\xe1\x0e\xc3\xcc?'
p1434
tp1435
Rp1436
tp1437
a(S'deep content inspection'
p1438
g2
(g6
S'\x89\xcc0fo\xba\xcc?'
p1439
tp1440
Rp1441
tp1442
a(S'transmit-after-receive time delay'
p1443
g2
(g6
S'\xd3\xa9\xf8D\xed\xaf\xcc?'
p1444
tp1445
Rp1446
tp1447
a(S'packet storm'
p1448
g2
(g6
S'\xf3{_To\xa1\xcc?'
p1449
tp1450
Rp1451
tp1452
a(S'tcp vegas'
p1453
g2
(g6
S'e\xb1\xbas"\x99\xcc?'
p1454
tp1455
Rp1456
tp1457
a(S'fbb (f6fbb)'
p1458
g2
(g6
S'~X\x1e\x17n\x90\xcc?'
p1459
tp1460
Rp1461
tp1462
a(S'network utility'
p1463
g2
(g6
S'j\xac\xd8\xcbX\x8f\xcc?'
p1464
tp1465
Rp1466
tp1467
a(S'silc (protocol)'
p1468
g2
(g6
S'\xa7\xee\xfc\xb8\x06\x84\xcc?'
p1469
tp1470
Rp1471
tp1472
a(S'frame (networking)'
p1473
g2
(g6
S'\xd2\xaf\x85\x19\xb7m\xcc?'
p1474
tp1475
Rp1476
tp1477
a(S'libipq'
p1478
g2
(g6
S'%\xff\xec\x8b,k\xcc?'
p1479
tp1480
Rp1481
tp1482
a(S'network encryption cracking'
p1483
g2
(g6
S'\x9e3.\x1c\xa2j\xcc?'
p1484
tp1485
Rp1486
tp1487
a(S'traffic classification'
p1488
g2
(g6
S'K7\x1do+h\xcc?'
p1489
tp1490
Rp1491
tp1492
a(S'greedy source'
p1493
g2
(g6
S'yu\xbc\xe5ae\xcc?'
p1494
tp1495
Rp1496
tp1497
a(S'host model'
p1498
g2
(g6
S'M\xde+=g]\xcc?'
p1499
tp1500
Rp1501
tp1502
a(S'udp flood attack'
p1503
g2
(g6
S'n\x01r\xb0\x9cV\xcc?'
p1504
tp1505
Rp1506
tp1507
a(S'input queue'
p1508
g2
(g6
S'\xdf\x91\xf6\x08\nV\xcc?'
p1509
tp1510
Rp1511
tp1512
a.