(lp0
(S'spatial analysis'
p1
cnumpy.core.multiarray
scalar
p2
(cnumpy
dtype
p3
(S'f8'
p4
I0
I1
tp5
Rp6
(I3
S'<'
p7
NNNI-1
I-1
I0
tp8
bS'\x00\x00\x00\x00\x00\x00\xf0?'
p9
tp10
Rp11
tp12
a(S'spatial ecology'
p13
g2
(g6
S'\x08tRWS\x85\xe9?'
p14
tp15
Rp16
tp17
a(S'spatial ability'
p18
g2
(g6
S'\xbe \xebJ,\x88\xe7?'
p19
tp20
Rp21
tp22
a(S'spatial association'
p23
g2
(g6
S'O\xa6t\xe1\xf0\xd5\xe6?'
p24
tp25
Rp26
tp27
a(S'ucsb center for spatial studies'
p28
g2
(g6
S'VQQ\xad\xd1\xd2\xe6?'
p29
tp30
Rp31
tp32
a(S'indicators of spatial association'
p33
g2
(g6
S'\x7f/K^\xcf\xba\xe6?'
p34
tp35
Rp36
tp37
a(S'spatial etl'
p38
g2
(g6
S'\xd2u\xce\x84>\xf1\xe5?'
p39
tp40
Rp41
tp42
a(S'spatial planning in serbia'
p43
g2
(g6
S'\x9a\x04\n\x89\x83\xbf\xe5?'
p44
tp45
Rp46
tp47
a(S'spatial econometrics'
p48
g2
(g6
S'O\t(44\x86\xe5?'
p49
tp50
Rp51
tp52
a(S'geoda'
p53
g2
(g6
S':.\xed\xdc\x1e=\xe5?'
p54
tp55
Rp56
tp57
a(S'luc anselin'
p58
g2
(g6
S';\x9b\xcd\x12I#\xe5?'
p59
tp60
Rp61
tp62
a(S'surveying and spatial sciences institute'
p63
g2
(g6
S'z\x9a\x91\x94i\xfc\xe4?'
p64
tp65
Rp66
tp67
a(S'spatial epidemiology'
p68
g2
(g6
S'\x14V\x81\xa1u\xc5\xe4?'
p69
tp70
Rp71
tp72
a(S'spatial memory'
p73
g2
(g6
S'B\x83\xb2\xc5\x07\xac\xe4?'
p74
tp75
Rp76
tp77
a(S'spatial dependence'
p78
g2
(g6
S'\xe0\xe4cV\x08s\xe4?'
p79
tp80
Rp81
tp82
a(S"moran's i"
p83
g2
(g6
S'\r\xa4\xa19NW\xe4?'
p84
tp85
Rp86
tp87
a(S'spatial database'
p88
g2
(g6
S'\xf9\xa7<)\x884\xe4?'
p89
tp90
Rp91
tp92
a(S'south african spatial data infrastructure'
p93
g2
(g6
S'#\x91\x95\x00\x07\x0f\xe4?'
p94
tp95
Rp96
tp97
a(S'spatial data infrastructure'
p98
g2
(g6
S'\x02D%\x8a\x9b\r\xe4?'
p99
tp100
Rp101
tp102
a(S'boundary problem (spatial analysis)'
p103
g2
(g6
S'B\xf1\x9e\xcb#\xa4\xe3?'
p104
tp105
Rp106
tp107
a(S'spatial justice'
p108
g2
(g6
S'\xd0I?\xc7s\x94\xe3?'
p109
tp110
Rp111
tp112
a(S'spatial intelligence (psychology)'
p113
g2
(g6
S'Z\x86\x1c\xa2P~\xe3?'
p114
tp115
Rp116
tp117
a(S'spatial cognition'
p118
g2
(g6
S'\x1e\xa3v\xac\xe3b\xe3?'
p119
tp120
Rp121
tp122
a(S'statistical geography'
p123
g2
(g6
S'\xa1H\x04\xd4?Q\xe3?'
p124
tp125
Rp126
tp127
a(S'spatial icon'
p128
g2
(g6
S'\xa3\x19\xc6e\x84\xf5\xe2?'
p129
tp130
Rp131
tp132
a(S'barbara landau'
p133
g2
(g6
S'\x86\x88\xf2e\x99\xf1\xe2?'
p134
tp135
Rp136
tp137
a(S'crc for spatial information'
p138
g2
(g6
S'\x9d7w\xa6z\xb8\xe2?'
p139
tp140
Rp141
tp142
a(S'spatial planning'
p143
g2
(g6
S'\x08\xccD[Q\xa0\xe2?'
p144
tp145
Rp146
tp147
a(S'spatial correlation'
p148
g2
(g6
S'w?\x90\x07h\x99\xe2?'
p149
tp150
Rp151
tp152
a(S'spatial bifurcation'
p153
g2
(g6
S'8\xf6&\xf3\x80\x91\xe2?'
p154
tp155
Rp156
tp157
a(S'fuzzy architectural spatial analysis'
p158
g2
(g6
S'\xa2)\xde\x89\xb7o\xe2?'
p159
tp160
Rp161
tp162
a(S'spatial descriptive statistics'
p163
g2
(g6
S'\xefr\xa1\xcf\xa1M\xe2?'
p164
tp165
Rp166
tp167
a(S'spatial visualization ability'
p168
g2
(g6
S'\xb6=*\xdc\xe8\x1b\xe2?'
p169
tp170
Rp171
tp172
a(S'esprid'
p173
g2
(g6
S'\x7f<w\x9d\x82\xc1\xe1?'
p174
tp175
Rp176
tp177
a(S'list of spatial analysis software'
p178
g2
(g6
S'\xce\x92\xbe\xec\xe2\x9c\xe1?'
p179
tp180
Rp181
tp182
a(S'spatial reference system'
p183
g2
(g6
S'\x89k)\x9a\xd7\x8f\xe1?'
p184
tp185
Rp186
tp187
a(S'spatial configuration'
p188
g2
(g6
S'\xe4\x80v\xe9\xa4b\xe1?'
p189
tp190
Rp191
tp192
a(S'institute for spatial policies'
p193
g2
(g6
S"'mPh\xf3X\xe1?"
p194
tp195
Rp196
tp197
a(S'geomatics'
p198
g2
(g6
S'\x89\xf3\xf0\x0b\x9cI\xe1?'
p199
tp200
Rp201
tp202
a(S'abbas rajabifard'
p203
g2
(g6
S'\xd79\x81\xf8\xa4+\xe1?'
p204
tp205
Rp206
tp207
a(S'omb circular a-16'
p208
g2
(g6
S'\xf4o;\xd9o\xf8\xe0?'
p209
tp210
Rp211
tp212
a(S'spatial heterogeneity'
p213
g2
(g6
S'\xc6\xdf\xe6r[\xf1\xe0?'
p214
tp215
Rp216
tp217
a(S'spatial composition'
p218
g2
(g6
S'\xa2\xddwV\xea\xd8\xe0?'
p219
tp220
Rp221
tp222
a(S'spatial view cells'
p223
g2
(g6
S'H\xd80z\xd1\xd5\xe0?'
p224
tp225
Rp226
tp227
a(S'spatial frequency'
p228
g2
(g6
S'\x00Ih\xed\xa0\xc2\xe0?'
p229
tp230
Rp231
tp232
a(S'boundary problem in geography'
p233
g2
(g6
S'\x03\xbb0\x11\x90\xa9\xe0?'
p234
tp235
Rp236
tp237
a(S'arceditor'
p238
g2
(g6
S'\xa7\x02\xac\x11\x9e\xa5\xe0?'
p239
tp240
Rp241
tp242
a(S'spatial variability'
p243
g2
(g6
S'\x91$\xe7\x88k\x82\xe0?'
p244
tp245
Rp246
tp247
a(S"geary's c"
p248
g2
(g6
S'z\xb1m\xc1nU\xe0?'
p249
tp250
Rp251
tp252
a(S'spatial application'
p253
g2
(g6
S'\xfe\xc6O@\xaa<\xe0?'
p254
tp255
Rp256
tp257
a(S'spatial capacity'
p258
g2
(g6
S'!\xfeM=(\t\xe0?'
p259
tp260
Rp261
tp262
a(S'spatial citizenship'
p263
g2
(g6
S'\xea\xa3\xea\xd1+\xb8\xdf?'
p264
tp265
Rp266
tp267
a(S'andrew u. frank'
p268
g2
(g6
S'B\\]\xb8v\xa6\xdf?'
p269
tp270
Rp271
tp272
a(S'spatial file manager'
p273
g2
(g6
S'\x8fw.q\xf3C\xdf?'
p274
tp275
Rp276
tp277
a(S'spatial development in cameroon'
p278
g2
(g6
S'\xb6L\xa9F\xf0-\xdf?'
p279
tp280
Rp281
tp282
a(S'spatial economic analysis'
p283
g2
(g6
S'L\t\xc5I,\xf6\xde?'
p284
tp285
Rp286
tp287
a(S'edward soja'
p288
g2
(g6
S'vm2\xed\x16\xd6\xde?'
p289
tp290
Rp291
tp292
a(S'location intelligence'
p293
g2
(g6
S'\x99{= [\x83\xde?'
p294
tp295
Rp296
tp297
a(S'university of arkansas at monticello school of forest resources'
p298
g2
(g6
S'\xb3x\x91\x89[V\xde?'
p299
tp300
Rp301
tp302
a(S'toponome'
p303
g2
(g6
S'%-\x84\x1cY%\xde?'
p304
tp305
Rp306
tp307
a(S'commin'
p308
g2
(g6
S'\xedz\x1cpj\x17\xde?'
p309
tp310
Rp311
tp312
a(S'spatial imaging group'
p313
g2
(g6
S'\t-V\x9c\x02\x12\xde?'
p314
tp315
Rp316
tp317
a(S'spatialite'
p318
g2
(g6
S'\xde\xf3\xf8\x1c\xf6\xf5\xdd?'
p319
tp320
Rp321
tp322
a(S'terralib'
p323
g2
(g6
S'~\x0f|4\xce\xce\xdd?'
p324
tp325
Rp326
tp327
a(S'spatial network analysis software'
p328
g2
(g6
S'\x9bx\xe2v\xbf\xbf\xdd?'
p329
tp330
Rp331
tp332
a(S'spatial network'
p333
g2
(g6
S'\xeb\x91\xa2\xcbu\x92\xdd?'
p334
tp335
Rp336
tp337
a(S'modifiable areal unit problem'
p338
g2
(g6
S'X\x8f\xe0\rn\x83\xdd?'
p339
tp340
Rp341
tp342
a(S'european spatial development perspective'
p343
g2
(g6
S'H9r\xbcYz\xdd?'
p344
tp345
Rp346
tp347
a(S'visual spatial attention'
p348
g2
(g6
S'%\x1d*\x02\xfdu\xdd?'
p349
tp350
Rp351
tp352
a(S'spatial decision support system'
p353
g2
(g6
S'\xa5\xde\xef%\xfa\xec\xdc?'
p354
tp355
Rp356
tp357
a(S'sdic'
p358
g2
(g6
S'\xd0D\x82\x97\x86\xc5\xdc?'
p359
tp360
Rp361
tp362
a(S'anka mrak tarita\xc5\xa1'
p363
g2
(g6
S'\xbe/\xfd\x98\xd0\xb0\xdc?'
p364
tp365
Rp366
tp367
a(S'spatial tense'
p368
g2
(g6
S'\xefWS\x9fl^\xdc?'
p369
tp370
Rp371
tp372
a(S'transiogram'
p373
g2
(g6
S'\x06\xf3\x1d\x93\x12\x00\xdc?'
p374
tp375
Rp376
tp377
a(S'oracle spatial and graph'
p378
g2
(g6
S'\x11\x9c\xd3\x917\xc3\xdb?'
p379
tp380
Rp381
tp382
a(S'variogram'
p383
g2
(g6
S'w\xc5\x0f\xd5p~\xdb?'
p384
tp385
Rp386
tp387
a(S'national center for geographic information and analysis'
p388
g2
(g6
S'0\xd4@\x82z,\xdb?'
p389
tp390
Rp391
tp392
a(S'crimestat'
p393
g2
(g6
S'\xc5@?\x9fO\x11\xdb?'
p394
tp395
Rp396
tp397
a(S'spatial query server'
p398
g2
(g6
S'\xbd\xfd\xdb\x07\xa5\xe9\xda?'
p399
tp400
Rp401
tp402
a(S'purdue spatial visualization test: visualization of rotations'
p403
g2
(g6
S'J\x7f\xe7\xdbk\xd3\xda?'
p404
tp405
Rp406
tp407
a(S'spatial relation'
p408
g2
(g6
S'\x84\xed\x13\xc0\xd5\xb5\xda?'
p409
tp410
Rp411
tp412
a(S'geoinformatics'
p413
g2
(g6
S'U\x7f\xee\xb3R\x8b\xda?'
p414
tp415
Rp416
tp417
a(S'gilberto c\xc3\xa2mara'
p418
g2
(g6
S'\xf4\xef\xda\xaa\xa0x\xda?'
p419
tp420
Rp421
tp422
a(S'auditory spatial attention'
p423
g2
(g6
S'\xc6\xad\xad\xa0\xb4^\xda?'
p424
tp425
Rp426
tp427
a(S'spatial data transfer standard'
p428
g2
(g6
S'.\xf0B>\x1aV\xda?'
p429
tp430
Rp431
tp432
a(S'mass media impact on spatial perception'
p433
g2
(g6
S'tw\xeb\xce\xbc&\xda?'
p434
tp435
Rp436
tp437
a(S'spatial disorientation'
p438
g2
(g6
S'\x02\xd5\xb7\xc8L\xa7\xd9?'
p439
tp440
Rp441
tp442
a(S'complete spatial randomness'
p443
g2
(g6
S'\xb7;\x14O\xbe\x89\xd9?'
p444
tp445
Rp446
tp447
a(S'minimum resolvable temperature difference'
p448
g2
(g6
S'k\x00p\xc14y\xd9?'
p449
tp450
Rp451
tp452
a(S'economic geography'
p453
g2
(g6
S'(\xb5\x18]\xa5F\xd9?'
p454
tp455
Rp456
tp457
a(S'sqs'
p458
g2
(g6
S'\xf7h1\xbb\xaf*\xd9?'
p459
tp460
Rp461
tp462
a(S'the integrated traffic and landscape concept for the grand duchy of luxembourg'
p463
g2
(g6
S'e\xa4<O\xbf\x04\xd9?'
p464
tp465
Rp466
tp467
a(S'geostatistics'
p468
g2
(g6
S't\x83\x8a\x14~\x01\xd9?'
p469
tp470
Rp471
tp472
a(S'spatial dispersion'
p473
g2
(g6
S'+?\xf6\xf7\xc4\xf9\xd8?'
p474
tp475
Rp476
tp477
a(S'object-based spatial database'
p478
g2
(g6
S'\x85\xec?\xaa\xd2\xb7\xd8?'
p479
tp480
Rp481
tp482
a(S'geospatial analysis'
p483
g2
(g6
S'\x10\x03\x1d\x9c\x06\xaa\xd8?'
p484
tp485
Rp486
tp487
a(S'field (geography)'
p488
g2
(g6
S'tf\xea\xf4\xac\x82\xd8?'
p489
tp490
Rp491
tp492
a(S'organizational space'
p493
g2
(g6
S'\xfb:fQ\xfa[\xd8?'
p494
tp495
Rp496
tp497
a(S'harvestchoice'
p498
g2
(g6
S'\xcb\xf61<\xcaH\xd8?'
p499
tp500
Rp501
tp502
a(S'geoportal'
p503
g2
(g6
S'\x1aG\x0e\x8f\x0f@\xd8?'
p504
tp505
Rp506
tp507
a(S'block design test'
p508
g2
(g6
S'\x1c9\xcc\xdc]\x13\xd8?'
p509
tp510
Rp511
tp512
a(S'spatial empathy'
p513
g2
(g6
S'\xac\xe7\xffX\xbe\x0e\xd8?'
p514
tp515
Rp516
tp517
a(S'place cell'
p518
g2
(g6
S'n$M\xff(\xf6\xd7?'
p519
tp520
Rp521
tp522
a(S'language and spatial cognition'
p523
g2
(g6
S'\x83\xad/\x9d \xf6\xd7?'
p524
tp525
Rp526
tp527
a(S'geographic information science'
p528
g2
(g6
S'\xe7\xb8\xcbh\xfe\xf2\xd7?'
p529
tp530
Rp531
tp532
a(S'k-space'
p533
g2
(g6
S'\xaa-\xc4(\xb9\xe3\xd7?'
p534
tp535
Rp536
tp537
a(S'spatial navigation'
p538
g2
(g6
S'\xc5F\xd7\xf8\xe9\xb4\xd7?'
p539
tp540
Rp541
tp542
a(S'spatial hearing loss'
p543
g2
(g6
S'\xa9?6y\xe3\x8b\xd7?'
p544
tp545
Rp546
tp547
a(S'spatial multiplexing gain'
p548
g2
(g6
S'~\x90\xb4Ns~\xd7?'
p549
tp550
Rp551
tp552
a(S'kriging'
p553
g2
(g6
S'\xe3Z\xef7\x92I\xd7?'
p554
tp555
Rp556
tp557
a(S'global navigation grid code'
p558
g2
(g6
S'\x85\x96\xb9<\xc57\xd7?'
p559
tp560
Rp561
tp562
a(S'noel cressie'
p563
g2
(g6
S'{\xba\xc6\xb3\x8f(\xd7?'
p564
tp565
Rp566
tp567
a(S'geostac'
p568
g2
(g6
S'p\x0c\xca\xc3\x10 \xd7?'
p569
tp570
Rp571
tp572
a(S"tobler's first law of geography"
p573
g2
(g6
S'\x8f\xc1W=\x99\xf1\xd6?'
p574
tp575
Rp576
tp577
a(S'ecological correlation'
p578
g2
(g6
S'=\x8e\x80\xf2\x17\xe9\xd6?'
p579
tp580
Rp581
tp582
a(S'sudipto banerjee'
p583
g2
(g6
S'\xaeP@?v\xe3\xd6?'
p584
tp585
Rp586
tp587
a(S'geosur'
p588
g2
(g6
S'\x02 (v%\xd5\xd6?'
p589
tp590
Rp591
tp592
a(S'gadm'
p593
g2
(g6
S'\xd9\x98H\xe5\xb9\xb9\xd6?'
p594
tp595
Rp596
tp597
a(S'mental cutting test'
p598
g2
(g6
S'i\xbfIn\xce\xa9\xd6?'
p599
tp600
Rp601
tp602
a(S'marxist geography'
p603
g2
(g6
S'\xff\xddh\xe3l\xa6\xd6?'
p604
tp605
Rp606
tp607
a(S'nora newcombe'
p608
g2
(g6
S'z,\xfd2\x8f\xa0\xd6?'
p609
tp610
Rp611
tp612
a(S'resourcesat-2'
p613
g2
(g6
S'X\xdc<P*\x92\xd6?'
p614
tp615
Rp616
tp617
a(S'participatory gis'
p618
g2
(g6
S'\xc6\xcfs\xb4G\x86\xd6?'
p619
tp620
Rp621
tp622
a(S'courant\xe2\x80\x93friedrichs\xe2\x80\x93lewy condition'
p623
g2
(g6
S'\x90c\xb71\x89~\xd6?'
p624
tp625
Rp626
tp627
a(S'patsy healey'
p628
g2
(g6
S'\t\xd8\x07\x05\xb5}\xd6?'
p629
tp630
Rp631
tp632
a(S'spatiotemporal database'
p633
g2
(g6
S'\xc2>\x0b\x13\x1eq\xd6?'
p634
tp635
Rp636
tp637
a(S'spatiotemporal pattern'
p638
g2
(g6
S'<Xx\x99Y`\xd6?'
p639
tp640
Rp641
tp642
a(S'marine spatial planning'
p643
g2
(g6
S'1\xef\xff\x10\x90P\xd6?'
p644
tp645
Rp646
tp647
a(S'spring'
p648
g2
(g6
S'\xfa\x1d,:iB\xd6?'
p649
tp650
Rp651
tp652
a(S'morris water navigation task'
p653
g2
(g6
S'\x17\xb6\xac\xae\xc52\xd6?'
p654
tp655
Rp656
tp657
a(S'postgis'
p658
g2
(g6
S'\x0cRr\x8b\x8d\x1a\xd6?'
p659
tp660
Rp661
tp662
a(S'national spatial reference system'
p663
g2
(g6
S'\xaa\xc8Y\x04\xbb\x18\xd6?'
p664
tp665
Rp666
tp667
a(S'visual thinking'
p668
g2
(g6
S'`P\x16\x1fT\r\xd6?'
p669
tp670
Rp671
tp672
a(S"bousso's holographic bound"
p673
g2
(g6
S'\xe4:\x95\xec\xf1\t\xd6?'
p674
tp675
Rp676
tp677
a(S'satellite image time series'
p678
g2
(g6
S'\xcc\x8a\x9c\xf1\xe1\xf6\xd5?'
p679
tp680
Rp681
tp682
a(S'3g mimo'
p683
g2
(g6
S'\x00\xb4\xf4\xb0\x12\xe1\xd5?'
p684
tp685
Rp686
tp687
a(S'minimum bounding rectangle'
p688
g2
(g6
S'{\x98\x9eq\xd7\xba\xd5?'
p689
tp690
Rp691
tp692
a(S'indian institute of surveying & mapping'
p693
g2
(g6
S'\x89\xc5\\\xc9\xb5\xb5\xd5?'
p694
tp695
Rp696
tp697
a(S'geographic information system'
p698
g2
(g6
S'\x1f\xd01\xe8\x03\x91\xd5?'
p699
tp700
Rp701
tp702
a(S'spatial contextual awareness'
p703
g2
(g6
S'{\xec\xa63\xe0\x8d\xd5?'
p704
tp705
Rp706
tp707
a(S'esdp'
p708
g2
(g6
S'\x80\xf2YM\xdf\x86\xd5?'
p709
tp710
Rp711
tp712
a(S'spatial turn'
p713
g2
(g6
S'.\xd3\xa3B8\x83\xd5?'
p714
tp715
Rp716
tp717
a(S'population geography'
p718
g2
(g6
S'\xf3\xbbt\xa7"t\xd5?'
p719
tp720
Rp721
tp722
a(S'geonetwork opensource'
p723
g2
(g6
S'\x15\xd3\xa5\xa3\x1ch\xd5?'
p724
tp725
Rp726
tp727
a(S'spatial power combiner'
p728
g2
(g6
S'\x9b8\xd6@,f\xd5?'
p729
tp730
Rp731
tp732
a(S'alasdair turner'
p733
g2
(g6
S"+\x15>j'U\xd5?"
p734
tp735
Rp736
tp737
a(S'markov chain geostatistics'
p738
g2
(g6
S'3\xad[\x8b}Q\xd5?'
p739
tp740
Rp741
tp742
a(S'julian besag'
p743
g2
(g6
S'\x05\xa6UD\x8eA\xd5?'
p744
tp745
Rp746
tp747
a(S'vmds'
p748
g2
(g6
S'\xb7\x13\xb3\x81\xc0=\xd5?'
p749
tp750
Rp751
tp752
a(S'werner kuhn (scientist)'
p753
g2
(g6
S'\x928\xc2\x94\xc49\xd5?'
p754
tp755
Rp756
tp757
a(S'number form'
p758
g2
(g6
S'\x15\xf1\xe69\xea\xff\xd4?'
p759
tp760
Rp761
tp762
a(S'metageography'
p763
g2
(g6
S"'\x19\x90\xe7\xd9\xe9\xd4?"
p764
tp765
Rp766
tp767
a(S'daniel r. montello'
p768
g2
(g6
S'\x1b\xf8w0z\xdc\xd4?'
p769
tp770
Rp771
tp772
a(S'particle density (particle count)'
p773
g2
(g6
S';\x8d\xb2\xf4\x90\xd8\xd4?'
p774
tp775
Rp776
tp777
a(S'ilwis'
p778
g2
(g6
S'oQ\xf7\xca\xa7\xbf\xd4?'
p779
tp780
Rp781
tp782
a(S'spatial\xe2\x80\x93temporal reasoning'
p783
g2
(g6
S'W&\x00\xe6\x86\xb0\xd4?'
p784
tp785
Rp786
tp787
a(S'two-step floating catchment area method'
p788
g2
(g6
S'(\x04\xdb\xbbE\xb0\xd4?'
p789
tp790
Rp791
tp792
a(S'public participation geographic information system'
p793
g2
(g6
S'\x10K\xc3\xcf\x9d\xa9\xd4?'
p794
tp795
Rp796
tp797
a(S'spatial music'
p798
g2
(g6
S'5\xf4QQ\xf1t\xd4?'
p799
tp800
Rp801
tp802
a(S'spatial data file (format)'
p803
g2
(g6
S'\xc7\xe3\x88\x03\xb6i\xd4?'
p804
tp805
Rp806
tp807
a(S'simple features'
p808
g2
(g6
S'uC]\xf2\xa0d\xd4?'
p809
tp810
Rp811
tp812
a(S'space syntax'
p813
g2
(g6
S'24\xc8#\xb3\\\xd4?'
p814
tp815
Rp816
tp817
a(S'spatial organization'
p818
g2
(g6
S'\xd7\x12\x01\nI\\\xd4?'
p819
tp820
Rp821
tp822
a(S'terralink international'
p823
g2
(g6
S'3\xb4\xe2\xa66U\xd4?'
p824
tp825
Rp826
tp827
a(S'arcsde'
p828
g2
(g6
S'\xa7\x8d\xcc\x05\x0b5\xd4?'
p829
tp830
Rp831
tp832
a(S'laura kurgan'
p833
g2
(g6
S'\x99.\xc8+M\x0c\xd4?'
p834
tp835
Rp836
tp837
a(S'geocoding'
p838
g2
(g6
S'\xd6\x85\x9f\xcc\xc2\xe5\xd3?'
p839
tp840
Rp841
tp842
a(S'dipromisto'
p843
g2
(g6
S'\x91M\xa4\xb8\xe2\xe4\xd3?'
p844
tp845
Rp846
tp847
a(S'geo-enable'
p848
g2
(g6
S'd\x1f\xe1\x92\xf6\xd0\xd3?'
p849
tp850
Rp851
tp852
a(S'jts topology suite'
p853
g2
(g6
S'\xe4|\xe89\x04\x9c\xd3?'
p854
tp855
Rp856
tp857
a(S'cybergis'
p858
g2
(g6
S'9\xc2\xb7\x89\xaf\x9a\xd3?'
p859
tp860
Rp861
tp862
a(S'scalar-vector-tensor decomposition'
p863
g2
(g6
S'\xa8\xcc\xf9\xc6\x9c\x91\xd3?'
p864
tp865
Rp866
tp867
a(S'universal robotics'
p868
g2
(g6
S'\xa62\xe0T"\x87\xd3?'
p869
tp870
Rp871
tp872
a(S'list of geographic information systems software'
p873
g2
(g6
S'\xbe/\xc9\x02\xc3\x84\xd3?'
p874
tp875
Rp876
tp877
a(S'regression-kriging'
p878
g2
(g6
S'\xe9\x90\x07!#q\xd3?'
p879
tp880
Rp881
tp882
a(S'torsten h\xc3\xa4gerstrand'
p883
g2
(g6
S'\x05\x10\x97\x055W\xd3?'
p884
tp885
Rp886
tp887
a(S'spatial inequality'
p888
g2
(g6
S'\x95\x1bc\xff$6\xd3?'
p889
tp890
Rp891
tp892
a(S'emage'
p893
g2
(g6
S'\xedZa \xcf/\xd3?'
p894
tp895
Rp896
tp897
a(S'geographic profiling'
p898
g2
(g6
S'v\xdeS\xc4\xec%\xd3?'
p899
tp900
Rp901
tp902
a(S'sex differences in cognition'
p903
g2
(g6
S'z\x17\x8e&e\x1d\xd3?'
p904
tp905
Rp906
tp907
a(S'stochastic geometry'
p908
g2
(g6
S'^\xf5\xc2\xb0\xad\x16\xd3?'
p909
tp910
Rp911
tp912
a(S'international society for photogrammetry and remote sensing'
p913
g2
(g6
S'8\x8b7\xdd\x80\x15\xd3?'
p914
tp915
Rp916
tp917
a(S'toponomics'
p918
g2
(g6
S'B7:wu\x07\xd3?'
p919
tp920
Rp921
tp922
a(S'international school of software, wuhan university'
p923
g2
(g6
S'\xc2Yy\xb9\xf1\xe6\xd2?'
p924
tp925
Rp926
tp927
a(S'radial arm maze'
p928
g2
(g6
S'\x93\x1a\x97X\xbd\xbc\xd2?'
p929
tp930
Rp931
tp932
a(S'sense of direction'
p933
g2
(g6
S'\x82\xef\xdfp\xca\xa9\xd2?'
p934
tp935
Rp936
tp937
a(S'poverty map'
p938
g2
(g6
S'\x8edMIf\x9c\xd2?'
p939
tp940
Rp941
tp942
a(S'worldmap'
p943
g2
(g6
S'q)\xa3\xe0\x0c\x97\xd2?'
p944
tp945
Rp946
tp947
a(S'hanan samet'
p948
g2
(g6
S'p\x88Sn-\x8f\xd2?'
p949
tp950
Rp951
tp952
a(S'ministry of environment and spatial planning of kosovo'
p953
g2
(g6
S'n[|P\x8a_\xd2?'
p954
tp955
Rp956
tp957
a(S"baddeley's model of working memory"
p958
g2
(g6
S'J^\xc7\xd5\xc9\\\xd2?'
p959
tp960
Rp961
tp962
a(S'regional religious system'
p963
g2
(g6
S'\xbaN\x99\r-H\xd2?'
p964
tp965
Rp966
tp967
a(S'spatial distribution'
p968
g2
(g6
S"\x1f\xfd\x02\xef'C\xd2?"
p969
tp970
Rp971
tp972
a(S'mutual standardisation'
p973
g2
(g6
S'\xae\xcbf\x0e\x92+\xd2?'
p974
tp975
Rp976
tp977
a(S'minimum resolvable contrast'
p978
g2
(g6
S"\x96\x05\\\x07.'\xd2?"
p979
tp980
Rp981
tp982
a(S'spatial acceleration'
p983
g2
(g6
S"'\x07\x8b\xeb\xd9%\xd2?"
p984
tp985
Rp986
tp987
a(S'landmap'
p988
g2
(g6
S'\xd6Q\x051\x90\x0e\xd2?'
p989
tp990
Rp991
tp992
a(S'spatial mismatch'
p993
g2
(g6
S'\x07\xe4s\x88T\xfb\xd1?'
p994
tp995
Rp996
tp997
a(S'ice field'
p998
g2
(g6
S'\xeb\xbc%\x86\x97\xf7\xd1?'
p999
tp1000
Rp1001
tp1002
a(S'wilbur zelinsky'
p1003
g2
(g6
S'\x94Y\x0b\xb9\x14\xef\xd1?'
p1004
tp1005
Rp1006
tp1007
a(S'spatial and spatio-temporal epidemiology'
p1008
g2
(g6
S'\xf2AX\xefq\xeb\xd1?'
p1009
tp1010
Rp1011
tp1012
a(S'geoserver'
p1013
g2
(g6
S'xK\x1f\xd4\xb5\xe3\xd1?'
p1014
tp1015
Rp1016
tp1017
a(S'pierre moussa'
p1018
g2
(g6
S'\xa0|\xb0\x97\x12\xdc\xd1?'
p1019
tp1020
Rp1021
tp1022
a(S'sandra arlinghaus'
p1023
g2
(g6
S'i\xbdYu\xad\xd4\xd1?'
p1024
tp1025
Rp1026
tp1027
a(S'spatiospectral scanning'
p1028
g2
(g6
S'\tUU\xe6Q\xbb\xd1?'
p1029
tp1030
Rp1031
tp1032
a(S'landfire'
p1033
g2
(g6
S'\x03M?%\x99\xba\xd1?'
p1034
tp1035
Rp1036
tp1037
a(S'fmrib software library'
p1038
g2
(g6
S'\xf9IU\x0e\xdb\xae\xd1?'
p1039
tp1040
Rp1041
tp1042
a(S'analysis'
p1043
g2
(g6
S'\xcc\x1b\xbf1z\x8f\xd1?'
p1044
tp1045
Rp1046
tp1047
a(S'crimeanalyst'
p1048
g2
(g6
S'Q\xe7\x94\x13\xf9|\xd1?'
p1049
tp1050
Rp1051
tp1052
a(S'k-space (magnetic resonance imaging)'
p1053
g2
(g6
S'\xfa\xdeN\xe1\xaay\xd1?'
p1054
tp1055
Rp1056
tp1057
a(S'environment of the netherlands'
p1058
g2
(g6
S'\xd3\x01\xd5y\xc7]\xd1?'
p1059
tp1060
Rp1061
tp1062
a(S'examples of data mining'
p1063
g2
(g6
S'\xce\xc7\xc8UN6\xd1?'
p1064
tp1065
Rp1066
tp1067
a(S'town and country planning in wales'
p1068
g2
(g6
S'\xd5\xe0~\xbb\x050\xd1?'
p1069
tp1070
Rp1071
tp1072
a(S'infrastructure for spatial information in the european community'
p1073
g2
(g6
S'\x85\x00\x8b\x0f=-\xd1?'
p1074
tp1075
Rp1076
tp1077
a(S'windscan'
p1078
g2
(g6
S'>Q\x9c\x10r#\xd1?'
p1079
tp1080
Rp1081
tp1082
a(S"children's nonverbal learning disabilities scale (c-nld)"
p1083
g2
(g6
S'\xfc&\xa8\x0b\x88\x1f\xd1?'
p1084
tp1085
Rp1086
tp1087
a(S'spatial politics'
p1088
g2
(g6
S'\x97N\xb4\xba\x89\x17\xd1?'
p1089
tp1090
Rp1091
tp1092
a(S'multidimensional empirical mode decomposition'
p1093
g2
(g6
S'\xf3"[\x16V\x16\xd1?'
p1094
tp1095
Rp1096
tp1097
a(S'fleur agema'
p1098
g2
(g6
S'\xf5\xe5o\x86\xbd\x12\xd1?'
p1099
tp1100
Rp1101
tp1102
a(S'hans-peter kriegel'
p1103
g2
(g6
S'\xa9\x0ca\xbf\xb6\x10\xd1?'
p1104
tp1105
Rp1106
tp1107
a(S'genstat'
p1108
g2
(g6
S'\xf2\xc8\xa2Z<\x0f\xd1?'
p1109
tp1110
Rp1111
tp1112
a(S'minister of natural resources, mining and spatial planning (serbia)'
p1113
g2
(g6
S'\x02._\xd8\xef\x07\xd1?'
p1114
tp1115
Rp1116
tp1117
a(S'pieter winsemius'
p1118
g2
(g6
S'\x19\xbe\xf7.\n\x00\xd1?'
p1119
tp1120
Rp1121
tp1122
a(S'landserf'
p1123
g2
(g6
S'\\}\xbf\x07\x1b\xff\xd0?'
p1124
tp1125
Rp1126
tp1127
a(S'panbiogeography'
p1128
g2
(g6
S'\x00\xb7\x07K\xef\xfa\xd0?'
p1129
tp1130
Rp1131
tp1132
a(S'taskscape'
p1133
g2
(g6
S'j\x18%\xe1\x07\xf0\xd0?'
p1134
tp1135
Rp1136
tp1137
a(S'toponym resolution'
p1138
g2
(g6
S'dU\xf7;\x8f\xec\xd0?'
p1139
tp1140
Rp1141
tp1142
a(S'grid (spatial index)'
p1143
g2
(g6
S'\xf1\xb57KD\xec\xd0?'
p1144
tp1145
Rp1146
tp1147
a(S'spatial corp'
p1148
g2
(g6
S'\x02\x08X\nW\xeb\xd0?'
p1149
tp1150
Rp1151
tp1152
a(S'jacqueline mcglade'
p1153
g2
(g6
S'\xce\x8aU\xe8\xe7\xdf\xd0?'
p1154
tp1155
Rp1156
tp1157
a(S'regional spatial strategy'
p1158
g2
(g6
S'\xc1\xdb45\xeb\xdd\xd0?'
p1159
tp1160
Rp1161
tp1162
a(S'visibility graph analysis'
p1163
g2
(g6
S'\xa0\xa9\xc8(\xe2\xd7\xd0?'
p1164
tp1165
Rp1166
tp1167
a(S'spatial verification'
p1168
g2
(g6
S'\n\x94\x1f\x90\xbb\xcd\xd0?'
p1169
tp1170
Rp1171
tp1172
a(S'spatial light modulator'
p1173
g2
(g6
S'\x05y\x1b\xa3\xf5\xca\xd0?'
p1174
tp1175
Rp1176
tp1177
a(S'overaccumulation'
p1178
g2
(g6
S'\xe2\xdc\xc3J\x10\xca\xd0?'
p1179
tp1180
Rp1181
tp1182
a(S'geopackage'
p1183
g2
(g6
S'j\x80\x0e\x17f\xbb\xd0?'
p1184
tp1185
Rp1186
tp1187
a(S'hhcode'
p1188
g2
(g6
S'*\x9e\xdf\xecd\xb1\xd0?'
p1189
tp1190
Rp1191
tp1192
a(S'crime mapping'
p1193
g2
(g6
S'\xcc\x98\xd8e6\xa2\xd0?'
p1194
tp1195
Rp1196
tp1197
a(S'urban economics'
p1198
g2
(g6
S'\xba&\xe4\x18\x8e\xa0\xd0?'
p1199
tp1200
Rp1201
tp1202
a(S'retinal mosaic'
p1203
g2
(g6
S'\x9e\xa0\xf6\xb7j\x8c\xd0?'
p1204
tp1205
Rp1206
tp1207
a(S'locality of reference'
p1208
g2
(g6
S'!k\x914\x00d\xd0?'
p1209
tp1210
Rp1211
tp1212
a(S'integrative agnosia'
p1213
g2
(g6
S'~\xf5b\xefIa\xd0?'
p1214
tp1215
Rp1216
tp1217
a(S'well-known text'
p1218
g2
(g6
S"\xdd\xd9''\xb7X\xd0?"
p1219
tp1220
Rp1221
tp1222
a(S'thomas eller'
p1223
g2
(g6
S'\xbd\xc9S\xc1)A\xd0?'
p1224
tp1225
Rp1226
tp1227
a(S'land use evolution and impact assessment model'
p1228
g2
(g6
S'\x86\xa6^\x01\xad3\xd0?'
p1229
tp1230
Rp1231
tp1232
a(S'geomedia'
p1233
g2
(g6
S'\x80f7\xd7\xdd-\xd0?'
p1234
tp1235
Rp1236
tp1237
a(S'ed parsons'
p1238
g2
(g6
S'q\x03\x04s\xf6)\xd0?'
p1239
tp1240
Rp1241
tp1242
a(S'reginald golledge'
p1243
g2
(g6
S"\x81D\xe9q\xed'\xd0?"
p1244
tp1245
Rp1246
tp1247
a(S'sociology of space'
p1248
g2
(g6
S'c\x9a\x8c-\xa2$\xd0?'
p1249
tp1250
Rp1251
tp1252
a(S'james pustejovsky'
p1253
g2
(g6
S'K\x01P+\xbf\x15\xd0?'
p1254
tp1255
Rp1256
tp1257
a(S'arcmap'
p1258
g2
(g6
S'\xf4\xe0}\xba\x82\x10\xd0?'
p1259
tp1260
Rp1261
tp1262
a(S'hierotopy'
p1263
g2
(g6
S'\xf8\xf9\x9c\xe5\xb6\x07\xd0?'
p1264
tp1265
Rp1266
tp1267
a(S'ministry of infrastructure and the environment'
p1268
g2
(g6
S'\xe4\x82\xc0\xeb\xa7\x02\xd0?'
p1269
tp1270
Rp1271
tp1272
a(S'microthermal analysis'
p1273
g2
(g6
S'\xccp\xa8\xcc]\xf3\xcf?'
p1274
tp1275
Rp1276
tp1277
a(S'spatial design'
p1278
g2
(g6
S'\xd7\xb3\x1c\xbe\xb3\xcf\xcf?'
p1279
tp1280
Rp1281
tp1282
a(S'gis file formats'
p1283
g2
(g6
S'\xe8\xbb\x864\x1b\xba\xcf?'
p1284
tp1285
Rp1286
tp1287
a(S'c-squares'
p1288
g2
(g6
S'\x86?pR\xc2\xad\xcf?'
p1289
tp1290
Rp1291
tp1292
a(S'spatial cutoff frequency'
p1293
g2
(g6
S'\xad\xb8\x1cp\xf6\xa3\xcf?'
p1294
tp1295
Rp1296
tp1297
a(S'minister of territorial development (france)'
p1298
g2
(g6
S'$\x8d\xd0\x17\xcc\x95\xcf?'
p1299
tp1300
Rp1301
tp1302
a(S'data analysis'
p1303
g2
(g6
S'|7\xb5~ik\xcf?'
p1304
tp1305
Rp1306
tp1307
a(S'ucl centre for advanced spatial analysis'
p1308
g2
(g6
S'\xb7r\x96\xd7\xc9[\xcf?'
p1309
tp1310
Rp1311
tp1312
a(S'crime hotspots'
p1313
g2
(g6
S'\\&\xf4.\x08;\xcf?'
p1314
tp1315
Rp1316
tp1317
a(S'strategic geography'
p1318
g2
(g6
S'Q\xe9\x94\x81\x14#\xcf?'
p1319
tp1320
Rp1321
tp1322
a(S'geography'
p1323
g2
(g6
S'\xb22\xd4\x05\x82\x17\xcf?'
p1324
tp1325
Rp1326
tp1327
a(S'arcgis'
p1328
g2
(g6
S'>\x1dE\xf1)\x10\xcf?'
p1329
tp1330
Rp1331
tp1332
a(S'enterprise gis'
p1333
g2
(g6
S'c\xbf\xa4\xb7:\x05\xcf?'
p1334
tp1335
Rp1336
tp1337
a(S'hive (virtual environment)'
p1338
g2
(g6
S'\r\xa3+\xfd\xa0\x02\xcf?'
p1339
tp1340
Rp1341
tp1342
a(S'john corrigan'
p1343
g2
(g6
S'\xd1\x1f\x07\x81\xd8\xfa\xce?'
p1344
tp1345
Rp1346
tp1347
a(S'optical resolution'
p1348
g2
(g6
S'%3\x02\xf7\x00\xf0\xce?'
p1349
tp1350
Rp1351
tp1352
a(S'spatial normalization'
p1353
g2
(g6
S'\xfa\x1b\xe0\x8c\xc5\xe3\xce?'
p1354
tp1355
Rp1356
tp1357
a(S'faculty of geodesy and land management of the university of warmia and mazury in olsztyn'
p1358
g2
(g6
S'\xddQ\x06f\xf8\xdf\xce?'
p1359
tp1360
Rp1361
tp1362
a(S'erdas imagine'
p1363
g2
(g6
S'\xca}\xe3IN\xd4\xce?'
p1364
tp1365
Rp1366
tp1367
a(S'time series'
p1368
g2
(g6
S'C\x89\x90\xc4k\xd3\xce?'
p1369
tp1370
Rp1371
tp1372
a(S'association of european schools of planning'
p1373
g2
(g6
S'0\x18\x9d\xc9\x12\xbb\xce?'
p1374
tp1375
Rp1376
tp1377
a(S'russell l. de valois'
p1378
g2
(g6
S'\xb1\xdaKf\xee\xa4\xce?'
p1379
tp1380
Rp1381
tp1382
a(S'kymograph'
p1383
g2
(g6
S'8\xc4\x98\x7f\x8f\x9b\xce?'
p1384
tp1385
Rp1386
tp1387
a(S'many antennas'
p1388
g2
(g6
S'\xbf\x98-\x1a\xa7\x97\xce?'
p1389
tp1390
Rp1391
tp1392
a(S'landscape ecology'
p1393
g2
(g6
S'\x05\xbf\x16u\x7f\x88\xce?'
p1394
tp1395
Rp1396
tp1397
a(S'geo-imputation'
p1398
g2
(g6
S'\xca@=\xaf=N\xce?'
p1399
tp1400
Rp1401
tp1402
a(S'3d city models'
p1403
g2
(g6
S'p\x8f\x05\xf8\x83I\xce?'
p1404
tp1405
Rp1406
tp1407
a(S'wombling'
p1408
g2
(g6
S'\xf5S\xc3:\x96D\xce?'
p1409
tp1410
Rp1411
tp1412
a(S'spatial multiplexing'
p1413
g2
(g6
S'\xb6\xef\x0c\xf0\xac+\xce?'
p1414
tp1415
Rp1416
tp1417
a(S'multi unit spectroscopic explorer'
p1418
g2
(g6
S'\x0fV\xebqf\x11\xce?'
p1419
tp1420
Rp1421
tp1422
a(S'two-point discrimination'
p1423
g2
(g6
S'\t\xac\xae/\x97\x0e\xce?'
p1424
tp1425
Rp1426
tp1427
a(S'irs-1d'
p1428
g2
(g6
S'A\x15\x87\x94V\x04\xce?'
p1429
tp1430
Rp1431
tp1432
a(S'geospatial predictive modeling'
p1433
g2
(g6
S'\xa7\xb1\x82\xe0\x1c\x00\xce?'
p1434
tp1435
Rp1436
tp1437
a(S'agrometeorology'
p1438
g2
(g6
S'@\r\x89x\xdf\xf9\xcd?'
p1439
tp1440
Rp1441
tp1442
a(S'hamiltonian constraint of lqg'
p1443
g2
(g6
S'g\xde\x1c\xc9\xa5\xdc\xcd?'
p1444
tp1445
Rp1446
tp1447
a(S'microgeomatics'
p1448
g2
(g6
S'\x07\xe0T4\xdc\xda\xcd?'
p1449
tp1450
Rp1451
tp1452
a(S'geometric data analysis'
p1453
g2
(g6
S'i\x9c\xfe3\x04\xd3\xcd?'
p1454
tp1455
Rp1456
tp1457
a(S'national remote sensing centre'
p1458
g2
(g6
S'g/\x9e\x19w\xcf\xcd?'
p1459
tp1460
Rp1461
tp1462
a(S'trend surface analysis'
p1463
g2
(g6
S'\xc0\xdeI\x00N\xc8\xcd?'
p1464
tp1465
Rp1466
tp1467
a(S'abstract space'
p1468
g2
(g6
S'\x9bX<\xc5q\xb5\xcd?'
p1469
tp1470
Rp1471
tp1472
a(S'regional science'
p1473
g2
(g6
S'\x08\xd3\x19\xb8\x89\xb1\xcd?'
p1474
tp1475
Rp1476
tp1477
a(S'structured geospatial analytic method'
p1478
g2
(g6
S'\x1c\x85\xee\x05\x80\xac\xcd?'
p1479
tp1480
Rp1481
tp1482
a(S'urbansim'
p1483
g2
(g6
S'\x1d[\xdd\xc2\x16\x9b\xcd?'
p1484
tp1485
Rp1486
tp1487
a(S'urban research centre'
p1488
g2
(g6
S'\xf6!\x05+\xd6q\xcd?'
p1489
tp1490
Rp1491
tp1492
a(S'segment (linguistics)'
p1493
g2
(g6
S'0b\xc4\xaeeM\xcd?'
p1494
tp1495
Rp1496
tp1497
a(S'unigis'
p1498
g2
(g6
S'\xb9/\xe4!\xe4K\xcd?'
p1499
tp1500
Rp1501
tp1502
a(S'gis in archaeology'
p1503
g2
(g6
S'\xd9\xd2}\xf0{<\xcd?'
p1504
tp1505
Rp1506
tp1507
a(S'martin j. beckmann'
p1508
g2
(g6
S'\xe1$d\xce\x1a:\xcd?'
p1509
tp1510
Rp1511
tp1512
a.