(lp0
(S'startup company'
p1
cnumpy.core.multiarray
scalar
p2
(cnumpy
dtype
p3
(S'f8'
p4
I0
I1
tp5
Rp6
(I3
S'<'
p7
NNNI-1
I-1
I0
tp8
bS'\xfc\xff\xff\xff\xff\xff\xef?'
p9
tp10
Rp11
tp12
a(S'startup studio'
p13
g2
(g6
S'\x10\xcc^\xa0\x14\x8c\xe7?'
p14
tp15
Rp16
tp17
a(S'startup village'
p18
g2
(g6
S'}\x05fG\xd6\xe8\xe4?'
p19
tp20
Rp21
tp22
a(S'startups.com'
p23
g2
(g6
S'2?O\x16\xa7\xc3\xe4?'
p24
tp25
Rp26
tp27
a(S'czechstartups.org'
p28
g2
(g6
S'f\xfc\xf5q\xef\xbf\xe4?'
p29
tp30
Rp31
tp32
a(S'startup games'
p33
g2
(g6
S'\x06\xf8\xa8o\x1a\x94\xe3?'
p34
tp35
Rp36
tp37
a(S'startup ecosystem'
p38
g2
(g6
S'\x92\xb8C\xfe\x98\xe8\xe2?'
p39
tp40
Rp41
tp42
a(S'startup weekend'
p43
g2
(g6
S'G\x9f\xea\x0c^\xbd\xe2?'
p44
tp45
Rp46
tp47
a(S'startup monthly'
p48
g2
(g6
S'\xa7;\xe6\xbfJ\xa6\xe2?'
p49
tp50
Rp51
tp52
a(S'seeqnce'
p53
g2
(g6
S'\ti\xd5\xf6\x88\x9a\xe2?'
p54
tp55
Rp56
tp57
a(S'sijo kuruvilla george'
p58
g2
(g6
S'\x9c\x0f\x0e\xc9{j\xe2?'
p59
tp60
Rp61
tp62
a(S'startup'
p63
g2
(g6
S'\xd8Oh\xdc\xdf\x0e\xe2?'
p64
tp65
Rp66
tp67
a(S'scaleup company'
p68
g2
(g6
S'\xb6\xa8/%\xba\xf1\xe1?'
p69
tp70
Rp71
tp72
a(S'the cofounder'
p73
g2
(g6
S'\x1f\x163\x7f^\xf1\xe1?'
p74
tp75
Rp76
tp77
a(S'startup britain'
p78
g2
(g6
S'\x12\x15"O\xa6\xa9\xe1?'
p79
tp80
Rp81
tp82
a(S'efounders'
p83
g2
(g6
S':~~\xed*|\xe1?'
p84
tp85
Rp86
tp87
a(S'blue startups'
p88
g2
(g6
S'\x87\x88f3K\xa8\xe0?'
p89
tp90
Rp91
tp92
a(S'startup health'
p93
g2
(g6
S'\xa2\x8b\xe3\x9c\xff\x7f\xe0?'
p94
tp95
Rp96
tp97
a(S'kerala startup mission'
p98
g2
(g6
S'\xbc\xed\xef\xb1>h\xdf?'
p99
tp100
Rp101
tp102
a(S'startup europe summit'
p103
g2
(g6
S'd\xd8,\xa7yT\xdf?'
p104
tp105
Rp106
tp107
a(S'evan burfield'
p108
g2
(g6
S'H)\xeb\xd2\x01\xe9\xde?'
p109
tp110
Rp111
tp112
a(S'carspring'
p113
g2
(g6
S'\xfb\xbb\xbb\xb4\x8c\xd4\xde?'
p114
tp115
Rp116
tp117
a(S'german startups group'
p118
g2
(g6
S'\xc8\xc1\x9c\xde\xa2\xc5\xde?'
p119
tp120
Rp121
tp122
a(S'companisto'
p123
g2
(g6
S'x\xa8`\xe8Q\xb0\xde?'
p124
tp125
Rp126
tp127
a(S'masschallenge'
p128
g2
(g6
S'9\xd9\xef\xaa\xcf\xad\xde?'
p129
tp130
Rp131
tp132
a(S'techvibes'
p133
g2
(g6
S'q\xf1\x16\xd1\xc8S\xde?'
p134
tp135
Rp136
tp137
a(S'alejandro cremades'
p138
g2
(g6
S'\x08\x04\x978A)\xde?'
p139
tp140
Rp141
tp142
a(S'donna harris (businesswoman)'
p143
g2
(g6
S'~D\xd2;\xf9!\xde?'
p144
tp145
Rp146
tp147
a(S'india startup ecosystem timeline'
p148
g2
(g6
S'\xa7B\n\xa8\x8a\x1f\xde?'
p149
tp150
Rp151
tp152
a(S'blueseed'
p153
g2
(g6
S'2\xd9CZ\xdd\x0f\xde?'
p154
tp155
Rp156
tp157
a(S'trackduck'
p158
g2
(g6
S'@\x8d\xf67\xab\xee\xdd?'
p159
tp160
Rp161
tp162
a(S'digitalmania'
p163
g2
(g6
S'y\x08\xf6M\xfb\xc7\xdd?'
p164
tp165
Rp166
tp167
a(S'oddup'
p168
g2
(g6
S'\x04\xbb[_\xcc\xbf\xdd?'
p169
tp170
Rp171
tp172
a(S'angellist'
p173
g2
(g6
S'\xc5\xd1\x19\xab\xda\x97\xdd?'
p174
tp175
Rp176
tp177
a(S'onevest'
p178
g2
(g6
S'\xe1\xd2\xed\xb7\xdd\x82\xdd?'
p179
tp180
Rp181
tp182
a(S'conquest (start-up challenge)'
p183
g2
(g6
S'Z5\x8dB\xdaH\xdd?'
p184
tp185
Rp186
tp187
a(S'rock the post'
p188
g2
(g6
S'\x1e#\x152y(\xdd?'
p189
tp190
Rp191
tp192
a(S'startup princess'
p193
g2
(g6
S'\xad\xce\x0eNb%\xdd?'
p194
tp195
Rp196
tp197
a(S'dave mcclure'
p198
g2
(g6
S'\x1c\xac\x9f\xdd\x0c#\xdd?'
p199
tp200
Rp201
tp202
a(S'tzinga'
p203
g2
(g6
S'U\xe4\xaa\xb3B\x16\xdd?'
p204
tp205
Rp206
tp207
a(S'startupdigest'
p208
g2
(g6
S'\xb7\xf5\x9br\xef\x12\xdd?'
p209
tp210
Rp211
tp212
a(S'1776 (company)'
p213
g2
(g6
S'\xd2\xa6\xec7\xc3\r\xdd?'
p214
tp215
Rp216
tp217
a(S'ispace foundation'
p218
g2
(g6
S'\xdf\x7f\xc4\xa2b\xd5\xdc?'
p219
tp220
Rp221
tp222
a(S'wefunder'
p223
g2
(g6
S'\xb5\x7f:\x905\xcc\xdc?'
p224
tp225
Rp226
tp227
a(S'qunb'
p228
g2
(g6
S'J\xc4\xff\xdf\xba\x88\xdc?'
p229
tp230
Rp231
tp232
a(S'global startup battle'
p233
g2
(g6
S'\x08\xd8\x89\xac3C\xdc?'
p234
tp235
Rp236
tp237
a(S'brian lee (entrepreneur)'
p238
g2
(g6
S'$\xc9\xc7\xa6VB\xdb?'
p239
tp240
Rp241
tp242
a(S'best of x'
p243
g2
(g6
S'@ \tF\xb3<\xdb?'
p244
tp245
Rp246
tp247
a(S'business builder'
p248
g2
(g6
S'@\xa4\xb7\xcfE\x05\xdb?'
p249
tp250
Rp251
tp252
a(S'lean startup'
p253
g2
(g6
S'\xc9=\x92\xf6\xb4\xe5\xda?'
p254
tp255
Rp256
tp257
a(S'sumazi'
p258
g2
(g6
S't\x18\nLw\xbe\xda?'
p259
tp260
Rp261
tp262
a(S'seedcamp'
p263
g2
(g6
S'\xdf\x83\xa6t\xf3y\xda?'
p264
tp265
Rp266
tp267
a(S'paul foley (entrepreneur)'
p268
g2
(g6
S'\x8e!\xac@\xf7O\xda?'
p269
tp270
Rp271
tp272
a(S'organizedwisdom.com'
p273
g2
(g6
S'\r\xe8\xe3_\xa2 \xda?'
p274
tp275
Rp276
tp277
a(S'return on change'
p278
g2
(g6
S'\x1fH\x8a\x97Q\x1b\xda?'
p279
tp280
Rp281
tp282
a(S'michael jones (entrepreneur)'
p283
g2
(g6
S'V\xc9U}M\xef\xd9?'
p284
tp285
Rp286
tp287
a(S'taizo son'
p288
g2
(g6
S'h\x90\xf2\xadu\xc6\xd9?'
p289
tp290
Rp291
tp292
a(S'sosv'
p293
g2
(g6
S'\xd2\xd8\xb3\x91\x8f\xa9\xd9?'
p294
tp295
Rp296
tp297
a(S'startup india'
p298
g2
(g6
S'\xe0H\x92Z r\xd9?'
p299
tp300
Rp301
tp302
a(S'finnish startup scene'
p303
g2
(g6
S'\xdd\x02\xe5\x14\xd3`\xd9?'
p304
tp305
Rp306
tp307
a(S'mavish'
p308
g2
(g6
S'\xb63\xed\xe2\x99\\\xd9?'
p309
tp310
Rp311
tp312
a(S'founder2be'
p313
g2
(g6
S'\x85S\x83\n\xdeQ\xd9?'
p314
tp315
Rp316
tp317
a(S'customer development'
p318
g2
(g6
S'$\xe9\xb0\xad\xffM\xd9?'
p319
tp320
Rp321
tp322
a(S'international entrepreneur rule'
p323
g2
(g6
S"\xdf'1\xc7K%\xd9?"
p324
tp325
Rp326
tp327
a(S'aaltoes'
p328
g2
(g6
S'8-qSb\x17\xd9?'
p329
tp330
Rp331
tp332
a(S'seedrs'
p333
g2
(g6
S'\xeb\x92\xae2\xd3\x10\xd9?'
p334
tp335
Rp336
tp337
a(S'scott case (business)'
p338
g2
(g6
S'\xa0\x88d\x05\x80\r\xd9?'
p339
tp340
Rp341
tp342
a(S'the alchemist accelerator'
p343
g2
(g6
S'G^\xbb*\x05\xe3\xd8?'
p344
tp345
Rp346
tp347
a(S'open angel forum'
p348
g2
(g6
S'u\xc99\xc6Q\xd1\xd8?'
p349
tp350
Rp351
tp352
a(S'idein ventures'
p353
g2
(g6
S'`*\x1d\x11K\x9f\xd8?'
p354
tp355
Rp356
tp357
a(S'indiebio'
p358
g2
(g6
S'\xd3\x8e\x82\xfc\x1d}\xd8?'
p359
tp360
Rp361
tp362
a(S'techcrunch disrupt new york 2016'
p363
g2
(g6
S'\x19\xc7\x88\xa8Dv\xd8?'
p364
tp365
Rp366
tp367
a(S'fundable'
p368
g2
(g6
S'\x9eb\x0c\xaeJ^\xd8?'
p369
tp370
Rp371
tp372
a(S'the lean startup'
p373
g2
(g6
S'@\x83\xa6\x1e\x9eY\xd8?'
p374
tp375
Rp376
tp377
a(S'engine (organization)'
p378
g2
(g6
S'\xa4k\xdd\xc1AA\xd8?'
p379
tp380
Rp381
tp382
a(S'startup funding club'
p383
g2
(g6
S'\xc7\xb5\xec\xb6v@\xd8?'
p384
tp385
Rp386
tp387
a(S'sandbox startups'
p388
g2
(g6
S"\x89N_s\x1d'\xd8?"
p389
tp390
Rp391
tp392
a(S'beam connect'
p393
g2
(g6
S'\x19Pw\xa0\xe4\x15\xd8?'
p394
tp395
Rp396
tp397
a(S'hackfwd'
p398
g2
(g6
S'o\xdbIJ\x0e\x03\xd8?'
p399
tp400
Rp401
tp402
a(S'startup visa'
p403
g2
(g6
S's\xb6\xf4R\x8a\x02\xd8?'
p404
tp405
Rp406
tp407
a(S'younoodle'
p408
g2
(g6
S'\xd370\t\x01\xb1\xd7?'
p409
tp410
Rp411
tp412
a(S'emory entrepreneurship & venture management'
p413
g2
(g6
S'\x16\xcb\xcf\xf5\x06\xa3\xd7?'
p414
tp415
Rp416
tp417
a(S'corporate venture capital'
p418
g2
(g6
S'+em\x03\xee\x9f\xd7?'
p419
tp420
Rp421
tp422
a(S'btcjam'
p423
g2
(g6
S'\x81w\xea\xd3\xe0k\xd7?'
p424
tp425
Rp426
tp427
a(S'entrepreneur first'
p428
g2
(g6
S'"\xecX\x9d\xc5B\xd7?'
p429
tp430
Rp431
tp432
a(S'ellie cachette'
p433
g2
(g6
S'\x91hY\x03{:\xd7?'
p434
tp435
Rp436
tp437
a(S'hax accelerator'
p438
g2
(g6
S'\xcb^O\xef0\x13\xd7?'
p439
tp440
Rp441
tp442
a(S'made in jlm'
p443
g2
(g6
S'\x87\xcc\xf6U\xfb\xea\xd6?'
p444
tp445
Rp446
tp447
a(S'craftsvilla'
p448
g2
(g6
S'\xf7^<\xd8\xf9\xd6\xd6?'
p449
tp450
Rp451
tp452
a(S'startup grind'
p453
g2
(g6
S'\xd2\xe9`T\xd8\xcd\xd6?'
p454
tp455
Rp456
tp457
a(S'stealth startup'
p458
g2
(g6
S'\x98\xd9X\x8b\xd1\xc2\xd6?'
p459
tp460
Rp461
tp462
a(S'imagine h2o'
p463
g2
(g6
S'\x95;\xd6\x0e\x15\xb6\xd6?'
p464
tp465
Rp466
tp467
a(S'frank thelen'
p468
g2
(g6
S'0\xbd\x8bfy\x8b\xd6?'
p469
tp470
Rp471
tp472
a(S'alexander marten'
p473
g2
(g6
S'\xb9d\xdd\xfdJf\xd6?'
p474
tp475
Rp476
tp477
a(S'zerocater'
p478
g2
(g6
S's!O\x80L]\xd6?'
p479
tp480
Rp481
tp482
a(S'the entrepreneurship cell, iit bombay'
p483
g2
(g6
S'1\x13\x02\xe4\x7fZ\xd6?'
p484
tp485
Rp486
tp487
a(S'uk startup awards'
p488
g2
(g6
S'd\x8f\x98\xafjN\xd6?'
p489
tp490
Rp491
tp492
a(S'start-up chile'
p493
g2
(g6
S'\x1b\x90\x94\x02RN\xd6?'
p494
tp495
Rp496
tp497
a(S'mike baur'
p498
g2
(g6
S'\xd6\xff\x03\xa4&>\xd6?'
p499
tp500
Rp501
tp502
a(S'fabernovel'
p503
g2
(g6
S'\xf4Q\x05\x89\xbd/\xd6?'
p504
tp505
Rp506
tp507
a(S'fit for start'
p508
g2
(g6
S'B\x90<wn\x02\xd6?'
p509
tp510
Rp511
tp512
a(S'wamda'
p513
g2
(g6
S'p\x1a0W\xd5\xfd\xd5?'
p514
tp515
Rp516
tp517
a(S'rob walling'
p518
g2
(g6
S'\x9e\x91C\x92\xf8\xdf\xd5?'
p519
tp520
Rp521
tp522
a(S'alexander samwer'
p523
g2
(g6
S'\x13\xe4\xa3Q\xc2\xdf\xd5?'
p524
tp525
Rp526
tp527
a(S'interplay ventures'
p528
g2
(g6
S"'Y\xa3\x83X\xd6\xd5?"
p529
tp530
Rp531
tp532
a(S'shaherose charania'
p533
g2
(g6
S'\x8c\x9d\xad\xf5f\xbe\xd5?'
p534
tp535
Rp536
tp537
a(S'yfs magazine'
p538
g2
(g6
S'q\x80\x9b\x11\x80\xb5\xd5?'
p539
tp540
Rp541
tp542
a(S'science inc.'
p543
g2
(g6
S'\xa6\x18\x02\xba\xcf\x8e\xd5?'
p544
tp545
Rp546
tp547
a(S'justin mares'
p548
g2
(g6
S'H\xab\x97S\x0f\x8e\xd5?'
p549
tp550
Rp551
tp552
a(S'angelpad'
p553
g2
(g6
S'\xf9\xf5\xd38\x04Q\xd5?'
p554
tp555
Rp556
tp557
a(S'startup!'
p558
g2
(g6
S'/\xce\xb3\x03\xe8M\xd5?'
p559
tp560
Rp561
tp562
a(S'wil schroter'
p563
g2
(g6
S'\xa8N\x87C\xe8J\xd5?'
p564
tp565
Rp566
tp567
a(S'startup, washington'
p568
g2
(g6
S'\xb3]\xc1\xe7GD\xd5?'
p569
tp570
Rp571
tp572
a(S'boxgroup'
p573
g2
(g6
S'\x90.}\xac\n9\xd5?'
p574
tp575
Rp576
tp577
a(S'new england venture capital association'
p578
g2
(g6
S'\x13~c\x9f\xfc2\xd5?'
p579
tp580
Rp581
tp582
a(S'prehype'
p583
g2
(g6
S'\\L\xd3K\xcc2\xd5?'
p584
tp585
Rp586
tp587
a(S'fundica.com'
p588
g2
(g6
S'\xb3\xb2C9\x95)\xd5?'
p589
tp590
Rp591
tp592
a(S'jessica livingston'
p593
g2
(g6
S',\xa6v\x1e\xca$\xd5?'
p594
tp595
Rp596
tp597
a(S'hackny'
p598
g2
(g6
S'\xaf\xcc\x1c\x91\x94$\xd5?'
p599
tp600
Rp601
tp602
a(S'sanjay parekh'
p603
g2
(g6
S'\x04K\xf2F\xbd\x18\xd5?'
p604
tp605
Rp606
tp607
a(S'startupbootcamp'
p608
g2
(g6
S'\xfe5=: \xf0\xd4?'
p609
tp610
Rp611
tp612
a(S'techstars'
p613
g2
(g6
S'\xaa\x08\x82\xd6#\xec\xd4?'
p614
tp615
Rp616
tp617
a(S'series a round'
p618
g2
(g6
S'1\xa8\x9e\xe5\x13\xc5\xd4?'
p619
tp620
Rp621
tp622
a(S'tech in asia'
p623
g2
(g6
S'\xea\xf0e\xc23\xa9\xd4?'
p624
tp625
Rp626
tp627
a(S'ownlocal'
p628
g2
(g6
S'\xa1\xd1g\xc1\xc8\xa8\xd4?'
p629
tp630
Rp631
tp632
a(S'500 startups'
p633
g2
(g6
S"^\x03\xfc\x8e'\xa2\xd4?"
p634
tp635
Rp636
tp637
a(S'cleverpet inc'
p638
g2
(g6
S'P\xc2WP\\\x9d\xd4?'
p639
tp640
Rp641
tp642
a(S'housekeep'
p643
g2
(g6
S'\x89\xf2\xeb\xd9\xdd\x98\xd4?'
p644
tp645
Rp646
tp647
a(S'silicon beach fest'
p648
g2
(g6
S'\xbc\x0cc9\x8d\x96\xd4?'
p649
tp650
Rp651
tp652
a(S'jason calacanis'
p653
g2
(g6
S"`\xd93'v\x84\xd4?"
p654
tp655
Rp656
tp657
a(S'axilor ventures'
p658
g2
(g6
S'Iv\xda\x1d\x9an\xd4?'
p659
tp660
Rp661
tp662
a(S'seed accelerator'
p663
g2
(g6
S'c" x\x1c`\xd4?'
p664
tp665
Rp666
tp667
a(S'insidechips'
p668
g2
(g6
S'/|\x1f\xb7\x03]\xd4?'
p669
tp670
Rp671
tp672
a(S'cinepapaya'
p673
g2
(g6
S'\x00\xb4 \nWT\xd4?'
p674
tp675
Rp676
tp677
a(S'micro venture capital'
p678
g2
(g6
S'\x9c\xe8\x0424L\xd4?'
p679
tp680
Rp681
tp682
a(S'loginext'
p683
g2
(g6
S'\xef\x1c\x96m\x81I\xd4?'
p684
tp685
Rp686
tp687
a(S'adzuna'
p688
g2
(g6
S'\xf4\xe1;\xa1\x13:\xd4?'
p689
tp690
Rp691
tp692
a(S'fintech in india'
p693
g2
(g6
S'\x91\x8b\xc5\xfe\xdc5\xd4?'
p694
tp695
Rp696
tp697
a(S'youngstartup ventures'
p698
g2
(g6
S'f\xde\x03\x15\xe4.\xd4?'
p699
tp700
Rp701
tp702
a(S'david cohen (entrepreneur)'
p703
g2
(g6
S'HN\x96\x1f\x93\x12\xd4?'
p704
tp705
Rp706
tp707
a(S'cleanify'
p708
g2
(g6
S')\x95\x92\xcd\xc7\xfb\xd3?'
p709
tp710
Rp711
tp712
a(S'chaos monkeys'
p713
g2
(g6
S'\xf4\x84l\xaeA\xee\xd3?'
p714
tp715
Rp716
tp717
a(S'microventures'
p718
g2
(g6
S'V\x14D1\xd1\xe8\xd3?'
p719
tp720
Rp721
tp722
a(S'cocoon'
p723
g2
(g6
S'\xa7!\xca\xb5\xc7\xdf\xd3?'
p724
tp725
Rp726
tp727
a(S'carsquare'
p728
g2
(g6
S';\xfe\xd3\x08\xc3\xde\xd3?'
p729
tp730
Rp731
tp732
a(S'healthsherpa'
p733
g2
(g6
S'^Df\xc7p\xca\xd3?'
p734
tp735
Rp736
tp737
a(S'the draugiem group'
p738
g2
(g6
S'\xc3\x83\xe7p\x8c\xc9\xd3?'
p739
tp740
Rp741
tp742
a(S'seedups'
p743
g2
(g6
S'\x89\xda\x9bbQ\xc4\xd3?'
p744
tp745
Rp746
tp747
a(S'david s. rose'
p748
g2
(g6
S'\x83\xe0\xefQ\xad\xbc\xd3?'
p749
tp750
Rp751
tp752
a(S'sandbox industries'
p753
g2
(g6
S'(\xabp\xed\xde\x9f\xd3?'
p754
tp755
Rp756
tp757
a(S'ryan born'
p758
g2
(g6
S'\xe4}[\x03\xe6\x9c\xd3?'
p759
tp760
Rp761
tp762
a(S'will mitchell'
p763
g2
(g6
S'\xc2u\xb6#\x19\x8e\xd3?'
p764
tp765
Rp766
tp767
a(S'meltwater entrepreneurial school of technology'
p768
g2
(g6
S'\xfc\x14Z\xbbw\x8a\xd3?'
p769
tp770
Rp771
tp772
a(S'rina onur'
p773
g2
(g6
S'\xe7\xb2\xbf\x06j\x83\xd3?'
p774
tp775
Rp776
tp777
a(S'doug richard'
p778
g2
(g6
S'=S\xb3,\xffp\xd3?'
p779
tp780
Rp781
tp782
a(S'factory berlin'
p783
g2
(g6
S'8\x80\x8c\xda\xfdg\xd3?'
p784
tp785
Rp786
tp787
a(S'shayan italia'
p788
g2
(g6
S'\xce\xeb\xbeFyX\xd3?'
p789
tp790
Rp791
tp792
a(S'madrona venture group'
p793
g2
(g6
S'[ \x81;\xa1P\xd3?'
p794
tp795
Rp796
tp797
a(S'les chansons neurotiques (album)'
p798
g2
(g6
S'\x84T\xbd\xbb\xd12\xd3?'
p799
tp800
Rp801
tp802
a(S'fenox venture capital'
p803
g2
(g6
S'\xb6\x9fb\x99\x8d&\xd3?'
p804
tp805
Rp806
tp807
a(S'servicemarket'
p808
g2
(g6
S'\xe6\x9dU\x1b\x99\xf4\xd2?'
p809
tp810
Rp811
tp812
a(S'startup.com'
p813
g2
(g6
S'|\x1e^s\xc1\xea\xd2?'
p814
tp815
Rp816
tp817
a(S'startup u'
p818
g2
(g6
S'S\xe9\xfd\x02L\xdf\xd2?'
p819
tp820
Rp821
tp822
a(S'business today (student magazine)'
p823
g2
(g6
S'\xf6\x00\x87P\x05\xd0\xd2?'
p824
tp825
Rp826
tp827
a(S'peter z\xc3\xa1boji'
p828
g2
(g6
S'\xd3\x14\x8e\x8f*\xc9\xd2?'
p829
tp830
Rp831
tp832
a(S'iwoca'
p833
g2
(g6
S'\xe3\x82n\xca\xcb\xb1\xd2?'
p834
tp835
Rp836
tp837
a(S'dario mutabdzija'
p838
g2
(g6
S'\x80\xb0\x04\xf4o\xaa\xd2?'
p839
tp840
Rp841
tp842
a(S'foundation capital'
p843
g2
(g6
S'\x19\x1aX\xceP\xa3\xd2?'
p844
tp845
Rp846
tp847
a(S'infinit (file transfer)'
p848
g2
(g6
S'\xc8\xc8m\xc3\xa1\xa0\xd2?'
p849
tp850
Rp851
tp852
a(S'mable (business)'
p853
g2
(g6
S'\xba\x10_#\x0c\x98\xd2?'
p854
tp855
Rp856
tp857
a(S'sharedcopy'
p858
g2
(g6
S'\xb8\xf4T`)\x8f\xd2?'
p859
tp860
Rp861
tp862
a(S'lightbank'
p863
g2
(g6
S'W\x93\xaa\x16\xb2\x8d\xd2?'
p864
tp865
Rp866
tp867
a(S'steve blank'
p868
g2
(g6
S'\x1fA\xef:B\x8a\xd2?'
p869
tp870
Rp871
tp872
a(S'getyourguide'
p873
g2
(g6
S'\xb7\xf4\xc3#\x86w\xd2?'
p874
tp875
Rp876
tp877
a(S'thesquarefoot'
p878
g2
(g6
S')\xe2\n?\xedk\xd2?'
p879
tp880
Rp881
tp882
a(S'super angel'
p883
g2
(g6
S'\x17\'\x02("e\xd2?'
p884
tp885
Rp886
tp887
a(S'social venture capital'
p888
g2
(g6
S'L\xe8.)\xc7S\xd2?'
p889
tp890
Rp891
tp892
a(S'code n'
p893
g2
(g6
S'PgS\xa1\xc1B\xd2?'
p894
tp895
Rp896
tp897
a(S'swissnex'
p898
g2
(g6
S'\xab$\xd3.B/\xd2?'
p899
tp900
Rp901
tp902
a(S'fundera'
p903
g2
(g6
S'e\x17*$\xf4+\xd2?'
p904
tp905
Rp906
tp907
a(S'amplify.la'
p908
g2
(g6
S'\x94W\x84B\x10%\xd2?'
p909
tp910
Rp911
tp912
a(S'brad feld'
p913
g2
(g6
S'!ciJ,\x10\xd2?'
p914
tp915
Rp916
tp917
a(S'the startup kids'
p918
g2
(g6
S'x\xeb\te\x1c\x0b\xd2?'
p919
tp920
Rp921
tp922
a(S'bc innovation council'
p923
g2
(g6
S'\xdf\xf2\x1fD,\x04\xd2?'
p924
tp925
Rp926
tp927
a(S'venture capital'
p928
g2
(g6
S'\xde;\xa8\xb6\xb8\xf8\xd1?'
p929
tp930
Rp931
tp932
a(S'onboardly'
p933
g2
(g6
S'J\xact\xcb:\xf7\xd1?'
p934
tp935
Rp936
tp937
a(S'startup candy factory'
p938
g2
(g6
S'\xa2R%rB\xe8\xd1?'
p939
tp940
Rp941
tp942
a(S'kyle vogt'
p943
g2
(g6
S'\xce\xa1\xbf5\xcb\xe7\xd1?'
p944
tp945
Rp946
tp947
a(S'blacklane'
p948
g2
(g6
S'\x0cc`H\xda\xe0\xd1?'
p949
tp950
Rp951
tp952
a(S'john nesheim'
p953
g2
(g6
S'\x89\xde\x9d\x0b\xf7\xcf\xd1?'
p954
tp955
Rp956
tp957
a(S'viputheshwar sitaraman'
p958
g2
(g6
S'\xf5\xf5\x1f\xb3"\xca\xd1?'
p959
tp960
Rp961
tp962
a(S'sxsw v2v'
p963
g2
(g6
S'm\x15P.Z\xbb\xd1?'
p964
tp965
Rp966
tp967
a(S'startupbus'
p968
g2
(g6
S'\x9ex\xd5\xb3\xba\xac\xd1?'
p969
tp970
Rp971
tp972
a(S'the founder institute'
p973
g2
(g6
S'\xef\xd8\x82fM\xa0\xd1?'
p974
tp975
Rp976
tp977
a(S'quick menu'
p978
g2
(g6
S'\x83\x9c\xa7|-\x9e\xd1?'
p979
tp980
Rp981
tp982
a(S'the constant maid'
p983
g2
(g6
S'\xeef\xab\xd8\x0e\x96\xd1?'
p984
tp985
Rp986
tp987
a(S'willcall'
p988
g2
(g6
S'\x0ed\xc4\xa4\xea\x94\xd1?'
p989
tp990
Rp991
tp992
a(S'pertino'
p993
g2
(g6
S'\xc3\x01\xcf\x08\xbf\x8d\xd1?'
p994
tp995
Rp996
tp997
a(S'lesara'
p998
g2
(g6
S'a\xb4\xfcY\xa2\x86\xd1?'
p999
tp1000
Rp1001
tp1002
a(S'eric ries'
p1003
g2
(g6
S'8\xe8\xd0\x0e\xc8d\xd1?'
p1004
tp1005
Rp1006
tp1007
a(S'wahooly'
p1008
g2
(g6
S'\xd6#\xa720_\xd1?'
p1009
tp1010
Rp1011
tp1012
a(S'ben way'
p1013
g2
(g6
S'yG\xd4&\xf9[\xd1?'
p1014
tp1015
Rp1016
tp1017
a(S'rony abovitz'
p1018
g2
(g6
S'\x82[\x95/\xae<\xd1?'
p1019
tp1020
Rp1021
tp1022
a(S'kunal shah (entrepreneur)'
p1023
g2
(g6
S'\x89\xc4Q\xde\xe8/\xd1?'
p1024
tp1025
Rp1026
tp1027
a(S'coworking'
p1028
g2
(g6
S'*6\x97~S(\xd1?'
p1029
tp1030
Rp1031
tp1032
a(S'late labs'
p1033
g2
(g6
S'\x9b\xc3\xd72) \xd1?'
p1034
tp1035
Rp1036
tp1037
a(S'manny fernandez (angel investor)'
p1038
g2
(g6
S'd`\xa7\xca\xb3\x17\xd1?'
p1039
tp1040
Rp1041
tp1042
a(S'varagesale'
p1043
g2
(g6
S'\x9f\x89\xf5\xaa2\x02\xd1?'
p1044
tp1045
Rp1046
tp1047
a(S'rapidapi (company)'
p1048
g2
(g6
S'A>\xd3O4\x01\xd1?'
p1049
tp1050
Rp1051
tp1052
a(S'majoran'
p1053
g2
(g6
S'U\x95\xc1\xe0\xc8\xfd\xd0?'
p1054
tp1055
Rp1056
tp1057
a(S'groupprice'
p1058
g2
(g6
S'\xbf8\x1a\xe5v\xfa\xd0?'
p1059
tp1060
Rp1061
tp1062
a(S'michael hayman'
p1063
g2
(g6
S'bS\x1c`\xac\xe1\xd0?'
p1064
tp1065
Rp1066
tp1067
a(S'hall.com'
p1068
g2
(g6
S'$\x06\x85R\xc2\xde\xd0?'
p1069
tp1070
Rp1071
tp1072
a(S'peak ventures'
p1073
g2
(g6
S'p\\\xf2\xb3a\xd1\xd0?'
p1074
tp1075
Rp1076
tp1077
a(S'salesloft'
p1078
g2
(g6
S"'m\xe1\x86\x10\xd1\xd0?"
p1079
tp1080
Rp1081
tp1082
a(S'siftery'
p1083
g2
(g6
S'\xcc\xf6\x98\xa1D\xcf\xd0?'
p1084
tp1085
Rp1086
tp1087
a(S'dreamfunded'
p1088
g2
(g6
S'\xc4P\xbf\xbd\x80\xca\xd0?'
p1089
tp1090
Rp1091
tp1092
a(S'open university of west africa'
p1093
g2
(g6
S'@\xc8\x0e\xa4\xfe\xc9\xd0?'
p1094
tp1095
Rp1096
tp1097
a(S'daniel zolnikov'
p1098
g2
(g6
S'\xd5~\x1c\xba\x85\xc4\xd0?'
p1099
tp1100
Rp1101
tp1102
a(S'idonethis'
p1103
g2
(g6
S'\xebgC.n\xb6\xd0?'
p1104
tp1105
Rp1106
tp1107
a(S'angel investor'
p1108
g2
(g6
S'a\n\xe5"\x84\xa9\xd0?'
p1109
tp1110
Rp1111
tp1112
a(S'bikanta'
p1113
g2
(g6
S'"\x16\x1b\x02\xdd\xa4\xd0?'
p1114
tp1115
Rp1116
tp1117
a(S'cheryl yeoh'
p1118
g2
(g6
S'\xfe\xf3\x94\x92^\xa0\xd0?'
p1119
tp1120
Rp1121
tp1122
a(S'comatch'
p1123
g2
(g6
S'\xcf\xeb\xb4l\xa9\x95\xd0?'
p1124
tp1125
Rp1126
tp1127
a(S'belgrade it sector'
p1128
g2
(g6
S'\xb9\xcd\xe0q\xec\x90\xd0?'
p1129
tp1130
Rp1131
tp1132
a(S'ketan rahangdale'
p1133
g2
(g6
S'q\x869\x8a\x84\x8b\xd0?'
p1134
tp1135
Rp1136
tp1137
a(S'preload (software)'
p1138
g2
(g6
S'\x90\xd4^\x88[\x88\xd0?'
p1139
tp1140
Rp1141
tp1142
a(S'sociabl'
p1143
g2
(g6
S'\x9e\xd6\xa0\x9eA\x87\xd0?'
p1144
tp1145
Rp1146
tp1147
a(S'evan baehr'
p1148
g2
(g6
S'\xde\xae\xa3\xe0\x1c\x7f\xd0?'
p1149
tp1150
Rp1151
tp1152
a(S'equityzen'
p1153
g2
(g6
S'>]\xd4\x9d\xe9j\xd0?'
p1154
tp1155
Rp1156
tp1157
a(S'hiree'
p1158
g2
(g6
S'G\xc8\x15\x8b\x84i\xd0?'
p1159
tp1160
Rp1161
tp1162
a(S'moonshots capital'
p1163
g2
(g6
S'\xca\x1dL\xf7\x91e\xd0?'
p1164
tp1165
Rp1166
tp1167
a(S'aneesh varma'
p1168
g2
(g6
S'2\xc7\xe6\xce\xa3P\xd0?'
p1169
tp1170
Rp1171
tp1172
a(S'uberoffices'
p1173
g2
(g6
S'd\x01\xe1\x88\xa2E\xd0?'
p1174
tp1175
Rp1176
tp1177
a(S'orsiso'
p1178
g2
(g6
S'\xd4i\xffUyB\xd0?'
p1179
tp1180
Rp1181
tp1182
a(S'audiokite'
p1183
g2
(g6
S'<\x81.9D/\xd0?'
p1184
tp1185
Rp1186
tp1187
a(S'founder.org'
p1188
g2
(g6
S'u\xf9\xc5;\x16"\xd0?'
p1189
tp1190
Rp1191
tp1192
a(S'entrepreneurial finance'
p1193
g2
(g6
S'\xbe\xae\xfcA\xce \xd0?'
p1194
tp1195
Rp1196
tp1197
a(S'cybatar'
p1198
g2
(g6
S'/\x0b8^w\x1e\xd0?'
p1199
tp1200
Rp1201
tp1202
a(S'steve baxter (entrepreneur)'
p1203
g2
(g6
S'\x89\x11?\x0b\xe4\x19\xd0?'
p1204
tp1205
Rp1206
tp1207
a(S'joe maristela'
p1208
g2
(g6
S'X&\xe5N\xd8\x12\xd0?'
p1209
tp1210
Rp1211
tp1212
a(S'playground global'
p1213
g2
(g6
S'F\xa0(\xc9\x83\x0b\xd0?'
p1214
tp1215
Rp1216
tp1217
a(S'crowdcube'
p1218
g2
(g6
S'\xb5l\xee\xd8\x1f\n\xd0?'
p1219
tp1220
Rp1221
tp1222
a(S'kepler communications'
p1223
g2
(g6
S'S\xf8\xc4\xae\xf4\xfe\xcf?'
p1224
tp1225
Rp1226
tp1227
a(S'micah baldwin'
p1228
g2
(g6
S'\x94r\xcbk\xac\xec\xcf?'
p1229
tp1230
Rp1231
tp1232
a(S'dave rule'
p1233
g2
(g6
S'V-4l\xa0\xd8\xcf?'
p1234
tp1235
Rp1236
tp1237
a(S'seed money'
p1238
g2
(g6
S'\xf2^\xcf\x91L\xc3\xcf?'
p1239
tp1240
Rp1241
tp1242
a(S'printful'
p1243
g2
(g6
S'\xf3\xcf\xf8Z\xd9\xbe\xcf?'
p1244
tp1245
Rp1246
tp1247
a(S'seedinvest'
p1248
g2
(g6
S'\xd1#\xb6\tr\xb7\xcf?'
p1249
tp1250
Rp1251
tp1252
a(S'techcrunch'
p1253
g2
(g6
S'\xbe\x90\x06\xa2\xe1\x9f\xcf?'
p1254
tp1255
Rp1256
tp1257
a(S'shutl'
p1258
g2
(g6
S'\x82\x16k\xc6_\x93\xcf?'
p1259
tp1260
Rp1261
tp1262
a(S'crowdfunder'
p1263
g2
(g6
S'\x81\xad\xf8\xd4\x95\x8c\xcf?'
p1264
tp1265
Rp1266
tp1267
a(S'sketchfab'
p1268
g2
(g6
S'8_\xc1}\xa9t\xcf?'
p1269
tp1270
Rp1271
tp1272
a(S'teed'
p1273
g2
(g6
S'\xfb\x05\x8f1jq\xcf?'
p1274
tp1275
Rp1276
tp1277
a(S'sortlist'
p1278
g2
(g6
S'\xf5*\x8b\x90\xfao\xcf?'
p1279
tp1280
Rp1281
tp1282
a(S'teec angel fund'
p1283
g2
(g6
S'\x94\xec)i\xc0R\xcf?'
p1284
tp1285
Rp1286
tp1287
a(S'christoph gerlinger'
p1288
g2
(g6
S')\xe3Lf\xb9L\xcf?'
p1289
tp1290
Rp1291
tp1292
a(S'john manoogian iii'
p1293
g2
(g6
S'\x10\xfeL\xf6\x9fL\xcf?'
p1294
tp1295
Rp1296
tp1297
a(S'twentify'
p1298
g2
(g6
S'a\xea\xda\\\xd5;\xcf?'
p1299
tp1300
Rp1301
tp1302
a(S'silicon milkroundabout'
p1303
g2
(g6
S'.\x89^\x98<.\xcf?'
p1304
tp1305
Rp1306
tp1307
a(S'solopro'
p1308
g2
(g6
S"\xe0\r\x91\xb1-'\xcf?"
p1309
tp1310
Rp1311
tp1312
a(S'ourcrowd'
p1313
g2
(g6
S'\xdf\xcd\xdeR"!\xcf?'
p1314
tp1315
Rp1316
tp1317
a(S'entrepreneurship ecosystem'
p1318
g2
(g6
S'\xe3o\xf2\x07~\x1e\xcf?'
p1319
tp1320
Rp1321
tp1322
a(S'shuttlecloud'
p1323
g2
(g6
S'\x1c\xf0\xc6\xff\x12\x1d\xcf?'
p1324
tp1325
Rp1326
tp1327
a(S'fantain'
p1328
g2
(g6
S'\x04\x03_\x0e\xee\xfb\xce?'
p1329
tp1330
Rp1331
tp1332
a(S'innovation pavilion'
p1333
g2
(g6
S'\x10\xe4\xf3YB\xf7\xce?'
p1334
tp1335
Rp1336
tp1337
a(S'madfoo3atcom'
p1338
g2
(g6
S'\t\xd58\x99\xbe\xe1\xce?'
p1339
tp1340
Rp1341
tp1342
a(S'thibaud elziere'
p1343
g2
(g6
S'\xb2f\xe1D\xe4\xc3\xce?'
p1344
tp1345
Rp1346
tp1347
a(S'rajeshwar prasad'
p1348
g2
(g6
S'#\xf2\x7fd5\xbe\xce?'
p1349
tp1350
Rp1351
tp1352
a(S'hackerearth'
p1353
g2
(g6
S'\xf2t\x19\r\xb7\xbc\xce?'
p1354
tp1355
Rp1356
tp1357
a(S'sam altman'
p1358
g2
(g6
S'>\xe9\xe8\xcf\xc3\xba\xce?'
p1359
tp1360
Rp1361
tp1362
a(S'hatch (startup)'
p1363
g2
(g6
S'\xed\x97sd\x13\xa6\xce?'
p1364
tp1365
Rp1366
tp1367
a(S'agfunder'
p1368
g2
(g6
S'S\xf9\xda\x97B\xa2\xce?'
p1369
tp1370
Rp1371
tp1372
a(S'jumpstart our business startups act'
p1373
g2
(g6
S'\xcc\x97\x15\xdd\x8a\x9c\xce?'
p1374
tp1375
Rp1376
tp1377
a(S'soldsie'
p1378
g2
(g6
S'\xbd\xda\x0f\xcb%\x8f\xce?'
p1379
tp1380
Rp1381
tp1382
a(S'bill aulet'
p1383
g2
(g6
S'\xc4\xcf\xfaPN\x8c\xce?'
p1384
tp1385
Rp1386
tp1387
a(S'theventures'
p1388
g2
(g6
S'\xd1\xc9(\x13=\x82\xce?'
p1389
tp1390
Rp1391
tp1392
a(S'lamplight analytics'
p1393
g2
(g6
S'_\xab{\xfbJx\xce?'
p1394
tp1395
Rp1396
tp1397
a(S'phil morle'
p1398
g2
(g6
S"\xfd0O'\x8cv\xce?"
p1399
tp1400
Rp1401
tp1402
a(S'mobme'
p1403
g2
(g6
S'\x02\x1d\xc5\xa3\xf5t\xce?'
p1404
tp1405
Rp1406
tp1407
a(S'micro business in the philippines'
p1408
g2
(g6
S'\xc7!\xf5\x1f}c\xce?'
p1409
tp1410
Rp1411
tp1412
a(S'peter barrett (entrepreneur)'
p1413
g2
(g6
S'x\x04\x82\xdf\x14[\xce?'
p1414
tp1415
Rp1416
tp1417
a(S'rameet chawla'
p1418
g2
(g6
S'\x91\xcf\x14]\xfbJ\xce?'
p1419
tp1420
Rp1421
tp1422
a(S'sean ellis (entrepreneur)'
p1423
g2
(g6
S'L\x16D\xce\xb5H\xce?'
p1424
tp1425
Rp1426
tp1427
a(S'fidelis education'
p1428
g2
(g6
S'\xb7\xd3\xe6\x8e\xa9>\xce?'
p1429
tp1430
Rp1431
tp1432
a(S'unitus seed fund'
p1433
g2
(g6
S'j\x8e\xf7\xebN\x07\xce?'
p1434
tp1435
Rp1436
tp1437
a(S'segment (company)'
p1438
g2
(g6
S'k\x17m\xccf\xf9\xcd?'
p1439
tp1440
Rp1441
tp1442
a(S'comparison of crowdfunding services'
p1443
g2
(g6
S'\xaa\xdb2!\x0f\xc6\xcd?'
p1444
tp1445
Rp1446
tp1447
a(S'mit global startup workshop'
p1448
g2
(g6
S'i\xe5\xfb\xf3\x92\xa4\xcd?'
p1449
tp1450
Rp1451
tp1452
a(S'startup cult'
p1453
g2
(g6
S'PT\x08c{\xa0\xcd?'
p1454
tp1455
Rp1456
tp1457
a(S'the bouqs company'
p1458
g2
(g6
S'"\xf7@\x07>\x9c\xcd?'
p1459
tp1460
Rp1461
tp1462
a(S'duedil'
p1463
g2
(g6
S'\xb3MU\x8b\x13\x9a\xcd?'
p1464
tp1465
Rp1466
tp1467
a(S'chris mirabile'
p1468
g2
(g6
S'\xc2l>8\xd3\x99\xcd?'
p1469
tp1470
Rp1471
tp1472
a(S'pricena'
p1473
g2
(g6
S'\x8f\t\xf7\xe1\xc2d\xcd?'
p1474
tp1475
Rp1476
tp1477
a(S'msconfig'
p1478
g2
(g6
S'Ds\xa9\xcbb^\xcd?'
p1479
tp1480
Rp1481
tp1482
a(S'amit bohensky'
p1483
g2
(g6
S'\xf0\x15\xef0 5\xcd?'
p1484
tp1485
Rp1486
tp1487
a(S'bambi francisco'
p1488
g2
(g6
S'\xe3j;\x04\x961\xcd?'
p1489
tp1490
Rp1491
tp1492
a(S'roger jones (physicist)'
p1493
g2
(g6
S'\xd8j\x1e\x16\xc70\xcd?'
p1494
tp1495
Rp1496
tp1497
a(S'dalton caldwell'
p1498
g2
(g6
S'\x84j\xc4Fw(\xcd?'
p1499
tp1500
Rp1501
tp1502
a(S'vator'
p1503
g2
(g6
S'OwC0\x14\x17\xcd?'
p1504
tp1505
Rp1506
tp1507
a(S'portland incubator experiment'
p1508
g2
(g6
S'\x07\x8f\xee\x8f\xce\x15\xcd?'
p1509
tp1510
Rp1511
tp1512
a.