(lp0
(S'statistical classification'
p1
cnumpy.core.multiarray
scalar
p2
(cnumpy
dtype
p3
(S'f8'
p4
I0
I1
tp5
Rp6
(I3
S'<'
p7
NNNI-1
I-1
I0
tp8
bS'\x05\x00\x00\x00\x00\x00\xf0?'
p9
tp10
Rp11
tp12
a(S'pattern recognition'
p13
g2
(g6
S'\x88\x88\x059\xbf\xc6\xe2?'
p14
tp15
Rp16
tp17
a(S'linear classifier'
p18
g2
(g6
S'ST\xe7S\x810\xe2?'
p19
tp20
Rp21
tp22
a(S'multiclass classification'
p23
g2
(g6
S'x\xbc\xf5\xc4f\x14\xe2?'
p24
tp25
Rp26
tp27
a(S'support vector machine'
p28
g2
(g6
S'\x99\xc4\x8e\xb7\xa3\xb3\xde?'
p29
tp30
Rp31
tp32
a(S'classification'
p33
g2
(g6
S'`\x93=\x8f\xbc\x9a\xde?'
p34
tp35
Rp36
tp37
a(S'probabilistic classification'
p38
g2
(g6
S'\xe1\x8f5\x8a\x15\x95\xdd?'
p39
tp40
Rp41
tp42
a(S'document classification'
p43
g2
(g6
S'\x83\x9f\xe8z\xe78\xdd?'
p44
tp45
Rp46
tp47
a(S'multi-label classification'
p48
g2
(g6
S'\x997Nm\xbb\xcb\xdc?'
p49
tp50
Rp51
tp52
a(S'classifier chains'
p53
g2
(g6
S'\xe1E\x81\xb7\xfe6\xdc?'
p54
tp55
Rp56
tp57
a(S'data classification (business intelligence)'
p58
g2
(g6
S'\rY \x12\x0f3\xdc?'
p59
tp60
Rp61
tp62
a(S'perceptron'
p63
g2
(g6
S'&Y\xee`\x9f\xd2\xda?'
p64
tp65
Rp66
tp67
a(S'supervised learning'
p68
g2
(g6
S'\xe2\xdbu\xb5\xc7e\xda?'
p69
tp70
Rp71
tp72
a(S'multispectral pattern recognition'
p73
g2
(g6
S"\x1f/<\xd1':\xda?"
p74
tp75
Rp76
tp77
a(S'feature (machine learning)'
p78
g2
(g6
S'\xa7\xd4\xc0\xd4\xb9\x16\xda?'
p79
tp80
Rp81
tp82
a(S'nearest centroid classifier'
p83
g2
(g6
S'\xe6\x1c\xbe\xfe\xbf\xf6\xd9?'
p84
tp85
Rp86
tp87
a(S'library classification'
p88
g2
(g6
S'R\xb5\x9f \xb8w\xd9?'
p89
tp90
Rp91
tp92
a(S'classifier'
p93
g2
(g6
S'\xf2\x04\xd1vc8\xd9?'
p94
tp95
Rp96
tp97
a(S'adaboost'
p98
g2
(g6
S'\xde\xd1\xffu\x816\xd9?'
p99
tp100
Rp101
tp102
a(S'mlpy'
p103
g2
(g6
S'[\xe3^\xb6%\xfb\xd8?'
p104
tp105
Rp106
tp107
a(S'quadratic classifier'
p108
g2
(g6
S'\xd4\xb4\xc1\x9c\xe5\xf7\xd8?'
p109
tp110
Rp111
tp112
a(S'volleyball at the 2009 summer universiade \xe2\x80\x93 men'
p113
g2
(g6
S'\x86r\xb2\t\xdc\xcc\xd8?'
p114
tp115
Rp116
tp117
a(S'team classification'
p118
g2
(g6
S'/r2g \xc0\xd8?'
p119
tp120
Rp121
tp122
a(S'bayes classifier'
p123
g2
(g6
S'\xa6\xf2\xd5\xd5u\xa0\xd8?'
p124
tp125
Rp126
tp127
a(S'list of machine learning concepts'
p128
g2
(g6
S'\x1b\x94\xb8\xd6\xa7\x9e\xd8?'
p129
tp130
Rp131
tp132
a(S'multinomial logistic regression'
p133
g2
(g6
S';(\xe0\xfa,\x9c\xd8?'
p134
tp135
Rp136
tp137
a(S'classifier (uml)'
p138
g2
(g6
S'\x12\x18S9\xc2R\xd8?'
p139
tp140
Rp141
tp142
a(S'naive bayes classifier'
p143
g2
(g6
S'\xb2\xd0M\x04\xe9\xf6\xd7?'
p144
tp145
Rp146
tp147
a(S'coboosting'
p148
g2
(g6
S'\xfa\xd0\xcf\xd0\x0e\xf6\xd7?'
p149
tp150
Rp151
tp152
a(S'machine learning'
p153
g2
(g6
S'\x0e\xae>\xb2\x18\xa3\xd7?'
p154
tp155
Rp156
tp157
a(S'classification rule'
p158
g2
(g6
S'A!8~\xaa\x86\xd7?'
p159
tp160
Rp161
tp162
a(S'chinese classifier'
p163
g2
(g6
S'\xce]<q\x8aP\xd7?'
p164
tp165
Rp166
tp167
a(S'boosting (machine learning)'
p168
g2
(g6
S'\xd9\x9eG\xb67)\xd7?'
p169
tp170
Rp171
tp172
a(S'ensembles of classifiers'
p173
g2
(g6
S'?4X\xb0\xcd\x18\xd7?'
p174
tp175
Rp176
tp177
a(S'office of film and literature classification'
p178
g2
(g6
S'\xbc\xa8NLO\xba\xd6?'
p179
tp180
Rp181
tp182
a(S'scientific classification (disambiguation)'
p183
g2
(g6
S'6A\xe2\xaby\xb6\xd6?'
p184
tp185
Rp186
tp187
a(S'classification chart'
p188
g2
(g6
S'\x99K+\xe8\x1e\xaa\xd6?'
p189
tp190
Rp191
tp192
a(S'platt scaling'
p193
g2
(g6
S'-t\xfc\xde\x17\x96\xd6?'
p194
tp195
Rp196
tp197
a(S'margin classifier'
p198
g2
(g6
S'n\x93\x9d\x80cq\xd6?'
p199
tp200
Rp201
tp202
a(S'statistical learning theory'
p203
g2
(g6
S'P\xe2\x82E~L\xd6?'
p204
tp205
Rp206
tp207
a(S'least squares support vector machine'
p208
g2
(g6
S'+T\x9a\xb2_1\xd6?'
p209
tp210
Rp211
tp212
a(S'taxonomy'
p213
g2
(g6
S'\x17\x8f\xe8\xf2_\xf7\xd5?'
p214
tp215
Rp216
tp217
a(S'climate classification'
p218
g2
(g6
S'\x8d\xfd+\xca\xbf\xe9\xd5?'
p219
tp220
Rp221
tp222
a(S't41 (classification)'
p223
g2
(g6
S'\xf4\xff\xd3\xacw\xa7\xd5?'
p224
tp225
Rp226
tp227
a(S'lpboost'
p228
g2
(g6
S'\x1c\xb3\x95\xa1t\x84\xd5?'
p229
tp230
Rp231
tp232
a(S'social history and industrial classification'
p233
g2
(g6
S'\xb7\xd4\xb3z]\x7f\xd5?'
p234
tp235
Rp236
tp237
a(S'bayes error rate'
p238
g2
(g6
S'\xa4{\x9fG\x0ex\xd5?'
p239
tp240
Rp241
tp242
a(S'2015 energiewacht tour'
p243
g2
(g6
S'J\x90jj\x1ej\xd5?'
p244
tp245
Rp246
tp247
a(S'classification research group'
p248
g2
(g6
S'x\x8c\xf7V\x04i\xd5?'
p249
tp250
Rp251
tp252
a(S'one-class classification'
p253
g2
(g6
S',\xdc\xad\r\x9ab\xd5?'
p254
tp255
Rp256
tp257
a(S'wheelchair basketball classification'
p258
g2
(g6
S'\xa0L\xf0*\x85M\xd5?'
p259
tp260
Rp261
tp262
a(S'binary classification'
p263
g2
(g6
S'\xdeX\xf4\xa1O*\xd5?'
p264
tp265
Rp266
tp267
a(S'0-6-2+2-6-0'
p268
g2
(g6
S'=\xb5\x17!\xea"\xd5?'
p269
tp270
Rp271
tp272
a(S'averaged one-dependence estimators'
p273
g2
(g6
S'\xfd+\x9e\xba\xc7 \xd5?'
p274
tp275
Rp276
tp277
a(S'classification theorem'
p278
g2
(g6
S'\xf0\xad\xcc\x1d\xa2\x1f\xd5?'
p279
tp280
Rp281
tp282
a(S'classifier handshape'
p283
g2
(g6
S'\x1a\xbb`\xf4d\x1d\xd5?'
p284
tp285
Rp286
tp287
a(S'classifier (linguistics)'
p288
g2
(g6
S'\x0f\xee\x18\x0bB\x1c\xd5?'
p289
tp290
Rp291
tp292
a(S'tour of siam'
p293
g2
(g6
S'\xbd\x10\x19{\xd0\x15\xd5?'
p294
tp295
Rp296
tp297
a(S'para-athletics classification'
p298
g2
(g6
S'\xb1\xf8\x17\x82\xbd\xfa\xd4?'
p299
tp300
Rp301
tp302
a(S'global classification'
p303
g2
(g6
S'}\xea\x8f\xf8\xcb\xf7\xd4?'
p304
tp305
Rp306
tp307
a(S'k-nearest neighbors algorithm'
p308
g2
(g6
S'\x84s\xfdyF\xf2\xd4?'
p309
tp310
Rp311
tp312
a(S'cascading classifiers'
p313
g2
(g6
S'\xd3\x00\x1b\xe6\xdb\xee\xd4?'
p314
tp315
Rp316
tp317
a(S'hierarchical classifier'
p318
g2
(g6
S'}\xf5\xde\x97\x8a\xd7\xd4?'
p319
tp320
Rp321
tp322
a(S'william stetson merrill'
p323
g2
(g6
S'\xbd*x9n\xd0\xd4?'
p324
tp325
Rp326
tp327
a(S'c1 (classification)'
p328
g2
(g6
S'Z\x17\xd5\xdc5\xb1\xd4?'
p329
tp330
Rp331
tp332
a(S'disability classification in sailing'
p333
g2
(g6
S'\x97\xcd;\xc8]\xae\xd4?'
p334
tp335
Rp336
tp337
a(S'heuristiclab'
p338
g2
(g6
S'\xa7\n\xea\xa6}\xa8\xd4?'
p339
tp340
Rp341
tp342
a(S'relevance vector machine'
p343
g2
(g6
S'\x99\x8b\xf3\x14L\xa1\xd4?'
p344
tp345
Rp346
tp347
a(S'arw2'
p348
g2
(g6
S'\xffk\xd3\xe5\x08\x92\xd4?'
p349
tp350
Rp351
tp352
a(S'international patent classification'
p353
g2
(g6
S'+\xbdQ\xc4\xbd\x8c\xd4?'
p354
tp355
Rp356
tp357
a(S'feature learning'
p358
g2
(g6
S'\xc3\xc1/\xa1,i\xd4?'
p359
tp360
Rp361
tp362
a(S'co-training'
p363
g2
(g6
S'\xf6iAn\xe1R\xd4?'
p364
tp365
Rp366
tp367
a(S't2 (classification)'
p368
g2
(g6
S's\xe2\x92\xcaVQ\xd4?'
p369
tp370
Rp371
tp372
a(S'c2 (classification)'
p373
g2
(g6
S'1\xbe\x17\x8c\x93:\xd4?'
p374
tp375
Rp376
tp377
a(S'australian and new zealand standard research classification'
p378
g2
(g6
S'1n\x92\xe0F8\xd4?'
p379
tp380
Rp381
tp382
a(S'faceted classification'
p383
g2
(g6
S'P\x19\xa1\xb9\xd1\x13\xd4?'
p384
tp385
Rp386
tp387
a(S'v1 (classification)'
p388
g2
(g6
S'Z\xc61i\x90\x00\xd4?'
p389
tp390
Rp391
tp392
a(S'international classification of primary care'
p393
g2
(g6
S'\x83k\xd6\xa1\x9d\xf3\xd3?'
p394
tp395
Rp396
tp397
a(S"volleyball at the 2011 summer universiade \xe2\x80\x93 men's tournament"
p398
g2
(g6
S']i\xd2\x01\x8e\xdc\xd3?'
p399
tp400
Rp401
tp402
a(S'football 7-a-side classification'
p403
g2
(g6
S'\xcf(R\x0e\x14\xda\xd3?'
p404
tp405
Rp406
tp407
a(S'mountains classification in the vuelta a espa\xc3\xb1a'
p408
g2
(g6
S'\x92\r\xceB\x9a\xc9\xd3?'
p409
tp410
Rp411
tp412
a(S's13 (classification)'
p413
g2
(g6
S'\x88\x1c\x15\x87\xad\xb7\xd3?'
p414
tp415
Rp416
tp417
a(S's12 (classification)'
p418
g2
(g6
S'\x94I}\xe6\x1f\xb3\xd3?'
p419
tp420
Rp421
tp422
a(S'c5 (classification)'
p423
g2
(g6
S'P\x8d\x85H\x10\xb2\xd3?'
p424
tp425
Rp426
tp427
a(S't40 (classification)'
p428
g2
(g6
S'\xb6\x1cU\x8eU\xa4\xd3?'
p429
tp430
Rp431
tp432
a(S'b3 (classification)'
p433
g2
(g6
S'D\x1e\x13f\xcd\x99\xd3?'
p434
tp435
Rp436
tp437
a(S'sitting volleyball classification'
p438
g2
(g6
S'u\xd8\xd4\xf3\x81\x95\xd3?'
p439
tp440
Rp441
tp442
a(S'b1 (classification)'
p443
g2
(g6
S'>\x84TM\xc5\x92\xd3?'
p444
tp445
Rp446
tp447
a(S'margin (machine learning)'
p448
g2
(g6
S'r\x99\xaa\xca\xe0\x90\xd3?'
p449
tp450
Rp451
tp452
a(S'european classification'
p453
g2
(g6
S'p\x98\x89\x0e\xa6q\xd3?'
p454
tp455
Rp456
tp457
a(S"water polo at the 2004 summer olympics \xe2\x80\x93 men's tournament"
p458
g2
(g6
S'\xd5G\xb4\x1c\xe4g\xd3?'
p459
tp460
Rp461
tp462
a(S'prior knowledge for pattern recognition'
p463
g2
(g6
S'r\x06\x1a]\xddg\xd3?'
p464
tp465
Rp466
tp467
a(S'b2 (classification)'
p468
g2
(g6
S'\xc58\xafmqd\xd3?'
p469
tp470
Rp471
tp472
a(S'learning classifier system'
p473
g2
(g6
S'&U\x08\xb5>d\xd3?'
p474
tp475
Rp476
tp477
a(S'1999 vuelta a venezuela'
p478
g2
(g6
S'\xc4\x1e\x90\x18\x13V\xd3?'
p479
tp480
Rp481
tp482
a(S'h4 (classification)'
p483
g2
(g6
S'\xdc\xe7\x96\x8eHM\xd3?'
p484
tp485
Rp486
tp487
a(S'wheelchair fencing classification'
p488
g2
(g6
S'\xf0\x12n\x9b\x1b<\xd3?'
p489
tp490
Rp491
tp492
a(S'2-4-4-0'
p493
g2
(g6
S'\xdc\xd5\xae\xa3\xf2:\xd3?'
p494
tp495
Rp496
tp497
a(S'junkeer classification'
p498
g2
(g6
S'\x9c\x89|m\xff7\xd3?'
p499
tp500
Rp501
tp502
a(S'event detection for wsn'
p503
g2
(g6
S'D\x13?\xa4\xae\x1b\xd3?'
p504
tp505
Rp506
tp507
a(S'bc4'
p508
g2
(g6
S'f=\xdfa~\r\xd3?'
p509
tp510
Rp511
tp512
a(S'jack mills (classification researcher)'
p513
g2
(g6
S'Gn\xff^\xdb\x03\xd3?'
p514
tp515
Rp516
tp517
a(S"combination classification in the giro d'italia"
p518
g2
(g6
S'\xd8\xb3\x82\x8e\x1e\x00\xd3?'
p519
tp520
Rp521
tp522
a(S'instance-based learning'
p523
g2
(g6
S'\xa6\t\xcf\xb7\xa0\xf7\xd2?'
p524
tp525
Rp526
tp527
a(S'0-4-4-2'
p528
g2
(g6
S'\xc96\xfb\x19r\xf6\xd2?'
p529
tp530
Rp531
tp532
a(S'arw1'
p533
g2
(g6
S'\x0f\x92\xf3\x95\x05\xf1\xd2?'
p534
tp535
Rp536
tp537
a(S'ensemble learning'
p538
g2
(g6
S'0(\tB\xfe\xef\xd2?'
p539
tp540
Rp541
tp542
a(S'disability classification in table tennis'
p543
g2
(g6
S'>\xa9\xb0kM\xe6\xd2?'
p544
tp545
Rp546
tp547
a(S'2008 vuelta a venezuela'
p548
g2
(g6
S'\x7f+\x08h\x1f\xe5\xd2?'
p549
tp550
Rp551
tp552
a(S'para-swimming classification'
p553
g2
(g6
S'Y\xac\xbcdf\xe1\xd2?'
p554
tp555
Rp556
tp557
a(S'0-8-6'
p558
g2
(g6
S'\xce\x0c(\x8d`\xe0\xd2?'
p559
tp560
Rp561
tp562
a(S'viola\xe2\x80\x93jones object detection framework'
p563
g2
(g6
S'\xebH\x88\xa6\xa7\xcc\xd2?'
p564
tp565
Rp566
tp567
a(S'2006 vuelta ciclista de chile'
p568
g2
(g6
S'P1\xcf\xce\x1e\xa3\xd2?'
p569
tp570
Rp571
tp572
a(S'h5 (classification)'
p573
g2
(g6
S'\xbd\xd9\xcc\xfa|\xa2\xd2?'
p574
tp575
Rp576
tp577
a(S'multiple-instance learning'
p578
g2
(g6
S'\xf3\xe4\xdd\xe7,\x8b\xd2?'
p579
tp580
Rp581
tp582
a(S'calibration (statistics)'
p583
g2
(g6
S'\xb0\xde<\x04\x8e\x7f\xd2?'
p584
tp585
Rp586
tp587
a(S'feature selection'
p588
g2
(g6
S'o\xfe\x0f\x86\xa8z\xd2?'
p589
tp590
Rp591
tp592
a(S'2016 presidential tour of turkey'
p593
g2
(g6
S'\xd8\x8c\\\xeb\x06m\xd2?'
p594
tp595
Rp596
tp597
a(S'adversarial machine learning'
p598
g2
(g6
S't\xd0\xc4\xb0\x00k\xd2?'
p599
tp600
Rp601
tp602
a(S'icpc-2 plus'
p603
g2
(g6
S'\xeaT\xfbU\xe8]\xd2?'
p604
tp605
Rp606
tp607
a(S't35 (classification)'
p608
g2
(g6
S'id\x8e \r\\\xd2?'
p609
tp610
Rp611
tp612
a(S'h2 (classification)'
p613
g2
(g6
S'%\x08[\x8e\xfdO\xd2?'
p614
tp615
Rp616
tp617
a(S'learning vector quantization'
p618
g2
(g6
S'\x81\xfb\xe6\xdfpO\xd2?'
p619
tp620
Rp621
tp622
a(S'international classification of procedures in medicine'
p623
g2
(g6
S'c\xd4,\xf2\x06=\xd2?'
p624
tp625
Rp626
tp627
a(S'data classification (data management)'
p628
g2
(g6
S'\xf2\x011\x8f\x87<\xd2?'
p629
tp630
Rp631
tp632
a(S'linear predictor function'
p633
g2
(g6
S']\x9d\x1a[)6\xd2?'
p634
tp635
Rp636
tp637
a(S'sledge racing classification'
p638
g2
(g6
S'\xdc\xb4+3T.\xd2?'
p639
tp640
Rp641
tp642
a(S'points classification in the vuelta a espa\xc3\xb1a'
p643
g2
(g6
S'\x81=N\xe6\xf6*\xd2?'
p644
tp645
Rp646
tp647
a(S'winnow (algorithm)'
p648
g2
(g6
S'\xd8\x03G\x9d\x18\x17\xd2?'
p649
tp650
Rp651
tp652
a(S'structured support vector machine'
p653
g2
(g6
S'\xe7\xf2\xcd\x95k\x14\xd2?'
p654
tp655
Rp656
tp657
a(S'relief (feature selection)'
p658
g2
(g6
S'<\xde\xd2wj\r\xd2?'
p659
tp660
Rp661
tp662
a(S'2016 vuelta a espa\xc3\xb1a'
p663
g2
(g6
S'c\xba\x84\xbbE\n\xd2?'
p664
tp665
Rp666
tp667
a(S'2002 vuelta a colombia'
p668
g2
(g6
S'\xa6(\x86\xf6\xb0\x06\xd2?'
p669
tp670
Rp671
tp672
a(S'1999 vuelta ciclista de chile'
p673
g2
(g6
S'^\x06\xe5\x94\xa6\xfd\xd1?'
p674
tp675
Rp676
tp677
a(S'paralympic powerlifting classification'
p678
g2
(g6
S';uN\xf0\xea\xfb\xd1?'
p679
tp680
Rp681
tp682
a(S'1999 vuelta a colombia'
p683
g2
(g6
S'>\xe9W\xed\xd9\xfb\xd1?'
p684
tp685
Rp686
tp687
a(S'deductive classifier'
p688
g2
(g6
S'\tS\x00M\x8a\xe9\xd1?'
p689
tp690
Rp691
tp692
a(S'2009\xe2\x80\x9310 tff second league'
p693
g2
(g6
S'^3H\x05R\xe8\xd1?'
p694
tp695
Rp696
tp697
a(S'1945 vuelta a espa\xc3\xb1a'
p698
g2
(g6
S'\x12\x96\xdag\xde\xe5\xd1?'
p699
tp700
Rp701
tp702
a(S'2016 tour of slovenia'
p703
g2
(g6
S'u\xa1(\x860\xe3\xd1?'
p704
tp705
Rp706
tp707
a(S'linear regression'
p708
g2
(g6
S'\xc3\x14\x86P\xac\xd6\xd1?'
p709
tp710
Rp711
tp712
a(S'arst'
p713
g2
(g6
S'\xe8L\xc9E\xc7\xcc\xd1?'
p714
tp715
Rp716
tp717
a(S'2016 tour of croatia'
p718
g2
(g6
S'\x16\'?"\xce\xc8\xd1?'
p719
tp720
Rp721
tp722
a(S'linear discriminant analysis'
p723
g2
(g6
S'\xa5 \x8b\x1a\x03\xc3\xd1?'
p724
tp725
Rp726
tp727
a(S'algorithm selection'
p728
g2
(g6
S'\x82\xb3Zw=\xc2\xd1?'
p729
tp730
Rp731
tp732
a(S'2007 vuelta a colombia'
p733
g2
(g6
S'gx\xc4\x8ev\xbf\xd1?'
p734
tp735
Rp736
tp737
a(S'2016 tour of norway'
p738
g2
(g6
S'3\x0b[E\xbb\xb4\xd1?'
p739
tp740
Rp741
tp742
a(S'2005 vuelta a colombia'
p743
g2
(g6
S'\xa6\x9b=\x92w\xb1\xd1?'
p744
tp745
Rp746
tp747
a(S'2010 tour de suisse'
p748
g2
(g6
S'&\xcc\xd6N\x85\xaf\xd1?'
p749
tp750
Rp751
tp752
a(S'2-12-2'
p753
g2
(g6
S'\x9bh\x04\x1a\xfd\x9e\xd1?'
p754
tp755
Rp756
tp757
a(S'para-shooting classification'
p758
g2
(g6
S'\xc8\xab:]\xab\x9b\xd1?'
p759
tp760
Rp761
tp762
a(S'yooreeka'
p763
g2
(g6
S'\x82\xfeSA\x8b\x98\xd1?'
p764
tp765
Rp766
tp767
a(S'logistic regression'
p768
g2
(g6
S'Ac\x1c\xfa\xff\x8f\xd1?'
p769
tp770
Rp771
tp772
a(S'north american industry classification system'
p773
g2
(g6
S'\xb9\xb50X\xa4\x8d\xd1?'
p774
tp775
Rp776
tp777
a(S'2000 vuelta ciclista de chile'
p778
g2
(g6
S'w\xcb\x14\xf4d\x89\xd1?'
p779
tp780
Rp781
tp782
a(S'online machine learning'
p783
g2
(g6
S'AE}DLx\xd1?'
p784
tp785
Rp786
tp787
a(S'2016 tour de hongrie'
p788
g2
(g6
S'\xbd\xb8b*\x7fr\xd1?'
p789
tp790
Rp791
tp792
a(S'bc2 (classification)'
p793
g2
(g6
S'[M\x90+\x91o\xd1?'
p794
tp795
Rp796
tp797
a(S'softmax function'
p798
g2
(g6
S'\x83\xeb\x14\xb9\x89m\xd1?'
p799
tp800
Rp801
tp802
a(S'boccia classification'
p803
g2
(g6
S'\x7f\xd6\x9a\xad[k\xd1?'
p804
tp805
Rp806
tp807
a(S'research i university'
p808
g2
(g6
S'V\xf6\xaa\x1e\x12k\xd1?'
p809
tp810
Rp811
tp812
a(S'2010 holland ladies tour'
p813
g2
(g6
S'm6\x1c\xc80h\xd1?'
p814
tp815
Rp816
tp817
a(S'1992 vuelta a colombia'
p818
g2
(g6
S'7\x0e\xeaf\x00g\xd1?'
p819
tp820
Rp821
tp822
a(S'central product classification'
p823
g2
(g6
S'C6\xeb\xb7\x88f\xd1?'
p824
tp825
Rp826
tp827
a(S'massive online analysis'
p828
g2
(g6
S'\x83\xd4\xec9\xe6c\xd1?'
p829
tp830
Rp831
tp832
a(S'algorithm'
p833
g2
(g6
S'\x89\xf4!\xf3\x9d`\xd1?'
p834
tp835
Rp836
tp837
a(S'2000 vuelta a colombia'
p838
g2
(g6
S"\x11\xd0'\xa0\x85]\xd1?"
p839
tp840
Rp841
tp842
a(S'dewey decimal classification'
p843
g2
(g6
S'\xbcK\x8a\xe13Q\xd1?'
p844
tp845
Rp846
tp847
a(S'para-archery classification'
p848
g2
(g6
S'\xbd\x0fu\x12\xbbP\xd1?'
p849
tp850
Rp851
tp852
a(S'2016 crit\xc3\xa9rium du dauphin\xc3\xa9'
p853
g2
(g6
S'\x98`\x7f`\xfbM\xd1?'
p854
tp855
Rp856
tp857
a(S'4-6-4-4'
p858
g2
(g6
S'*\xaa\x7f)\xe1B\xd1?'
p859
tp860
Rp861
tp862
a(S'paradigm classification'
p863
g2
(g6
S'N\xf9\x9e\x8f\x06A\xd1?'
p864
tp865
Rp866
tp867
a(S'procedure code'
p868
g2
(g6
S'\xfe\xa8\xb6\xa1\x87<\xd1?'
p869
tp870
Rp871
tp872
a(S'c4 (classification)'
p873
g2
(g6
S'Q"\xa2W\xa69\xd1?'
p874
tp875
Rp876
tp877
a(S'2003 vuelta ciclista de chile'
p878
g2
(g6
S')z\xb92\xe16\xd1?'
p879
tp880
Rp881
tp882
a(S't47 (classification)'
p883
g2
(g6
S'\xcc]\x9aT.,\xd1?'
p884
tp885
Rp886
tp887
a(S'1998 vuelta a colombia'
p888
g2
(g6
S'_\xe8\x9e\xd5\x93*\xd1?'
p889
tp890
Rp891
tp892
a(S'jubatus'
p893
g2
(g6
S"op\xc4\xcd\x9a'\xd1?"
p894
tp895
Rp896
tp897
a(S'kernel method'
p898
g2
(g6
S'\xd7\x15\r\xd4\x02&\xd1?'
p899
tp900
Rp901
tp902
a(S'nankali post and core classification'
p903
g2
(g6
S'\x96\x19\x14E\xe2%\xd1?'
p904
tp905
Rp906
tp907
a(S'1993 vuelta a colombia'
p908
g2
(g6
S'@RZ\xa3I \xd1?'
p909
tp910
Rp911
tp912
a(S'football 5-a-side classification'
p913
g2
(g6
S'\x1bJ\xf7\x9eS\x1c\xd1?'
p914
tp915
Rp916
tp917
a(S'2008 vuelta a colombia'
p918
g2
(g6
S'\xe7\x1e\xcf7>\x12\xd1?'
p919
tp920
Rp921
tp922
a(S'disability sport classification'
p923
g2
(g6
S'\xc8lH\r{\x0e\xd1?'
p924
tp925
Rp926
tp927
a(S'2004 vuelta ciclista de chile'
p928
g2
(g6
S'\xb9\xf9\xbc\x12\xe3\x04\xd1?'
p929
tp930
Rp931
tp932
a(S'2003 vuelta a colombia'
p933
g2
(g6
S'\x81\x88f\xff!\x00\xd1?'
p934
tp935
Rp936
tp937
a(S'h3 (classification)'
p938
g2
(g6
S'\xa1\x1f\x1c\x83\xa2\xf6\xd0?'
p939
tp940
Rp941
tp942
a(S'6-8-6'
p943
g2
(g6
S'G\xe4:\x7fx\xf5\xd0?'
p944
tp945
Rp946
tp947
a(S'ordinal regression'
p948
g2
(g6
S'\x9fSd\xbaO\xf4\xd0?'
p949
tp950
Rp951
tp952
a(S'industry classification'
p953
g2
(g6
S'\xc0L\x8a\x0b\xad\xf3\xd0?'
p954
tp955
Rp956
tp957
a(S'contextual image classification'
p958
g2
(g6
S'\x15u\x12.\x08\xee\xd0?'
p959
tp960
Rp961
tp962
a(S'stability (learning theory)'
p963
g2
(g6
S'f>g\x82\xac\xed\xd0?'
p964
tp965
Rp966
tp967
a(S'weighted majority algorithm'
p968
g2
(g6
S'\xa0%\x19\x03K\xea\xd0?'
p969
tp970
Rp971
tp972
a(S'semi-supervised learning'
p973
g2
(g6
S'\x07\xf9\x13\xe7J\xe6\xd0?'
p974
tp975
Rp976
tp977
a(S'tour of \xc3\x87anakkale'
p978
g2
(g6
S'\xdd\x81-3F\xdd\xd0?'
p979
tp980
Rp981
tp982
a(S'2003 vuelta a venezuela'
p983
g2
(g6
S'>H\x1a>\x83\xd1\xd0?'
p984
tp985
Rp986
tp987
a(S"2014 giro d'italia"
p988
g2
(g6
S'H\x18\x1e\xd1\xb6\xce\xd0?'
p989
tp990
Rp991
tp992
a(S'nazim bak\xc4\xb1rc\xc4\xb1'
p993
g2
(g6
S'(!\x92u\xf6\xcb\xd0?'
p994
tp995
Rp996
tp997
a(S't45 (classification)'
p998
g2
(g6
S'\xab\xff\x95\x82\xb2\xcb\xd0?'
p999
tp1000
Rp1001
tp1002
a(S'1995 vuelta a colombia'
p1003
g2
(g6
S'\x15k\xcf\x06\xcd\xc3\xd0?'
p1004
tp1005
Rp1006
tp1007
a(S'2010 tour of britain'
p1008
g2
(g6
S'\xd9\xa8\xfa\xb1_\xb9\xd0?'
p1009
tp1010
Rp1011
tp1012
a(S'one-shot learning'
p1013
g2
(g6
S'\xde\xd4Re\x05\xb8\xd0?'
p1014
tp1015
Rp1016
tp1017
a(S'weka (machine learning)'
p1018
g2
(g6
S'l\x8c\xd9H\xc4\xb7\xd0?'
p1019
tp1020
Rp1021
tp1022
a(S'deep learning'
p1023
g2
(g6
S'\x8e\x00\r\x02\x10\xb6\xd0?'
p1024
tp1025
Rp1026
tp1027
a(S'optimal discriminant analysis'
p1028
g2
(g6
S'\xd7\xc5Q\x03\x83\xb3\xd0?'
p1029
tp1030
Rp1031
tp1032
a(S'2007 vuelta a venezuela'
p1033
g2
(g6
S'7\xe1\x9f\xe1\xad\xaf\xd0?'
p1034
tp1035
Rp1036
tp1037
a(S'2015 tour of norway'
p1038
g2
(g6
S'k\xbf\xed\x96\xe1\xae\xd0?'
p1039
tp1040
Rp1041
tp1042
a(S'2006 vuelta a colombia'
p1043
g2
(g6
S'\xd1Ib\xba\xb1\xad\xd0?'
p1044
tp1045
Rp1046
tp1047
a(S'multiple instance learning'
p1048
g2
(g6
S':i\x05~\xb8\xaa\xd0?'
p1049
tp1050
Rp1051
tp1052
a(S'para-cycling classification'
p1053
g2
(g6
S'\xb7\xc2\x06g\xce\xa9\xd0?'
p1054
tp1055
Rp1056
tp1057
a(S'2-4-6'
p1058
g2
(g6
S'\xbc!l\xd7g\xa7\xd0?'
p1059
tp1060
Rp1061
tp1062
a(S'1999 cl\xc3\xa1sico rcn'
p1063
g2
(g6
S'\xa9\xc6j\xcc\x07\x9b\xd0?'
p1064
tp1065
Rp1066
tp1067
a(S'2001 vuelta a venezuela'
p1068
g2
(g6
S'\xc23H\x7f\xfb\x98\xd0?'
p1069
tp1070
Rp1071
tp1072
a(S'conditional random field'
p1073
g2
(g6
S'K\xfbE\xa3\x99\x97\xd0?'
p1074
tp1075
Rp1076
tp1077
a(S'types of artificial neural networks'
p1078
g2
(g6
S'\xc1+\x11\x186\x97\xd0?'
p1079
tp1080
Rp1081
tp1082
a(S'2006 vuelta a venezuela'
p1083
g2
(g6
S'\xa2\xae\x1cJ\x84\x90\xd0?'
p1084
tp1085
Rp1086
tp1087
a(S'list of datasets for machine learning research'
p1088
g2
(g6
S'\xfc\x16\xf6\\y\x90\xd0?'
p1089
tp1090
Rp1091
tp1092
a(S'decision boundary'
p1093
g2
(g6
S' m+\xdc\x17\x80\xd0?'
p1094
tp1095
Rp1096
tp1097
a(S'disability classification in judo'
p1098
g2
(g6
S'4o\x12\xb6\xcdx\xd0?'
p1099
tp1100
Rp1101
tp1102
a(S'decision tree learning'
p1103
g2
(g6
S'"L\xa5q`x\xd0?'
p1104
tp1105
Rp1106
tp1107
a(S'wheelchair sport classification'
p1108
g2
(g6
S'{=_\xe9eq\xd0?'
p1109
tp1110
Rp1111
tp1112
a(S'young rider classification in the tour de france'
p1113
g2
(g6
S'\x8a\xe3\xa7b\x8co\xd0?'
p1114
tp1115
Rp1116
tp1117
a(S'2000 vuelta a venezuela'
p1118
g2
(g6
S'\xfaM\x10\x94ua\xd0?'
p1119
tp1120
Rp1121
tp1122
a(S'team classification in the tour de france'
p1123
g2
(g6
S'\x86L\xd6\x994a\xd0?'
p1124
tp1125
Rp1126
tp1127
a(S'scikit-learn'
p1128
g2
(g6
S'\x08\xfa\xc5\xb7\xbbV\xd0?'
p1129
tp1130
Rp1131
tp1132
a(S'feature scaling'
p1133
g2
(g6
S'tI\xa9\xfcvR\xd0?'
p1134
tp1135
Rp1136
tp1137
a(S'vowpal wabbit'
p1138
g2
(g6
S'\x95\x84\xf1\x17\xfcQ\xd0?'
p1139
tp1140
Rp1141
tp1142
a(S'2012 baltic chain tour'
p1143
g2
(g6
S'\x97\xf8\x0b\x8cSF\xd0?'
p1144
tp1145
Rp1146
tp1147
a(S'north american product classification system'
p1148
g2
(g6
S'j7\xd8\xc3\xbdD\xd0?'
p1149
tp1150
Rp1151
tp1152
a(S'test set'
p1153
g2
(g6
S'\xb2\x80\x9a\xe0qB\xd0?'
p1154
tp1155
Rp1156
tp1157
a(S'large margin nearest neighbor'
p1158
g2
(g6
S'f\x9a\x16\x01\x80@\xd0?'
p1159
tp1160
Rp1161
tp1162
a(S'2009 vuelta a venezuela'
p1163
g2
(g6
S'"u_\x0c\xee;\xd0?'
p1164
tp1165
Rp1166
tp1167
a(S'2013 baltic chain tour'
p1168
g2
(g6
S'\x84\xdc{s\x9d;\xd0?'
p1169
tp1170
Rp1171
tp1172
a(S't32 (classification)'
p1173
g2
(g6
S'\x9c\xaa\x0f\x13\xff5\xd0?'
p1174
tp1175
Rp1176
tp1177
a(S'ta2x'
p1178
g2
(g6
S'\x95\xd0\x91\x1d\x91,\xd0?'
p1179
tp1180
Rp1181
tp1182
a(S'b4 (classification)'
p1183
g2
(g6
S'\xee\xbd\x07C\xb0+\xd0?'
p1184
tp1185
Rp1186
tp1187
a(S'vc dimension'
p1188
g2
(g6
S'\x82v*\xb2\x1a+\xd0?'
p1189
tp1190
Rp1191
tp1192
a(S'soft independent modelling of class analogies'
p1193
g2
(g6
S'\xf1*\xff\xf3\xe6$\xd0?'
p1194
tp1195
Rp1196
tp1197
a(S'wheelchair rugby classification'
p1198
g2
(g6
S'\x91\xfd\xd2s^$\xd0?'
p1199
tp1200
Rp1201
tp1202
a(S'accident classification'
p1203
g2
(g6
S'!EP\xe7\xa0\x1a\xd0?'
p1204
tp1205
Rp1206
tp1207
a(S'feature vector'
p1208
g2
(g6
S'\x7f;(\xbb\xa0\x1a\xd0?'
p1209
tp1210
Rp1211
tp1212
a(S'1997 vuelta a colombia'
p1213
g2
(g6
S"O\xc4Z'x\x18\xd0?"
p1214
tp1215
Rp1216
tp1217
a(S'4-4-6-4'
p1218
g2
(g6
S'\xac\x88%@\xb7\x13\xd0?'
p1219
tp1220
Rp1221
tp1222
a(S'tanagra (machine learning)'
p1223
g2
(g6
S'\x10\xed\xe8\xd1\x17\x0c\xd0?'
p1224
tp1225
Rp1226
tp1227
a(S'meta learning (computer science)'
p1228
g2
(g6
S'\xe5vN\x8cN\x0b\xd0?'
p1229
tp1230
Rp1231
tp1232
a(S'1986 tour de france'
p1233
g2
(g6
S'\xc7*\x84\xa4\xe1\x06\xd0?'
p1234
tp1235
Rp1236
tp1237
a(S'1990 tour de france'
p1238
g2
(g6
S'\xbf{\\\xdav\x06\xd0?'
p1239
tp1240
Rp1241
tp1242
a(S'multilayer perceptron'
p1243
g2
(g6
S'\x90\x02"\x84k\x06\xd0?'
p1244
tp1245
Rp1246
tp1247
a(S'2010 vuelta a espa\xc3\xb1a, stage 12 to stage 21'
p1248
g2
(g6
S'}\x15\xc4\x12p\x04\xd0?'
p1249
tp1250
Rp1251
tp1252
a(S"general classification in the giro d'italia"
p1253
g2
(g6
S'\xbf\x8di<k\x04\xd0?'
p1254
tp1255
Rp1256
tp1257
a(S'regression analysis'
p1258
g2
(g6
S'\x11\x825\xad\xfb\xff\xcf?'
p1259
tp1260
Rp1261
tp1262
a(S'2004 vuelta a colombia'
p1263
g2
(g6
S'\xa7x\xff\t\x12\xff\xcf?'
p1264
tp1265
Rp1266
tp1267
a(S'time series'
p1268
g2
(g6
S' \x10:?\x81\xfd\xcf?'
p1269
tp1270
Rp1271
tp1272
a(S'2014 tour of the basque country'
p1273
g2
(g6
S'\xd2\x7f<X\x07\xf9\xcf?'
p1274
tp1275
Rp1276
tp1277
a(S'class b (classification)'
p1278
g2
(g6
S'\xad ojW\xf1\xcf?'
p1279
tp1280
Rp1281
tp1282
a(S'2010 vuelta a espa\xc3\xb1a, stage 1 to stage 11'
p1283
g2
(g6
S'\x1c\xe5\xf9\r2\xe5\xcf?'
p1284
tp1285
Rp1286
tp1287
a(S'2014 crit\xc3\xa9rium du dauphin\xc3\xa9'
p1288
g2
(g6
S'R\xf0\xe9g\x16\xda\xcf?'
p1289
tp1290
Rp1291
tp1292
a(S'2011 vuelta a andaluc\xc3\xada'
p1293
g2
(g6
S't\x16JF?\xd8\xcf?'
p1294
tp1295
Rp1296
tp1297
a(S'2009 tour de pologne'
p1298
g2
(g6
S'\x8ac\xb2\xda\x96\xcf\xcf?'
p1299
tp1300
Rp1301
tp1302
a(S'class a (classification)'
p1303
g2
(g6
S'\xa14\x8f\xaez\xc8\xcf?'
p1304
tp1305
Rp1306
tp1307
a(S'2014 vuelta a espa\xc3\xb1a'
p1308
g2
(g6
S'l\xf2\xaf\x8f\xaa\xc1\xcf?'
p1309
tp1310
Rp1311
tp1312
a(S'list of wins by sky professional racing and its successors'
p1313
g2
(g6
S'\x9b\x943\xe7\x03\xc1\xcf?'
p1314
tp1315
Rp1316
tp1317
a(S"young rider classification in the giro d'italia"
p1318
g2
(g6
S'\xa4&\x01\xcf\xf4\xb7\xcf?'
p1319
tp1320
Rp1321
tp1322
a(S'dickinson classification'
p1323
g2
(g6
S'j>k\x04\x97\xb3\xcf?'
p1324
tp1325
Rp1326
tp1327
a(S'2005 vuelta ciclista de chile'
p1328
g2
(g6
S'\xc9\xf2\r\xbc\x8b\xa7\xcf?'
p1329
tp1330
Rp1331
tp1332
a(S'kernel perceptron'
p1333
g2
(g6
S'|\x1d%z\xd5\x9f\xcf?'
p1334
tp1335
Rp1336
tp1337
a(S'geometric feature learning'
p1338
g2
(g6
S'\xf5\xfc\x82J\xf1\x97\xcf?'
p1339
tp1340
Rp1341
tp1342
a(S'ranking svm'
p1343
g2
(g6
S' Y\xb6\xdc\x19\x8d\xcf?'
p1344
tp1345
Rp1346
tp1347
a(S'united states patent classification'
p1348
g2
(g6
S'\xe5\x00A\xca\x05\x8a\xcf?'
p1349
tp1350
Rp1351
tp1352
a(S'0-12-0'
p1353
g2
(g6
S'\xf9j\xbbuz\x83\xcf?'
p1354
tp1355
Rp1356
tp1357
a(S'hybrid algorithm'
p1358
g2
(g6
S'\xea\x7fr\xb1Jy\xcf?'
p1359
tp1360
Rp1361
tp1362
a(S't1 (classification)'
p1363
g2
(g6
S'!\x17\xd8\\]w\xcf?'
p1364
tp1365
Rp1366
tp1367
a(S'ilastik'
p1368
g2
(g6
S"?'\x12g\x9ea\xcf?"
p1369
tp1370
Rp1371
tp1372
a(S'2-8-8-8-2'
p1373
g2
(g6
S'\xdfN+\xa9\xd7J\xcf?'
p1374
tp1375
Rp1376
tp1377
a(S't36 (classification)'
p1378
g2
(g6
S'c\x82\x04uMB\xcf?'
p1379
tp1380
Rp1381
tp1382
a(S'circular analysis'
p1383
g2
(g6
S'\xa0\xb5\xb6\xe7\xca=\xcf?'
p1384
tp1385
Rp1386
tp1387
a(S'lta-b2'
p1388
g2
(g6
S'da\xf3:Z2\xcf?'
p1389
tp1390
Rp1391
tp1392
a(S'lta-b3'
p1393
g2
(g6
S'da\xf3:Z2\xcf?'
p1394
tp1395
Rp1396
tp1397
a(S'predictive analytics'
p1398
g2
(g6
S'\xfc\x05\xaf\xb5\x021\xcf?'
p1399
tp1400
Rp1401
tp1402
a(S'1994 vuelta a colombia'
p1403
g2
(g6
S'Z\xef\xcac\xae.\xcf?'
p1404
tp1405
Rp1406
tp1407
a(S'volleyball at the 1998 asian games \xe2\x80\x93 men'
p1408
g2
(g6
S'\x00\x9d\x8d{*-\xcf?'
p1409
tp1410
Rp1411
tp1412
a(S'2-12-0'
p1413
g2
(g6
S'qp\xb6\x07\xfc$\xcf?'
p1414
tp1415
Rp1416
tp1417
a(S'oligotyping (taxonomy)'
p1418
g2
(g6
S'oF\xab2\xe1\x1b\xcf?'
p1419
tp1420
Rp1421
tp1422
a(S'4-10-0'
p1423
g2
(g6
S']\xc3\xfa\x99\x0e\x14\xcf?'
p1424
tp1425
Rp1426
tp1427
a(S'r18'
p1428
g2
(g6
S'\x90\x19]\x91"\x03\xcf?'
p1429
tp1430
Rp1431
tp1432
a(S'australian classification board'
p1433
g2
(g6
S'\xc3r\xabZ\x99\xfb\xce?'
p1434
tp1435
Rp1436
tp1437
a(S'2007 cl\xc3\xa1sico rcn'
p1438
g2
(g6
S'\xfewV\xc3\x8a\xf3\xce?'
p1439
tp1440
Rp1441
tp1442
a(S'discriminative model'
p1443
g2
(g6
S'-XO\\\xdf\xed\xce?'
p1444
tp1445
Rp1446
tp1447
a(S'2015 festival luxembourgeois du cyclisme f\xc3\xa9minin elsy jacobs'
p1448
g2
(g6
S'\xd9\xfe\x067[\xe5\xce?'
p1449
tp1450
Rp1451
tp1452
a(S'comparison and contrast of classification schemes in linguistics and metadata'
p1453
g2
(g6
S'\x9eaa\x16\\\xe3\xce?'
p1454
tp1455
Rp1456
tp1457
a(S'search algorithm'
p1458
g2
(g6
S'\xfb\xfa\xa8\xd1D\xde\xce?'
p1459
tp1460
Rp1461
tp1462
a(S'binomial regression'
p1463
g2
(g6
S'H]\xf3\x9a\x16\xc6\xce?'
p1464
tp1465
Rp1466
tp1467
a(S'combination classification in the vuelta a espa\xc3\xb1a'
p1468
g2
(g6
S'\xa8\x08:\xd7\xd7\xb9\xce?'
p1469
tp1470
Rp1471
tp1472
a(S'imerio massignan'
p1473
g2
(g6
S'\x07\x9bH@\xaf\xb6\xce?'
p1474
tp1475
Rp1476
tp1477
a(S'bayesian network'
p1478
g2
(g6
S'\x12\xffO\x9d\x97\xb3\xce?'
p1479
tp1480
Rp1481
tp1482
a(S"2013 fivb volleyball women's u20 world championship"
p1483
g2
(g6
S'\x7fW\xef#\xd3\xaf\xce?'
p1484
tp1485
Rp1486
tp1487
a(S'1998 cl\xc3\xa1sico rcn'
p1488
g2
(g6
S'\xd1a \xfc\xa6\x90\xce?'
p1489
tp1490
Rp1491
tp1492
a(S's11 (classification)'
p1493
g2
(g6
S'\\\xabI\x12\xdc\x89\xce?'
p1494
tp1495
Rp1496
tp1497
a(S'h1 (classification)'
p1498
g2
(g6
S'\x9cNi\xd3\xa7u\xce?'
p1499
tp1500
Rp1501
tp1502
a(S'office of film and literature classification (new zealand)'
p1503
g2
(g6
S'\xf8\xfa\xd9g\x17t\xce?'
p1504
tp1505
Rp1506
tp1507
a(S'libsvm'
p1508
g2
(g6
S'|\x1d\x9f\xf9^r\xce?'
p1509
tp1510
Rp1511
tp1512
a.