(lp0
(S'stochastic gradient descent'
p1
cnumpy.core.multiarray
scalar
p2
(cnumpy
dtype
p3
(S'f8'
p4
I0
I1
tp5
Rp6
(I3
S'<'
p7
NNNI-1
I-1
I0
tp8
bS'\xfb\xff\xff\xff\xff\xff\xef?'
p9
tp10
Rp11
tp12
a(S'gradient descent'
p13
g2
(g6
S']$\xa5\x19UG\xe5?'
p14
tp15
Rp16
tp17
a(S'gradient (disambiguation)'
p18
g2
(g6
S'\xe0\xdb\xbd\xf8\xd6\x18\xe4?'
p19
tp20
Rp21
tp22
a(S'gradient method'
p23
g2
(g6
S'3\x18\x84&\x94T\xe2?'
p24
tp25
Rp26
tp27
a(S'gradient sro'
p28
g2
(g6
S'\xea\xf8\xdfaZ\x07\xe2?'
p29
tp30
Rp31
tp32
a(S'spatial gradient'
p33
g2
(g6
S'\x10\xa1\x1dM\xf3\xbb\xe1?'
p34
tp35
Rp36
tp37
a(S'online machine learning'
p38
g2
(g6
S't\xc1~wI\xb8\xe1?'
p39
tp40
Rp41
tp42
a(S'gradient'
p43
g2
(g6
S'\x83\x00\xdd\x8e\xa5\xf5\xe0?'
p44
tp45
Rp46
tp47
a(S'gradient-related'
p48
g2
(g6
S'\x99\x0b\xd2d\xf5\x00\xe0?'
p49
tp50
Rp51
tp52
a(S'image gradient'
p53
g2
(g6
S'\x0cZ\xc8f0\xa6\xdf?'
p54
tp55
Rp56
tp57
a(S'descent direction'
p58
g2
(g6
S'\x0eu\x96=\x8a|\xdf?'
p59
tp60
Rp61
tp62
a(S'surface gradient'
p63
g2
(g6
S'\x92R\x9f\xb9dT\xdf?'
p64
tp65
Rp66
tp67
a(S'gradient boosting'
p68
g2
(g6
S'yi\x18\xf2\xb7\xc1\xdd?'
p69
tp70
Rp71
tp72
a(S'gradient-domain image processing'
p73
g2
(g6
S'6\xa5\xd9j3.\xdd?'
p74
tp75
Rp76
tp77
a(S'stochastic approximation'
p78
g2
(g6
S'\x0e\xbf\xbb1 \x04\xdd?'
p79
tp80
Rp81
tp82
a(S'natural evolution strategy'
p83
g2
(g6
S'p\xdc\xd1{\x02\xc6\xdc?'
p84
tp85
Rp86
tp87
a(S'simultaneous perturbation stochastic approximation'
p88
g2
(g6
S'\x1d\xce\xad\x1e2\xbc\xdc?'
p89
tp90
Rp91
tp92
a(S'l\xc3\xa9on bottou'
p93
g2
(g6
S'\x91\x0f\xd8\xf8q\x88\xdc?'
p94
tp95
Rp96
tp97
a(S'backpropagation'
p98
g2
(g6
S'\xef\xf64[\x84\x7f\xdc?'
p99
tp100
Rp101
tp102
a(S'gradient-like vector field'
p103
g2
(g6
S'\xff\x8c\xc3\xc6\x02\xe6\xdb?'
p104
tp105
Rp106
tp107
a(S'stream gradient'
p108
g2
(g6
S'%(f\xb0=\xc2\xdb?'
p109
tp110
Rp111
tp112
a(S'gradient enhanced nmr spectroscopy'
p113
g2
(g6
S'\x86\xd3\xb5\xc4\xc8\x98\xda?'
p114
tp115
Rp116
tp117
a(S'nonlinear conjugate gradient method'
p118
g2
(g6
S'.\x88\xaa\xa7\x8e\x82\xda?'
p119
tp120
Rp121
tp122
a(S'pressure gradient'
p123
g2
(g6
S'\x1ch\x9fE:<\xda?'
p124
tp125
Rp126
tp127
a(S'color gradient'
p128
g2
(g6
S'\xcfN\x88\x0c\xa45\xda?'
p129
tp130
Rp131
tp132
a(S'biconjugate gradient method'
p133
g2
(g6
S'\xf6\xd3OU\x814\xda?'
p134
tp135
Rp136
tp137
a(S'skew gradient'
p138
g2
(g6
S'\xadA\xc1G\x94\x1d\xda?'
p139
tp140
Rp141
tp142
a(S'french flag model'
p143
g2
(g6
S'r\x8efm\t\xe4\xd9?'
p144
tp145
Rp146
tp147
a(S'gradient pattern analysis'
p148
g2
(g6
S"d/\x0b'>\xd9\xd9?"
p149
tp150
Rp151
tp152
a(S'stochastic'
p153
g2
(g6
S'\xa7\x02\xcfH\xcd\t\xd9?'
p154
tp155
Rp156
tp157
a(S'conjugate gradient method'
p158
g2
(g6
S'Q\xa0\x82SB\xe6\xd8?'
p159
tp160
Rp161
tp162
a(S'alveolar\xe2\x80\x93arterial gradient'
p163
g2
(g6
S'\x07\x8b\x05\xe0W\xc9\xd8?'
p164
tp165
Rp166
tp167
a(S'neighbourhood components analysis'
p168
g2
(g6
S'\x1c\x8c\x08\x9d%5\xd8?'
p169
tp170
Rp171
tp172
a(S'gradient copolymers'
p173
g2
(g6
S'r\xdd\xec\x90#\x06\xd8?'
p174
tp175
Rp176
tp177
a(S'vanishing gradient problem'
p178
g2
(g6
S'\xc9\xe4\x1f\x95@\xcf\xd7?'
p179
tp180
Rp181
tp182
a(S'stochastic computing'
p183
g2
(g6
S'\xf5|M\xa2\x13\xca\xd7?'
p184
tp185
Rp186
tp187
a(S'channel types'
p188
g2
(g6
S'f\x8bU\xdf:\xa9\xd7?'
p189
tp190
Rp191
tp192
a(S'prewitt operator'
p193
g2
(g6
S'\x13Q-\x84-\x8e\xd7?'
p194
tp195
Rp196
tp197
a(S'wind gradient'
p198
g2
(g6
S'\xb1R\x07\x95\xc7a\xd7?'
p199
tp200
Rp201
tp202
a(S'alopex'
p203
g2
(g6
S'\x83\xa1\x13o\xd7M\xd7?'
p204
tp205
Rp206
tp207
a(S'landweber iteration'
p208
g2
(g6
S'\xa7.\x17\xcfp\xe1\xd6?'
p209
tp210
Rp211
tp212
a(S'coordinate descent'
p213
g2
(g6
S'\xac1\x19\x86\xa2\xd3\xd6?'
p214
tp215
Rp216
tp217
a(S'frank\xe2\x80\x93wolfe algorithm'
p218
g2
(g6
S'\x8b\x86\x19\xc2`\xcf\xd6?'
p219
tp220
Rp221
tp222
a(S'stochastic ordering'
p223
g2
(g6
S'\xe5\xaf\xf2\x8f\x8f\x85\xd6?'
p224
tp225
Rp226
tp227
a(S'density gradient'
p228
g2
(g6
S'\x84\x07\xc5\x88\xcf\x10\xd6?'
p229
tp230
Rp231
tp232
a(S'stochastic resonance (book)'
p233
g2
(g6
S'\xfb4\x8b8\x97\xf6\xd5?'
p234
tp235
Rp236
tp237
a(S'gradient theorem'
p238
g2
(g6
S'\xdf8\xdeU9\xd5\xd5?'
p239
tp240
Rp241
tp242
a(S'iml++'
p243
g2
(g6
S'f\xff\xdeU\x97\xc5\xd5?'
p244
tp245
Rp246
tp247
a(S'adaline'
p248
g2
(g6
S'\xf2\xe1\xc0\xb0a\xb9\xd5?'
p249
tp250
Rp251
tp252
a(S'drainage gradient'
p253
g2
(g6
S'm!/\x1f\x8f\x9b\xd5?'
p254
tp255
Rp256
tp257
a(S'stochastic modelling (insurance)'
p258
g2
(g6
S'!)WGZ\x8d\xd5?'
p259
tp260
Rp261
tp262
a(S'delta rule'
p263
g2
(g6
S'5\x9d\xb5\xe7\x1eW\xd5?'
p264
tp265
Rp266
tp267
a(S'stochastic optimization'
p268
g2
(g6
S'\x98\x8d\xa4\xc8\xf8P\xd5?'
p269
tp270
Rp271
tp272
a(S'non-linear least squares'
p273
g2
(g6
S'\x835\x06\xc5\x01.\xd5?'
p274
tp275
Rp276
tp277
a(S'steady-state free precession imaging'
p278
g2
(g6
S'\xfa\xe6\xb2\x9c\x05,\xd5?'
p279
tp280
Rp281
tp282
a(S'quickprop'
p283
g2
(g6
S'\x9d\xe1J?\xf5\x12\xd5?'
p284
tp285
Rp286
tp287
a(S'early stopping'
p288
g2
(g6
S'}\xc8a+\x8e\xef\xd4?'
p289
tp290
Rp291
tp292
a(S'doubly stochastic model'
p293
g2
(g6
S'0DZ\x96\x9f\xd4\xd4?'
p294
tp295
Rp296
tp297
a(S'stochastic process'
p298
g2
(g6
S"'TQ\x1f\xb6\xcc\xd4?"
p299
tp300
Rp301
tp302
a(S'pulsed field gradient'
p303
g2
(g6
S'-\x0c\xccgg\xc6\xd4?'
p304
tp305
Rp306
tp307
a(S'potential gradient'
p308
g2
(g6
S'J\x90\x1b\xca\x80\xbc\xd4?'
p309
tp310
Rp311
tp312
a(S'stochastic hill climbing'
p313
g2
(g6
S'<\xa9;rh\xb5\xd4?'
p314
tp315
Rp316
tp317
a(S'stochastic thinking'
p318
g2
(g6
S'5\xea\xb3\xdeQ\xb4\xd4?'
p319
tp320
Rp321
tp322
a(S'morphological gradient'
p323
g2
(g6
S'\xcc\x99\x81\xb5\xbb\xa7\xd4?'
p324
tp325
Rp326
tp327
a(S'gauss\xe2\x80\x93newton algorithm'
p328
g2
(g6
S'\xffwS.\x85\x96\xd4?'
p329
tp330
Rp331
tp332
a(S'roberts cross'
p333
g2
(g6
S'Ud\xb5R\xa0r\xd4?'
p334
tp335
Rp336
tp337
a(S'markov chain approximation method'
p338
g2
(g6
S'K\xdac\xeaSM\xd4?'
p339
tp340
Rp341
tp342
a(S'gradient multilayer nanofilm'
p343
g2
(g6
S'\x91\xe7\xfa\x98?,\xd4?'
p344
tp345
Rp346
tp347
a(S'velocity gradient'
p348
g2
(g6
S'\xec\x90D\xe6\xe9*\xd4?'
p349
tp350
Rp351
tp352
a(S'sound speed gradient'
p353
g2
(g6
S'\xe4\xfa\xe1S\xb7\xfc\xd3?'
p354
tp355
Rp356
tp357
a(S"xiaolin wu's line algorithm"
p358
g2
(g6
S'eR\xd214\xef\xd3?'
p359
tp360
Rp361
tp362
a(S'eotvos (unit)'
p363
g2
(g6
S'\xba3\x03\x91\x10\xe3\xd3?'
p364
tp365
Rp366
tp367
a(S'superconvergence'
p368
g2
(g6
S'd\xaf\xf2yZ\xb8\xd3?'
p369
tp370
Rp371
tp372
a(S'supervised learning'
p373
g2
(g6
S'S\x87:\xfbB\xac\xd3?'
p374
tp375
Rp376
tp377
a(S'vam (bicycling)'
p378
g2
(g6
S'@S\xf5\xdc\x83\xaa\xd3?'
p379
tp380
Rp381
tp382
a(S'texture gradient'
p383
g2
(g6
S'\x1b\x08\x1fV\x97\xa8\xd3?'
p384
tp385
Rp386
tp387
a(S'levenberg\xe2\x80\x93marquardt algorithm'
p388
g2
(g6
S'w\xaf\xbbE\xa7\x85\xd3?'
p389
tp390
Rp391
tp392
a(S'broyden\xe2\x80\x93fletcher\xe2\x80\x93goldfarb\xe2\x80\x93shanno algorithm'
p393
g2
(g6
S'}\x1ef\x02\xe9o\xd3?'
p394
tp395
Rp396
tp397
a(S'stochastic neural network'
p398
g2
(g6
S'\xda\x01\x84\xce\xa9j\xd3?'
p399
tp400
Rp401
tp402
a(S'environmental gradient'
p403
g2
(g6
S'5\x10xT$Y\xd3?'
p404
tp405
Rp406
tp407
a(S'gradsect'
p408
g2
(g6
S'zOe\x8c~K\xd3?'
p409
tp410
Rp411
tp412
a(S'stochastic models'
p413
g2
(g6
S'\xf0\xf5-\xe7\xbc\x1e\xd3?'
p414
tp415
Rp416
tp417
a(S'q-learning'
p418
g2
(g6
S'3\x83\x1a\x96H\x19\xd3?'
p419
tp420
Rp421
tp422
a(S'interior point method'
p423
g2
(g6
S'\xac\x88xV\xea\x12\xd3?'
p424
tp425
Rp426
tp427
a(S'uzawa iteration'
p428
g2
(g6
S'A\\w\x97c\xc0\xd2?'
p429
tp430
Rp431
tp432
a(S'descent'
p433
g2
(g6
S'\xfc\x7f:_\xd9\xbc\xd2?'
p434
tp435
Rp436
tp437
a(S'sobel operator'
p438
g2
(g6
S'T\xc5\x81n\xfa\x94\xd2?'
p439
tp440
Rp441
tp442
a(S"newton's method in optimization"
p443
g2
(g6
S'\x94\x14\xa3\x8a\xf5}\xd2?'
p444
tp445
Rp446
tp447
a(S'support vector machine'
p448
g2
(g6
S'v\xa7r,\xedv\xd2?'
p449
tp450
Rp451
tp452
a(S'gradient network'
p453
g2
(g6
S'h\x06\x7fJ\x86F\xd2?'
p454
tp455
Rp456
tp457
a(S'stochastic programming'
p458
g2
(g6
S'hv\xae\xe2cA\xd2?'
p459
tp460
Rp461
tp462
a(S'temperature gradient'
p463
g2
(g6
S'\xf3jKv\x7f;\xd2?'
p464
tp465
Rp466
tp467
a(S'stochastic matrix'
p468
g2
(g6
S'\x12\x82\xe4\x1b\xa39\xd2?'
p469
tp470
Rp471
tp472
a(S'devonshire tunnel'
p473
g2
(g6
S'\xbd\xcc\x94\x86\xb92\xd2?'
p474
tp475
Rp476
tp477
a(S'smooth maximum'
p478
g2
(g6
S"\xe9c\x83\x93'*\xd2?"
p479
tp480
Rp481
tp482
a(S'reinforcement learning'
p483
g2
(g6
S',\xc6\nM\x9f\x07\xd2?'
p484
tp485
Rp486
tp487
a(S'line search'
p488
g2
(g6
S'/\xe7l\xd7>\x05\xd2?'
p489
tp490
Rp491
tp492
a(S"korn's inequality"
p493
g2
(g6
S'\x1a\x9d\xe7C\xd2\x00\xd2?'
p494
tp495
Rp496
tp497
a(S'proximal gradient method'
p498
g2
(g6
S'\x1c|R(\xcf\xed\xd1?'
p499
tp500
Rp501
tp502
a(S'four-gradient'
p503
g2
(g6
S'\x03\x95\xba\xe6\x19\xe5\xd1?'
p504
tp505
Rp506
tp507
a(S'limited-memory bfgs'
p508
g2
(g6
S'\xe2k\xf6\xfd\xf6\xe3\xd1?'
p509
tp510
Rp511
tp512
a(S'stochastic resonance'
p513
g2
(g6
S'\x98L\xc9\x1c{\xb7\xd1?'
p514
tp515
Rp516
tp517
a(S'stochastic calculus'
p518
g2
(g6
S'\xcf\xfbu\x94\xe8\xb4\xd1?'
p519
tp520
Rp521
tp522
a(S'stochastic dynamic programming'
p523
g2
(g6
S'\x86@\x9e\x17\xd7\xa3\xd1?'
p524
tp525
Rp526
tp527
a(S'stochastic drift'
p528
g2
(g6
S'\xee\xd1\x0bn*\x99\xd1?'
p529
tp530
Rp531
tp532
a(S'stochastic dominance'
p533
g2
(g6
S'G\xf4\x06\xf7=\x8e\xd1?'
p534
tp535
Rp536
tp537
a(S'immobilized ph gradient'
p538
g2
(g6
S'z)ry\x0f\x88\xd1?'
p539
tp540
Rp541
tp542
a(S'quezzi funicular'
p543
g2
(g6
S'\xe4G\xb9\xfaG~\xd1?'
p544
tp545
Rp546
tp547
a(S'albert shiryaev'
p548
g2
(g6
S'\xde>\x9a\xb6\xb2|\xd1?'
p549
tp550
Rp551
tp552
a(S'statistical learning theory'
p553
g2
(g6
S'\xb9\x98\x9e*BI\xd1?'
p554
tp555
Rp556
tp557
a(S'matrixnet'
p558
g2
(g6
S'\xa6\xd9\xa0\xab\xd5F\xd1?'
p559
tp560
Rp561
tp562
a(S'least mean squares filter'
p563
g2
(g6
S'\xf7\\\x08\x01\xec4\xd1?'
p564
tp565
Rp566
tp567
a(S'modified richardson iteration'
p568
g2
(g6
S'\x94\x95i\xaf\xcb(\xd1?'
p569
tp570
Rp571
tp572
a(S'istv\xc3\xa1n gy\xc3\xb6ngy'
p573
g2
(g6
S'Q %\xf4\xe3#\xd1?'
p574
tp575
Rp576
tp577
a(S'col des planches'
p578
g2
(g6
S'\x84Z\xf2E\x14"\xd1?'
p579
tp580
Rp581
tp582
a(S'physics of magnetic resonance imaging'
p583
g2
(g6
S"'\xff.\x8e\x19\x0b\xd1?"
p584
tp585
Rp586
tp587
a(S'elias c. aifantis'
p588
g2
(g6
S'\x9f\xdb\x07\xb5\xe6\xfe\xd0?'
p589
tp590
Rp591
tp592
a(S'probabilistic automaton'
p593
g2
(g6
S'\xfb\xa1\x83\x8b0\xf6\xd0?'
p594
tp595
Rp596
tp597
a(S'adaptive coordinate descent'
p598
g2
(g6
S'd\x81\xea\xb0,\xe7\xd0?'
p599
tp600
Rp601
tp602
a(S'gradela'
p603
g2
(g6
S'\xc8\xd2Z@\xf1\xe4\xd0?'
p604
tp605
Rp606
tp607
a(S'kaczmarz method'
p608
g2
(g6
S'\x84\xa6~\xfa\x99\xa3\xd0?'
p609
tp610
Rp611
tp612
a(S'mark h. a. davis'
p613
g2
(g6
S'\xe5e\xc7\xe7\xa0\x97\xd0?'
p614
tp615
Rp616
tp617
a(S'random coordinate descent'
p618
g2
(g6
S'z\xaa\x9c\xb4\xaa\x87\xd0?'
p619
tp620
Rp621
tp622
a(S'loss of strength gradient'
p623
g2
(g6
S'\xc0\x127H;m\xd0?'
p624
tp625
Rp626
tp627
a(S'yadics'
p628
g2
(g6
S'@<\x0b{\xe6h\xd0?'
p629
tp630
Rp631
tp632
a(S'preconditioner'
p633
g2
(g6
S'm\xe7\x8cDUc\xd0?'
p634
tp635
Rp636
tp637
a(S'stochastic forensics'
p638
g2
(g6
S'\x82B\x03\x17 ^\xd0?'
p639
tp640
Rp641
tp642
a(S'machine learning'
p643
g2
(g6
S'\x18\xa7U>\xdfV\xd0?'
p644
tp645
Rp646
tp647
a(S'ofer dekel (researcher)'
p648
g2
(g6
S'\xda\x8fb\xde\xd5U\xd0?'
p649
tp650
Rp651
tp652
a(S'entropy rate'
p653
g2
(g6
S"EqH'%U\xd0?"
p654
tp655
Rp656
tp657
a(S'restricted boltzmann machine'
p658
g2
(g6
S'\xe3\xaa\xb3\xc0\xd9R\xd0?'
p659
tp660
Rp661
tp662
a(S'differential evolution'
p663
g2
(g6
S'\x0f\xa1\xa2\xc3\xe0Q\xd0?'
p664
tp665
Rp666
tp667
a(S'sperm thermotaxis'
p668
g2
(g6
S'\xeb\xbe\xee\xb0\x9dQ\xd0?'
p669
tp670
Rp671
tp672
a(S'vowpal wabbit'
p673
g2
(g6
S't\n\xc5\x99\xf2H\xd0?'
p674
tp675
Rp676
tp677
a(S'radial basis function network'
p678
g2
(g6
S'\x1a\x0eQ\xf2-H\xd0?'
p679
tp680
Rp681
tp682
a(S'logitboost'
p683
g2
(g6
S'Be\xb9\xad\x9e\x19\xd0?'
p684
tp685
Rp686
tp687
a(S'\xc3\x89tienne pardoux'
p688
g2
(g6
S'\xc4\xb2`\xb1\xfb\x11\xd0?'
p689
tp690
Rp691
tp692
a(S'mathematical optimization'
p693
g2
(g6
S'\x93\x8c\xb3\xfa\xec\x02\xd0?'
p694
tp695
Rp696
tp697
a(S'bicoid (gene)'
p698
g2
(g6
S'\xc1/\xc5\xf2\xeb\xe1\xcf?'
p699
tp700
Rp701
tp702
a(S'perceptron'
p703
g2
(g6
S'\xb5\x9d\xfa\xa8\x10\xce\xcf?'
p704
tp705
Rp706
tp707
a(S'learnable function class'
p708
g2
(g6
S'\nO\xd8\xa2y\xb8\xcf?'
p709
tp710
Rp711
tp712
a(S'gradient bionyx'
p713
g2
(g6
S'M+\xd1U\x7f\xa0\xcf?'
p714
tp715
Rp716
tp717
a(S'active learning (machine learning)'
p718
g2
(g6
S'\xc2rj2Ff\xcf?'
p719
tp720
Rp721
tp722
a(S'recursive neural network'
p723
g2
(g6
S'.\xe1\x9ag{Z\xcf?'
p724
tp725
Rp726
tp727
a(S'vector calculus identities'
p728
g2
(g6
S'~\xa9!/jS\xcf?'
p729
tp730
Rp731
tp732
a(S'stochastic frontier analysis'
p733
g2
(g6
S'\xf6Fg\xb7\xa1N\xcf?'
p734
tp735
Rp736
tp737
a(S'onsager\xe2\x80\x93machlup function'
p738
g2
(g6
S'\xa6|\x91\x08tM\xcf?'
p739
tp740
Rp741
tp742
a(S'stochastic control'
p743
g2
(g6
S'\x01*\xcb\xfd:E\xcf?'
p744
tp745
Rp746
tp747
a(S'cma-es'
p748
g2
(g6
S'\xa9v\xcf\x8b\xc0B\xcf?'
p749
tp750
Rp751
tp752
a(S'rosenbrock function'
p753
g2
(g6
S"\xa0\xc0m'?1\xcf?"
p754
tp755
Rp756
tp757
a(S'list of numerical analysis topics'
p758
g2
(g6
S'\xce\xdf\xbeC\xfc\r\xcf?'
p759
tp760
Rp761
tp762
a(S'descent (video game)'
p763
g2
(g6
S'\x154\xaf&x\xec\xce?'
p764
tp765
Rp766
tp767
a(S'stochastic oscillator'
p768
g2
(g6
S']\x01P;\xa0\xbf\xce?'
p769
tp770
Rp771
tp772
a(S'lajos tak\xc3\xa1cs'
p773
g2
(g6
S'\x0c\xf9\xed\x12\xc7\xb7\xce?'
p774
tp775
Rp776
tp777
a(S'gradient-index optics'
p778
g2
(g6
S'\xb5\xae\x03\x84\xcc\xad\xce?'
p779
tp780
Rp781
tp782
a(S'rprop'
p783
g2
(g6
S'\x9au\xd1:\xe2\x87\xce?'
p784
tp785
Rp786
tp787
a(S'cross-entropy method'
p788
g2
(g6
S'\xf1\xa7\x1a\xc7\xc3z\xce?'
p789
tp790
Rp791
tp792
a(S'mark d. mcdonnell'
p793
g2
(g6
S'\xa4\xa7\x9d\xbd\xa4S\xce?'
p794
tp795
Rp796
tp797
a(S'geopotential function'
p798
g2
(g6
S'\xea\xc5\x8fF\x9bK\xce?'
p799
tp800
Rp801
tp802
a(S'naum z. shor'
p803
g2
(g6
S'\xe1=r\x89zD\xce?'
p804
tp805
Rp806
tp807
a(S'structure tensor'
p808
g2
(g6
S'\xe8\xf6<6\x9c+\xce?'
p809
tp810
Rp811
tp812
a(S'conjugate residual method'
p813
g2
(g6
S"\xd3\xd3\xa4\xf8+'\xce?"
p814
tp815
Rp816
tp817
a(S'killed process'
p818
g2
(g6
S'\x9bX\xc3\xcfq%\xce?'
p819
tp820
Rp821
tp822
a(S'loss functions for classification'
p823
g2
(g6
S'\x04;\xf8\xd9\xd0\x1e\xce?'
p824
tp825
Rp826
tp827
a(S'biconjugate gradient stabilized method'
p828
g2
(g6
S'\x82Nz\x8e]\x05\xce?'
p829
tp830
Rp831
tp832
a(S'hyperparameter optimization'
p833
g2
(g6
S'\x94\x90\xa0\xfb\xe1\x00\xce?'
p834
tp835
Rp836
tp837
a(S'pseudoconvex function'
p838
g2
(g6
S'\x9a-\xfb\x84(\x00\xce?'
p839
tp840
Rp841
tp842
a(S'bernoulli stochastics'
p843
g2
(g6
S'\xcfQ\x9e\x0e9\xf3\xcd?'
p844
tp845
Rp846
tp847
a(S'sparse dictionary learning'
p848
g2
(g6
S'\xca\xb2\xf1\xa3\xa4\xe8\xcd?'
p849
tp850
Rp851
tp852
a(S'doubly stochastic matrix'
p853
g2
(g6
S'\x82\xa4[\xb7C\xd8\xcd?'
p854
tp855
Rp856
tp857
a(S'hill climbing'
p858
g2
(g6
S'\x98\xc3\x9b\x9cD\xd3\xcd?'
p859
tp860
Rp861
tp862
a(S'perlin noise'
p863
g2
(g6
S'\xc9i\x14\x88K\xc9\xcd?'
p864
tp865
Rp866
tp867
a(S'list of americans of english descent'
p868
g2
(g6
S'\xbd\xec\x02\xf20\xc2\xcd?'
p869
tp870
Rp871
tp872
a(S'expectation\xe2\x80\x93maximization algorithm'
p873
g2
(g6
S'\x15\xd5C\x11\xa3\xa0\xcd?'
p874
tp875
Rp876
tp877
a(S'2013 tour de france mountains classification'
p878
g2
(g6
S'\x9e\xd0\xd0?m\x9a\xcd?'
p879
tp880
Rp881
tp882
a(S'empirical risk minimization'
p883
g2
(g6
S'\xcf\xb3\xc6\xa0,\x94\xcd?'
p884
tp885
Rp886
tp887
a(S'linear classifier'
p888
g2
(g6
S'\xb1\xd1\xe5\xbd(\x90\xcd?'
p889
tp890
Rp891
tp892
a(S'kiyosi it\xc3\xb4'
p893
g2
(g6
S'\xcc\x8d\xf6\xbc\xf6\x8e\xcd?'
p894
tp895
Rp896
tp897
a(S'continuous-time stochastic process'
p898
g2
(g6
S'\xa7A&=\xc0\x8a\xcd?'
p899
tp900
Rp901
tp902
a(S'col du petit ballon'
p903
g2
(g6
S'C\x93|\xe2\n\x81\xcd?'
p904
tp905
Rp906
tp907
a(S'bernt \xc3\x98ksendal'
p908
g2
(g6
S'\xee$\xebf\xbfw\xcd?'
p909
tp910
Rp911
tp912
a(S'parallax software'
p913
g2
(g6
S'\xe7\x7f1\x86\xfco\xcd?'
p914
tp915
Rp916
tp917
a(S'augmented lagrangian method'
p918
g2
(g6
S'\xc0\x0e\xca\x9a!i\xcd?'
p919
tp920
Rp921
tp922
a(S'semnoz'
p923
g2
(g6
S'\xffN\x8c\xcc\x99P\xcd?'
p924
tp925
Rp926
tp927
a(S'darinka dentcheva'
p928
g2
(g6
S'\x8a\xe7\xcd\xc5yI\xcd?'
p929
tp930
Rp931
tp932
a(S'proximal gradient methods for learning'
p933
g2
(g6
S'\xe7\xe1\x96\xafND\xcd?'
p934
tp935
Rp936
tp937
a(S'diffusiophoresis'
p938
g2
(g6
S'r\xbd\x92i\x01C\xcd?'
p939
tp940
Rp941
tp942
a(S'multidisciplinary design optimization'
p943
g2
(g6
S'G/<P\xc5B\xcd?'
p944
tp945
Rp946
tp947
a(S'stochastic game'
p948
g2
(g6
S'c\xf3K\xfe5:\xcd?'
p949
tp950
Rp951
tp952
a(S'paul ledoux'
p953
g2
(g6
S'\x94\xceH7M8\xcd?'
p954
tp955
Rp956
tp957
a(S'gradient well-formedness'
p958
g2
(g6
S'\xe5\xc7\xc7\xdc\xb23\xcd?'
p959
tp960
Rp961
tp962
a(S'thermal wind'
p963
g2
(g6
S"\xbd\x94q'v(\xcd?"
p964
tp965
Rp966
tp967
a(S'roger j-b wets'
p968
g2
(g6
S'k\xfc\xc2\xe2e\x1d\xcd?'
p969
tp970
Rp971
tp972
a(S'deep learning'
p973
g2
(g6
S'\xf5\x13\xe5@\x7f\x1a\xcd?'
p974
tp975
Rp976
tp977
a(S'descent ii'
p978
g2
(g6
S'\xeePPy.\x16\xcd?'
p979
tp980
Rp981
tp982
a(S'sgd (disambiguation)'
p983
g2
(g6
S'\xf04\x86`\x88\x11\xcd?'
p984
tp985
Rp986
tp987
a(S'hillclimbing (railway)'
p988
g2
(g6
S'gP\x93_\xe5\xf9\xcc?'
p989
tp990
Rp991
tp992
a(S'first-hitting-time model'
p993
g2
(g6
S'>\xd5{\x0bb\xf0\xcc?'
p994
tp995
Rp996
tp997
a(S'gradient conjecture'
p998
g2
(g6
S';\x84\xa4\x8eE\xda\xcc?'
p999
tp1000
Rp1001
tp1002
a(S'second-order cone programming'
p1003
g2
(g6
S'\x86\xae\xea0\xf9\x91\xcc?'
p1004
tp1005
Rp1006
tp1007
a(S'stochastic differential equation'
p1008
g2
(g6
S'\x19\x12\x17\xa3\xea\x8b\xcc?'
p1009
tp1010
Rp1011
tp1012
a(S'error tolerance (pac learning)'
p1013
g2
(g6
S'\x9a53\x1b\xa4\x87\xcc?'
p1014
tp1015
Rp1016
tp1017
a(S'col du platzerwasel'
p1018
g2
(g6
S'\x9e]%\x0c\xf8u\xcc?'
p1019
tp1020
Rp1021
tp1022
a(S'dietrich stoyan'
p1023
g2
(g6
S'o\xa9\xe5\x82ze\xcc?'
p1024
tp1025
Rp1026
tp1027
a(S'j. michael harrison'
p1028
g2
(g6
S'zK\xbf\x8e\xae[\xcc?'
p1029
tp1030
Rp1031
tp1032
a(S'afterdrop'
p1033
g2
(g6
S'\xfd\x05\xbcC\xf9%\xcc?'
p1034
tp1035
Rp1036
tp1037
a(S'george adomian'
p1038
g2
(g6
S'\n\x05\xed\xfbE$\xcc?'
p1039
tp1040
Rp1041
tp1042
a(S'quadrupole splitting'
p1043
g2
(g6
S'f\xf3\x8d\x8c\x0b \xcc?'
p1044
tp1045
Rp1046
tp1047
a(S'list of machine learning concepts'
p1048
g2
(g6
S'\xc8\xe3M\x8a\xad\x1c\xcc?'
p1049
tp1050
Rp1051
tp1052
a(S'ruling gradient'
p1053
g2
(g6
S'\x0c\r\x1b\xda\xdf\xff\xcb?'
p1054
tp1055
Rp1056
tp1057
a(S'canny edge detector'
p1058
g2
(g6
S'\xa1E\x00\xf6#\xfd\xcb?'
p1059
tp1060
Rp1061
tp1062
a(S'k. david elworthy'
p1063
g2
(g6
S'\xcd\x8c\x88\x19\x87\xfc\xcb?'
p1064
tp1065
Rp1066
tp1067
a(S'stratonovich integral'
p1068
g2
(g6
S'\xb4\x17r\r\xd0\xf8\xcb?'
p1069
tp1070
Rp1071
tp1072
a(S'stochastic partial differential equation'
p1073
g2
(g6
S'\xb1\xa5<N\x19\xf5\xcb?'
p1074
tp1075
Rp1076
tp1077
a(S'biomolecular gradient'
p1078
g2
(g6
S'\x88\xe9\x8e\x94)\xe9\xcb?'
p1079
tp1080
Rp1081
tp1082
a(S'derivation of the conjugate gradient method'
p1083
g2
(g6
S'j\xd12\x11&\xe3\xcb?'
p1084
tp1085
Rp1086
tp1087
a(S'multiplicative weight update method'
p1088
g2
(g6
S'\xd9w\xd5|\xfd\xdf\xcb?'
p1089
tp1090
Rp1091
tp1092
a(S'meta learning (computer science)'
p1093
g2
(g6
S'\n\xacQ\t/\xde\xcb?'
p1094
tp1095
Rp1096
tp1097
a(S'membrane transport'
p1098
g2
(g6
S'2dY\x06&\xdd\xcb?'
p1099
tp1100
Rp1101
tp1102
a(S'isoelectric focusing'
p1103
g2
(g6
S'\xd8\x83\x19\x9e#\xdd\xcb?'
p1104
tp1105
Rp1106
tp1107
a(S'transition function'
p1108
g2
(g6
S'\x00\x1e\x82\xd4-\xdb\xcb?'
p1109
tp1110
Rp1111
tp1112
a(S'unilineality'
p1113
g2
(g6
S'\xea[\x84\x90\x1a\xd5\xcb?'
p1114
tp1115
Rp1116
tp1117
a(S'watershed (image processing)'
p1118
g2
(g6
S':~_<\x89\xd2\xcb?'
p1119
tp1120
Rp1121
tp1122
a(S'gillespie algorithm'
p1123
g2
(g6
S'~)\xe0\xcb\xf8\xcc\xcb?'
p1124
tp1125
Rp1126
tp1127
a(S'ventilation perfusion mismatch'
p1128
g2
(g6
S'\x181\x08\xe3\x85\xbc\xcb?'
p1129
tp1130
Rp1131
tp1132
a(S'autoencoder'
p1133
g2
(g6
S'\xee\x08\xba\xda\xe2\xac\xcb?'
p1134
tp1135
Rp1136
tp1137
a(S'european institute for statistics, probability, stochastic operations research and its applications'
p1138
g2
(g6
S'\xd4r\xf1\x96\xf8\x8d\xcb?'
p1139
tp1140
Rp1141
tp1142
a(S'porlock hill'
p1143
g2
(g6
S'{\xd0(RY\x8d\xcb?'
p1144
tp1145
Rp1146
tp1147
a(S'boris rozovsky'
p1148
g2
(g6
S'\xab\xdb\xb7\xc2\xd0\x85\xcb?'
p1149
tp1150
Rp1151
tp1152
a(S"it\xc3\xb4's lemma"
p1153
g2
(g6
S'\x8e\xf6\xbc\xfb\x06~\xcb?'
p1154
tp1155
Rp1156
tp1157
a(S'stochastic equicontinuity'
p1158
g2
(g6
S'\x9b\xa3\xf6\x02\x8cx\xcb?'
p1159
tp1160
Rp1161
tp1162
a(S'pore pressure gradient'
p1163
g2
(g6
S'\x99\x8cAZ\x8bk\xcb?'
p1164
tp1165
Rp1166
tp1167
a(S'modified pressure'
p1168
g2
(g6
S'c{\xbe\xf8\x83T\xcb?'
p1169
tp1170
Rp1171
tp1172
a(S'infinitesimal generator (stochastic processes)'
p1173
g2
(g6
S'\xaaZ\x1f\xae\xfbQ\xcb?'
p1174
tp1175
Rp1176
tp1177
a(S'gradient noise'
p1178
g2
(g6
S'A\x8c\xf9\x08\xd58\xcb?'
p1179
tp1180
Rp1181
tp1182
a(S'orientation (computer vision)'
p1183
g2
(g6
S'\x14\x94\x0c*\x95*\xcb?'
p1184
tp1185
Rp1186
tp1187
a(S'list of algorithms'
p1188
g2
(g6
S'4E_H\xad\x1d\xcb?'
p1189
tp1190
Rp1191
tp1192
a(S'quantum algorithm for linear systems of equations'
p1193
g2
(g6
S'3\x05n/\xba\x17\xcb?'
p1194
tp1195
Rp1196
tp1197
a(S'ats-4'
p1198
g2
(g6
S'z/ \xd8\x97\x03\xcb?'
p1199
tp1200
Rp1201
tp1202
a(S'feature scaling'
p1203
g2
(g6
S'\xa9M\x19\x1e\xee\xe8\xca?'
p1204
tp1205
Rp1206
tp1207
a(S'compressed sensing'
p1208
g2
(g6
S'*\xf9\xe4\xa1\x0f\xd9\xca?'
p1209
tp1210
Rp1211
tp1212
a(S'skorokhod problem'
p1213
g2
(g6
S't\xe8H\xb8\xcc\xd3\xca?'
p1214
tp1215
Rp1216
tp1217
a(S'ffordd pen llech'
p1218
g2
(g6
S'4$\xf3\xfe \xd2\xca?'
p1219
tp1220
Rp1221
tp1222
a(S'gradient discretisation method'
p1223
g2
(g6
S'\x98\x85*\xd1\xdc\xd0\xca?'
p1224
tp1225
Rp1226
tp1227
a(S'stochastic quantization'
p1228
g2
(g6
S'y\x9d#\xcep\xd0\xca?'
p1229
tp1230
Rp1231
tp1232
a(S'deterministic noise'
p1233
g2
(g6
S'\xbfY\xaeG\xd5\xbb\xca?'
p1234
tp1235
Rp1236
tp1237
a(S'sharnbrook railway station'
p1238
g2
(g6
S'E\x08\xd8\xb6\x9b\x9d\xca?'
p1239
tp1240
Rp1241
tp1242
a(S'andrzej piotr ruszczy\xc5\x84ski'
p1243
g2
(g6
S'a\x03\xc2\xabN\x8e\xca?'
p1244
tp1245
Rp1246
tp1247
a(S'wolfe conditions'
p1248
g2
(g6
S'(\xdf]\x14\xa2\x84\xca?'
p1249
tp1250
Rp1251
tp1252
a(S'maratona dles dolomites'
p1253
g2
(g6
S'\xe9Z\xcd^\xf1|\xca?'
p1254
tp1255
Rp1256
tp1257
a(S'ornstein\xe2\x80\x93uhlenbeck operator'
p1258
g2
(g6
S'\x0c\xeaUu\xb5y\xca?'
p1259
tp1260
Rp1261
tp1262
a(S'top of descent'
p1263
g2
(g6
S'\x89Zt\xf2\xdag\xca?'
p1264
tp1265
Rp1266
tp1267
a(S'learning'
p1268
g2
(g6
S'/\xa5\xde\xb8 V\xca?'
p1269
tp1270
Rp1271
tp1272
a(S'population-based incremental learning'
p1273
g2
(g6
S'\xf9\x05\xa6H\x94S\xca?'
p1274
tp1275
Rp1276
tp1277
a(S'stochastic simulation'
p1278
g2
(g6
S'C\x95\xc5\xcb]L\xca?'
p1279
tp1280
Rp1281
tp1282
a(S'it\xc3\xb4 calculus'
p1283
g2
(g6
S'\xfen=X\xdaK\xca?'
p1284
tp1285
Rp1286
tp1287
a(S'adjoint state method'
p1288
g2
(g6
S'9\xbb8\x86\x1dJ\xca?'
p1289
tp1290
Rp1291
tp1292
a(S'pressure-gradient force'
p1293
g2
(g6
S"'?\t\xe6\x13J\xca?"
p1294
tp1295
Rp1296
tp1297
a(S'peter e. caines'
p1298
g2
(g6
S'\xa0syX\xdaG\xca?'
p1299
tp1300
Rp1301
tp1302
a(S'nigel g. stocks'
p1303
g2
(g6
S'G\xd6hCsG\xca?'
p1304
tp1305
Rp1306
tp1307
a(S'subgradient method'
p1308
g2
(g6
S'\xab\x08AQL;\xca?'
p1309
tp1310
Rp1311
tp1312
a(S'least squares'
p1313
g2
(g6
S'\\\xe6~\x9d\n6\xca?'
p1314
tp1315
Rp1316
tp1317
a(S'rectifier (neural networks)'
p1318
g2
(g6
S'\xa3a?S\x96+\xca?'
p1319
tp1320
Rp1321
tp1322
a(S'harold j. kushner'
p1323
g2
(g6
S'!\xc8d\xbc\xb2&\xca?'
p1324
tp1325
Rp1326
tp1327
a(S'electrochemical gradient'
p1328
g2
(g6
S'\x02\xf6\xb5f\x16"\xca?'
p1329
tp1330
Rp1331
tp1332
a(S'vector generalized linear model'
p1333
g2
(g6
S'\xe6O\xda\\l\x1d\xca?'
p1334
tp1335
Rp1336
tp1337
a(S'regularization (mathematics)'
p1338
g2
(g6
S'\xb7\xeb\x02F\xe1\x1c\xca?'
p1339
tp1340
Rp1341
tp1342
a(S'distribution learning theory'
p1343
g2
(g6
S'\xff\xde\x18ji\x18\xca?'
p1344
tp1345
Rp1346
tp1347
a(S'active transport'
p1348
g2
(g6
S')\xb7JH\xb4\t\xca?'
p1349
tp1350
Rp1351
tp1352
a(S'chemiosmosis'
p1353
g2
(g6
S'\x9f\xd7\xcfp:\xf9\xc9?'
p1354
tp1355
Rp1356
tp1357
a(S'inside\xe2\x80\x93outside algorithm'
p1358
g2
(g6
S'~\x80? \xa0\xe2\xc9?'
p1359
tp1360
Rp1361
tp1362
a(S'pcgs'
p1363
g2
(g6
S'\r\x10\xfc\xbb\x99\xde\xc9?'
p1364
tp1365
Rp1366
tp1367
a(S'sample-continuous process'
p1368
g2
(g6
S'\xda`\x93qD\xd8\xc9?'
p1369
tp1370
Rp1371
tp1372
a(S'learning to rank'
p1373
g2
(g6
S'\x94C\xbe\xd3\x98\xd2\xc9?'
p1374
tp1375
Rp1376
tp1377
a(S'del'
p1378
g2
(g6
S'\xa0\xfb\xee\x91\xfe\xcd\xc9?'
p1379
tp1380
Rp1381
tp1382
a(S'ettingshausen effect'
p1383
g2
(g6
S'\x9c\x0f\xc5l\x92\xc7\xc9?'
p1384
tp1385
Rp1386
tp1387
a(S'runge\xe2\x80\x93kutta method (sde)'
p1388
g2
(g6
S'\x12>V\x1d\xc2\xae\xc9?'
p1389
tp1390
Rp1391
tp1392
a(S'port de pailh\xc3\xa8res'
p1393
g2
(g6
S'zU\xee\x1a\xf0\xad\xc9?'
p1394
tp1395
Rp1396
tp1397
a(S'stochastics and dynamics'
p1398
g2
(g6
S'\xa4F~\xff\xd1\xaa\xc9?'
p1399
tp1400
Rp1401
tp1402
a(S'variable neighborhood search'
p1403
g2
(g6
S'm\xc3J\x02\xa4\xa7\xc9?'
p1404
tp1405
Rp1406
tp1407
a(S'scalar potential'
p1408
g2
(g6
S'\xdeP\x9d\x8e\x0c\xa5\xc9?'
p1409
tp1410
Rp1411
tp1412
a(S'adaboost'
p1413
g2
(g6
S'\xac\xe1*+\xcd\x9f\xc9?'
p1414
tp1415
Rp1416
tp1417
a(S'kernel perceptron'
p1418
g2
(g6
S'\x06\\\xd93\x0e\x99\xc9?'
p1419
tp1420
Rp1421
tp1422
a(S'royal descent'
p1423
g2
(g6
S'\x8a\x17\xb4\x81\x17\x97\xc9?'
p1424
tp1425
Rp1426
tp1427
a(S'mm algorithm'
p1428
g2
(g6
S'\x14\xaec\x12\xdew\xc9?'
p1429
tp1430
Rp1431
tp1432
a(S'rendleman\xe2\x80\x93bartter model'
p1433
g2
(g6
S'vK\xcap\x84[\xc9?'
p1434
tp1435
Rp1436
tp1437
a(S'stability (learning theory)'
p1438
g2
(g6
S'2\xdf\xb8\xc9|X\xc9?'
p1439
tp1440
Rp1441
tp1442
a(S'libsvm'
p1443
g2
(g6
S'\xba\xa8\x08\x8e\xfaU\xc9?'
p1444
tp1445
Rp1446
tp1447
a(S'service-learning'
p1448
g2
(g6
S'\xb5\x8f9<LU\xc9?'
p1449
tp1450
Rp1451
tp1452
a(S'edge detection'
p1453
g2
(g6
S'Q\xa5\x19\xe6\xe3B\xc9?'
p1454
tp1455
Rp1456
tp1457
a(S'malliavin calculus'
p1458
g2
(g6
S'&\xc5V\xec#;\xc9?'
p1459
tp1460
Rp1461
tp1462
a(S'learning plan'
p1463
g2
(g6
S'o\x97\xb1\x19\xa69\xc9?'
p1464
tp1465
Rp1466
tp1467
a(S'unsupervised learning'
p1468
g2
(g6
S'\xf5X\xb4\x10]7\xc9?'
p1469
tp1470
Rp1471
tp1472
a(S'anatoliy skorokhod'
p1473
g2
(g6
S'\x13#\xdcQp"\xc9?'
p1474
tp1475
Rp1476
tp1477
a(S'balanced flow'
p1478
g2
(g6
S'\x97p#\xcc\xa5\x18\xc9?'
p1479
tp1480
Rp1481
tp1482
a(S'gamess (us)'
p1483
g2
(g6
S'}>\x05\xe7\xa4\x18\xc9?'
p1484
tp1485
Rp1486
tp1487
a(S'rule of three (aeronautics)'
p1488
g2
(g6
S'\x1d:c\r\xe2\x12\xc9?'
p1489
tp1490
Rp1491
tp1492
a(S'learning cell'
p1493
g2
(g6
S'\xca\xca\x9c\xdd\x01\x06\xc9?'
p1494
tp1495
Rp1496
tp1497
a(S'ion transporter'
p1498
g2
(g6
S'\x86\x8fN\x1e\xa7\x05\xc9?'
p1499
tp1500
Rp1501
tp1502
a(S'long short-term memory'
p1503
g2
(g6
S'\xd5\xab\xf2wZ\x04\xc9?'
p1504
tp1505
Rp1506
tp1507
a(S'hyper basis function network'
p1508
g2
(g6
S'&\xdb\x1e\xbf\x18\xfc\xc8?'
p1509
tp1510
Rp1511
tp1512
a.