(lp0
(S'student'
p1
cnumpy.core.multiarray
scalar
p2
(cnumpy
dtype
p3
(S'f8'
p4
I0
I1
tp5
Rp6
(I3
S'<'
p7
NNNI-1
I-1
I0
tp8
bS'\xfd\xff\xff\xff\xff\xff\xef?'
p9
tp10
Rp11
tp12
a(S'secondary school'
p13
g2
(g6
S'q\x11\x9d\\N\xb7\xe4?'
p14
tp15
Rp16
tp17
a(S'secondary education'
p18
g2
(g6
S'O\x0b\x10\x89\xfdQ\xe3?'
p19
tp20
Rp21
tp22
a(S'educational stage'
p23
g2
(g6
S'\xd5\xba\x05\x9f\x08y\xe2?'
p24
tp25
Rp26
tp27
a(S'education in the united states'
p28
g2
(g6
S'8\xdeV\x0faf\xe2?'
p29
tp30
Rp31
tp32
a(S'education in sweden'
p33
g2
(g6
S'-\x92\xf3\xe1{\xfd\xe1?'
p34
tp35
Rp36
tp37
a(S'freshman'
p38
g2
(g6
S'\x94i\xbc4\xaa\xd8\xe1?'
p39
tp40
Rp41
tp42
a(S'education in canada'
p43
g2
(g6
S'\xe0\xfa\xb7{\xa4\xa0\xe1?'
p44
tp45
Rp46
tp47
a(S'sixth grade'
p48
g2
(g6
S'\xb0\x13t\xb7\xbc[\xe1?'
p49
tp50
Rp51
tp52
a(S'primary education'
p53
g2
(g6
S'\xc4Oe\xcau[\xe1?'
p54
tp55
Rp56
tp57
a(S'twelfth grade'
p58
g2
(g6
S'\x81\xe9\tj\xd4\x13\xe1?'
p59
tp60
Rp61
tp62
a(S'education in serbia'
p63
g2
(g6
S'\x7f\xf6$!\xdb\xe4\xe0?'
p64
tp65
Rp66
tp67
a(S'eleventh grade'
p68
g2
(g6
S'\xa99\xd3&#\xa5\xe0?'
p69
tp70
Rp71
tp72
a(S"students' union"
p73
g2
(g6
S'\x98I\xfeCDK\xe0?'
p74
tp75
Rp76
tp77
a(S'education in the republic of ireland'
p78
g2
(g6
S'\xcc\xd7\xd3\xb0\xd1\x01\xe0?'
p79
tp80
Rp81
tp82
a(S'middle school'
p83
g2
(g6
S'\xdfq\x06|\xb6\xd0\xdf?'
p84
tp85
Rp86
tp87
a(S'international student'
p88
g2
(g6
S'\\\xa1\xd0\xf35\x8e\xdf?'
p89
tp90
Rp91
tp92
a(S'tenth grade'
p93
g2
(g6
S'\x0f\xd1\x9a\xb0Hb\xdf?'
p94
tp95
Rp96
tp97
a(S'state school'
p98
g2
(g6
S'1Z\x06_%M\xdf?'
p99
tp100
Rp101
tp102
a(S'secondary education in japan'
p103
g2
(g6
S'\xe2H\xbe\x8d\r\xf5\xde?'
p104
tp105
Rp106
tp107
a(S'education in japan'
p108
g2
(g6
S'\xc0\xf1?\x16\xe6\xd0\xde?'
p109
tp110
Rp111
tp112
a(S'education in the philippines'
p113
g2
(g6
S'\x87\xf4~\xe4\xc9\xca\xde?'
p114
tp115
Rp116
tp117
a(S'education in bulgaria'
p118
g2
(g6
S'\xf1\xef\xbf\x88\xa0\xa9\xde?'
p119
tp120
Rp121
tp122
a(S'education in singapore'
p123
g2
(g6
S'\xe3\xe4S\xad\xfb\x9c\xde?'
p124
tp125
Rp126
tp127
a(S'student voice'
p128
g2
(g6
S'\xdc\x84\xc4\xb6|c\xde?'
p129
tp130
Rp131
tp132
a(S'education in china'
p133
g2
(g6
S'\xe7\xd6\xdc$\x19&\xde?'
p134
tp135
Rp136
tp137
a(S'education in hungary'
p138
g2
(g6
S'\xfd\x00\xe61\xe2\x11\xde?'
p139
tp140
Rp141
tp142
a(S'student activism'
p143
g2
(g6
S'3\xe9\x10\xf3B\xc0\xdd?'
p144
tp145
Rp146
tp147
a(S'education in croatia'
p148
g2
(g6
S'\xaa\xf2\x9f?\x16O\xdd?'
p149
tp150
Rp151
tp152
a(S'seventh grade'
p153
g2
(g6
S'H\xba3\xadJ\x16\xdd?'
p154
tp155
Rp156
tp157
a(S'education in nigeria'
p158
g2
(g6
S'\x03\x1c\x1er\x7f\x07\xdd?'
p159
tp160
Rp161
tp162
a(S'education in jamaica'
p163
g2
(g6
S',d\xf7\xbe\xfc\xe2\xdc?'
p164
tp165
Rp166
tp167
a(S'primary education in the united states'
p168
g2
(g6
S'\xa6<W\xb5\xac\xd5\xdc?'
p169
tp170
Rp171
tp172
a(S'belgrade-brooten-elrosa school district'
p173
g2
(g6
S'\xf7\xdd\x81\x15V\xc4\xdc?'
p174
tp175
Rp176
tp177
a(S'education in the palestinian territories'
p178
g2
(g6
S'67\xbc\x14B\xb6\xdc?'
p179
tp180
Rp181
tp182
a(S'education in germany'
p183
g2
(g6
S'\x02D/\xd7\xf9\xa4\xdc?'
p184
tp185
Rp186
tp187
a(S'education in vietnam'
p188
g2
(g6
S'\xbc\xdd\xfen\x83\xa3\xdc?'
p189
tp190
Rp191
tp192
a(S'education in iceland'
p193
g2
(g6
S'X\xb8\xe4\x9a\xbe\x80\xdc?'
p194
tp195
Rp196
tp197
a(S'ninth grade'
p198
g2
(g6
S'\r\x1c\xbb\x1a\xd6Z\xdc?'
p199
tp200
Rp201
tp202
a(S'education in russia'
p203
g2
(g6
S'd\xa1\x04\xf8\xd4W\xdc?'
p204
tp205
Rp206
tp207
a(S'education in malta'
p208
g2
(g6
S'\x98-\xd6\x18JD\xdc?'
p209
tp210
Rp211
tp212
a(S'education in turkey'
p213
g2
(g6
S'\x06\xae\x89Z\x83C\xdc?'
p214
tp215
Rp216
tp217
a(S'education in the british virgin islands'
p218
g2
(g6
S'l&{\xf0\x8b$\xdc?'
p219
tp220
Rp221
tp222
a(S'education in norway'
p223
g2
(g6
S'\x19\xc3\x86e\x1d\x1e\xdc?'
p224
tp225
Rp226
tp227
a(S'education in finland'
p228
g2
(g6
S'\xa8-\xb7\xf6\xe4\x10\xdc?'
p229
tp230
Rp231
tp232
a(S'morris county school of technology'
p233
g2
(g6
S'\xb1\x10+u\xb2\x0e\xdc?'
p234
tp235
Rp236
tp237
a(S'education in belgium'
p238
g2
(g6
S'FFv\x97\x8d\t\xdc?'
p239
tp240
Rp241
tp242
a(S'st. theresa catholic secondary school'
p243
g2
(g6
S'p\xd2\xc6\x85\xd9\xdc\xdb?'
p244
tp245
Rp246
tp247
a(S'moscrop secondary school'
p248
g2
(g6
S'K\xdb\x82\x0b\xfa\xc1\xdb?'
p249
tp250
Rp251
tp252
a(S'academia brit\xc3\xa1nica cuscatleca'
p253
g2
(g6
S'\xc57\xf9\xad\x82\xba\xdb?'
p254
tp255
Rp256
tp257
a(S'super senior'
p258
g2
(g6
S'\x16c\t\xedq\xb0\xdb?'
p259
tp260
Rp261
tp262
a(S'education in mauritius'
p263
g2
(g6
S'\x94YpqL\x9d\xdb?'
p264
tp265
Rp266
tp267
a(S'euroa secondary college'
p268
g2
(g6
S'P\xb8H\xfd\xc0y\xdb?'
p269
tp270
Rp271
tp272
a(S'student migration'
p273
g2
(g6
S'\xb3R\x96\xb8~s\xdb?'
p274
tp275
Rp276
tp277
a(S'education in the netherlands'
p278
g2
(g6
S'\xf2\xb3@oCa\xdb?'
p279
tp280
Rp281
tp282
a(S'education'
p283
g2
(g6
S'\xc5I,%q?\xdb?'
p284
tp285
Rp286
tp287
a(S'secondary education in singapore'
p288
g2
(g6
S'\xd7pge\x9c0\xdb?'
p289
tp290
Rp291
tp292
a(S'education in egypt'
p293
g2
(g6
S"Q\xa0\xce\xcc\x8f'\xdb?"
p294
tp295
Rp296
tp297
a(S'education in portugal'
p298
g2
(g6
S'8P\xc2\xf4\xcf\x10\xdb?'
p299
tp300
Rp301
tp302
a(S'higher education in the united states'
p303
g2
(g6
S'=\xb8\x00\xed\xc4\xff\xda?'
p304
tp305
Rp306
tp307
a(S'senior (education)'
p308
g2
(g6
S'~d\x8cy{\xe9\xda?'
p309
tp310
Rp311
tp312
a(S'secondary education in the united states'
p313
g2
(g6
S"'\xf4[\xbc\xb7\xe6\xda?"
p314
tp315
Rp316
tp317
a(S'education in syria'
p318
g2
(g6
S'\x01o\xadA}\xe6\xda?'
p319
tp320
Rp321
tp322
a(S'education in taiwan'
p323
g2
(g6
S'\x9c\xb7\xefUh\xe5\xda?'
p324
tp325
Rp326
tp327
a(S'education in scotland in the twentieth century'
p328
g2
(g6
S'\xd2\xef\xaf)\xc2\xd5\xda?'
p329
tp330
Rp331
tp332
a(S'ontario academic credit'
p333
g2
(g6
S'\xbdK\x9e\x07X\xd4\xda?'
p334
tp335
Rp336
tp337
a(S'education in south korea'
p338
g2
(g6
S'I\x14\x1d\x80m\xd2\xda?'
p339
tp340
Rp341
tp342
a(S'higher education in japan'
p343
g2
(g6
S'\x01W\x8bl\x16\xcc\xda?'
p344
tp345
Rp346
tp347
a(S'education in ivory coast'
p348
g2
(g6
S'\x04\xd5\xed\xbf\xab\xc8\xda?'
p349
tp350
Rp351
tp352
a(S'education in guyana'
p353
g2
(g6
S'\xffO\x13/\xa9\xb0\xda?'
p354
tp355
Rp356
tp357
a(S'james madison preparatory school'
p358
g2
(g6
S'S\xf6\xc1^\xcc\xad\xda?'
p359
tp360
Rp361
tp362
a(S'education in chile'
p363
g2
(g6
S'\xe5o\xf9>\xbd\xa4\xda?'
p364
tp365
Rp366
tp367
a(S'education in ontario'
p368
g2
(g6
S'2$]\x1dM\x9c\xda?'
p369
tp370
Rp371
tp372
a(S'education in poland'
p373
g2
(g6
S'uS\xac\xc9\xf8\x8b\xda?'
p374
tp375
Rp376
tp377
a(S'education in indonesia'
p378
g2
(g6
S'\x9fu]3\xa1\x86\xda?'
p379
tp380
Rp381
tp382
a(S'education in gabon'
p383
g2
(g6
S'*\x8e\x83\xf5\xedx\xda?'
p384
tp385
Rp386
tp387
a(S"list of ontario students' associations"
p388
g2
(g6
S'h\xd1\xc6\x18\x19j\xda?'
p389
tp390
Rp391
tp392
a(S'education in ethiopia'
p393
g2
(g6
S'\xdcB<\x93tb\xda?'
p394
tp395
Rp396
tp397
a(S"list of canadian students' associations"
p398
g2
(g6
S'\xfa\x82\xedW\x03Q\xda?'
p399
tp400
Rp401
tp402
a(S'education in thailand'
p403
g2
(g6
S'\xceF\xf5\xb43I\xda?'
p404
tp405
Rp406
tp407
a(S'wayzata public schools'
p408
g2
(g6
S'=\x95\xb7\x7f\rG\xda?'
p409
tp410
Rp411
tp412
a(S'education in england'
p413
g2
(g6
S'\x88\x9e\xd2e\xb2B\xda?'
p414
tp415
Rp416
tp417
a(S'academic grading in the united states'
p418
g2
(g6
S'\xa3!\xd6om5\xda?'
p419
tp420
Rp421
tp422
a(S'havergal college'
p423
g2
(g6
S'\x0f,(\xa6\x18*\xda?'
p424
tp425
Rp426
tp427
a(S'education in tanzania'
p428
g2
(g6
S'\xa29emH\x1d\xda?'
p429
tp430
Rp431
tp432
a(S'taxonomy of schools'
p433
g2
(g6
S'^\xf7\xd3\xf4\x1b\x1d\xda?'
p434
tp435
Rp436
tp437
a(S'village school (great neck, new york)'
p438
g2
(g6
S'\xec|\x95\xde\xa6\x18\xda?'
p439
tp440
Rp441
tp442
a(S'student unionism in finland'
p443
g2
(g6
S'2}LX\xf0\x13\xda?'
p444
tp445
Rp446
tp447
a(S'brookland school district'
p448
g2
(g6
S'\xe6\x90\xb3\x9e\xc0\r\xda?'
p449
tp450
Rp451
tp452
a(S'education in austria'
p453
g2
(g6
S'.\xf7\xc1ii\n\xda?'
p454
tp455
Rp456
tp457
a(S'school'
p458
g2
(g6
S'\x9c \x8d\xc55\xff\xd9?'
p459
tp460
Rp461
tp462
a(S'education in lithuania'
p463
g2
(g6
S'G0\xeb\x10\x81\xf4\xd9?'
p464
tp465
Rp466
tp467
a(S'sedomocha middle school'
p468
g2
(g6
S'\x9e\x03V\xc5\xa4\xed\xd9?'
p469
tp470
Rp471
tp472
a(S'traditional education'
p473
g2
(g6
S'\xbb\x87\x98;o\xe9\xd9?'
p474
tp475
Rp476
tp477
a(S'academic institution'
p478
g2
(g6
S'#bc>>\xe8\xd9?'
p479
tp480
Rp481
tp482
a(S'gifted education programme (singapore)'
p483
g2
(g6
S'\xf4\xc4\xcf\xf0(\xdc\xd9?'
p484
tp485
Rp486
tp487
a(S'education in kazakhstan'
p488
g2
(g6
S'\n\xba5\x89\xe2\xdb\xd9?'
p489
tp490
Rp491
tp492
a(S'bachelor of education'
p493
g2
(g6
S'\x98Y\x0c\xb8B\xd7\xd9?'
p494
tp495
Rp496
tp497
a(S'study abroad'
p498
g2
(g6
S'\x1a\x19LP7\xd3\xd9?'
p499
tp500
Rp501
tp502
a(S'senior secondary education'
p503
g2
(g6
S'\xd1]\xcdJo\xce\xd9?'
p504
tp505
Rp506
tp507
a(S'education in ukraine'
p508
g2
(g6
S'lg\xcc\x96\xb4\xc4\xd9?'
p509
tp510
Rp511
tp512
a(S'san andrea school'
p513
g2
(g6
S'L\xf6\xeb\xcd\x99\xbc\xd9?'
p514
tp515
Rp516
tp517
a(S'non-traditional student'
p518
g2
(g6
S'\xe9k\x8e\xe0\xde\xb0\xd9?'
p519
tp520
Rp521
tp522
a(S'narayanganj high school'
p523
g2
(g6
S'7O\xc9/\xdf\xaf\xd9?'
p524
tp525
Rp526
tp527
a(S'student society'
p528
g2
(g6
S'\xb0\x83\xf8\xf2\xfe\xa6\xd9?'
p529
tp530
Rp531
tp532
a(S'florida comprehensive assessment test'
p533
g2
(g6
S'\x96\xf9;l\xd8\x9e\xd9?'
p534
tp535
Rp536
tp537
a(S'higher education in british columbia'
p538
g2
(g6
S'\xe9\xb4P\xde\xc5\x9d\xd9?'
p539
tp540
Rp541
tp542
a(S'junior (education)'
p543
g2
(g6
S'\xf9\xdbk\xf4\xb7\x95\xd9?'
p544
tp545
Rp546
tp547
a(S'year twelve'
p548
g2
(g6
S'2\xba\x9d\xb3b\x94\xd9?'
p549
tp550
Rp551
tp552
a(S'j.j. mcclain high school'
p553
g2
(g6
S'\xa1?\xcc\x95\xe3\x93\xd9?'
p554
tp555
Rp556
tp557
a(S'education in jordan'
p558
g2
(g6
S'i3\x98\x85\x86\x91\xd9?'
p559
tp560
Rp561
tp562
a(S'education in iran'
p563
g2
(g6
S'\xde\xebX\xa6\xc1\x90\xd9?'
p564
tp565
Rp566
tp567
a(S'atlantic hall'
p568
g2
(g6
S'e\xe95$d\x8c\xd9?'
p569
tp570
Rp571
tp572
a(S'year ten'
p573
g2
(g6
S'C\xfaSn\x01\x8b\xd9?'
p574
tp575
Rp576
tp577
a(S'education in saskatchewan'
p578
g2
(g6
S'k\xcd\xb1y\xc9\x89\xd9?'
p579
tp580
Rp581
tp582
a(S'education in myanmar'
p583
g2
(g6
S'y\xa7\xca\xb7%\x86\xd9?'
p584
tp585
Rp586
tp587
a(S'education in gjilan'
p588
g2
(g6
S"UrO'\xa5\x85\xd9?"
p589
tp590
Rp591
tp592
a(S'narrabundah college'
p593
g2
(g6
S'k\xb8}@\x98{\xd9?'
p594
tp595
Rp596
tp597
a(S'education in hong kong'
p598
g2
(g6
S'(\xee\xe9Q\xfbz\xd9?'
p599
tp600
Rp601
tp602
a(S'education in australia'
p603
g2
(g6
S'q\x9c]\x98\xc5o\xd9?'
p604
tp605
Rp606
tp607
a(S'special education'
p608
g2
(g6
S'*\x89\xf0\x0b\x88g\xd9?'
p609
tp610
Rp611
tp612
a(S'penn state college of education'
p613
g2
(g6
S'\xce\x15\xe7\x87\n]\xd9?'
p614
tp615
Rp616
tp617
a(S'st. margaret of cortona school'
p618
g2
(g6
S'\x89\x9e\xcdd\xedX\xd9?'
p619
tp620
Rp621
tp622
a(S'voluntary student unionism'
p623
g2
(g6
S"\n|'7\x89V\xd9?"
p624
tp625
Rp626
tp627
a(S'gymnasium (school)'
p628
g2
(g6
S'\xc5\x0b,\x87\xf7@\xd9?'
p629
tp630
Rp631
tp632
a(S"st. joseph's boys' school, jalandhar"
p633
g2
(g6
S'\xccsF=\x97?\xd9?'
p634
tp635
Rp636
tp637
a(S'education in romania'
p638
g2
(g6
S'\xe8;)\xeb\xe21\xd9?'
p639
tp640
Rp641
tp642
a(S'mountain secondary school (hamilton)'
p643
g2
(g6
S' \x83X\x7f8!\xd9?'
p644
tp645
Rp646
tp647
a(S'banani international secondary school'
p648
g2
(g6
S'#\xeeP\xa1\x17\x14\xd9?'
p649
tp650
Rp651
tp652
a(S'cegep'
p653
g2
(g6
S'9<\xac\xe2+\x13\xd9?'
p654
tp655
Rp656
tp657
a(S'education in north korea'
p658
g2
(g6
S'\xe1x\xc4\xe4\xc9\n\xd9?'
p659
tp660
Rp661
tp662
a(S'student exchange program'
p663
g2
(g6
S']\xfe\x8a\xae#\n\xd9?'
p664
tp665
Rp666
tp667
a(S'united junior/senior high school (pennsylvania)'
p668
g2
(g6
S'\xe0\xfdF,\xa7\x00\xd9?'
p669
tp670
Rp671
tp672
a(S'student governments in the united states'
p673
g2
(g6
S'\xa4,\xad\xb4\x12\xee\xd8?'
p674
tp675
Rp676
tp677
a(S'abc international school'
p678
g2
(g6
S'Ok\x14\x02\xfb\xed\xd8?'
p679
tp680
Rp681
tp682
a(S'kurunjang secondary college'
p683
g2
(g6
S'tV\xb8<\xa4\xe8\xd8?'
p684
tp685
Rp686
tp687
a(S'no child left behind act'
p688
g2
(g6
S'\xaf\xeb\xf5\xa9c\xe7\xd8?'
p689
tp690
Rp691
tp692
a(S'bentley park college'
p693
g2
(g6
S'\x1bza]G\xe7\xd8?'
p694
tp695
Rp696
tp697
a(S'education in zimbabwe'
p698
g2
(g6
S'O\xbc\xa3\x08\xc2\xe4\xd8?'
p699
tp700
Rp701
tp702
a(S'heathmont college'
p703
g2
(g6
S'\xbd\x8b\x133\xa9\xda\xd8?'
p704
tp705
Rp706
tp707
a(S'santa catalina school'
p708
g2
(g6
S'`\xa9/\x06\xa5\xd0\xd8?'
p709
tp710
Rp711
tp712
a(S'narayanganj bar academy'
p713
g2
(g6
S'\x1d\x96\xdd%\x10\xc8\xd8?'
p714
tp715
Rp716
tp717
a(S'massachusetts academy of math and science at wpi'
p718
g2
(g6
S'y\xaf\xaee\x8f\xc0\xd8?'
p719
tp720
Rp721
tp722
a(S'education in belize'
p723
g2
(g6
S'\x99\xc9\xa5\xf31\xb8\xd8?'
p724
tp725
Rp726
tp727
a(S'first grade'
p728
g2
(g6
S'\xdd\xa9C\x84 \xb6\xd8?'
p729
tp730
Rp731
tp732
a(S'northern york county school district'
p733
g2
(g6
S'e\xa0\x92\x16\xa7\xb2\xd8?'
p734
tp735
Rp736
tp737
a(S'education in cambodia'
p738
g2
(g6
S'\xda@\xc1X\x95\xb1\xd8?'
p739
tp740
Rp741
tp742
a(S'bristol-plymouth regional technical school'
p743
g2
(g6
S'\x9e\xf8\xb7f\xd7\xad\xd8?'
p744
tp745
Rp746
tp747
a(S'vida charter school'
p748
g2
(g6
S'T\xac\xbc\x9e\xaa\xad\xd8?'
p749
tp750
Rp751
tp752
a(S'education in scotland'
p753
g2
(g6
S'\x85\x06\x83\xa7\x05\xac\xd8?'
p754
tp755
Rp756
tp757
a(S'sixth form'
p758
g2
(g6
S'\x94@\x94\x94\x92\xab\xd8?'
p759
tp760
Rp761
tp762
a(S'education in quebec'
p763
g2
(g6
S'\xc8\x10%b\xa3\xa3\xd8?'
p764
tp765
Rp766
tp767
a(S'coudersport area junior/senior high school'
p768
g2
(g6
S'B]Y%\xfe\xa1\xd8?'
p769
tp770
Rp771
tp772
a(S"international students' day"
p773
g2
(g6
S'3\x0f%\x1f\x17\x9f\xd8?'
p774
tp775
Rp776
tp777
a(S'fourth grade'
p778
g2
(g6
S'\x0e\xe6 >\xf1\x9e\xd8?'
p779
tp780
Rp781
tp782
a(S'free education'
p783
g2
(g6
S'\xe1t\x80\x8b\xdc\x9a\xd8?'
p784
tp785
Rp786
tp787
a(S'secondary education in cyprus'
p788
g2
(g6
S'hZ"\xcc\x19\x9a\xd8?'
p789
tp790
Rp791
tp792
a(S'morgan girls high school'
p793
g2
(g6
S'\xe6\x11x\xc18\x8f\xd8?'
p794
tp795
Rp796
tp797
a(S'central york school district'
p798
g2
(g6
S'\x88\xae\xca\xe1\xc3\x8d\xd8?'
p799
tp800
Rp801
tp802
a(S'midd-west high school'
p803
g2
(g6
S'\xb7m\xea\xff\x16\x8d\xd8?'
p804
tp805
Rp806
tp807
a(S'tertiary education in new zealand'
p808
g2
(g6
S'c!\xc8\xc8\x84\x88\xd8?'
p809
tp810
Rp811
tp812
a(S'central dauphin school district'
p813
g2
(g6
S'\x85\x86\x9d\xce\xc2\x87\xd8?'
p814
tp815
Rp816
tp817
a(S'new era high school'
p818
g2
(g6
S'\xbb\\\x19KL\x86\xd8?'
p819
tp820
Rp821
tp822
a(S'primary school'
p823
g2
(g6
S'\xa6\xafO#\x10\x80\xd8?'
p824
tp825
Rp826
tp827
a(S'student job search'
p828
g2
(g6
S'\xd8\xdfW\xfa\xad|\xd8?'
p829
tp830
Rp831
tp832
a(S'graduate school'
p833
g2
(g6
S'\x91_\xddw\xcex\xd8?'
p834
tp835
Rp836
tp837
a(S'connellsville area senior high school'
p838
g2
(g6
S'+\xef\xf1x*s\xd8?'
p839
tp840
Rp841
tp842
a(S'educational inequality'
p843
g2
(g6
S'\xebw\xe7\x9d\xa9q\xd8?'
p844
tp845
Rp846
tp847
a(S'student affairs'
p848
g2
(g6
S'D\xcf\x18\xef\xd5p\xd8?'
p849
tp850
Rp851
tp852
a(S'education in ghana'
p853
g2
(g6
S'\xe0\xbaU\xb5\x8da\xd8?'
p854
tp855
Rp856
tp857
a(S'opportunity school'
p858
g2
(g6
S'\x94%0?N`\xd8?'
p859
tp860
Rp861
tp862
a(S'primary school leaving examination'
p863
g2
(g6
S'\x88\xd9Jd\n_\xd8?'
p864
tp865
Rp866
tp867
a(S'student benefits'
p868
g2
(g6
S'\x81\xb8M8\xfb^\xd8?'
p869
tp870
Rp871
tp872
a(S'higher education'
p873
g2
(g6
S'\xe08\xeakMS\xd8?'
p874
tp875
Rp876
tp877
a(S'cowanesque valley junior senior high school'
p878
g2
(g6
S'6\xb6\xd8\xfbPO\xd8?'
p879
tp880
Rp881
tp882
a(S"irish second\xe2\x80\x93level students' union"
p883
g2
(g6
S'1\x82\xf7A\xf0C\xd8?'
p884
tp885
Rp886
tp887
a(S"d'youville college"
p888
g2
(g6
S'\x92\xb7\x03\xf9QC\xd8?'
p889
tp890
Rp891
tp892
a(S'wellsboro area high school'
p893
g2
(g6
S'Dx\x8a{\x14?\xd8?'
p894
tp895
Rp896
tp897
a(S'line mountain jr./sr. high school'
p898
g2
(g6
S'/\xda\xc8\x1di>\xd8?'
p899
tp900
Rp901
tp902
a(S'seven generations charter school'
p903
g2
(g6
S'\x10\xb2\x8075=\xd8?'
p904
tp905
Rp906
tp907
a(S'education in laos (post-1990)'
p908
g2
(g6
S'\x83O\x83/u7\xd8?'
p909
tp910
Rp911
tp912
a(S'17th november 2014 global protests'
p913
g2
(g6
S'\x1a\xa6\xd2\x15\xb43\xd8?'
p914
tp915
Rp916
tp917
a(S'bard high school early college'
p918
g2
(g6
S'z\xd1\x19\x9e\x073\xd8?'
p919
tp920
Rp921
tp922
a(S'education in argentina'
p923
g2
(g6
S'\xb60n&t2\xd8?'
p924
tp925
Rp926
tp927
a(S'murry bergtraum high school'
p928
g2
(g6
S'\x95\xc1\xe7\xc7y)\xd8?'
p929
tp930
Rp931
tp932
a(S'wild wood high school'
p933
g2
(g6
S'r\x06K\xbf\x01(\xd8?'
p934
tp935
Rp936
tp937
a(S'undergraduate education'
p938
g2
(g6
S'\x1dVn\x1e?%\xd8?'
p939
tp940
Rp941
tp942
a(S'education in new zealand'
p943
g2
(g6
S'p\x0c\xb3\x8c\x17%\xd8?'
p944
tp945
Rp946
tp947
a(S'education in tunisia'
p948
g2
(g6
S'\x94\x1e\xcb\xea\x9f\x1d\xd8?'
p949
tp950
Rp951
tp952
a(S'susquenita high school'
p953
g2
(g6
S'\xb7\xf6\xfb\xb3\xf6\x18\xd8?'
p954
tp955
Rp956
tp957
a(S'third year'
p958
g2
(g6
S')\xe8etz\x14\xd8?'
p959
tp960
Rp961
tp962
a(S"d'overbroeck's college"
p963
g2
(g6
S'\xb0w_&w\x12\xd8?'
p964
tp965
Rp966
tp967
a(S'hughesville junior senior high school'
p968
g2
(g6
S'\xe8\xc5\xd9w6\x08\xd8?'
p969
tp970
Rp971
tp972
a(S'education in the comoros'
p973
g2
(g6
S'\x9c6\x85!\xf4\x03\xd8?'
p974
tp975
Rp976
tp977
a(S'york city school district'
p978
g2
(g6
S'?\x1e\xdb\x8b-\x03\xd8?'
p979
tp980
Rp981
tp982
a(S'education in bangladesh'
p983
g2
(g6
S'\x85\xfb\xd2\xa6\x13\x01\xd8?'
p984
tp985
Rp986
tp987
a(S'student unionism in australia'
p988
g2
(g6
S'\xfc\x9a\x1ew-\xf9\xd7?'
p989
tp990
Rp991
tp992
a(S'west shore school district'
p993
g2
(g6
S'3,\x00\xef\x97\xf8\xd7?'
p994
tp995
Rp996
tp997
a(S'junior college'
p998
g2
(g6
S'\xa0\x8d\x99\xf2~\xf1\xd7?'
p999
tp1000
Rp1001
tp1002
a(S'physical education'
p1003
g2
(g6
S'\xe0\x12xE \xef\xd7?'
p1004
tp1005
Rp1006
tp1007
a(S'international christian school (hong kong)'
p1008
g2
(g6
S'\xf7\xb4\x80\x82\xb9\xec\xd7?'
p1009
tp1010
Rp1011
tp1012
a(S'third grade'
p1013
g2
(g6
S'Ss\xf2_s\xea\xd7?'
p1014
tp1015
Rp1016
tp1017
a(S'elementary school (united states)'
p1018
g2
(g6
S'\x1e<\x11\xe1\xf2\xe4\xd7?'
p1019
tp1020
Rp1021
tp1022
a(S'zurich international school'
p1023
g2
(g6
S'(\x8b\xed\x0e\xed\xe4\xd7?'
p1024
tp1025
Rp1026
tp1027
a(S'university student retention'
p1028
g2
(g6
S'\xf5\xda\x93R,\xdf\xd7?'
p1029
tp1030
Rp1031
tp1032
a(S'federation of canadian secondary students'
p1033
g2
(g6
S'\xd7U\xd6\x90)\xdc\xd7?'
p1034
tp1035
Rp1036
tp1037
a(S'damai secondary school'
p1038
g2
(g6
S'S\xc1\xb1\x14\x15\xdb\xd7?'
p1039
tp1040
Rp1041
tp1042
a(S'red wing high school'
p1043
g2
(g6
S'\x01.\x89\xf2\xe2\xda\xd7?'
p1044
tp1045
Rp1046
tp1047
a(S'barton secondary school'
p1048
g2
(g6
S'\x99\xe6\x0b\xd7p\xda\xd7?'
p1049
tp1050
Rp1051
tp1052
a(S'canton junior senior high school'
p1053
g2
(g6
S'V\xb6\x04vD\xd7\xd7?'
p1054
tp1055
Rp1056
tp1057
a(S'shikellamy high school'
p1058
g2
(g6
S'\xca\x7f\x9do\xb5\xd1\xd7?'
p1059
tp1060
Rp1061
tp1062
a(S'eighth grade'
p1063
g2
(g6
S'\x14\xe2W\xdfH\xd0\xd7?'
p1064
tp1065
Rp1066
tp1067
a(S'national liaison committee for international students in australia'
p1068
g2
(g6
S'\xaa\x9d%\x84/\xcb\xd7?'
p1069
tp1070
Rp1071
tp1072
a(S'education in albania'
p1073
g2
(g6
S'w\x84w*\x14\xcb\xd7?'
p1074
tp1075
Rp1076
tp1077
a(S'national federation of canadian university students'
p1078
g2
(g6
S'M\xbf\xbfau\xca\xd7?'
p1079
tp1080
Rp1081
tp1082
a(S'academy of allied health & science'
p1083
g2
(g6
S'\xba\x93~\xb8\xfd\xc4\xd7?'
p1084
tp1085
Rp1086
tp1087
a(S'education in victoria'
p1088
g2
(g6
S'\xf7I\xdd63\xc0\xd7?'
p1089
tp1090
Rp1091
tp1092
a(S'international school of phnom penh'
p1093
g2
(g6
S'Z\xb8D\xf8=\xbd\xd7?'
p1094
tp1095
Rp1096
tp1097
a(S'special education in the united states'
p1098
g2
(g6
S'\xec\xc5;\xcb\xcf\xb7\xd7?'
p1099
tp1100
Rp1101
tp1102
a(S'amiir nuur secondary'
p1103
g2
(g6
S'\xc9\x04\xe6q\t\xb7\xd7?'
p1104
tp1105
Rp1106
tp1107
a(S"st. mark's episcopal school (west university place, texas)"
p1108
g2
(g6
S'\x82\xc3P\x9b\x92\xb6\xd7?'
p1109
tp1110
Rp1111
tp1112
a(S'uiuc college of education'
p1113
g2
(g6
S'\x84\x83b\xa1_\xb4\xd7?'
p1114
tp1115
Rp1116
tp1117
a(S'education in estonia'
p1118
g2
(g6
S'G\xa9a,\xe1\xb3\xd7?'
p1119
tp1120
Rp1121
tp1122
a(S'rolling hills country day school'
p1123
g2
(g6
S'\xb3\x91\xaeL\xf5\xb1\xd7?'
p1124
tp1125
Rp1126
tp1127
a(S'myanmar national education law 2014'
p1128
g2
(g6
S'\xc6bf\x1d3\xb1\xd7?'
p1129
tp1130
Rp1131
tp1132
a(S'thirteenth grade'
p1133
g2
(g6
S'H\x03YJ4\xad\xd7?'
p1134
tp1135
Rp1136
tp1137
a(S'education in uruguay'
p1138
g2
(g6
S'\xc9\xb8\x96J\x0b\xaa\xd7?'
p1139
tp1140
Rp1141
tp1142
a(S'education in malaysia'
p1143
g2
(g6
S'0\xb7\xd7k\x98\xa8\xd7?'
p1144
tp1145
Rp1146
tp1147
a(S'year eleven'
p1148
g2
(g6
S'\xba\x97\xcd\xa6 \xa3\xd7?'
p1149
tp1150
Rp1151
tp1152
a(S'estacada high school'
p1153
g2
(g6
S'Yi\x7fY\x08\x9b\xd7?'
p1154
tp1155
Rp1156
tp1157
a(S'northern potter junior senior high school'
p1158
g2
(g6
S'\x18O_]f\x96\xd7?'
p1159
tp1160
Rp1161
tp1162
a(S'list of graduate student associations'
p1163
g2
(g6
S'\x89\x97\xfeF\xb0\x95\xd7?'
p1164
tp1165
Rp1166
tp1167
a(S'altoona area school district'
p1168
g2
(g6
S'1D\x8e\x9d\x90\x93\xd7?'
p1169
tp1170
Rp1171
tp1172
a(S'united world college of south east asia'
p1173
g2
(g6
S'\xd7\x90IQ\xd3\x91\xd7?'
p1174
tp1175
Rp1176
tp1177
a(S'blacklick valley junior senior high school'
p1178
g2
(g6
S'\x87M\xb1|f\x8a\xd7?'
p1179
tp1180
Rp1181
tp1182
a(S'student government president'
p1183
g2
(g6
S'\x00\xbbS\xfcP\x8a\xd7?'
p1184
tp1185
Rp1186
tp1187
a(S'school of the epiphany'
p1188
g2
(g6
S'\x84I a\xb0\x84\xd7?'
p1189
tp1190
Rp1191
tp1192
a(S'education in berlin'
p1193
g2
(g6
S'Z\xbe{\x86\xb6\x81\xd7?'
p1194
tp1195
Rp1196
tp1197
a(S'tunkhannock area high school'
p1198
g2
(g6
S'\x8a\xbfT\xfee~\xd7?'
p1199
tp1200
Rp1201
tp1202
a(S'academic mobility network'
p1203
g2
(g6
S'\x1c\xfb\xfd\xd2\x14~\xd7?'
p1204
tp1205
Rp1206
tp1207
a(S'secondary education in taiwan'
p1208
g2
(g6
S'12\x17\xdbXx\xd7?'
p1209
tp1210
Rp1211
tp1212
a(S'kingsdale foundation school'
p1213
g2
(g6
S'\xcaV\xd7\xf6\x00w\xd7?'
p1214
tp1215
Rp1216
tp1217
a(S'i.s.25q. adrien block school'
p1218
g2
(g6
S'.\x14\xbe3\x19o\xd7?'
p1219
tp1220
Rp1221
tp1222
a(S'luwero secondary school'
p1223
g2
(g6
S'\xda\xc0\xf98\x9dn\xd7?'
p1224
tp1225
Rp1226
tp1227
a(S'tracking (education)'
p1228
g2
(g6
S'\xa0\xcdJ\xdd\x8cn\xd7?'
p1229
tp1230
Rp1231
tp1232
a(S'education in bhutan'
p1233
g2
(g6
S'\xfd\xf7\xd3\xa9[b\xd7?'
p1234
tp1235
Rp1236
tp1237
a(S"st george's school in switzerland"
p1238
g2
(g6
S'\xfa0\x92A\xd2`\xd7?'
p1239
tp1240
Rp1241
tp1242
a(S'business careers high school'
p1243
g2
(g6
S'\x9bi\xa1vb\\\xd7?'
p1244
tp1245
Rp1246
tp1247
a(S'williamson senior high school'
p1248
g2
(g6
S'\x1d\x07AY&[\xd7?'
p1249
tp1250
Rp1251
tp1252
a(S'southern york county school district'
p1253
g2
(g6
S'\xbf\xbfg\x13\xb7Z\xd7?'
p1254
tp1255
Rp1256
tp1257
a(S'student federation of the university of ottawa'
p1258
g2
(g6
S'|:\xb1\xe6\x12Z\xd7?'
p1259
tp1260
Rp1261
tp1262
a(S'academic grading in sweden'
p1263
g2
(g6
S')\x97\x10~TV\xd7?'
p1264
tp1265
Rp1266
tp1267
a(S'naviance'
p1268
g2
(g6
S'q\xeb\x88\xd3IT\xd7?'
p1269
tp1270
Rp1271
tp1272
a(S'mahanoy area high school'
p1273
g2
(g6
S'\x84\xaf\x03\xc2^S\xd7?'
p1274
tp1275
Rp1276
tp1277
a(S"king's college london students' union"
p1278
g2
(g6
S'\t#\x04j\xdfL\xd7?'
p1279
tp1280
Rp1281
tp1282
a(S'university college utrecht'
p1283
g2
(g6
S'\xe4n\xed\xb5\x86D\xd7?'
p1284
tp1285
Rp1286
tp1287
a(S'university and college admission'
p1288
g2
(g6
S"\x05\x04\\\x03'C\xd7?"
p1289
tp1290
Rp1291
tp1292
a(S'montgomery area high school'
p1293
g2
(g6
S'T\xd70O\xb3A\xd7?'
p1294
tp1295
Rp1296
tp1297
a(S'education in slovakia'
p1298
g2
(g6
S'\xab\x1f\xd7\xebE>\xd7?'
p1299
tp1300
Rp1301
tp1302
a(S"st. mildred's-lightbourn school"
p1303
g2
(g6
S'\x0c\x9e\xe4\xa2|=\xd7?'
p1304
tp1305
Rp1306
tp1307
a(S'american university in bulgaria'
p1308
g2
(g6
S'-\x87\xeeja=\xd7?'
p1309
tp1310
Rp1311
tp1312
a(S'grade inflation'
p1313
g2
(g6
S'\xb2$\xb8H,9\xd7?'
p1314
tp1315
Rp1316
tp1317
a(S'orchlon school'
p1318
g2
(g6
S'\x06\xde\xee\xd0\xdf8\xd7?'
p1319
tp1320
Rp1321
tp1322
a(S'education in latin america'
p1323
g2
(g6
S'\xd0\xf7\x03B\xaa1\xd7?'
p1324
tp1325
Rp1326
tp1327
a(S'southern tioga school district'
p1328
g2
(g6
S'D\xf0\x1d\x83\x071\xd7?'
p1329
tp1330
Rp1331
tp1332
a(S'sacramento country day school'
p1333
g2
(g6
S'uZ5\xa9h0\xd7?'
p1334
tp1335
Rp1336
tp1337
a(S'red lion area school district'
p1338
g2
(g6
S'\x1f\xecBG\x010\xd7?'
p1339
tp1340
Rp1341
tp1342
a(S'secondary modern school'
p1343
g2
(g6
S'\xa0\x8f(\xed-/\xd7?'
p1344
tp1345
Rp1346
tp1347
a(S'mid valley secondary center'
p1348
g2
(g6
S'\xf7/\xbf\xc3\xf9-\xd7?'
p1349
tp1350
Rp1351
tp1352
a(S'st charles catholic sixth form college'
p1353
g2
(g6
S'J-o\xca\xec-\xd7?'
p1354
tp1355
Rp1356
tp1357
a(S'american international school of rotterdam'
p1358
g2
(g6
S'\x17\x88\x92\x8d.+\xd7?'
p1359
tp1360
Rp1361
tp1362
a(S'university-preparatory school'
p1363
g2
(g6
S'\x1c\x05\xda\xee\xbb#\xd7?'
p1364
tp1365
Rp1366
tp1367
a(S'mount zion christian schools (manchester, new hampshire)'
p1368
g2
(g6
S'g\xefV\xd7a#\xd7?'
p1369
tp1370
Rp1371
tp1372
a(S'zetech university'
p1373
g2
(g6
S'>|\x88Ha#\xd7?'
p1374
tp1375
Rp1376
tp1377
a(S'ford city high school'
p1378
g2
(g6
S'\xe7\xb7\xa4\x1d\xb1"\xd7?'
p1379
tp1380
Rp1381
tp1382
a(S'list of schools in ethiopia'
p1383
g2
(g6
S'*\xday%~"\xd7?'
p1384
tp1385
Rp1386
tp1387
a(S"new zealand union of students' associations"
p1388
g2
(g6
S'\xea\xd4\x8c\x9dk"\xd7?'
p1389
tp1390
Rp1391
tp1392
a(S'gce advanced level (united kingdom)'
p1393
g2
(g6
S'Qp{\xb6~\x1b\xd7?'
p1394
tp1395
Rp1396
tp1397
a(S'big spring school district'
p1398
g2
(g6
S'\xa7\x90\xe8?\xd6\x1a\xd7?'
p1399
tp1400
Rp1401
tp1402
a(S'chambersburg area school district'
p1403
g2
(g6
S'\xf0R\xe9f\xb1\x19\xd7?'
p1404
tp1405
Rp1406
tp1407
a(S'ambridge area school district'
p1408
g2
(g6
S'2\x11\xc9\xcc\\\x10\xd7?'
p1409
tp1410
Rp1411
tp1412
a(S'higher education in canada'
p1413
g2
(g6
S'v3G.\\\x0b\xd7?'
p1414
tp1415
Rp1416
tp1417
a(S'east pennsboro high school'
p1418
g2
(g6
S'/lyhg\x06\xd7?'
p1419
tp1420
Rp1421
tp1422
a(S'national student survey'
p1423
g2
(g6
S'\x0e\x13\xe4\xe2\xa6\x05\xd7?'
p1424
tp1425
Rp1426
tp1427
a(S'education in lebanon'
p1428
g2
(g6
S'\x91\x9bQ=\xd0\x02\xd7?'
p1429
tp1430
Rp1431
tp1432
a(S'heatherhill secondary college'
p1433
g2
(g6
S'v\xc5p\xa6\xae\x01\xd7?'
p1434
tp1435
Rp1436
tp1437
a(S'avery coonley school'
p1438
g2
(g6
S'\xef\xe9lI\xa3\xfe\xd6?'
p1439
tp1440
Rp1441
tp1442
a(S'palmerton high school'
p1443
g2
(g6
S'\x1e\xca\xef\xe1y\xfe\xd6?'
p1444
tp1445
Rp1446
tp1447
a(S'connellsville area school district'
p1448
g2
(g6
S'\xd74j\x0b[\xfb\xd6?'
p1449
tp1450
Rp1451
tp1452
a(S'education in denmark'
p1453
g2
(g6
S'\x9eS6\xb0B\xfb\xd6?'
p1454
tp1455
Rp1456
tp1457
a(S'muncy junior-senior high school'
p1458
g2
(g6
S'\x0f&b \xdb\xfa\xd6?'
p1459
tp1460
Rp1461
tp1462
a(S"list of british columbia students' associations"
p1463
g2
(g6
S'3x\xcd\xd4\xed\xf9\xd6?'
p1464
tp1465
Rp1466
tp1467
a(S'dallastown area school district'
p1468
g2
(g6
S'\xecy\xbf+\xa6\xf9\xd6?'
p1469
tp1470
Rp1471
tp1472
a(S'california high school exit exam'
p1473
g2
(g6
S'\x01\xce\xe2\x1es\xf9\xd6?'
p1474
tp1475
Rp1476
tp1477
a(S'aliquippa senior high school'
p1478
g2
(g6
S'\x93\xc3x\xe4|\xf7\xd6?'
p1479
tp1480
Rp1481
tp1482
a(S'academy for information technology'
p1483
g2
(g6
S'\xea\xa3\xfe\r\x1d\xf6\xd6?'
p1484
tp1485
Rp1486
tp1487
a(S'year thirteen'
p1488
g2
(g6
S'\x00\xae\x9f;\xfa\xf2\xd6?'
p1489
tp1490
Rp1491
tp1492
a(S'woodland hills school district'
p1493
g2
(g6
S'\xd8J\xf6\xb3s\xf2\xd6?'
p1494
tp1495
Rp1496
tp1497
a(S'german school seoul international'
p1498
g2
(g6
S'8\n#\xb8\x8d\xef\xd6?'
p1499
tp1500
Rp1501
tp1502
a(S'inter-a'
p1503
g2
(g6
S'\x9a\xb2S\x0c;\xe8\xd6?'
p1504
tp1505
Rp1506
tp1507
a(S'education reform'
p1508
g2
(g6
S'\xec7\xfc\xa3\x13\xe7\xd6?'
p1509
tp1510
Rp1511
tp1512
a.