(lp0
(S'supercomputer'
p1
cnumpy.core.multiarray
scalar
p2
(cnumpy
dtype
p3
(S'f8'
p4
I0
I1
tp5
Rp6
(I3
S'<'
p7
NNNI-1
I-1
I0
tp8
bS'\xeb\xff\xff\xff\xff\xff\xef?'
p9
tp10
Rp11
tp12
a(S'supercomputer architecture'
p13
g2
(g6
S'Rf.\xc1l\x1f\xe8?'
p14
tp15
Rp16
tp17
a(S'history of supercomputing'
p18
g2
(g6
S'\xdc\xe8D\xcf\x08\t\xe5?'
p19
tp20
Rp21
tp22
a(S'supercomputing in europe'
p23
g2
(g6
S'\xcd\xae\xd6\x89f:\xe4?'
p24
tp25
Rp26
tp27
a(S'supercomputing in japan'
p28
g2
(g6
S'\x91\xc9r\xeb\\\x10\xe2?'
p29
tp30
Rp31
tp32
a(S'supercomputing in pakistan'
p33
g2
(g6
S'\xa4Pa7F\xee\xe1?'
p34
tp35
Rp36
tp37
a(S'supercomputing in india'
p38
g2
(g6
S'\xd9\xd0Z\xf6\x96\x86\xe1?'
p39
tp40
Rp41
tp42
a(S'supercomputing in china'
p43
g2
(g6
S'd\xa4\xe8\xa8\xfaI\xe1?'
p44
tp45
Rp46
tp47
a(S'exascale computing'
p48
g2
(g6
S'\xc9\x9d\xeb\\\x04\x1a\xe1?'
p49
tp50
Rp51
tp52
a(S'petascale computing'
p53
g2
(g6
S'\xa8>\x89\x8d\x8d\xa0\xe0?'
p54
tp55
Rp56
tp57
a(S'top500'
p58
g2
(g6
S'\x08\x0c\x90:\\\x82\xe0?'
p59
tp60
Rp61
tp62
a(S'supercomputer operating systems'
p63
g2
(g6
S'A\x16\x82g"h\xe0?'
p64
tp65
Rp66
tp67
a(S'k computer'
p68
g2
(g6
S'W \x132+\xcd\xde?'
p69
tp70
Rp71
tp72
a(S'appro'
p73
g2
(g6
S'\xce\n\n\x03\xdf{\xde?'
p74
tp75
Rp76
tp77
a(S'epcc'
p78
g2
(g6
S';\xd07\xcf\xd7\\\xde?'
p79
tp80
Rp81
tp82
a(S'computer performance by orders of magnitude'
p83
g2
(g6
S'\xa3\xf1OorO\xde?'
p84
tp85
Rp86
tp87
a(S'nebulae (computer)'
p88
g2
(g6
S'\x81\x0e\xc9\xee\xc4r\xdd?'
p89
tp90
Rp91
tp92
a(S'distributed european infrastructure for supercomputing applications'
p93
g2
(g6
S'\x15o\xa8\xce\x99q\xdd?'
p94
tp95
Rp96
tp97
a(S'jungle computing'
p98
g2
(g6
S'\xaf\x19\xb0\x10\te\xdd?'
p99
tp100
Rp101
tp102
a(S'quasi-opportunistic supercomputing'
p103
g2
(g6
S'\xf0g\x90\xce\xbdd\xdd?'
p104
tp105
Rp106
tp107
a(S'spanish supercomputing network'
p108
g2
(g6
S'\x9d\x98\xab\x81f \xdd?'
p109
tp110
Rp111
tp112
a(S'supermuc'
p113
g2
(g6
S'\x91\xf9\xf6r(\x99\xdc?'
p114
tp115
Rp116
tp117
a(S'screc'
p118
g2
(g6
S'\x0bA\x91f>\x93\xdc?'
p119
tp120
Rp121
tp122
a(S'oak ridge leadership computing facility'
p123
g2
(g6
S'\xaa\x93\x81\xe5\xc0\x18\xdc?'
p124
tp125
Rp126
tp127
a(S'parallel computing'
p128
g2
(g6
S'\x8a\xf3\xa2\xc8\xdf\x81\xdb?'
p129
tp130
Rp131
tp132
a(S'swiss national supercomputing centre'
p133
g2
(g6
S'\x1c\x08\x16\x92\x1b}\xdb?'
p134
tp135
Rp136
tp137
a(S'national energy research scientific computing center'
p138
g2
(g6
S'\xc6\xa45\xa4\x82{\xdb?'
p139
tp140
Rp141
tp142
a(S'tianhe-2'
p143
g2
(g6
S'#\xf2\xad\x94\xf4f\xdb?'
p144
tp145
Rp146
tp147
a(S'massively parallel (computing)'
p148
g2
(g6
S'Q\x8d\xf0$\xa2\xde\xda?'
p149
tp150
Rp151
tp152
a(S'tianhe-i'
p153
g2
(g6
S'`\xcc\xb6\xdcM\xac\xda?'
p154
tp155
Rp156
tp157
a(S'research computing services'
p158
g2
(g6
S'\x9d\x1b\xd5\t\x14\x9c\xda?'
p159
tp160
Rp161
tp162
a(S'magerit'
p163
g2
(g6
S'u\x07$\x02,\x99\xda?'
p164
tp165
Rp166
tp167
a(S'national supercomputing mission'
p168
g2
(g6
S'0\x97\xd4\xbaTK\xda?'
p169
tp170
Rp171
tp172
a(S'yellowstone (supercomputer)'
p173
g2
(g6
S'a\xe3\xcd->:\xda?'
p174
tp175
Rp176
tp177
a(S'edinburgh concurrent supercomputer'
p178
g2
(g6
S'%?\xef\xf5\xaf9\xda?'
p179
tp180
Rp181
tp182
a(S'seymour cray computer engineering award'
p183
g2
(g6
S'\xe4\xf8%D"-\xda?'
p184
tp185
Rp186
tp187
a(S'system x (computing)'
p188
g2
(g6
S'\xb3\x89=\xfa\r"\xda?'
p189
tp190
Rp191
tp192
a(S'bluefire supercomputer'
p193
g2
(g6
S'H\xd4\x8de\x07\xd3\xd9?'
p194
tp195
Rp196
tp197
a(S'qoscos grid'
p198
g2
(g6
S'bM\x9br\x96\x8c\xd9?'
p199
tp200
Rp201
tp202
a(S'leibniz-rechenzentrum'
p203
g2
(g6
S'+\xd8a\xcb\x15f\xd9?'
p204
tp205
Rp206
tp207
a(S'jugene'
p208
g2
(g6
S'\xe3\xa9\x8a\xc0\xdeS\xd9?'
p209
tp210
Rp211
tp212
a(S'personal supercomputer'
p213
g2
(g6
S'~\x10\x8bA\xe0\x08\xd9?'
p214
tp215
Rp216
tp217
a(S'supercomputer systems'
p218
g2
(g6
S'\xfe\xdf\xa4\xe3f\xfa\xd8?'
p219
tp220
Rp221
tp222
a(S'national supercomputer center in guangzhou'
p223
g2
(g6
S'\xf2}\xc3\xcb\xe3\xe2\xd8?'
p224
tp225
Rp226
tp227
a(S'ibm roadrunner'
p228
g2
(g6
S'-\xf5\xa3\xb1\xa3\xdf\xd8?'
p229
tp230
Rp231
tp232
a(S'ibm viva'
p233
g2
(g6
S'\xb1\xd1\xd42\x84\xdd\xd8?'
p234
tp235
Rp236
tp237
a(S'steve chen (computer engineer)'
p238
g2
(g6
S'V2\x96g\xc9\xc7\xd8?'
p239
tp240
Rp241
tp242
a(S'eurotech (company)'
p243
g2
(g6
S'\x90\xd13\x0f\x1c\x97\xd8?'
p244
tp245
Rp246
tp247
a(S'red storm (computing)'
p248
g2
(g6
S'\x0c\xc2mey\x82\xd8?'
p249
tp250
Rp251
tp252
a(S'national supercomputer centre in sweden'
p253
g2
(g6
S'`\xc7\x9d\xd8`y\xd8?'
p254
tp255
Rp256
tp257
a(S'supercomputing and visualization center of madrid'
p258
g2
(g6
S')\xecQ\x19Ui\xd8?'
p259
tp260
Rp261
tp262
a(S'university of london computer centre'
p263
g2
(g6
S'ZO\xaf)\xd2M\xd8?'
p264
tp265
Rp266
tp267
a(S'ncar-wyoming supercomputing center'
p268
g2
(g6
S'\xba\xe8\x87\xbe\x08M\xd8?'
p269
tp270
Rp271
tp272
a(S'ibm mira'
p273
g2
(g6
S'{*\xf5}\xe2K\xd8?'
p274
tp275
Rp276
tp277
a(S'national supercomputing center of tianjin'
p278
g2
(g6
S'\xc4C\xbeC\xb64\xd8?'
p279
tp280
Rp281
tp282
a(S'nasa advanced supercomputing division'
p283
g2
(g6
S"\x9d\\\xd9'\xbe3\xd8?"
p284
tp285
Rp286
tp287
a(S'cray x1'
p288
g2
(g6
S'\x86\xa7\xe8DP/\xd8?'
p289
tp290
Rp291
tp292
a(S'high-performance technical computing'
p293
g2
(g6
S' \x91\xa5?\x18\x14\xd8?'
p294
tp295
Rp296
tp297
a(S'performance per watt'
p298
g2
(g6
S'\x1e\x0c\xda\xec\xda\x0c\xd8?'
p299
tp300
Rp301
tp302
a(S'mitrionics'
p303
g2
(g6
S'y\xac{d\xf4\xea\xd7?'
p304
tp305
Rp306
tp307
a(S'scinet consortium'
p308
g2
(g6
S'\x82Ik\xaeU\x88\xd7?'
p309
tp310
Rp311
tp312
a(S'cray x2'
p313
g2
(g6
S'$\xfe\xb1\xf2\x06~\xd7?'
p314
tp315
Rp316
tp317
a(S'stallo (computer)'
p318
g2
(g6
S'<\xc3\x1d)8}\xd7?'
p319
tp320
Rp321
tp322
a(S'cray t90'
p323
g2
(g6
S'\xa7\xb5\xe1\xd6\xf8v\xd7?'
p324
tp325
Rp326
tp327
a(S'supercomputer education research centre'
p328
g2
(g6
S'\xc6\xa7t mk\xd7?'
p329
tp330
Rp331
tp332
a(S'cray'
p333
g2
(g6
S'u\x88\xe6V&e\xd7?'
p334
tp335
Rp336
tp337
a(S'blue waters'
p338
g2
(g6
S'\xe2\x83^\xf2\x81a\xd7?'
p339
tp340
Rp341
tp342
a(S'national supercomputing center (shenzhen)'
p343
g2
(g6
S'\x7f\xf6\xe4\x02@9\xd7?'
p344
tp345
Rp346
tp347
a(S'green computing'
p348
g2
(g6
S'MNU3V5\xd7?'
p349
tp350
Rp351
tp352
a(S'percs'
p353
g2
(g6
S"\xa5\xaf\x12H\x13'\xd7?"
p354
tp355
Rp356
tp357
a(S'manycore processor'
p358
g2
(g6
S'\xa3\x08\x82\x11$\xf4\xd6?'
p359
tp360
Rp361
tp362
a(S'pawsey supercomputing centre'
p363
g2
(g6
S'=\x01A$\xda\xea\xd6?'
p364
tp365
Rp366
tp367
a(S'national center for supercomputing applications (bulgaria)'
p368
g2
(g6
S'\n\xdc3sS\xd3\xd6?'
p369
tp370
Rp371
tp372
a(S'marenostrum'
p373
g2
(g6
S'\xaer\x8b#\xe6\xa1\xd6?'
p374
tp375
Rp376
tp377
a(S'ibm kittyhawk'
p378
g2
(g6
S'\x8d\xd5O\xd3\xae\x9a\xd6?'
p379
tp380
Rp381
tp382
a(S'riken mdgrape-3'
p383
g2
(g6
S'\xbe\xc4\x94\xd9\xc5\x8b\xd6?'
p384
tp385
Rp386
tp387
a(S'kraken (supercomputer)'
p388
g2
(g6
S'i\x8b\xa1\x85OF\xd6?'
p389
tp390
Rp391
tp392
a(S'traversed edges per second'
p393
g2
(g6
S'\xd5\xed\xb9\xeb;+\xd6?'
p394
tp395
Rp396
tp397
a(S'grid computing'
p398
g2
(g6
S'\xa3\x8b\xd1\xca\xe7&\xd6?'
p399
tp400
Rp401
tp402
a(S'pssc labs'
p403
g2
(g6
S'\x13C\xcd\xf2.%\xd6?'
p404
tp405
Rp406
tp407
a(S't-platforms'
p408
g2
(g6
S'\xadCo\xdfw!\xd6?'
p409
tp410
Rp411
tp412
a(S'national center for supercomputing applications'
p413
g2
(g6
S'\x16\xa2O2\xc2\x17\xd6?'
p414
tp415
Rp416
tp417
a(S'computer cluster'
p418
g2
(g6
S'C\xa1\xc5\x1c\xc3\t\xd6?'
p419
tp420
Rp421
tp422
a(S'cray xc40'
p423
g2
(g6
S'\xf8\xc8|\xec\x18\x05\xd6?'
p424
tp425
Rp426
tp427
a(S'lightweight kernel operating system'
p428
g2
(g6
S'\xbf\xd2q\x0cA\x04\xd6?'
p429
tp430
Rp431
tp432
a(S'bigben'
p433
g2
(g6
S'W\xa8\x96$\xa4\xe6\xd5?'
p434
tp435
Rp436
tp437
a(S'primehpc fx10'
p438
g2
(g6
S'\xb0$b\xc9&\xe4\xd5?'
p439
tp440
Rp441
tp442
a(S'tsubame (supercomputer)'
p443
g2
(g6
S'$W\x8a\xcf\xd0\xc2\xd5?'
p444
tp445
Rp446
tp447
a(S'eka (supercomputer)'
p448
g2
(g6
S'!Q\x19\xf7\xd4\xbd\xd5?'
p449
tp450
Rp451
tp452
a(S'dgsca'
p453
g2
(g6
S'\x07A\xaf\xffI\xa2\xd5?'
p454
tp455
Rp456
tp457
a(S'ivec'
p458
g2
(g6
S'\xd47\x08\x98\x11\x96\xd5?'
p459
tp460
Rp461
tp462
a(S'research and technology computing center (france)'
p463
g2
(g6
S'\xb6 \xd5\xd2\x96y\xd5?'
p464
tp465
Rp466
tp467
a(S'massively parallel processor array'
p468
g2
(g6
S'\xf0\xdc\xfa\x85hq\xd5?'
p469
tp470
Rp471
tp472
a(S'cray-3/sss'
p473
g2
(g6
S'\xbe\xa6\x04\xa7\xa6n\xd5?'
p474
tp475
Rp476
tp477
a(S'technical computing'
p478
g2
(g6
S'\xbe\xa9\n6\x9fd\xd5?'
p479
tp480
Rp481
tp482
a(S'advanced simulation and computing program'
p483
g2
(g6
S'\xa8c\x0f1\nc\xd5?'
p484
tp485
Rp486
tp487
a(S'sunway bluelight'
p488
g2
(g6
S'\x199sm\xb2F\xd5?'
p489
tp490
Rp491
tp492
a(S'teragrid'
p493
g2
(g6
S'\xee\x9f\xe0\xeb\xbaA\xd5?'
p494
tp495
Rp496
tp497
a(S'utility computing'
p498
g2
(g6
S'oM9\xa3\x89=\xd5?'
p499
tp500
Rp501
tp502
a(S'techila grid'
p503
g2
(g6
S'\x80*\x8f\x87\xc35\xd5?'
p504
tp505
Rp506
tp507
a(S'ultra network technologies'
p508
g2
(g6
S"\xdf'x\xf260\xd5?"
p509
tp510
Rp511
tp512
a(S'monty denneau'
p513
g2
(g6
S"2\x04\x18\xb6\x8f'\xd5?"
p514
tp515
Rp516
tp517
a(S'qcdoc'
p518
g2
(g6
S'\x92A-\xf9\x94\r\xd5?'
p519
tp520
Rp521
tp522
a(S'cray t3e'
p523
g2
(g6
S'{\xc0s\x90\x00\x05\xd5?'
p524
tp525
Rp526
tp527
a(S'aquasar'
p528
g2
(g6
S'\xf8b\xd8QM\xef\xd4?'
p529
tp530
Rp531
tp532
a(S'distributed computing'
p533
g2
(g6
S'\xd3\xb4JQF\xeb\xd4?'
p534
tp535
Rp536
tp537
a(S'finisterrae'
p538
g2
(g6
S'\xb78\rK\x9c\xe5\xd4?'
p539
tp540
Rp541
tp542
a(S'asci red'
p543
g2
(g6
S'\xf7\x97\x99Ju\xda\xd4?'
p544
tp545
Rp546
tp547
a(S'firefly (computer)'
p548
g2
(g6
S'`\xad\x96A\xfd\xd7\xd4?'
p549
tp550
Rp551
tp552
a(S'besm'
p553
g2
(g6
S'd\xb6\xfc\xcd\xb2\xd2\xd4?'
p554
tp555
Rp556
tp557
a(S'gauss centre for supercomputing'
p558
g2
(g6
S'\x11\xb3\x17\xc9)\xd1\xd4?'
p559
tp560
Rp561
tp562
a(S'hitac s-3000'
p563
g2
(g6
S'\x96O\x8c\x01\xb9\xb9\xd4?'
p564
tp565
Rp566
tp567
a(S'wroc\xc5\x82aw centre for networking and supercomputing'
p568
g2
(g6
S'\xa5\xfe"+\x1e\xaf\xd4?'
p569
tp570
Rp571
tp572
a(S'supercomputer (disambiguation)'
p573
g2
(g6
S'\x1e\r\xd6Z\xad\xae\xd4?'
p574
tp575
Rp576
tp577
a(S'scicomp'
p578
g2
(g6
S'\x97:w\xf3\xf4\xa6\xd4?'
p579
tp580
Rp581
tp582
a(S'vector processor'
p583
g2
(g6
S'\xbf\xb6N_2\x97\xd4?'
p584
tp585
Rp586
tp587
a(S'san diego supercomputer center'
p588
g2
(g6
S'E\rp\x12\xe3\x94\xd4?'
p589
tp590
Rp591
tp592
a(S'powerpc applications'
p593
g2
(g6
S';\xb0\xc7*\xee\x89\xd4?'
p594
tp595
Rp596
tp597
a(S'blue gene'
p598
g2
(g6
S'v\x86\xeeqWp\xd4?'
p599
tp600
Rp601
tp602
a(S'ndmc supercomputer'
p603
g2
(g6
S'\x96Mr:aW\xd4?'
p604
tp605
Rp606
tp607
a(S'computer hardware'
p608
g2
(g6
S'\x83\xd9\x9b#eT\xd4?'
p609
tp610
Rp611
tp612
a(S'flops'
p613
g2
(g6
S'V%\x86\xff\xf2R\xd4?'
p614
tp615
Rp616
tp617
a(S'endeavour (supercomputer)'
p618
g2
(g6
S'\x05\xe2+dYK\xd4?'
p619
tp620
Rp621
tp622
a(S'cray-1'
p623
g2
(g6
S'\xaa\xcc\xab\xaf\x7fG\xd4?'
p624
tp625
Rp626
tp627
a(S'cray j90'
p628
g2
(g6
S'b\xd1a\xeb\xf1(\xd4?'
p629
tp630
Rp631
tp632
a(S'unconventional computing'
p633
g2
(g6
S'LW\xca\x88\xff"\xd4?'
p634
tp635
Rp636
tp637
a(S'volunteer computing'
p638
g2
(g6
S'd7\xe3\x1d*\x16\xd4?'
p639
tp640
Rp641
tp642
a(S'asci blue mountain'
p643
g2
(g6
S'\x02\xd5\n\xeaW\x05\xd4?'
p644
tp645
Rp646
tp647
a(S'cray xmt'
p648
g2
(g6
S'\xa0\x8b(\x11\xe7\x01\xd4?'
p649
tp650
Rp651
tp652
a(S'computing'
p653
g2
(g6
S'ca\xbebb\xed\xd3?'
p654
tp655
Rp656
tp657
a(S'cray-2'
p658
g2
(g6
S'E+\x915z\xe6\xd3?'
p659
tp660
Rp661
tp662
a(S'amalka supercomputing facility'
p663
g2
(g6
S'\xfd)\xa5\x16e\xe4\xd3?'
p664
tp665
Rp666
tp667
a(S'columbia (supercomputer)'
p668
g2
(g6
S'\x0e\x16P\xe1D\xd9\xd3?'
p669
tp670
Rp671
tp672
a(S'shaheen (supercomputer)'
p673
g2
(g6
S'\xb2\xf3H&\xf6\xc4\xd3?'
p674
tp675
Rp676
tp677
a(S'slurm workload manager'
p678
g2
(g6
S'qA3av\xc4\xd3?'
p679
tp680
Rp681
tp682
a(S'minisupercomputer'
p683
g2
(g6
S'O\x00=%"\xc4\xd3?'
p684
tp685
Rp686
tp687
a(S'lateral computing'
p688
g2
(g6
S'B\x80\x94uP\xc3\xd3?'
p689
tp690
Rp691
tp692
a(S'metacomputing'
p693
g2
(g6
S'\xd1\xd8\xb7\x193\xb3\xd3?'
p694
tp695
Rp696
tp697
a(S'spmd'
p698
g2
(g6
S'\xfeS\xc5\xe2\x89\xaa\xd3?'
p699
tp700
Rp701
tp702
a(S'quadrics'
p703
g2
(g6
S'|\x94\xf7\xb3K\xa9\xd3?'
p704
tp705
Rp706
tp707
a(S'international supercomputing conference'
p708
g2
(g6
S'\x14\xf1\xe1\xe2A\x92\xd3?'
p709
tp710
Rp711
tp712
a(S'unicore'
p713
g2
(g6
S'P\xb9\xb5\xab+\x8f\xd3?'
p714
tp715
Rp716
tp717
a(S'liquid computing'
p718
g2
(g6
S'\x91\x08\x8f\xef\x8f\x8c\xd3?'
p719
tp720
Rp721
tp722
a(S'cesga'
p723
g2
(g6
S'\x89\x1b)\x17_\x88\xd3?'
p724
tp725
Rp726
tp727
a(S'national computer center for higher education (france)'
p728
g2
(g6
S'\x8c\x85\xcf\xb1\xca\x84\xd3?'
p729
tp730
Rp731
tp732
a(S'flash mob computing'
p733
g2
(g6
S'y\x08P{\x0c~\xd3?'
p734
tp735
Rp736
tp737
a(S'superquest'
p738
g2
(g6
S'\xab\x0f\xd4k\x88{\xd3?'
p739
tp740
Rp741
tp742
a(S'hpcg benchmark'
p743
g2
(g6
S'\x95\x03\xfd\xd2\xccy\xd3?'
p744
tp745
Rp746
tp747
a(S'outline of computing'
p748
g2
(g6
S'\xd6\x18\t4;x\xd3?'
p749
tp750
Rp751
tp752
a(S'penguin computing'
p753
g2
(g6
S'Y\xac\x05\xff4u\xd3?'
p754
tp755
Rp756
tp757
a(S'evans & sutherland es-1'
p758
g2
(g6
S'p\xb5(\x81-i\xd3?'
p759
tp760
Rp761
tp762
a(S'hartree centre'
p763
g2
(g6
S'w\x08\xd5\xc5k]\xd3?'
p764
tp765
Rp766
tp767
a(S'srinidhi varadarajan'
p768
g2
(g6
S'v\xba\x92\xd6\xa8I\xd3?'
p769
tp770
Rp771
tp772
a(S'cray time sharing system'
p773
g2
(g6
S'\x0b\xd5\x00\xb7\x9dG\xd3?'
p774
tp775
Rp776
tp777
a(S'power 775'
p778
g2
(g6
S"H'\xe06DF\xd3?"
p779
tp780
Rp781
tp782
a(S'history of computing hardware (1960s\xe2\x80\x93present)'
p783
g2
(g6
S'\x82\xbe>\xe20A\xd3?'
p784
tp785
Rp786
tp787
a(S'norman christ'
p788
g2
(g6
S'e\xe7\xb6\xd7\xbe>\xd3?'
p789
tp790
Rp791
tp792
a(S'cray-3'
p793
g2
(g6
S'\xc9\x88\xc5\xe8c+\xd3?'
p794
tp795
Rp796
tp797
a(S'seymour cray'
p798
g2
(g6
S'2\x02F\xab\xb5%\xd3?'
p799
tp800
Rp801
tp802
a(S'symmetric multiprocessing'
p803
g2
(g6
S'\xec#.\xb3\xb3\x11\xd3?'
p804
tp805
Rp806
tp807
a(S'heterogeneous computing'
p808
g2
(g6
S'l(\xec\xcf5\x11\xd3?'
p809
tp810
Rp811
tp812
a(S'center for computational innovations'
p813
g2
(g6
S'\xadX\xb1k\xe9\x08\xd3?'
p814
tp815
Rp816
tp817
a(S'cray urika-xa'
p818
g2
(g6
S'v\x88\x1d\x01\xdb\xf9\xd2?'
p819
tp820
Rp821
tp822
a(S'cineca'
p823
g2
(g6
S'\xc8\xbe\x0b\xa0=\xf2\xd2?'
p824
tp825
Rp826
tp827
a(S'cray urika-gd'
p828
g2
(g6
S'\x16a\xdb\xa4\x8e\xed\xd2?'
p829
tp830
Rp831
tp832
a(S'classes of computers'
p833
g2
(g6
S'.\x04u]\xaf\xe4\xd2?'
p834
tp835
Rp836
tp837
a(S'texas advanced computing center'
p838
g2
(g6
S'\xc7B\xd2+\xbb\xe0\xd2?'
p839
tp840
Rp841
tp842
a(S'patrick j. miller'
p843
g2
(g6
S'\x93\xd1\x1ag^\xe0\xd2?'
p844
tp845
Rp846
tp847
a(S'feiteng (processor)'
p848
g2
(g6
S'G1-\xceI\xdf\xd2?'
p849
tp850
Rp851
tp852
a(S'high performance computing modernization program'
p853
g2
(g6
S'5\xa1"s\xef\xc7\xd2?'
p854
tp855
Rp856
tp857
a(S'timeline of computing'
p858
g2
(g6
S'\x90$e\x88\xff\xc6\xd2?'
p859
tp860
Rp861
tp862
a(S'new york blue gene supercomputer'
p863
g2
(g6
S'\xcc\x94\xd2\xe6\xe9\xc3\xd2?'
p864
tp865
Rp866
tp867
a(S'floating point systems'
p868
g2
(g6
S'\x8e\xd3\x15\xed\xdd\xc3\xd2?'
p869
tp870
Rp871
tp872
a(S'kalpana (supercomputer)'
p873
g2
(g6
S'\x04\x01\x96\xf5\x18\xc3\xd2?'
p874
tp875
Rp876
tp877
a(S'edge computing'
p878
g2
(g6
S'&[n\x0e\x8a\xbb\xd2?'
p879
tp880
Rp881
tp882
a(S'rossmann (supercomputer)'
p883
g2
(g6
S'\xba\xf0\xb0V\xf9\xae\xd2?'
p884
tp885
Rp886
tp887
a(S'qpace'
p888
g2
(g6
S'\xcb\x97\x86\xbd\xb3\x98\xd2?'
p889
tp890
Rp891
tp892
a(S'ibm sequoia'
p893
g2
(g6
S'\x1f\x8d[\x87\x1b\x93\xd2?'
p894
tp895
Rp896
tp897
a(S'jaguar (supercomputer)'
p898
g2
(g6
S'P\xbe\xa0A\x01\x92\xd2?'
p899
tp900
Rp901
tp902
a(S'myrinet'
p903
g2
(g6
S'\x83T\x8cZA\x8a\xd2?'
p904
tp905
Rp906
tp907
a(S'cydra-5'
p908
g2
(g6
S'sI\xc6\xab2\x87\xd2?'
p909
tp910
Rp911
tp912
a(S'high performance computing center'
p913
g2
(g6
S'\xc7s\xd1\xd8\xf9\x7f\xd2?'
p914
tp915
Rp916
tp917
a(S'catamount (operating system)'
p918
g2
(g6
S'\xfc\x8b\xd4\xbb\x10x\xd2?'
p919
tp920
Rp921
tp922
a(S'history of computer clusters'
p923
g2
(g6
S'c8\xcfD\xcao\xd2?'
p924
tp925
Rp926
tp927
a(S'killer micro'
p928
g2
(g6
S'6h!N\x9eo\xd2?'
p929
tp930
Rp931
tp932
a(S'rmg (program)'
p933
g2
(g6
S'\x07\xd8_k\xc8f\xd2?'
p934
tp935
Rp936
tp937
a(S'american super computing leadership act'
p938
g2
(g6
S'\xa3\x93d\xcb\xc4_\xd2?'
p939
tp940
Rp941
tp942
a(S'cray app'
p943
g2
(g6
S'\x9b\xc2%%\x91\\\xd2?'
p944
tp945
Rp946
tp947
a(S'sunway taihulight'
p948
g2
(g6
S'\xb4\xbc\x18I\xd3S\xd2?'
p949
tp950
Rp951
tp952
a(S'openatom'
p953
g2
(g6
S'\x0e\xcc\xa6\xcd\xf9R\xd2?'
p954
tp955
Rp956
tp957
a(S'national supercomputing center for energy and the environment'
p958
g2
(g6
S'\x16>\x15\xd9\x966\xd2?'
p959
tp960
Rp961
tp962
a(S'illiac iv'
p963
g2
(g6
S'\x85b\x9e@\xa25\xd2?'
p964
tp965
Rp966
tp967
a(S'computer'
p968
g2
(g6
S'\xa2\x9b\x88\x94X0\xd2?'
p969
tp970
Rp971
tp972
a(S'cray xk7'
p973
g2
(g6
S'";W\xd7\x9e/\xd2?'
p974
tp975
Rp976
tp977
a(S'system g (supercomputer)'
p978
g2
(g6
S'"\xa6\xab\xeel"\xd2?'
p979
tp980
Rp981
tp982
a(S'hector'
p983
g2
(g6
S'\x88 \rT\xf2\x0e\xd2?'
p984
tp985
Rp986
tp987
a(S'cdc 8600'
p988
g2
(g6
S'\xe1\x8d\xf5\xe8\xa4\x08\xd2?'
p989
tp990
Rp991
tp992
a(S'high-throughput computing'
p993
g2
(g6
S'\xf5\xb2\xba\xc2\xd1\x03\xd2?'
p994
tp995
Rp996
tp997
a(S'hitac s-820'
p998
g2
(g6
S'NI\xcd<g\xea\xd1?'
p999
tp1000
Rp1001
tp1002
a(S'hpcx'
p1003
g2
(g6
S'\x06\x12\x07S\xba\xcb\xd1?'
p1004
tp1005
Rp1006
tp1007
a(S'index of history of computing articles'
p1008
g2
(g6
S'\xd8\xcf\xda}g\xbe\xd1?'
p1009
tp1010
Rp1011
tp1012
a(S'barcelona supercomputing center'
p1013
g2
(g6
S'\xd3\x84\xd5I,\xbb\xd1?'
p1014
tp1015
Rp1016
tp1017
a(S'cray sv1'
p1018
g2
(g6
S'\xb4Q\xa29\x18\xb7\xd1?'
p1019
tp1020
Rp1021
tp1022
a(S'multiprogram research facility'
p1023
g2
(g6
S'\x82\x0b^Uf\xae\xd1?'
p1024
tp1025
Rp1026
tp1027
a(S'ape100'
p1028
g2
(g6
S'O\xc5i\x89n\xad\xd1?'
p1029
tp1030
Rp1031
tp1032
a(S'national university of defense technology'
p1033
g2
(g6
S'\xdfZ\xb1\xc3\xe7\xa7\xd1?'
p1034
tp1035
Rp1036
tp1037
a(S'centralized computing'
p1038
g2
(g6
S'1s~\xcc\xc5\xa3\xd1?'
p1039
tp1040
Rp1041
tp1042
a(S'cray-4'
p1043
g2
(g6
S'\xbeh|K\x07\xa1\xd1?'
p1044
tp1045
Rp1046
tp1047
a(S'tassl'
p1048
g2
(g6
S'\x83\x95|\x85)\x9f\xd1?'
p1049
tp1050
Rp1051
tp1052
a(S'history of general-purpose cpus'
p1053
g2
(g6
S'o\xb3\x08\xfe\xa8\x98\xd1?'
p1054
tp1055
Rp1056
tp1057
a(S'pittsburgh supercomputing center'
p1058
g2
(g6
S'\x07\x8b\x12k\xc8\x87\xd1?'
p1059
tp1060
Rp1061
tp1062
a(S'history of computing'
p1063
g2
(g6
S'\xed\x1f\x0e\x0f8\x81\xd1?'
p1064
tp1065
Rp1066
tp1067
a(S'albert zomaya'
p1068
g2
(g6
S'\x94\xe3o\xb9Rn\xd1?'
p1069
tp1070
Rp1071
tp1072
a(S'supertek computers'
p1073
g2
(g6
S'\xea\x15\x01&B`\xd1?'
p1074
tp1075
Rp1076
tp1077
a(S'suprenum'
p1078
g2
(g6
S'\xcaG\xa5k\xf6U\xd1?'
p1079
tp1080
Rp1081
tp1082
a(S'computer architecture'
p1083
g2
(g6
S'\x99\x03\x18w\xb9H\xd1?'
p1084
tp1085
Rp1086
tp1087
a(S'adapteva'
p1088
g2
(g6
S'\xe9\xa3)\xcd\x0bF\xd1?'
p1089
tp1090
Rp1091
tp1092
a(S'national strategic computing initiative'
p1093
g2
(g6
S',\xd7\xa1\xd6\x89D\xd1?'
p1094
tp1095
Rp1096
tp1097
a(S'titan (supercomputer)'
p1098
g2
(g6
S'\xf2\xa4@\x19)?\xd1?'
p1099
tp1100
Rp1101
tp1102
a(S'dharmendra modha'
p1103
g2
(g6
S'\xcf\x07\x00\xd969\xd1?'
p1104
tp1105
Rp1106
tp1107
a(S'saga-220'
p1108
g2
(g6
S'o\xdf\xa0\x19\x9c6\xd1?'
p1109
tp1110
Rp1111
tp1112
a(S'celerity computing'
p1113
g2
(g6
S'\xb0\xcd\xdf\xef\x046\xd1?'
p1114
tp1115
Rp1116
tp1117
a(S'national center for computational sciences'
p1118
g2
(g6
S"-\x9c7\xcf\xf1'\xd1?"
p1119
tp1120
Rp1121
tp1122
a(S'compute node linux'
p1123
g2
(g6
S'&\x89\xd6m]#\xd1?'
p1124
tp1125
Rp1126
tp1127
a(S'history of computing hardware'
p1128
g2
(g6
S'\xa3\x99\x96\x07\x9f!\xd1?'
p1129
tp1130
Rp1131
tp1132
a(S'tera-10'
p1133
g2
(g6
S'\xe9\xd5P2\x98 \xd1?'
p1134
tp1135
Rp1136
tp1137
a(S'asc purple'
p1138
g2
(g6
S'\x86\x01r\xa8y\x1c\xd1?'
p1139
tp1140
Rp1141
tp1142
a(S'cielo (supercomputer)'
p1143
g2
(g6
S'\xb9w\xc29\xe9\x19\xd1?'
p1144
tp1145
Rp1146
tp1147
a(S'cray xt5'
p1148
g2
(g6
S'U\xc5Qch\x19\xd1?'
p1149
tp1150
Rp1151
tp1152
a(S'data-intensive computing'
p1153
g2
(g6
S'$\x871\x01\x9c\x10\xd1?'
p1154
tp1155
Rp1156
tp1157
a(S'fabric computing'
p1158
g2
(g6
S'K\xbf\xc4\xca\xe3\x0f\xd1?'
p1159
tp1160
Rp1161
tp1162
a(S'international conference on high performance computing'
p1163
g2
(g6
S'\xd3\x03\xf7\x7f\xab\x02\xd1?'
p1164
tp1165
Rp1166
tp1167
a(S'thunderbird (supercomputer)'
p1168
g2
(g6
S']Q\xb5\x9a\x8b\xff\xd0?'
p1169
tp1170
Rp1171
tp1172
a(S'high productivity computing systems'
p1173
g2
(g6
S'\xf5\xe2\n\x92b\xff\xd0?'
p1174
tp1175
Rp1176
tp1177
a(S'cdc star-100'
p1178
g2
(g6
S'` \x93wc\xfa\xd0?'
p1179
tp1180
Rp1181
tp1182
a(S'cdc 6500'
p1183
g2
(g6
S'\xaa\xd2\xeaR\xf1\xf3\xd0?'
p1184
tp1185
Rp1186
tp1187
a(S'institute for biocomputation and physics of complex systems'
p1188
g2
(g6
S'\xccO\x86E\xd3\xe0\xd0?'
p1189
tp1190
Rp1191
tp1192
a(S'ian foster'
p1193
g2
(g6
S'U\xf1\x06\xcd\xc9\xda\xd0?'
p1194
tp1195
Rp1196
tp1197
a(S'bachelor of computing'
p1198
g2
(g6
S'\x14\xbc\r\xc1\xe4\xd8\xd0?'
p1199
tp1200
Rp1201
tp1202
a(S'computational chemistry grid'
p1203
g2
(g6
S'\xbaw\xec1\xcc\xc9\xd0?'
p1204
tp1205
Rp1206
tp1207
a(S'personal computer'
p1208
g2
(g6
S'1jj\x19\x01\xbd\xd0?'
p1209
tp1210
Rp1211
tp1212
a(S'fujitsu vp'
p1213
g2
(g6
S'Y\xff\xbe\xe4T\xb9\xd0?'
p1214
tp1215
Rp1216
tp1217
a(S'elxsi'
p1218
g2
(g6
S'\xf9\xc62\x80\xab\xa9\xd0?'
p1219
tp1220
Rp1221
tp1222
a(S'mimd'
p1223
g2
(g6
S'g1j)s\xa7\xd0?'
p1224
tp1225
Rp1226
tp1227
a(S'cloud computing'
p1228
g2
(g6
S'_\xc7O\x14?\xa3\xd0?'
p1229
tp1230
Rp1231
tp1232
a(S'openpower foundation'
p1233
g2
(g6
S'\x8f"\x8e\x17\xb8\xa0\xd0?'
p1234
tp1235
Rp1236
tp1237
a(S'cell (microprocessor)'
p1238
g2
(g6
S'\x86k\xb4\x04k\x9d\xd0?'
p1239
tp1240
Rp1241
tp1242
a(S'cray c90'
p1243
g2
(g6
S'\xf2Y\x80\xe3\xd5\x9c\xd0?'
p1244
tp1245
Rp1246
tp1247
a(S'qpace2'
p1248
g2
(g6
S'Z!\xfb\xcbv\x8e\xd0?'
p1249
tp1250
Rp1251
tp1252
a(S'asci white'
p1253
g2
(g6
S'MN\x91\xd0\x90\x88\xd0?'
p1254
tp1255
Rp1256
tp1257
a(S'cray operating system'
p1258
g2
(g6
S'\xaa\xf0\x9c\xaf\xd3\x83\xd0?'
p1259
tp1260
Rp1261
tp1262
a(S'analysis of parallel algorithms'
p1263
g2
(g6
S'i>k\xdd\xde~\xd0?'
p1264
tp1265
Rp1266
tp1267
a(S'sidney fernbach award'
p1268
g2
(g6
S'\xaenO\xa9r}\xd0?'
p1269
tp1270
Rp1271
tp1272
a(S'mainframe computer'
p1273
g2
(g6
S'\x13\x86\xd8dAx\xd0?'
p1274
tp1275
Rp1276
tp1277
a(S'parsytec'
p1278
g2
(g6
S':\xf8c\xe6\xa2n\xd0?'
p1279
tp1280
Rp1281
tp1282
a(S'unicos'
p1283
g2
(g6
S'\x03FbL\xe4g\xd0?'
p1284
tp1285
Rp1286
tp1287
a(S'larry smarr'
p1288
g2
(g6
S'<\x8d\xe1\xe3\x94_\xd0?'
p1289
tp1290
Rp1291
tp1292
a(S'computer science'
p1293
g2
(g6
S'\xf4\x0fL6W[\xd0?'
p1294
tp1295
Rp1296
tp1297
a(S'steele (supercomputer)'
p1298
g2
(g6
S'\xda=dK\x15U\xd0?'
p1299
tp1300
Rp1301
tp1302
a(S'university of minnesota supercomputing institute'
p1303
g2
(g6
S'\xafm\x8c/;R\xd0?'
p1304
tp1305
Rp1306
tp1307
a(S'galileo (supercomputer)'
p1308
g2
(g6
S'k\xae\xeeiuQ\xd0?'
p1309
tp1310
Rp1311
tp1312
a(S'tera computer company'
p1313
g2
(g6
S'\xd7\x1b\xcc8\xbcK\xd0?'
p1314
tp1315
Rp1316
tp1317
a(S'carter (supercomputer)'
p1318
g2
(g6
S'\x1f \xe5\xf6\xb3H\xd0?'
p1319
tp1320
Rp1321
tp1322
a(S'intel tera-scale'
p1323
g2
(g6
S'\x9a\x19\xab\xbc\xacG\xd0?'
p1324
tp1325
Rp1326
tp1327
a(S'computon'
p1328
g2
(g6
S'\x12\xd1d\x94>G\xd0?'
p1329
tp1330
Rp1331
tp1332
a(S'ibm system z9'
p1333
g2
(g6
S'G\x1d3\x84\x8fF\xd0?'
p1334
tp1335
Rp1336
tp1337
a(S'scalability'
p1338
g2
(g6
S'\xbc\xc2\x86@w@\xd0?'
p1339
tp1340
Rp1341
tp1342
a(S'arctur-1'
p1343
g2
(g6
S'\xf0D\xf42B@\xd0?'
p1344
tp1345
Rp1346
tp1347
a(S'death star (ilm)'
p1348
g2
(g6
S'v\xb7\xea\xadH:\xd0?'
p1349
tp1350
Rp1351
tp1352
a(S'index of computing articles'
p1353
g2
(g6
S'\xa2F\xc9I{8\xd0?'
p1354
tp1355
Rp1356
tp1357
a(S'hans meuer'
p1358
g2
(g6
S'\xdb\xe0J2\xc05\xd0?'
p1359
tp1360
Rp1361
tp1362
a(S'cray x-mp'
p1363
g2
(g6
S'a\x11\x9a3\x1a.\xd0?'
p1364
tp1365
Rp1366
tp1367
a(S'bright computing'
p1368
g2
(g6
S'\xb8\xda\xef\x10I%\xd0?'
p1369
tp1370
Rp1371
tp1372
a(S'ai bridging cloud infrastructure'
p1373
g2
(g6
S't\xd8\x82\x00u$\xd0?'
p1374
tp1375
Rp1376
tp1377
a(S'mitac computing technology corp.'
p1378
g2
(g6
S'\x07\x0e]\xc9<$\xd0?'
p1379
tp1380
Rp1381
tp1382
a(S'swift (parallel scripting language)'
p1383
g2
(g6
S'n\xdf\xa8j\xc8\x1f\xd0?'
p1384
tp1385
Rp1386
tp1387
a(S'physical computing'
p1388
g2
(g6
S'\x0f\xfe\xc3\xbb\xd8\x19\xd0?'
p1389
tp1390
Rp1391
tp1392
a(S'cybergis'
p1393
g2
(g6
S'iBf\x89\xc8\x16\xd0?'
p1394
tp1395
Rp1396
tp1397
a(S'asymmetric multiprocessing'
p1398
g2
(g6
S'D\xcb\x94\xa3\xca\x11\xd0?'
p1399
tp1400
Rp1401
tp1402
a(S'resource allocation (computer)'
p1403
g2
(g6
S'\x8c\xd9\xed\xa5\xd2\xf3\xcf?'
p1404
tp1405
Rp1406
tp1407
a(S'cray t3d'
p1408
g2
(g6
S'D\x11\xad\x1e\xcf\xec\xcf?'
p1409
tp1410
Rp1411
tp1412
a(S'daniel a. reed (computer scientist)'
p1413
g2
(g6
S'\\hh\x80\x08\xeb\xcf?'
p1414
tp1415
Rp1416
tp1417
a(S'linpack benchmarks'
p1418
g2
(g6
S'\xc9\x0fI\x1d\x9f\xe8\xcf?'
p1419
tp1420
Rp1421
tp1422
a(S'cloudtran'
p1423
g2
(g6
S'\xa3K\x8e\x9a\x95\xda\xcf?'
p1424
tp1425
Rp1426
tp1427
a(S'acs-1'
p1428
g2
(g6
S'r\xee\x06R\x0c\xd7\xcf?'
p1429
tp1430
Rp1431
tp1432
a(S'control data corporation'
p1433
g2
(g6
S'\x8dM\xa5\xf9=\xd4\xcf?'
p1434
tp1435
Rp1436
tp1437
a(S'victorian partnership for advanced computing'
p1438
g2
(g6
S'X\x85Xy6\xd3\xcf?'
p1439
tp1440
Rp1441
tp1442
a(S'subhash saini'
p1443
g2
(g6
S'\x9f\xcd\xadX+\xd0\xcf?'
p1444
tp1445
Rp1446
tp1447
a(S'kazushige goto'
p1448
g2
(g6
S'Cn&\x04\xd7\xba\xcf?'
p1449
tp1450
Rp1451
tp1452
a(S'fifth generation computer'
p1453
g2
(g6
S'\\{1\xd6\xd8\xa7\xcf?'
p1454
tp1455
Rp1456
tp1457
a(S'idatacool'
p1458
g2
(g6
S'?\xde\xc0x\xf9\xa3\xcf?'
p1459
tp1460
Rp1461
tp1462
a(S'marc snir'
p1463
g2
(g6
S'\xb7`\x96\x9e>\xa0\xcf?'
p1464
tp1465
Rp1466
tp1467
a(S'frank zhigang wang'
p1468
g2
(g6
S'~\x14\x88\xde\x15\x98\xcf?'
p1469
tp1470
Rp1471
tp1472
a(S'illiac'
p1473
g2
(g6
S'b\xda\xfb\xe2}\x93\xcf?'
p1474
tp1475
Rp1476
tp1477
a(S'cray xc30'
p1478
g2
(g6
S'\xc2\xd5\xb1\xf5\t\x88\xcf?'
p1479
tp1480
Rp1481
tp1482
a(S'natural computing'
p1483
g2
(g6
S'\xdf\x16\xd2\xce\x9c\x82\xcf?'
p1484
tp1485
Rp1486
tp1487
a(S'cdc 6600'
p1488
g2
(g6
S'\x94\x8da\xc4\xfby\xcf?'
p1489
tp1490
Rp1491
tp1492
a(S'gstock'
p1493
g2
(g6
S'\x17O\xe5\xf5\x04v\xcf?'
p1494
tp1495
Rp1496
tp1497
a(S'message passing in computer clusters'
p1498
g2
(g6
S"\xa0\xf5]w'u\xcf?"
p1499
tp1500
Rp1501
tp1502
a(S'shanghai supercomputer center'
p1503
g2
(g6
S'\x08a\x13\x91\x8ep\xcf?'
p1504
tp1505
Rp1506
tp1507
a(S'mateo valero'
p1508
g2
(g6
S'y\xa1\xf1\x8a:h\xcf?'
p1509
tp1510
Rp1511
tp1512
a.