(lp0
(S'support (mathematics)'
p1
cnumpy.core.multiarray
scalar
p2
(cnumpy
dtype
p3
(S'f8'
p4
I0
I1
tp5
Rp6
(I3
S'<'
p7
NNNI-1
I-1
I0
tp8
bS'\xf7\xff\xff\xff\xff\xff\xef?'
p9
tp10
Rp11
tp12
a(S'distribution (mathematics)'
p13
g2
(g6
S'\x8a\x99\x86c\x8dN\xe1?'
p14
tp15
Rp16
tp17
a(S'dirac delta function'
p18
g2
(g6
S'\x04\x98ZZt\xa8\xdd?'
p19
tp20
Rp21
tp22
a(S'support'
p23
g2
(g6
S'z\x08y\xad\x1e\x99\xdd?'
p24
tp25
Rp26
tp27
a(S'compact space'
p28
g2
(g6
S'y!\r&O[\xdd?'
p29
tp30
Rp31
tp32
a(S'real-valued function'
p33
g2
(g6
S'p\x1dA\xd2O\x1c\xdc?'
p34
tp35
Rp36
tp37
a(S'support (measure theory)'
p38
g2
(g6
S'\n<\x97\x1fQ\xb6\xdb?'
p39
tp40
Rp41
tp42
a(S'function (mathematics)'
p43
g2
(g6
S'\xb7\x9d\x14\xbc\xbf\x91\xdb?'
p44
tp45
Rp46
tp47
a(S'function of several real variables'
p48
g2
(g6
S'\xea\xd1\x9b\x7f)c\xdb?'
p49
tp50
Rp51
tp52
a(S'function space'
p53
g2
(g6
S'\x05@\xaf\x0b\xe9\x1b\xdb?'
p54
tp55
Rp56
tp57
a(S'support function'
p58
g2
(g6
S'\xa36\xd0k\x18\xc8\xda?'
p59
tp60
Rp61
tp62
a(S'function of a real variable'
p63
g2
(g6
S'\xb8w:Y \xb4\xda?'
p64
tp65
Rp66
tp67
a(S'sierpi\xc5\x84ski space'
p68
g2
(g6
S':5\xa6\xfd\x05U\xda?'
p69
tp70
Rp71
tp72
a(S'plurisubharmonic function'
p73
g2
(g6
S'\xc0\xbb\x81\xbc\xd4N\xda?'
p74
tp75
Rp76
tp77
a(S'list of types of functions'
p78
g2
(g6
S'v\xbc\xe6xK7\xda?'
p79
tp80
Rp81
tp82
a(S'vanish at infinity'
p83
g2
(g6
S'\xbfAJN\xb0\n\xda?'
p84
tp85
Rp86
tp87
a(S'list of mathematical functions'
p88
g2
(g6
S'SX\xa8h\xa4\xe7\xd9?'
p89
tp90
Rp91
tp92
a(S'content (measure theory)'
p93
g2
(g6
S'e\xca\x9f`1\xe4\xd9?'
p94
tp95
Rp96
tp97
a(S'zero set'
p98
g2
(g6
S'y\x10\xa8\xb7m\xa9\xd9?'
p99
tp100
Rp101
tp102
a(S'baire set'
p103
g2
(g6
S'p\x81\xf6j\x8b\x9c\xd9?'
p104
tp105
Rp106
tp107
a(S'subharmonic function'
p108
g2
(g6
S'\xdc\xc8\xad\xe9\xc4S\xd9?'
p109
tp110
Rp111
tp112
a(S'hyperfunction'
p113
g2
(g6
S'>\x0f\xe4\x8f\xe0Q\xd9?'
p114
tp115
Rp116
tp117
a(S'pseudocompact space'
p118
g2
(g6
S'm\x16\x8e\x0f\xb1\xdf\xd8?'
p119
tp120
Rp121
tp122
a(S'multivalued function'
p123
g2
(g6
S'\xe7\x01?\xd8$\xd4\xd8?'
p124
tp125
Rp126
tp127
a(S'singular function'
p128
g2
(g6
S'y\xfaw\x92Y\xc4\xd8?'
p129
tp130
Rp131
tp132
a(S'baire function'
p133
g2
(g6
S'tg\xcb\xfc\x99\x9c\xd8?'
p134
tp135
Rp136
tp137
a(S'compactification (mathematics)'
p138
g2
(g6
S'\xa6k\xc2B\xd2\x92\xd8?'
p139
tp140
Rp141
tp142
a(S'relatively compact subspace'
p143
g2
(g6
S'?Mh4\x9e\x82\xd8?'
p144
tp145
Rp146
tp147
a(S'hemicompact space'
p148
g2
(g6
S'!\xa7\xc9\xcf0z\xd8?'
p149
tp150
Rp151
tp152
a(S'subadditive set function'
p153
g2
(g6
S'\xb6\xde\x06\xa4\x00w\xd8?'
p154
tp155
Rp156
tp157
a(S'schwartz space'
p158
g2
(g6
S'\x89un\xd6\x8av\xd8?'
p159
tp160
Rp161
tp162
a(S'locally integrable function'
p163
g2
(g6
S'[\xff8\xac\x9eV\xd8?'
p164
tp165
Rp166
tp167
a(S'bump function'
p168
g2
(g6
S'v|\x01bJI\xd8?'
p169
tp170
Rp171
tp172
a(S'closed set'
p173
g2
(g6
S'\xac\xe7"\x90\x93H\xd8?'
p174
tp175
Rp176
tp177
a(S'continuous function'
p178
g2
(g6
S'/[\xff)m;\xd8?'
p179
tp180
Rp181
tp182
a(S'generalized function'
p183
g2
(g6
S'\x01\xe3\x81\xd0$\x15\xd8?'
p184
tp185
Rp186
tp187
a(S'whitney extension theorem'
p188
g2
(g6
S'\xaf!*\xef`\r\xd8?'
p189
tp190
Rp191
tp192
a(S"lusin's theorem"
p193
g2
(g6
S'\xb6\xb8\xef?\xe4\xc5\xd7?'
p194
tp195
Rp196
tp197
a(S'\xce\xa3-compact space'
p198
g2
(g6
S'n\xd1\xdb3\x9f\xb9\xd7?'
p199
tp200
Rp201
tp202
a(S'simple function'
p203
g2
(g6
S'\x18\x00\x82\\&\x89\xd7?'
p204
tp205
Rp206
tp207
a(S'proper map'
p208
g2
(g6
S'S\xc7l5\xd6{\xd7?'
p209
tp210
Rp211
tp212
a(S'cohomology with compact support'
p213
g2
(g6
S'&\x9f\xb7H\x01Y\xd7?'
p214
tp215
Rp216
tp217
a(S'continuous functions on a compact hausdorff space'
p218
g2
(g6
S'\xd8\x91\xaePaR\xd7?'
p219
tp220
Rp221
tp222
a(S'wave front set'
p223
g2
(g6
S'\xcb\x1f=\x9a\x00K\xd7?'
p224
tp225
Rp226
tp227
a(S'semialgebraic space'
p228
g2
(g6
S'\xffO\xc3\x82\x0eG\xd7?'
p229
tp230
Rp231
tp232
a(S'polyadic space'
p233
g2
(g6
S'\xaf\x07\xa4\x95\xd4F\xd7?'
p234
tp235
Rp236
tp237
a(S'indicator function'
p238
g2
(g6
S'\x1c\xad\x0fL\xd4/\xd7?'
p239
tp240
Rp241
tp242
a(S'quantile function'
p243
g2
(g6
S'~-Q\x80\xa1%\xd7?'
p244
tp245
Rp246
tp247
a(S'arzel\xc3\xa0\xe2\x80\x93ascoli theorem'
p248
g2
(g6
S'1\xa8\x0b9\xba$\xd7?'
p249
tp250
Rp251
tp252
a(S'glossary of topology'
p253
g2
(g6
S'G\xdc\n\xd3\n\x05\xd7?'
p254
tp255
Rp256
tp257
a(S'pompeiu derivative'
p258
g2
(g6
S'\xeen\xea\xa2E\xd9\xd6?'
p259
tp260
Rp261
tp262
a(S'non-analytic smooth function'
p263
g2
(g6
S'M\x81\xe7\xfe\xe6\xcf\xd6?'
p264
tp265
Rp266
tp267
a(S'entire function'
p268
g2
(g6
S'\xa9dA{\xaf\xcf\xd6?'
p269
tp270
Rp271
tp272
a(S'essential range'
p273
g2
(g6
S'\x04YP\x91\xe4\xae\xd6?'
p274
tp275
Rp276
tp277
a(S'feebly compact space'
p278
g2
(g6
S'\x91M7\xd5\t\xaa\xd6?'
p279
tp280
Rp281
tp282
a(S'currying'
p283
g2
(g6
S'\x1a\x8f\x81\xd8\xbb\x9f\xd6?'
p284
tp285
Rp286
tp287
a(S'complex-valued function'
p288
g2
(g6
S'\xb7=\xa9P\x84\x8b\xd6?'
p289
tp290
Rp291
tp292
a(S'alexandroff extension'
p293
g2
(g6
S'\xcd\xa63\x9d\x93u\xd6?'
p294
tp295
Rp296
tp297
a(S'sinc function'
p298
g2
(g6
S'2\x0fc,\xbaY\xd6?'
p299
tp300
Rp301
tp302
a(S'set function'
p303
g2
(g6
S'l\x12\xf6\xf5\x9aV\xd6?'
p304
tp305
Rp306
tp307
a(S'equicontinuity'
p308
g2
(g6
S"G$.'\xd1F\xd6?"
p309
tp310
Rp311
tp312
a(S'noetherian topological space'
p313
g2
(g6
S'4\x9a\xb0\x01w?\xd6?'
p314
tp315
Rp316
tp317
a(S'mollifier'
p318
g2
(g6
S'-\x81\xb6\x97\xd83\xd6?'
p319
tp320
Rp321
tp322
a(S'hurewicz space'
p323
g2
(g6
S'\x0f"i\x9d\xd8\x1c\xd6?'
p324
tp325
Rp326
tp327
a(S'g\xce\xb4 set'
p328
g2
(g6
S'\xf1\xde\x08\\\xa4\x1c\xd6?'
p329
tp330
Rp331
tp332
a(S'meromorphic function'
p333
g2
(g6
S'\xb5\x80@\xcf\x91\x1b\xd6?'
p334
tp335
Rp336
tp337
a(S'smoothness'
p338
g2
(g6
S'\xab\xd9\xf5\x06W\x0f\xd6?'
p339
tp340
Rp341
tp342
a(S'random compact set'
p343
g2
(g6
S'\x92\r\xbaG\xd0\xfd\xd5?'
p344
tp345
Rp346
tp347
a(S'c\xc3\xa0dl\xc3\xa0g'
p348
g2
(g6
S'/\x1f8\x15%\xe7\xd5?'
p349
tp350
Rp351
tp352
a(S'real analysis'
p353
g2
(g6
S'\x85\x1b\x0f\xb4{\xc4\xd5?'
p354
tp355
Rp356
tp357
a(S'bounded variation'
p358
g2
(g6
S'\xc5l?\x1cx\xc3\xd5?'
p359
tp360
Rp361
tp362
a(S'radon measure'
p363
g2
(g6
S'-+\xde\n\xcd\xb7\xd5?'
p364
tp365
Rp366
tp367
a(S'characteristic function (probability theory)'
p368
g2
(g6
S'\xbc\xaf\xcc\xac\xfb\xab\xd5?'
p369
tp370
Rp371
tp372
a(S'locally compact space'
p373
g2
(g6
S'\xa7\xc5\xfeH\x05\xa7\xd5?'
p374
tp375
Rp376
tp377
a(S'locally compact group'
p378
g2
(g6
S'q\xc0|SO\x9d\xd5?'
p379
tp380
Rp381
tp382
a(S'pontryagin duality'
p383
g2
(g6
S'\x15\xa5j\x88d\x91\xd5?'
p384
tp385
Rp386
tp387
a(S'binary function'
p388
g2
(g6
S'>2]\xac\xa4z\xd5?'
p389
tp390
Rp391
tp392
a(S'constant function'
p393
g2
(g6
S'\xc1E\xdc\x82\x04t\xd5?'
p394
tp395
Rp396
tp397
a(S'sub-stonean space'
p398
g2
(g6
S'\xed\x1f\xff\x19\xe6P\xd5?'
p399
tp400
Rp401
tp402
a(S'superfunction'
p403
g2
(g6
S'o{\x99\xfft@\xd5?'
p404
tp405
Rp406
tp407
a(S'domain of a function'
p408
g2
(g6
S'\xc2\x1e\xdd\xdf91\xd5?'
p409
tp410
Rp411
tp412
a(S'extended real number line'
p413
g2
(g6
S'8\xd42\x8cw+\xd5?'
p414
tp415
Rp416
tp417
a(S'heaviside step function'
p418
g2
(g6
S'E\xdcDD\xf4\x1f\xd5?'
p419
tp420
Rp421
tp422
a(S'nowhere continuous function'
p423
g2
(g6
S'\x93K\xa9H\x18\x10\xd5?'
p424
tp425
Rp426
tp427
a(S'rectangular function'
p428
g2
(g6
S'\x92w\xc3\x05\xab\x04\xd5?'
p429
tp430
Rp431
tp432
a(S'lebesgue integration'
p433
g2
(g6
S'\xf9\x952\xa6S\x01\xd5?'
p434
tp435
Rp436
tp437
a(S'riesz\xe2\x80\x93markov\xe2\x80\x93kakutani representation theorem'
p438
g2
(g6
S'$\xffl\xd9\xfd\xfc\xd4?'
p439
tp440
Rp441
tp442
a(S'history of the function concept'
p443
g2
(g6
S'~R=\xd1\x07\xfa\xd4?'
p444
tp445
Rp446
tp447
a(S'size function'
p448
g2
(g6
S'\xf8\xbeI\x9c\xbd\xe9\xd4?'
p449
tp450
Rp451
tp452
a(S'list of real analysis topics'
p453
g2
(g6
S'eu\xcf\xb4\xa7\xe3\xd4?'
p454
tp455
Rp456
tp457
a(S'first-class function'
p458
g2
(g6
S'\x12\x9c-\x08\xb3\xe0\xd4?'
p459
tp460
Rp461
tp462
a(S'general topology'
p463
g2
(g6
S'q\xb2m+|\xce\xd4?'
p464
tp465
Rp466
tp467
a(S'lp space'
p468
g2
(g6
S'\x82\xe3\xf9\xec\xc5\xc8\xd4?'
p469
tp470
Rp471
tp472
a(S'schwartz kernel theorem'
p473
g2
(g6
S'\xce\x0b\x92\xfa\xe4\xaf\xd4?'
p474
tp475
Rp476
tp477
a(S'function type'
p478
g2
(g6
S'\xc4JG\x9ci\xad\xd4?'
p479
tp480
Rp481
tp482
a(S'semi-continuity'
p483
g2
(g6
S'\xc3\x9d\xf7>\xea\xa6\xd4?'
p484
tp485
Rp486
tp487
a(S'rothberger space'
p488
g2
(g6
S'\x04\xe8+\r\x89\xa6\xd4?'
p489
tp490
Rp491
tp492
a(S'baire space'
p493
g2
(g6
S'\xf6f\xfd\xf0\xc6\xa2\xd4?'
p494
tp495
Rp496
tp497
a(S'compact-open topology'
p498
g2
(g6
S'\xb6\x0c\xfdE\x95\x98\xd4?'
p499
tp500
Rp501
tp502
a(S'bounded function'
p503
g2
(g6
S'S\x99I\x11<\x97\xd4?'
p504
tp505
Rp506
tp507
a(S'cauchy principal value'
p508
g2
(g6
S'\x17P\x0b\xab\xaf\x88\xd4?'
p509
tp510
Rp511
tp512
a(S'heine\xe2\x80\x93borel theorem'
p513
g2
(g6
S'\x8a\x1cW\xc1\x7f\x87\xd4?'
p514
tp515
Rp516
tp517
a(S'size pair'
p518
g2
(g6
S'y\xc2\r\x87\xca\x85\xd4?'
p519
tp520
Rp521
tp522
a(S'topological group'
p523
g2
(g6
S't\xe0i\xd8\xed\x83\xd4?'
p524
tp525
Rp526
tp527
a(S'integer-valued function'
p528
g2
(g6
S'\x00\xfc\x91O\xfc\x80\xd4?'
p529
tp530
Rp531
tp532
a(S'separating set'
p533
g2
(g6
S'C\xef\x91\xa0p\x80\xd4?'
p534
tp535
Rp536
tp537
a(S'function composition'
p538
g2
(g6
S'\xe9B\xb2M\xe0x\xd4?'
p539
tp540
Rp541
tp542
a(S'superadditive set function'
p543
g2
(g6
S'\xfckg\xb6\x1ap\xd4?'
p544
tp545
Rp546
tp547
a(S'rvachev function'
p548
g2
(g6
S'\xf2\xf5\xcb\xed\x8d<\xd4?'
p549
tp550
Rp551
tp552
a(S"thomae's function"
p553
g2
(g6
S'y\xa8\x89\x0b\x859\xd4?'
p554
tp555
Rp556
tp557
a(S'h-closed space'
p558
g2
(g6
S'\x7f\xcd\xa7c\xc1%\xd4?'
p559
tp560
Rp561
tp562
a(S'tietze extension theorem'
p563
g2
(g6
S'\xb9\x9dX\x89\xcf#\xd4?'
p564
tp565
Rp566
tp567
a(S'one-way function'
p568
g2
(g6
S'\x90\xd7\x13\x9f\x89\x1c\xd4?'
p569
tp570
Rp571
tp572
a(S"borel's lemma"
p573
g2
(g6
S'a\x8c{\xda\xe6\x18\xd4?'
p574
tp575
Rp576
tp577
a(S'lindel\xc3\xb6f space'
p578
g2
(g6
S'\x13\xa6\xb7\xba\xc7\x14\xd4?'
p579
tp580
Rp581
tp582
a(S'selection principle'
p583
g2
(g6
S';AD\x99\xba\x14\xd4?'
p584
tp585
Rp586
tp587
a(S'unimodality'
p588
g2
(g6
S'Fg\xa8\xfa\x94\t\xd4?'
p589
tp590
Rp591
tp592
a(S'h\xc3\xb6lder condition'
p593
g2
(g6
S'\xfd-\xa1\x98V\x05\xd4?'
p594
tp595
Rp596
tp597
a(S'dirac measure'
p598
g2
(g6
S'X\xd2\x9a\xe7\xdf\xf8\xd3?'
p599
tp600
Rp601
tp602
a(S'schwartz\xe2\x80\x93bruhat function'
p603
g2
(g6
S'\xec\xa3\xbe\x8d\x81\xf3\xd3?'
p604
tp605
Rp606
tp607
a(S'prevalent and shy sets'
p608
g2
(g6
S'\x14\x81+(/\xf0\xd3?'
p609
tp610
Rp611
tp612
a(S'singular measure'
p613
g2
(g6
S'\x01\xc9\x13\x9f\x12\xeb\xd3?'
p614
tp615
Rp616
tp617
a(S'transverse measure'
p618
g2
(g6
S'A\x97\xca\x9a\xb7\xe8\xd3?'
p619
tp620
Rp621
tp622
a(S'stone\xe2\x80\x93\xc4\x8cech compactification'
p623
g2
(g6
S'\x9d5\xf6\xf8\xb5\xe8\xd3?'
p624
tp625
Rp626
tp627
a(S'l-function'
p628
g2
(g6
S'P\xe4\x08;\\\xe1\xd3?'
p629
tp630
Rp631
tp632
a(S'open and closed maps'
p633
g2
(g6
S'\xaf\x05j\x05\xa1\xd8\xd3?'
p634
tp635
Rp636
tp637
a(S'end (topology)'
p638
g2
(g6
S'T\x0b\x0e6[\xd2\xd3?'
p639
tp640
Rp641
tp642
a(S'compact'
p643
g2
(g6
S'tq\xb9\xa2~\xc5\xd3?'
p644
tp645
Rp646
tp647
a(S'singular distribution'
p648
g2
(g6
S' \xbddU\xfb\xbe\xd3?'
p649
tp650
Rp651
tp652
a(S'mean-periodic function'
p653
g2
(g6
S'\xd0\xb5\x05\x02\xfc\xb7\xd3?'
p654
tp655
Rp656
tp657
a(S'closed convex function'
p658
g2
(g6
S'q\x9b\xb4\x12\x8c\xa2\xd3?'
p659
tp660
Rp661
tp662
a(S'\xce\xa9-bounded space'
p663
g2
(g6
S'\xfd\\\x88\xfa\xa2\xa0\xd3?'
p664
tp665
Rp666
tp667
a(S'step function'
p668
g2
(g6
S'U\xb4D\xcb\x9f\xa0\xd3?'
p669
tp670
Rp671
tp672
a(S'dense set'
p673
g2
(g6
S';\xf0Vu\xe4\x9f\xd3?'
p674
tp675
Rp676
tp677
a(S'radon\xe2\x80\x93nikodym theorem'
p678
g2
(g6
S'8\xde\x7f\x11\xce\x91\xd3?'
p679
tp680
Rp681
tp682
a(S'test functions for optimization'
p683
g2
(g6
S'|\xee\xeaA\xa5\x90\xd3?'
p684
tp685
Rp686
tp687
a(S'maximising measure'
p688
g2
(g6
S'8\xf5\xac\xaf\xd3\x81\xd3?'
p689
tp690
Rp691
tp692
a(S'function theory'
p693
g2
(g6
S'\xb5\xc7\x97\xc3\xc3\x7f\xd3?'
p694
tp695
Rp696
tp697
a(S'normal family'
p698
g2
(g6
S'\xcd\x12\x05\x99\xabx\xd3?'
p699
tp700
Rp701
tp702
a(S'meijer g-function'
p703
g2
(g6
S'\xf1\xc0\\\xe0\x83r\xd3?'
p704
tp705
Rp706
tp707
a(S'quasiconvex function'
p708
g2
(g6
S'-K\x0e\xce\xf3f\xd3?'
p709
tp710
Rp711
tp712
a(S'hartogs\xe2\x80\x93rosenthal theorem'
p713
g2
(g6
S'G\x8f\xd3\xc2\x99^\xd3?'
p714
tp715
Rp716
tp717
a(S'griewank function'
p718
g2
(g6
S'N2G\x8b\xcb[\xd3?'
p719
tp720
Rp721
tp722
a(S'fundamental lemma of calculus of variations'
p723
g2
(g6
S'h\xf1\xcc\xa7\xf0T\xd3?'
p724
tp725
Rp726
tp727
a(S'compact operator'
p728
g2
(g6
S'\xa5\xd1\xc8k\xa1L\xd3?'
p729
tp730
Rp731
tp732
a(S'open set'
p733
g2
(g6
S'\xfb\n\xac\x9atI\xd3?'
p734
tp735
Rp736
tp737
a(S'space (mathematics)'
p738
g2
(g6
S't\xf8#\xae\xe9C\xd3?'
p739
tp740
Rp741
tp742
a(S'codomain'
p743
g2
(g6
S'\xc80\xbd\xce>?\xd3?'
p744
tp745
Rp746
tp747
a(S"darboux's theorem (analysis)"
p748
g2
(g6
S'\x19/\xa4Js7\xd3?'
p749
tp750
Rp751
tp752
a(S'slowly varying function'
p753
g2
(g6
S'\xad\xe6\xe2\xcc\xb0-\xd3?'
p754
tp755
Rp756
tp757
a(S'caccioppoli set'
p758
g2
(g6
S'\xcb\x88\x9d\xfb\x9e,\xd3?'
p759
tp760
Rp761
tp762
a(S'special functions'
p763
g2
(g6
S'\xa7\xdaj\xbb\xda"\xd3?'
p764
tp765
Rp766
tp767
a(S'spectral theory of ordinary differential equations'
p768
g2
(g6
S'\xe4f\x01\xd7\x9a\x1c\xd3?'
p769
tp770
Rp771
tp772
a(S'cumulative distribution function'
p773
g2
(g6
S' \xe7\x9b5\x1b\x1b\xd3?'
p774
tp775
Rp776
tp777
a(S'pluripolar set'
p778
g2
(g6
S'Z\xb1n\x03\x93\x1a\xd3?'
p779
tp780
Rp781
tp782
a(S'exhaustion by compact sets'
p783
g2
(g6
S'\xfb\x06X\x91^\x18\xd3?'
p784
tp785
Rp786
tp787
a(S'polygamma function'
p788
g2
(g6
S'}\xb0\xf9)\xac\x10\xd3?'
p789
tp790
Rp791
tp792
a(S'moment-generating function'
p793
g2
(g6
S'\xbcbh\xb06\x08\xd3?'
p794
tp795
Rp796
tp797
a(S'topological property'
p798
g2
(g6
S'\x10\x83\x8a[j\xfd\xd2?'
p799
tp800
Rp801
tp802
a(S'pseudoconvex function'
p803
g2
(g6
S'\xd9N\xc9\x8a\xdf\xf9\xd2?'
p804
tp805
Rp806
tp807
a(S'almost periodic function'
p808
g2
(g6
S'\xce&Kx\x18\xf7\xd2?'
p809
tp810
Rp811
tp812
a(S'complex analysis'
p813
g2
(g6
S'\x85\xa7\xfe\xa6\xd5\xf3\xd2?'
p814
tp815
Rp816
tp817
a(S'constant of integration'
p818
g2
(g6
S'q7\xac:B\xee\xd2?'
p819
tp820
Rp821
tp822
a(S'distribution (number theory)'
p823
g2
(g6
S'\x0e\x03Z\x90R\xed\xd2?'
p824
tp825
Rp826
tp827
a(S'probability distribution'
p828
g2
(g6
S"'A(\x88\x0e\xe8\xd2?"
p829
tp830
Rp831
tp832
a(S'q-weibull distribution'
p833
g2
(g6
S'f\x83\x1e[\x95\xe5\xd2?'
p834
tp835
Rp836
tp837
a(S'regulated integral'
p838
g2
(g6
S'\xdb\x87\xaa\xb3g\xe5\xd2?'
p839
tp840
Rp841
tp842
a(S'pluriharmonic function'
p843
g2
(g6
S'C\nS/\r\xdf\xd2?'
p844
tp845
Rp846
tp847
a(S'probability distribution function'
p848
g2
(g6
S'A\xfa\x9b\x91\xe7\xdd\xd2?'
p849
tp850
Rp851
tp852
a(S'holtsmark distribution'
p853
g2
(g6
S'<\xc9\xdejT\xdd\xd2?'
p854
tp855
Rp856
tp857
a(S'pfaffian function'
p858
g2
(g6
S'\xd6%\x0f\x00-\xd6\xd2?'
p859
tp860
Rp861
tp862
a(S'hardy space'
p863
g2
(g6
S'\xc4\xe9}>\xeb\xcc\xd2?'
p864
tp865
Rp866
tp867
a(S'paracompact space'
p868
g2
(g6
S'6\xf85\xf26\xcb\xd2?'
p869
tp870
Rp871
tp872
a(S'representative function'
p873
g2
(g6
S'ekA\x00\xfe\xc6\xd2?'
p874
tp875
Rp876
tp877
a(S'social support'
p878
g2
(g6
S'\x9a^\x87\xf5\xca\xc4\xd2?'
p879
tp880
Rp881
tp882
a(S'differential forms on a riemann surface'
p883
g2
(g6
S'n\xfd\xa2\xa7$\xc2\xd2?'
p884
tp885
Rp886
tp887
a(S'corona set'
p888
g2
(g6
S'rHY\x90U\xb8\xd2?'
p889
tp890
Rp891
tp892
a(S'compactly generated group'
p893
g2
(g6
S'\xcb\x11\x11\xcc\x0c\xb6\xd2?'
p894
tp895
Rp896
tp897
a(S'nemytskii operator'
p898
g2
(g6
S'\xd2\x94\xe2!"\xb1\xd2?'
p899
tp900
Rp901
tp902
a(S'p-adic distribution'
p903
g2
(g6
S'\x03\xa1\x06\xebn\xb0\xd2?'
p904
tp905
Rp906
tp907
a(S'clopen set'
p908
g2
(g6
S'f9\xa9@d\xaf\xd2?'
p909
tp910
Rp911
tp912
a(S'rate function'
p913
g2
(g6
S'\x04I<}c\xae\xd2?'
p914
tp915
Rp916
tp917
a(S'spherical contact distribution function'
p918
g2
(g6
S'\xe6\xd4\x97\xd1\xb0\xad\xd2?'
p919
tp920
Rp921
tp922
a(S"green's function"
p923
g2
(g6
S'\xe1\x07v\xe2\t\xa9\xd2?'
p924
tp925
Rp926
tp927
a(S'uniform continuity'
p928
g2
(g6
S'\x02\t\x9e\x8aN\xa2\xd2?'
p929
tp930
Rp931
tp932
a(S'probability mass function'
p933
g2
(g6
S'A(\xd2SU\x9e\xd2?'
p934
tp935
Rp936
tp937
a(S'flat function'
p938
g2
(g6
S'\r\x99\x84^\x83\x9d\xd2?'
p939
tp940
Rp941
tp942
a(S'g\xce\xb4 space'
p943
g2
(g6
S'\xf4\xed6\x0f=\x91\xd2?'
p944
tp945
Rp946
tp947
a(S'submodular set function'
p948
g2
(g6
S'+\xd8\xfe]-\x8f\xd2?'
p949
tp950
Rp951
tp952
a(S'partial function'
p953
g2
(g6
S'9\x1b\x9f\x853\x8a\xd2?'
p954
tp955
Rp956
tp957
a(S'partition function (mathematics)'
p958
g2
(g6
S'\xbez\xebA\xd9\x89\xd2?'
p959
tp960
Rp961
tp962
a(S'limit point compact'
p963
g2
(g6
S'\x08\xdc\x0eH\x7f\x88\xd2?'
p964
tp965
Rp966
tp967
a(S'baire measure'
p968
g2
(g6
S'\x91\xe8.\xa1\x93\x86\xd2?'
p969
tp970
Rp971
tp972
a(S'liouvillian function'
p973
g2
(g6
S'\xe4\xa6\xceg^\x85\xd2?'
p974
tp975
Rp976
tp977
a(S'single-valued function'
p978
g2
(g6
S' \x9f\x92\xb7\xb6w\xd2?'
p979
tp980
Rp981
tp982
a(S'balanced polygamma function'
p983
g2
(g6
S'\xf1\xf7\xa8\x13\rw\xd2?'
p984
tp985
Rp986
tp987
a(S'weakly compact'
p988
g2
(g6
S'u3o/\xd0r\xd2?'
p989
tp990
Rp991
tp992
a(S'identity function'
p993
g2
(g6
S'@?\xbdjLn\xd2?'
p994
tp995
Rp996
tp997
a(S'antiderivative (complex analysis)'
p998
g2
(g6
S'\x8d0\x8c\x9c\xc5m\xd2?'
p999
tp1000
Rp1001
tp1002
a(S'hardy field'
p1003
g2
(g6
S'\x80}\xd2\xd5\x84l\xd2?'
p1004
tp1005
Rp1006
tp1007
a(S'trace operator'
p1008
g2
(g6
S'\x9a\x17VJ\xc3k\xd2?'
p1009
tp1010
Rp1011
tp1012
a(S'refinable function'
p1013
g2
(g6
S'\xbdj\x94h+g\xd2?'
p1014
tp1015
Rp1016
tp1017
a(S'tychonoff space'
p1018
g2
(g6
S"b'\xb8\xc9\xd6c\xd2?"
p1019
tp1020
Rp1021
tp1022
a(S'laplacian of the indicator'
p1023
g2
(g6
S'Ea\xa2\x02\xbbb\xd2?'
p1024
tp1025
Rp1026
tp1027
a(S't1 space'
p1028
g2
(g6
S'(H\x8e\x9cB_\xd2?'
p1029
tp1030
Rp1031
tp1032
a(S'realcompact space'
p1033
g2
(g6
S'-\xcb9\xe3\x18Z\xd2?'
p1034
tp1035
Rp1036
tp1037
a(S'elementary function'
p1038
g2
(g6
S'\x11\x82\xa6\x0cuP\xd2?'
p1039
tp1040
Rp1041
tp1042
a(S'point (geometry)'
p1043
g2
(g6
S'H0\xc6\xd2\x86N\xd2?'
p1044
tp1045
Rp1046
tp1047
a(S'arithmetic function'
p1048
g2
(g6
S'\xf3\x83\xb2\x14\xadL\xd2?'
p1049
tp1050
Rp1051
tp1052
a(S'pasting lemma'
p1053
g2
(g6
S'\x16\x14}\x93\xf5K\xd2?'
p1054
tp1055
Rp1056
tp1057
a(S'mesocompact space'
p1058
g2
(g6
S'S\xb4Sq?J\xd2?'
p1059
tp1060
Rp1061
tp1062
a(S'tightness of measures'
p1063
g2
(g6
S'Q|\xe6\xcd\xfbF\xd2?'
p1064
tp1065
Rp1066
tp1067
a(S'absolute continuity'
p1068
g2
(g6
S'r\x8e\xaa{%F\xd2?'
p1069
tp1070
Rp1071
tp1072
a(S'pseudoconvexity'
p1073
g2
(g6
S'm\x05\xe9l0:\xd2?'
p1074
tp1075
Rp1076
tp1077
a(S'even and odd functions'
p1078
g2
(g6
S'\xd6\x9fV\xa2&9\xd2?'
p1079
tp1080
Rp1081
tp1082
a(S'borsuk\xe2\x80\x93ulam theorem'
p1083
g2
(g6
S'\xd9\xc3\xd0%\xfc2\xd2?'
p1084
tp1085
Rp1086
tp1087
a(S'characterizations of the category of topological spaces'
p1088
g2
(g6
S'6\xf4\xcc\x9c\xbe-\xd2?'
p1089
tp1090
Rp1091
tp1092
a(S'delta function (disambiguation)'
p1093
g2
(g6
S'b\xea)i\xbc#\xd2?'
p1094
tp1095
Rp1096
tp1097
a(S'measure (mathematics)'
p1098
g2
(g6
S'<\x0br\xc4\xca\x1b\xd2?'
p1099
tp1100
Rp1101
tp1102
a(S'real line'
p1103
g2
(g6
S'\xf3(\x7f\xe2\xc6\x16\xd2?'
p1104
tp1105
Rp1106
tp1107
a(S'higher-order function'
p1108
g2
(g6
S'\xb4\xff>\xd4\x8d\x11\xd2?'
p1109
tp1110
Rp1111
tp1112
a(S'topological space'
p1113
g2
(g6
S'|\xc9\x96x\xb3\x0c\xd2?'
p1114
tp1115
Rp1116
tp1117
a(S'regulated function'
p1118
g2
(g6
S'3)\xddI-\x07\xd2?'
p1119
tp1120
Rp1121
tp1122
a(S'compact riemann surface'
p1123
g2
(g6
S'\xbd\x05[\x1c\xf0\x02\xd2?'
p1124
tp1125
Rp1126
tp1127
a(S'wave function'
p1128
g2
(g6
S'\x7f1\t\xca}\xf5\xd1?'
p1129
tp1130
Rp1131
tp1132
a(S'paley\xe2\x80\x93wiener theorem'
p1133
g2
(g6
S'\x15\xa1>\x1e\xce\xf4\xd1?'
p1134
tp1135
Rp1136
tp1137
a(S'e-function'
p1138
g2
(g6
S'\xb3\xc9\xab\x90\x92\xf2\xd1?'
p1139
tp1140
Rp1141
tp1142
a(S'life support (disambiguation)'
p1143
g2
(g6
S'\xa8\xd7f\xb0\x8d\xf2\xd1?'
p1144
tp1145
Rp1146
tp1147
a(S'local boundedness'
p1148
g2
(g6
S'+c\xaa(S\xf2\xd1?'
p1149
tp1150
Rp1151
tp1152
a(S'q-function'
p1153
g2
(g6
S'\xe7F-b\xfb\xe1\xd1?'
p1154
tp1155
Rp1156
tp1157
a(S'gevrey class'
p1158
g2
(g6
S'\x0f\xae\x94\xda\x83\xde\xd1?'
p1159
tp1160
Rp1161
tp1162
a(S'direct image with compact support'
p1163
g2
(g6
S'\xd1\x7f\x13o\xa4\xd7\xd1?'
p1164
tp1165
Rp1166
tp1167
a(S"lebesgue's number lemma"
p1168
g2
(g6
S'\x97N\r\x1f\x1c\xd3\xd1?'
p1169
tp1170
Rp1171
tp1172
a(S'probability density function'
p1173
g2
(g6
S'\xafi0\xc3\x9d\xcf\xd1?'
p1174
tp1175
Rp1176
tp1177
a(S'holonomic function'
p1178
g2
(g6
S'\xe4\xec/\xcf \xcc\xd1?'
p1179
tp1180
Rp1181
tp1182
a(S'taylor series'
p1183
g2
(g6
S'2\xa3l\xce(\xc9\xd1?'
p1184
tp1185
Rp1186
tp1187
a(S'list of mathematical abbreviations'
p1188
g2
(g6
S'\xfe\xdaN\x16\x11\xc4\xd1?'
p1189
tp1190
Rp1191
tp1192
a(S'regular measure'
p1193
g2
(g6
S'"\xa7\xb5\xa7\xd6\xc1\xd1?'
p1194
tp1195
Rp1196
tp1197
a(S'anonymous function'
p1198
g2
(g6
S'\xb9j\xf9!\xd2\xc0\xd1?'
p1199
tp1200
Rp1201
tp1202
a(S'zahorski theorem'
p1203
g2
(g6
S'\xe0\x9b v\x85\xab\xd1?'
p1204
tp1205
Rp1206
tp1207
a(S'universal approximation theorem'
p1208
g2
(g6
S'\xc49\xab;\xa6\xa0\xd1?'
p1209
tp1210
Rp1211
tp1212
a(S'process function'
p1213
g2
(g6
S'U\xef\xa3\xcd#\x99\xd1?'
p1214
tp1215
Rp1216
tp1217
a(S'set-theoretic topology'
p1218
g2
(g6
S'\xc8\xc6V6\x1d\x91\xd1?'
p1219
tp1220
Rp1221
tp1222
a(S'inner regular measure'
p1223
g2
(g6
S'\xce\xf9\xfd<[\x8f\xd1?'
p1224
tp1225
Rp1226
tp1227
a(S'nevanlinna function'
p1228
g2
(g6
S'\xb4\x02\xb9\xee\x95\x8e\xd1?'
p1229
tp1230
Rp1231
tp1232
a(S'error function'
p1233
g2
(g6
S'\xfa2\xb0ie\x8c\xd1?'
p1234
tp1235
Rp1236
tp1237
a(S'cumulant'
p1238
g2
(g6
S';T]\xcc\xa3\x88\xd1?'
p1239
tp1240
Rp1241
tp1242
a(S'quasiperiodic function'
p1243
g2
(g6
S'0\x06\x9e\x17`\x88\xd1?'
p1244
tp1245
Rp1246
tp1247
a(S'restriction (mathematics)'
p1248
g2
(g6
S'\xe4\xe8:S\x84\x87\xd1?'
p1249
tp1250
Rp1251
tp1252
a(S'gelfand\xe2\x80\x93raikov theorem'
p1253
g2
(g6
S'I\xc9\n\x7fA\x85\xd1?'
p1254
tp1255
Rp1256
tp1257
a(S'riesz potential'
p1258
g2
(g6
S'\x8a\xa8\x80\x02\xb6\x84\xd1?'
p1259
tp1260
Rp1261
tp1262
a(S'compact group'
p1263
g2
(g6
S'\x89ai|g\x82\xd1?'
p1264
tp1265
Rp1266
tp1267
a(S'characteristic function'
p1268
g2
(g6
S'o\xd6V\xc4j~\xd1?'
p1269
tp1270
Rp1271
tp1272
a(S'standard l-function'
p1273
g2
(g6
S'\x03\xbe:\x08\x03{\xd1?'
p1274
tp1275
Rp1276
tp1277
a(S'sigmoid function'
p1278
g2
(g6
S'\xfc\x00\xdc0\xe1z\xd1?'
p1279
tp1280
Rp1281
tp1282
a(S'lifting theory'
p1283
g2
(g6
S'\xcf\xa6\x18/\x01i\xd1?'
p1284
tp1285
Rp1286
tp1287
a(S'lf-space'
p1288
g2
(g6
S'\x9b;\xfbB\xfc]\xd1?'
p1289
tp1290
Rp1291
tp1292
a(S'range (statistics)'
p1293
g2
(g6
S'-\xd5n\xc8\x88]\xd1?'
p1294
tp1295
Rp1296
tp1297
a(S'compact semigroup'
p1298
g2
(g6
S'\xf0\xbe\x98q\xb4T\xd1?'
p1299
tp1300
Rp1301
tp1302
a(S'branch point'
p1303
g2
(g6
S"j\r@\xea'I\xd1?"
p1304
tp1305
Rp1306
tp1307
a(S'pathological (mathematics)'
p1308
g2
(g6
S'M/\x08{\xa6G\xd1?'
p1309
tp1310
Rp1311
tp1312
a(S'restricted product'
p1313
g2
(g6
S'\xe2W\x86\x1bqC\xd1?'
p1314
tp1315
Rp1316
tp1317
a(S'coarea formula'
p1318
g2
(g6
S"\x84'IiXA\xd1?"
p1319
tp1320
Rp1321
tp1322
a(S'hypograph (mathematics)'
p1323
g2
(g6
S'\xfa\x96m\xc6)?\xd1?'
p1324
tp1325
Rp1326
tp1327
a(S'gamma function'
p1328
g2
(g6
S'\x9d\x84\xdcw\x0e8\xd1?'
p1329
tp1330
Rp1331
tp1332
a(S'support of a module'
p1333
g2
(g6
S'\x8f\x11\xda\x85\x897\xd1?'
p1334
tp1335
Rp1336
tp1337
a(S'lebesgue differentiation theorem'
p1338
g2
(g6
S'\xe4f\x102a3\xd1?'
p1339
tp1340
Rp1341
tp1342
a(S'antiderivative'
p1343
g2
(g6
S'I\xc8/\x860.\xd1?'
p1344
tp1345
Rp1346
tp1347
a(S'stone\xe2\x80\x93weierstrass theorem'
p1348
g2
(g6
S'\xed,`v*-\xd1?'
p1349
tp1350
Rp1351
tp1352
a(S'immediately-invoked function expression'
p1353
g2
(g6
S'SBN\xcf++\xd1?'
p1354
tp1355
Rp1356
tp1357
a(S'lacunary value'
p1358
g2
(g6
S'\xc4\x0cg\x9d\xc7%\xd1?'
p1359
tp1360
Rp1361
tp1362
a(S'zero-dimensional space'
p1363
g2
(g6
S'}\xb0\xd3o\x8c#\xd1?'
p1364
tp1365
Rp1366
tp1367
a(S'topological vector space'
p1368
g2
(g6
S'\xcf\x08k\xad\xe7 \xd1?'
p1369
tp1370
Rp1371
tp1372
a(S'mathematical analysis'
p1373
g2
(g6
S'\x1c\xef\xbf\xdc\xbb\x16\xd1?'
p1374
tp1375
Rp1376
tp1377
a(S'metacompact space'
p1378
g2
(g6
S'\xdf8\xfe\xee\xa1\x15\xd1?'
p1379
tp1380
Rp1381
tp1382
a(S'least-squares function approximation'
p1383
g2
(g6
S'\xbb\x08\xbb\rQ\x14\xd1?'
p1384
tp1385
Rp1386
tp1387
a(S'totally disconnected group'
p1388
g2
(g6
S'\xdd\x92\xcbh\x86\x10\xd1?'
p1389
tp1390
Rp1391
tp1392
a(S'tube lemma'
p1393
g2
(g6
S',kd\x11\\\x10\xd1?'
p1394
tp1395
Rp1396
tp1397
a(S'closure (topology)'
p1398
g2
(g6
S'\x06\xe5\x90\x86l\r\xd1?'
p1399
tp1400
Rp1401
tp1402
a(S'univalent function'
p1403
g2
(g6
S'\xd38\xa0\xb7\xf1\x03\xd1?'
p1404
tp1405
Rp1406
tp1407
a(S'domain theory'
p1408
g2
(g6
S'\x8d\xd1\xca\xab\x9d\x00\xd1?'
p1409
tp1410
Rp1411
tp1412
a(S'the compact'
p1413
g2
(g6
S'\xa9jg%b\xf9\xd0?'
p1414
tp1415
Rp1416
tp1417
a(S'kumaraswamy distribution'
p1418
g2
(g6
S'\x16 \x8f\x02\xad\xf6\xd0?'
p1419
tp1420
Rp1421
tp1422
a(S'outer measure'
p1423
g2
(g6
S'\ta~jM\xf5\xd0?'
p1424
tp1425
Rp1426
tp1427
a(S'arcsine distribution'
p1428
g2
(g6
S'2\xe9\xcb\x94\x88\xee\xd0?'
p1429
tp1430
Rp1431
tp1432
a(S'nevanlinna theory'
p1433
g2
(g6
S'\x90F\x99\x8bq\xec\xd0?'
p1434
tp1435
Rp1436
tp1437
a(S'colombeau algebra'
p1438
g2
(g6
S'y:\x980\xad\xea\xd0?'
p1439
tp1440
Rp1441
tp1442
a(S'probit'
p1443
g2
(g6
S'x$H\xb2\xf5\xe7\xd0?'
p1444
tp1445
Rp1446
tp1447
a(S'loss function'
p1448
g2
(g6
S'\xc4f<\xed\xeb\xe7\xd0?'
p1449
tp1450
Rp1451
tp1452
a(S'elliptic function'
p1453
g2
(g6
S'\x9e\x12\xee\x9d\xf8\xe4\xd0?'
p1454
tp1455
Rp1456
tp1457
a(S'brauner space'
p1458
g2
(g6
S'\x0c\x92R\x9a\x0e\xdf\xd0?'
p1459
tp1460
Rp1461
tp1462
a(S'haar measure'
p1463
g2
(g6
S'K\xbb\x90\xaf\xdc\xdb\xd0?'
p1464
tp1465
Rp1466
tp1467
a(S'semialgebraic set'
p1468
g2
(g6
S'\xda\xb5\xea\xd8\xad\xd6\xd0?'
p1469
tp1470
Rp1471
tp1472
a(S'disintegration theorem'
p1473
g2
(g6
S'W\xdd\xec$d\xd2\xd0?'
p1474
tp1475
Rp1476
tp1477
a(S'compact operator on hilbert space'
p1478
g2
(g6
S'PZ\xfe\xad\x04\xd2\xd0?'
p1479
tp1480
Rp1481
tp1482
a(S'locally compact quantum group'
p1483
g2
(g6
S'\x07\xe0b\xdbQ\xd0\xd0?'
p1484
tp1485
Rp1486
tp1487
a(S'growth function'
p1488
g2
(g6
S'\xa8A@\xae\x8f\xcd\xd0?'
p1489
tp1490
Rp1491
tp1492
a(S'complex measure'
p1493
g2
(g6
S'\xc2\x8cr2"\xcd\xd0?'
p1494
tp1495
Rp1496
tp1497
a(S'weierstrass function'
p1498
g2
(g6
S'af\xcf\xf8t\xcc\xd0?'
p1499
tp1500
Rp1501
tp1502
a(S'l-infinity'
p1503
g2
(g6
S'HD\xb2\xdd\x92\xc8\xd0?'
p1504
tp1505
Rp1506
tp1507
a(S'\xce\x9c-recursive function'
p1508
g2
(g6
S'\xdd\xc4\x957\x8e\xc7\xd0?'
p1509
tp1510
Rp1511
tp1512
a.