(lp0
(S'swarm behaviour'
p1
cnumpy.core.multiarray
scalar
p2
(cnumpy
dtype
p3
(S'f8'
p4
I0
I1
tp5
Rp6
(I3
S'<'
p7
NNNI-1
I-1
I0
tp8
bS'\xfc\xff\xff\xff\xff\xff\xef?'
p9
tp10
Rp11
tp12
a(S'swarm intelligence'
p13
g2
(g6
S',\xd8_t&}\xe6?'
p14
tp15
Rp16
tp17
a(S'swarm (disambiguation)'
p18
g2
(g6
S'\xa0\xf1i\x8e\xb4\x10\xe6?'
p19
tp20
Rp21
tp22
a(S'swarm robotics'
p23
g2
(g6
S'\x10D\xc9I\xac\xa3\xe4?'
p24
tp25
Rp26
tp27
a(S'swarming (honey bee)'
p28
g2
(g6
S'5Q)\xd46\x99\xe3?'
p29
tp30
Rp31
tp32
a(S'multi-swarm optimization'
p33
g2
(g6
S'\x8a\xcd\xc4\r\xaa:\xe3?'
p34
tp35
Rp36
tp37
a(S'the swarm'
p38
g2
(g6
S'y{\x99\x90\x02\xeb\xe2?'
p39
tp40
Rp41
tp42
a(S'swarm (comics)'
p43
g2
(g6
S'$\xf1hk\xd5\x8e\xe1?'
p44
tp45
Rp46
tp47
a(S'mike lines'
p48
g2
(g6
S'\x1e\xfc\x18\x13\xa5\x8f\xe0?'
p49
tp50
Rp51
tp52
a(S'dike swarm'
p53
g2
(g6
S'\x81\xaf\xec\xf7\xc5\n\xe0?'
p54
tp55
Rp56
tp57
a(S'satakunta dyke swarms'
p58
g2
(g6
S'b\x13\xc7\x15T\xed\xde?'
p59
tp60
Rp61
tp62
a(S'swarm (simulation)'
p63
g2
(g6
S'\xc4\x84\xa3-\xae\x03\xde?'
p64
tp65
Rp66
tp67
a(S'georgia swarm'
p68
g2
(g6
S'\xfe`\xc1\xc3\xd5\xe7\xdd?'
p69
tp70
Rp71
tp72
a(S'intelligent small world autonomous robots for micro-manipulation'
p73
g2
(g6
S'\x10\xd4\xbb\xd5c\xe0\xdc?'
p74
tp75
Rp76
tp77
a(S'marco dorigo'
p78
g2
(g6
S'\x8fF\x16\x91\xdd\xbe\xdc?'
p79
tp80
Rp81
tp82
a(S'swarm of the snakehead'
p83
g2
(g6
S'#\x7fV^\x8f\xb2\xdc?'
p84
tp85
Rp86
tp87
a(S"albert's swarm"
p88
g2
(g6
S'v\xf9\x12z\xb1\x9d\xdc?'
p89
tp90
Rp91
tp92
a(S'2013 minnesota swarm season'
p93
g2
(g6
S'C\xea\xf6\xc8\x12o\xdc?'
p94
tp95
Rp96
tp97
a(S'guy-greenbrier earthquake swarm'
p98
g2
(g6
S'\x97B\x0b\xabD?\xdc?'
p99
tp100
Rp101
tp102
a(S'swarm robotic platforms'
p103
g2
(g6
S'C\xa0\xe1\xfd$\xae\xdb?'
p104
tp105
Rp106
tp107
a(S'minnesota swarm'
p108
g2
(g6
S'%\x81\xf8\x14\x1e\xa5\xdb?'
p109
tp110
Rp111
tp112
a(S'swarm (novelette)'
p113
g2
(g6
S'\xe09\xab\x11\x96\xc6\xda?'
p114
tp115
Rp116
tp117
a(S'james kennedy (social psychologist)'
p118
g2
(g6
S'g\x04<\x10\xf4\x80\xda?'
p119
tp120
Rp121
tp122
a(S'january 2016 argentinean locust swarm'
p123
g2
(g6
S'Y?^\xad\xc8\x80\xda?'
p124
tp125
Rp126
tp127
a(S'alien swarm (mod)'
p128
g2
(g6
S'0\xb8\xdd\xbfO\xd3\xd9?'
p129
tp130
Rp131
tp132
a(S'cincinnati swarm'
p133
g2
(g6
S'gzX#j\xd0\xd9?'
p134
tp135
Rp136
tp137
a(S'orb swarm'
p138
g2
(g6
S'\xbf\xd2|\xb9\xcdL\xd9?'
p139
tp140
Rp141
tp142
a(S'champaign swarm'
p143
g2
(g6
S'\xf6\x8e\xe7\xf2M\xfd\xd8?'
p144
tp145
Rp146
tp147
a(S'checkerboarding (beekeeping)'
p148
g2
(g6
S'g\xe0h?\xd0\xde\xd8?'
p149
tp150
Rp151
tp152
a(S'2016 georgia swarm season'
p153
g2
(g6
S'\xebkK\xabZ\xc2\xd8?'
p154
tp155
Rp156
tp157
a(S'swarm development group'
p158
g2
(g6
S'\x00\x96\x07\x0f\x8a\xa6\xd8?'
p159
tp160
Rp161
tp162
a(S'dioithona oculata'
p163
g2
(g6
S'5\xcd\xe0_\xdfc\xd8?'
p164
tp165
Rp166
tp167
a(S'eciton'
p168
g2
(g6
S'\xfe\xb2\xae\x0f\x8d[\xd8?'
p169
tp170
Rp171
tp172
a(S'earthquake swarm'
p173
g2
(g6
S'\x95\xb3\xa8\xb2\xfcG\xd8?'
p174
tp175
Rp176
tp177
a(S'synoeca surinama'
p178
g2
(g6
S'u\xcdg2g@\xd8?'
p179
tp180
Rp181
tp182
a(S'swarming (military)'
p183
g2
(g6
S'\x81\x01wS\xdb\xdb\xd7?'
p184
tp185
Rp186
tp187
a(S'2007\xe2\x80\x932008 nazko earthquakes'
p188
g2
(g6
S'nc\xe0\x939H\xd7?'
p189
tp190
Rp191
tp192
a(S'independence dike swarm'
p193
g2
(g6
S'\xa8\xb5|B\x17\x1f\xd7?'
p194
tp195
Rp196
tp197
a(S'sill swarm'
p198
g2
(g6
S'\xf4\x1c`?\x17\n\xd7?'
p199
tp200
Rp201
tp202
a(S'uruguayan dyke swarms'
p203
g2
(g6
S'^\r\x00\xf7\xdb\xc5\xd6?'
p204
tp205
Rp206
tp207
a(S'2012 minnesota swarm season'
p208
g2
(g6
S'\xe2H\xed\xe3\x9f\xb2\xd6?'
p209
tp210
Rp211
tp212
a(S'alien swarm'
p213
g2
(g6
S'\xba\xd4\xb8\xb5\xe6\xa5\xd6?'
p214
tp215
Rp216
tp217
a(S'2005 minnesota swarm season'
p218
g2
(g6
S'\xaf\xa1<kF\x90\xd6?'
p219
tp220
Rp221
tp222
a(S'charlie huber'
p223
g2
(g6
S'\nNG\xf5\xdf\x8d\xd6?'
p224
tp225
Rp226
tp227
a(S'the swarm (roller coaster)'
p228
g2
(g6
S'\xf8_\xb1\xe8\x8f\x8d\xd6?'
p229
tp230
Rp231
tp232
a(S'patrick conlon (artist)'
p233
g2
(g6
S'6I\xc5\xea\xf6m\xd6?'
p234
tp235
Rp236
tp237
a(S'ropalidia romandi'
p238
g2
(g6
S'v\xff\xe6$\x9c)\xd6?'
p239
tp240
Rp241
tp242
a(S'decentralised system'
p243
g2
(g6
S'\x9d\xaa\xd1\xab\xcc\xf6\xd5?'
p244
tp245
Rp246
tp247
a(S'a swarm of angels'
p248
g2
(g6
S'\xf5\x8c\xe5X\xf6\xf5\xd5?'
p249
tp250
Rp251
tp252
a(S'ant robotics'
p253
g2
(g6
S'\xa8\xd8\xcdx\x99\xd3\xd5?'
p254
tp255
Rp256
tp257
a(S'2014 minnesota swarm season'
p258
g2
(g6
S'\xa6\xbcS\xf7\x07\x81\xd5?'
p259
tp260
Rp261
tp262
a(S'artificial ants'
p263
g2
(g6
S'\xba\x029Y1E\xd5?'
p264
tp265
Rp266
tp267
a(S'swarm (app)'
p268
g2
(g6
S'U\xfbW.\x98&\xd5?'
p269
tp270
Rp271
tp272
a(S'starcraft ii: heart of the swarm'
p273
g2
(g6
S'4\xc2!\xdbA\xf6\xd4?'
p274
tp275
Rp276
tp277
a(S'mistassini dike swarm'
p278
g2
(g6
S'\x8d\xccv|\xb2\x93\xd4?'
p279
tp280
Rp281
tp282
a(S'particle swarm optimization'
p283
g2
(g6
S'\xaf\xbb_e\xcb\x8a\xd4?'
p284
tp285
Rp286
tp287
a(S'2015 minnesota swarm season'
p288
g2
(g6
S'\x1c\xcd^\nIJ\xd4?'
p289
tp290
Rp291
tp292
a(S'the swarm (film)'
p293
g2
(g6
S'\xfdqA\xb694\xd4?'
p294
tp295
Rp296
tp297
a(S'grenville dike swarm'
p298
g2
(g6
S'\xb1\xa9:\xde\xfc$\xd4?'
p299
tp300
Rp301
tp302
a(S'matt hanson'
p303
g2
(g6
S'\xf8\xebj\x1c3#\xd4?'
p304
tp305
Rp306
tp307
a(S'self-propelled particles'
p308
g2
(g6
S'M\xaf\x1b\xe2\x8f\xe9\xd3?'
p309
tp310
Rp311
tp312
a(S'matachewan dike swarm'
p313
g2
(g6
S'B\xcf\xf2\x0c\xcb\xc1\xd3?'
p314
tp315
Rp316
tp317
a(S'prey (novel)'
p318
g2
(g6
S'\xeb\xc8H\x05\x0e\x85\xd3?'
p319
tp320
Rp321
tp322
a(S'eciton burchellii'
p323
g2
(g6
S'G\x15\xbcd\xe8}\xd3?'
p324
tp325
Rp326
tp327
a(S'shoaling and schooling'
p328
g2
(g6
S'\x14\xff\tC\x1c>\xd3?'
p329
tp330
Rp331
tp332
a(S'2011 nzihl season'
p333
g2
(g6
S'\xdf+\x0f\x9c\x130\xd3?'
p334
tp335
Rp336
tp337
a(S's-bot mobile robot'
p338
g2
(g6
S'R\xfb\x11_K\x18\xd3?'
p339
tp340
Rp341
tp342
a(S'stigmergy'
p343
g2
(g6
S'a\xb4Sl\x1b\x18\xd3?'
p344
tp345
Rp346
tp347
a(S'ian wannamaker'
p348
g2
(g6
S'k\xa5\xce\x15"\x00\xd3?'
p349
tp350
Rp351
tp352
a(S'national lacrosse league transition player of the year award'
p353
g2
(g6
S'\xc2\x00\r\xf2\x01\xe9\xd2?'
p354
tp355
Rp356
tp357
a(S'antbird'
p358
g2
(g6
S'E\x91\x8c\xe0\xd9\xa2\xd2?'
p359
tp360
Rp361
tp362
a(S'jisan research institute'
p363
g2
(g6
S'\x10\x0cY\xb5Xr\xd2?'
p364
tp365
Rp366
tp367
a(S'2010 nzihl season'
p368
g2
(g6
S'\x11+$?Tk\xd2?'
p369
tp370
Rp371
tp372
a(S'national lacrosse league executive of the year award'
p373
g2
(g6
S'\xee\x9c\x834\x02k\xd2?'
p374
tp375
Rp376
tp377
a(S'polybioides tabidus'
p378
g2
(g6
S'\xec\x9a\xf4\xe6\x13f\xd2?'
p379
tp380
Rp381
tp382
a(S'gerardo beni'
p383
g2
(g6
S'\\#\xdd\xec\x10S\xd2?'
p384
tp385
Rp386
tp387
a(S'okavango dyke swarm'
p388
g2
(g6
S'\xc5\xef\x8e\xc6{/\xd2?'
p389
tp390
Rp391
tp392
a(S'ant follower'
p393
g2
(g6
S'\xde\xca\xc0\xc63\x18\xd2?'
p394
tp395
Rp396
tp397
a(S'swarm (spacecraft)'
p398
g2
(g6
S'c\x19\xbdv\xe2\n\xd2?'
p399
tp400
Rp401
tp402
a(S'list of metaphor-based metaheuristics'
p403
g2
(g6
S'{\xcd*U?\x06\xd2?'
p404
tp405
Rp406
tp407
a(S'peer exchange'
p408
g2
(g6
S']L\x12\xf6\xea\xca\xd1?'
p409
tp410
Rp411
tp412
a(S'kangaamiut dike swarm'
p413
g2
(g6
S'\x00S\xec\xcc\xcbs\xd1?'
p414
tp415
Rp416
tp417
a(S'swarming motility'
p418
g2
(g6
S'\xca\xd4\x1d\xf7@s\xd1?'
p419
tp420
Rp421
tp422
a(S'unanimous a.i.'
p423
g2
(g6
S'}\xa5t\xab\xa4p\xd1?'
p424
tp425
Rp426
tp427
a(S'mobile robotics laboratory at iisc'
p428
g2
(g6
S'\x95\x8d\xd3\xd4\xf7k\xd1?'
p429
tp430
Rp431
tp432
a(S'mackenzie dike swarm'
p433
g2
(g6
S'\xaen\xc0\x91sd\xd1?'
p434
tp435
Rp436
tp437
a(S'franklin dike swarm'
p438
g2
(g6
S'\x15%\xe06\xe9_\xd1?'
p439
tp440
Rp441
tp442
a(S'the swarm (song)'
p443
g2
(g6
S'u\xbc\x8cI\x03]\xd1?'
p444
tp445
Rp446
tp447
a(S'boids'
p448
g2
(g6
S'\x17L\xfdyX[\xd1?'
p449
tp450
Rp451
tp452
a(S'nomadacris succincta'
p453
g2
(g6
S'A L\xc2LO\xd1?'
p454
tp455
Rp456
tp457
a(S'long range dikes'
p458
g2
(g6
S'\xca\xf9\xca>\xac=\xd1?'
p459
tp460
Rp461
tp462
a(S'agelaia pallipes'
p463
g2
(g6
S'\x1a\xad\x1b)J\x17\xd1?'
p464
tp465
Rp466
tp467
a(S'nasonov pheromone'
p468
g2
(g6
S'\xcb\xfa88\x86\r\xd1?'
p469
tp470
Rp471
tp472
a(S'2007 nzihl season'
p473
g2
(g6
S'\xf0\xfa\\\xbe\xb4\x04\xd1?'
p474
tp475
Rp476
tp477
a(S'ant'
p478
g2
(g6
S'\x04\x8f\xe72X\x04\xd1?'
p479
tp480
Rp481
tp482
a(S'symbrion'
p483
g2
(g6
S'\xed\xe6h\xa8\x8b\xe0\xd0?'
p484
tp485
Rp486
tp487
a(S'the hive (2008 film)'
p488
g2
(g6
S'\x8d\xca&IO\xe0\xd0?'
p489
tp490
Rp491
tp492
a(S'dorylus molestus'
p493
g2
(g6
S'D\x13a>=\xc8\xd0?'
p494
tp495
Rp496
tp497
a(S'francesco mondada'
p498
g2
(g6
S'\x89\x7ff\xddJ\xbe\xd0?'
p499
tp500
Rp501
tp502
a(S'2006 nzihl season'
p503
g2
(g6
S'\x15\xd1?\xea/\xbc\xd0?'
p504
tp505
Rp506
tp507
a(S'swarm (2011 video game)'
p508
g2
(g6
S'\xc5|*p\x80\xb8\xd0?'
p509
tp510
Rp511
tp512
a(S'greensboro swarm'
p513
g2
(g6
S'YFftP\xb4\xd0?'
p514
tp515
Rp516
tp517
a(S'ant colony optimization algorithms'
p518
g2
(g6
S'\x9b\x97\xc1\xc1\xd8\xa8\xd0?'
p519
tp520
Rp521
tp522
a(S'swarmed (film)'
p523
g2
(g6
S'E\xfe\x08?k\x81\xd0?'
p524
tp525
Rp526
tp527
a(S'galaxy of fear: the swarm'
p528
g2
(g6
S'\xaa!z\xea\x0f_\xd0?'
p529
tp530
Rp531
tp532
a(S'national lacrosse league gm of the year award'
p533
g2
(g6
S'\x1e\xbd\xd5\xce2E\xd0?'
p534
tp535
Rp536
tp537
a(S'collective animal behavior'
p538
g2
(g6
S'K\xb7\x82\x17\xc1:\xd0?'
p539
tp540
Rp541
tp542
a(S'swarm gallery'
p543
g2
(g6
S'({G\x8c36\xd0?'
p544
tp545
Rp546
tp547
a(S'army ant'
p548
g2
(g6
S'Uv$z\x08\x1a\xd0?'
p549
tp550
Rp551
tp552
a(S'ants of medical importance'
p553
g2
(g6
S'\xac\x0c\xee\x1d\xd3\x0f\xd0?'
p554
tp555
Rp556
tp557
a(S'2009 minnesota swarm season'
p558
g2
(g6
S'Ar7kW\n\xd0?'
p559
tp560
Rp561
tp562
a(S'2008 nzihl season'
p563
g2
(g6
S'\xc4\x95%(\x1e\xf1\xcf?'
p564
tp565
Rp566
tp567
a(S'sudbury dike swarm'
p568
g2
(g6
S'\x05\xd9\xfeG-\x8c\xcf?'
p569
tp570
Rp571
tp572
a(S'kattsund-koster dyke swarm'
p573
g2
(g6
S'\xfd\xeb#:\xb4q\xcf?'
p574
tp575
Rp576
tp577
a(S'active matter'
p578
g2
(g6
S'R\x12\xccz\xff9\xcf?'
p579
tp580
Rp581
tp582
a(S'artificial bee colony algorithm'
p583
g2
(g6
S'\xb3\xb8[\xde\x9c%\xcf?'
p584
tp585
Rp586
tp587
a(S'the swarm (sch\xc3\xa4tzing novel)'
p588
g2
(g6
S'\xbc\xf8\x92\xfeB\xc4\xce?'
p589
tp590
Rp591
tp592
a(S'myrmecia (ant)'
p593
g2
(g6
S'"\xf2V\xcc\xf0\\\xce?'
p594
tp595
Rp596
tp597
a(S'locust'
p598
g2
(g6
S'.#h\xf2\xe5\x02\xce?'
p599
tp600
Rp601
tp602
a(S'kane easterbrook'
p603
g2
(g6
S'e\x9c\xe8\xe2-\xdf\xcd?'
p604
tp605
Rp606
tp607
a(S'evolutionary algorithm for landmark detection'
p608
g2
(g6
S'\xf1\xf9\xf7\xd9\r\xd4\xcd?'
p609
tp610
Rp611
tp612
a(S'alcherio martinoli'
p613
g2
(g6
S'\xb9!U\xbb\xf3\xac\xcd?'
p614
tp615
Rp616
tp617
a(S'2010 minnesota swarm season'
p618
g2
(g6
S'rO\xdd\x19\xaf\xac\xcd?'
p619
tp620
Rp621
tp622
a(S'2006 minnesota swarm season'
p623
g2
(g6
S'\\G|\r\xdb\x9c\xcd?'
p624
tp625
Rp626
tp627
a(S'terminal world'
p628
g2
(g6
S'\xa1\xe4\x07\xe5&y\xcd?'
p629
tp630
Rp631
tp632
a(S'meat ant'
p633
g2
(g6
S';p\x88\xce\x8a&\xcd?'
p634
tp635
Rp636
tp637
a(S'dorylus laevigatus'
p638
g2
(g6
S'~wt.\x81\x13\xcd?'
p639
tp640
Rp641
tp642
a(S'argentine ant'
p643
g2
(g6
S'\x05\xb8\xdd\xfaY\xf7\xcc?'
p644
tp645
Rp646
tp647
a(S'geodefense swarm'
p648
g2
(g6
S'\\\x84\xbb\x00\x12\xf7\xcc?'
p649
tp650
Rp651
tp652
a(S'myrmecophagy'
p653
g2
(g6
S'\xd9\x0b\x89)\xf0\xeb\xcc?'
p654
tp655
Rp656
tp657
a(S'swarm peak'
p658
g2
(g6
S'\xa2\x85\x0e?\xd5\xe8\xcc?'
p659
tp660
Rp661
tp662
a(S'myrmecophily'
p663
g2
(g6
S'\xa2\x8d\x1d\xf1\xa9\xc8\xcc?'
p664
tp665
Rp666
tp667
a(S'rhamphomyia marginata'
p668
g2
(g6
S'\\>\xdd\xf1\x9a\xa5\xcc?'
p669
tp670
Rp671
tp672
a(S'red imported fire ant'
p673
g2
(g6
S';\xe0T\x96\xb7\x93\xcc?'
p674
tp675
Rp676
tp677
a(S'student space exploration & technology initiative'
p678
g2
(g6
S"]M/\x95'\x7f\xcc?"
p679
tp680
Rp681
tp682
a(S'swarm of angels'
p683
g2
(g6
S'\t\xfd\xbb\x92\xb4Z\xcc?'
p684
tp685
Rp686
tp687
a(S'debasish ghose'
p688
g2
(g6
S'\x0b\xc4\x0b\xca\xed\x01\xcc?'
p689
tp690
Rp691
tp692
a(S'transformers: generation 2 (comics)'
p693
g2
(g6
S'\xc3r\xf4|W\x01\xcc?'
p694
tp695
Rp696
tp697
a(S'destination: infestation'
p698
g2
(g6
S'\xd7\xb94EC\xc8\xcb?'
p699
tp700
Rp701
tp702
a(S'carl rettenmeyer'
p703
g2
(g6
S'\\\x95\x85\x93\xdc\x7f\xcb?'
p704
tp705
Rp706
tp707
a(S'acropyga epedana'
p708
g2
(g6
S'h%<\xde\x8d{\xcb?'
p709
tp710
Rp711
tp712
a(S'green-head ant'
p713
g2
(g6
S'\xed}s\xb8\xbbh\xcb?'
p714
tp715
Rp716
tp717
a(S'ethology'
p718
g2
(g6
S'\x06\xe9\r\x065g\xcb?'
p719
tp720
Rp721
tp722
a(S'international basketball league (1999\xe2\x80\x932001)'
p723
g2
(g6
S'Gyn\xdc6d\xcb?'
p724
tp725
Rp726
tp727
a(S'agelaia multipicta'
p728
g2
(g6
S'\xce\xf6\x15\x82\x15]\xcb?'
p729
tp730
Rp731
tp732
a(S'brachygastra scutellaris'
p733
g2
(g6
S'x\xbbCe(K\xcb?'
p734
tp735
Rp736
tp737
a(S'honeypot ant'
p738
g2
(g6
S'\xc8(\x0f\xc4\x8a<\xcb?'
p739
tp740
Rp741
tp742
a(S'fire ant'
p743
g2
(g6
S'\xce\xd5\x97_U:\xcb?'
p744
tp745
Rp746
tp747
a(S'kilobot'
p748
g2
(g6
S'A\xaf\xd5\xcbC4\xcb?'
p749
tp750
Rp751
tp752
a(S'red harvester ant'
p753
g2
(g6
S'\xfd\xdd\xd9\xc8\xa1/\xcb?'
p754
tp755
Rp756
tp757
a(S'pharaoh ant'
p758
g2
(g6
S'\x1bO\xa7\xd0\xe9\x19\xcb?'
p759
tp760
Rp761
tp762
a(S'nuptial flight'
p763
g2
(g6
S'X\xb9Y9\xbe\x14\xcb?'
p764
tp765
Rp766
tp767
a(S'2004 africa locust infestation'
p768
g2
(g6
S"\xbe\x19'^\\\x08\xcb?"
p769
tp770
Rp771
tp772
a(S'sean pollock'
p773
g2
(g6
S'"Q\xe6BB\x05\xcb?'
p774
tp775
Rp776
tp777
a(S'myxococcus xanthus'
p778
g2
(g6
S'\xe7\xefM\x8b\xba\x00\xcb?'
p779
tp780
Rp781
tp782
a(S'biology of diptera'
p783
g2
(g6
S"\x1d'4\x15\x06\xfa\xca?"
p784
tp785
Rp786
tp787
a(S'flocking (behavior)'
p788
g2
(g6
S'\x15\xa7p\xb50\xe5\xca?'
p789
tp790
Rp791
tp792
a(S'theoretical ecology'
p793
g2
(g6
S'\xe1UQz\xc8\xe2\xca?'
p794
tp795
Rp796
tp797
a(S'apidictor'
p798
g2
(g6
S'\x93\x13~&Z\xd5\xca?'
p799
tp800
Rp801
tp802
a(S'2016 nll season'
p803
g2
(g6
S'h\xa3\xbb\xaa\xf7\xd0\xca?'
p804
tp805
Rp806
tp807
a(S'parachartergus apicalis'
p808
g2
(g6
S'$e^\xf2\xe2\xbd\xca?'
p809
tp810
Rp811
tp812
a(S'myrmecia nigrocincta'
p813
g2
(g6
S'\xb42_\xf4\x93\xb3\xca?'
p814
tp815
Rp816
tp817
a(S'queen ant'
p818
g2
(g6
S'\x0f\x86T\x19\xcf\xb1\xca?'
p819
tp820
Rp821
tp822
a(S'apoica pallens'
p823
g2
(g6
S'ZK\nv\xc5\xab\xca?'
p824
tp825
Rp826
tp827
a(S'solenopsis molesta'
p828
g2
(g6
S'v\xdbr\t\xa2\xa5\xca?'
p829
tp830
Rp831
tp832
a(S'weaver ant'
p833
g2
(g6
S'\xdb\x08\xc1B\xe4\x9a\xca?'
p834
tp835
Rp836
tp837
a(S'swarm!'
p838
g2
(g6
S'\xd6\x1f\x9b\x06\x0f\x9a\xca?'
p839
tp840
Rp841
tp842
a(S'moribund (album)'
p843
g2
(g6
S'E\xb1\xa7\xd4E\x97\xca?'
p844
tp845
Rp846
tp847
a(S'pheidole megacephala'
p848
g2
(g6
S'\x97y)\x0e\x99\x93\xca?'
p849
tp850
Rp851
tp852
a(S'carpenter ant'
p853
g2
(g6
S'\xae\xc2"\x05\x8a\x87\xca?'
p854
tp855
Rp856
tp857
a(S'documentary swarm'
p858
g2
(g6
S'[\xab\xb4\xc6u\x80\xca?'
p859
tp860
Rp861
tp862
a(S'zach higgins'
p863
g2
(g6
S"\x0e\xbe'\xd9pj\xca?"
p864
tp865
Rp866
tp867
a(S'forage fish'
p868
g2
(g6
S'a\xb7\xb4\xa4\xb3e\xca?'
p869
tp870
Rp871
tp872
a(S'megaponera'
p873
g2
(g6
S'\x87 \xac\xa1:e\xca?'
p874
tp875
Rp876
tp877
a(S'metaheuristic'
p878
g2
(g6
S'\x9e\xe8\x955\xacc\xca?'
p879
tp880
Rp881
tp882
a(S'nikolaas tinbergen'
p883
g2
(g6
S'~\x1f\xd7\xbdLY\xca?'
p884
tp885
Rp886
tp887
a(S'simant'
p888
g2
(g6
S'\x12\xfb\xaf\x9a\x1f\x12\xca?'
p889
tp890
Rp891
tp892
a(S'russell c. eberhart'
p893
g2
(g6
S'S\xe3W\xdc\xbc\xe8\xc9?'
p894
tp895
Rp896
tp897
a(S'shark swarm'
p898
g2
(g6
S'\xda\xbc,G\x10\xe7\xc9?'
p899
tp900
Rp901
tp902
a(S'euryplatea nanaknihali'
p903
g2
(g6
S'\x87\x93;\x95i\xe0\xc9?'
p904
tp905
Rp906
tp907
a(S'nothomyrmecia'
p908
g2
(g6
S'B\x85\xf9P\xfa\xd5\xc9?'
p909
tp910
Rp911
tp912
a(S'formica lugubris'
p913
g2
(g6
S"\xeb~'k$\xd3\xc9?"
p914
tp915
Rp916
tp917
a(S'alex crepinsek'
p918
g2
(g6
S'\xff\xf6f]\x1e\xcf\xc9?'
p919
tp920
Rp921
tp922
a(S'polyergus rufescens'
p923
g2
(g6
S'_mC\x05o\xc2\xc9?'
p924
tp925
Rp926
tp927
a(S'national lacrosse league rookie of the year award'
p928
g2
(g6
S'/\x1d\xd5\x92Y\xbf\xc9?'
p929
tp930
Rp931
tp932
a(S'acromyrmex'
p933
g2
(g6
S'/\xb2\x03d\xd3\xad\xc9?'
p934
tp935
Rp936
tp937
a(S'tapinoma sessile'
p938
g2
(g6
S'\x18\xb5tK\x8f\xa6\xc9?'
p939
tp940
Rp941
tp942
a(S'challenging behaviour'
p943
g2
(g6
S'\xb3\xb4\x93\x8f\xce\x8d\xc9?'
p944
tp945
Rp946
tp947
a(S'social behavior'
p948
g2
(g6
S' %\xf2\xcd_\x8a\xc9?'
p949
tp950
Rp951
tp952
a(S'protonectarina'
p953
g2
(g6
S'\xdc\xa4\xb6{@\x8a\xc9?'
p954
tp955
Rp956
tp957
a(S'agelaia vicina'
p958
g2
(g6
S'\x10\x85& \xf4y\xc9?'
p959
tp960
Rp961
tp962
a(S'myrmecia gulosa'
p963
g2
(g6
S'\xcau\x155\xefx\xc9?'
p964
tp965
Rp966
tp967
a(S'for a swarm of bees'
p968
g2
(g6
S'\x00\x07\xf0\x11,i\xc9?'
p969
tp970
Rp971
tp972
a(S'james a. contner'
p973
g2
(g6
S'\xc9b\x13\xf3&]\xc9?'
p974
tp975
Rp976
tp977
a(S'eucharitidae'
p978
g2
(g6
S'"\xa3S\x1a`N\xc9?'
p979
tp980
Rp981
tp982
a(S'kraslice'
p983
g2
(g6
S'\x0c\x99\xc2\xf7\x01%\xc9?'
p984
tp985
Rp986
tp987
a(S'gears of war 4'
p988
g2
(g6
S'\x11h\r\xe6\x94\x1a\xc9?'
p989
tp990
Rp991
tp992
a(S'mogul, nevada'
p993
g2
(g6
S'\x82\x8f+\xc5|\x17\xc9?'
p994
tp995
Rp996
tp997
a(S'krill'
p998
g2
(g6
S'\x14\x10\xb5M\x7f\x05\xc9?'
p999
tp1000
Rp1001
tp1002
a(S'swarm (1998 video game)'
p1003
g2
(g6
S'\x89\xa7E\x15\xe3\xe8\xc8?'
p1004
tp1005
Rp1006
tp1007
a(S'myrmecophily in staphylinidae'
p1008
g2
(g6
S"\x91'\xbc\x13\x0e\xd9\xc8?"
p1009
tp1010
Rp1011
tp1012
a(S'banded sugar ant'
p1013
g2
(g6
S'\xaa\xaf\x03\x1f\xbc\xce\xc8?'
p1014
tp1015
Rp1016
tp1017
a(S'behaviour therapy'
p1018
g2
(g6
S'(r\x92a\x99\xcc\xc8?'
p1019
tp1020
Rp1021
tp1022
a(S'allomerus decemarticulatus'
p1023
g2
(g6
S'\xaeiE\x1a$\xc0\xc8?'
p1024
tp1025
Rp1026
tp1027
a(S'2005 nzihl season'
p1028
g2
(g6
S'\xdb2|\xef\xc2\xbe\xc8?'
p1029
tp1030
Rp1031
tp1032
a(S'heath beekeeping'
p1033
g2
(g6
S'\x81\x1b\xbbx[\xb1\xc8?'
p1034
tp1035
Rp1036
tp1037
a(S'frank sch\xc3\xa4tzing'
p1038
g2
(g6
S'\xba[\x8e96\xaa\xc8?'
p1039
tp1040
Rp1041
tp1042
a(S'temnothorax albipennis'
p1043
g2
(g6
S'P\xd7}=\xea\x86\xc8?'
p1044
tp1045
Rp1046
tp1047
a(S'formicarium'
p1048
g2
(g6
S'\x87a\x96\xe87~\xc8?'
p1049
tp1050
Rp1051
tp1052
a(S'solenopsis saevissima'
p1053
g2
(g6
S'D\xc92\x92\rx\xc8?'
p1054
tp1055
Rp1056
tp1057
a(S'trophallaxis'
p1058
g2
(g6
S'\x1e\xa1qd\xf5f\xc8?'
p1059
tp1060
Rp1061
tp1062
a(S'myrmecophyte'
p1063
g2
(g6
S'\xb5\x04\x1ba\xc2f\xc8?'
p1064
tp1065
Rp1066
tp1067
a(S'2012 trans-tasman champions league'
p1068
g2
(g6
S'\x80(\x93\r\xe0a\xc8?'
p1069
tp1070
Rp1071
tp1072
a(S'brawley seismic zone'
p1073
g2
(g6
S'j\x97\x0b:w`\xc8?'
p1074
tp1075
Rp1076
tp1077
a(S'ant colony'
p1078
g2
(g6
S'\xd2\x1b[LA_\xc8?'
p1079
tp1080
Rp1081
tp1082
a(S'anting (bird activity)'
p1083
g2
(g6
S'\x0cQ\\\xe6\tW\xc8?'
p1084
tp1085
Rp1086
tp1087
a(S'enrique alba'
p1088
g2
(g6
S'\xc4\xdc\xc5\x15RN\xc8?'
p1089
tp1090
Rp1091
tp1092
a(S'the swarm (star trek: voyager)'
p1093
g2
(g6
S'\xa0\xa7sR\x0e?\xc8?'
p1094
tp1095
Rp1096
tp1097
a(S'physicomimetics'
p1098
g2
(g6
S'\xae0\xed\xfe7;\xc8?'
p1099
tp1100
Rp1101
tp1102
a(S'ant mimicry'
p1103
g2
(g6
S'\x92cv\x80\xfe7\xc8?'
p1104
tp1105
Rp1106
tp1107
a(S'animal communication'
p1108
g2
(g6
S"\xe8'\x81\x9e\xea3\xc8?"
p1109
tp1110
Rp1111
tp1112
a(S'symmetry breaking of escaping ants'
p1113
g2
(g6
S'\xa0\xb2%uk,\xc8?'
p1114
tp1115
Rp1116
tp1117
a(S'copepod'
p1118
g2
(g6
S'3\x7f>P\n*\xc8?'
p1119
tp1120
Rp1121
tp1122
a(S'behavior (disambiguation)'
p1123
g2
(g6
S'\x00\xdf\xe2\x85>%\xc8?'
p1124
tp1125
Rp1126
tp1127
a(S'fish intelligence'
p1128
g2
(g6
S'.\x03E(f \xc8?'
p1129
tp1130
Rp1131
tp1132
a(S'blochmannia'
p1133
g2
(g6
S'\x11,\xb4[b\x14\xc8?'
p1134
tp1135
Rp1136
tp1137
a(S'2011 colorado earthquake'
p1138
g2
(g6
S'\xcf\xa4p\xe1+\x05\xc8?'
p1139
tp1140
Rp1141
tp1142
a(S'demaree method'
p1143
g2
(g6
S'\r2\xa0;!\xfe\xc7?'
p1144
tp1145
Rp1146
tp1147
a(S'phengaris rebeli'
p1148
g2
(g6
S'R\xcc\x91t\x85\xf8\xc7?'
p1149
tp1150
Rp1151
tp1152
a(S'formica rufa'
p1153
g2
(g6
S'.\x99m4\xf1\xf0\xc7?'
p1154
tp1155
Rp1156
tp1157
a(S'polybia sericea'
p1158
g2
(g6
S'3n\xfd\x82<\xd0\xc7?'
p1159
tp1160
Rp1161
tp1162
a(S'sally-ann spencer'
p1163
g2
(g6
S'\xd5/r\xf5\x86\xb7\xc7?'
p1164
tp1165
Rp1166
tp1167
a(S'l\xc5\x8d\xca\xbbihi seamount'
p1168
g2
(g6
S'\x85>wi\x92\xae\xc7?'
p1169
tp1170
Rp1171
tp1172
a(S'azteca andreae'
p1173
g2
(g6
S'\xd4\xc3sk\x02\xac\xc7?'
p1174
tp1175
Rp1176
tp1177
a(S'australian plague locust'
p1178
g2
(g6
S'\xcd\xa9\xa4\xcf\xd0\xa7\xc7?'
p1179
tp1180
Rp1181
tp1182
a(S'characters of starcraft'
p1183
g2
(g6
S's\x18\x9de \x95\xc7?'
p1184
tp1185
Rp1186
tp1187
a(S'agelaia'
p1188
g2
(g6
S'bg\xa1\xf4L\x8f\xc7?'
p1189
tp1190
Rp1191
tp1192
a(S'nannotrigona testaceicornis'
p1193
g2
(g6
S'\x02\x93\xcc\x95<\x8b\xc7?'
p1194
tp1195
Rp1196
tp1197
a(S'hemimysis anomala'
p1198
g2
(g6
S'\xe4o#\xaf\x19\x7f\xc7?'
p1199
tp1200
Rp1201
tp1202
a(S'iain couzin'
p1203
g2
(g6
S'\xc9\xe5\x91\x1a\xc6\\\xc7?'
p1204
tp1205
Rp1206
tp1207
a(S'leafcutter ant'
p1208
g2
(g6
S')\xb0\xb5\xe66Z\xc7?'
p1209
tp1210
Rp1211
tp1212
a(S'pso'
p1213
g2
(g6
S'\xcclU\xffhO\xc7?'
p1214
tp1215
Rp1216
tp1217
a(S'hagenomyia tristis'
p1218
g2
(g6
S'\xa8\xd3\x82I\x8cA\xc7?'
p1219
tp1220
Rp1221
tp1222
a(S'robobee'
p1223
g2
(g6
S'\x10\xc0\xe2\x1f\xc57\xc7?'
p1224
tp1225
Rp1226
tp1227
a(S'daniel shiffman'
p1228
g2
(g6
S'\xe6y\xf5\xbe\x0c7\xc7?'
p1229
tp1230
Rp1231
tp1232
a(S'new zealand ice hockey league'
p1233
g2
(g6
S'\xcc\x19\xefnB6\xc7?'
p1234
tp1235
Rp1236
tp1237
a(S'iridomyrmex'
p1238
g2
(g6
S'^\x08\xf7\x1cE\x1d\xc7?'
p1239
tp1240
Rp1241
tp1242
a(S'anti-social behaviour'
p1243
g2
(g6
S'}Z3\x18\xc2\x11\xc7?'
p1244
tp1245
Rp1246
tp1247
a(S'large blue'
p1248
g2
(g6
S'\xb5\xcb\xec\x94\x1b\x10\xc7?'
p1249
tp1250
Rp1251
tp1252
a(S'trophobiosis'
p1253
g2
(g6
S'>\x1b\xb6X\x07\x0e\xc7?'
p1254
tp1255
Rp1256
tp1257
a(S'red imported fire ants in the united states'
p1258
g2
(g6
S'g\xea\\\x0c\xfd\xf7\xc6?'
p1259
tp1260
Rp1261
tp1262
a(S'bird migration'
p1263
g2
(g6
S')Be\xcd\x0e\xf7\xc6?'
p1264
tp1265
Rp1266
tp1267
a(S'swarmatron'
p1268
g2
(g6
S'\x13\xc4\x03ut\xf1\xc6?'
p1269
tp1270
Rp1271
tp1272
a(S'evolutionary multimodal optimization'
p1273
g2
(g6
S'\x1d\xe6\xab\x03\xd9\xdd\xc6?'
p1274
tp1275
Rp1276
tp1277
a(S'empire of the ants (film)'
p1278
g2
(g6
S'\x12%\x9f\xb7\xae\xdd\xc6?'
p1279
tp1280
Rp1281
tp1282
a(S'agonistic behaviour'
p1283
g2
(g6
S'\x8e\x0b\xfe\xa4\x1a\xc6\xc6?'
p1284
tp1285
Rp1286
tp1287
a(S'behavioural change theories'
p1288
g2
(g6
S'\xd84\xf2\x12\xe1\xc4\xc6?'
p1289
tp1290
Rp1291
tp1292
a(S'the heir of night'
p1293
g2
(g6
S'jH\x96I\xd2\xc3\xc6?'
p1294
tp1295
Rp1296
tp1297
a(S'metapleural gland'
p1298
g2
(g6
S'\xd8\x83\x1fC\xa7\xc1\xc6?'
p1299
tp1300
Rp1301
tp1302
a(S'red locust'
p1303
g2
(g6
S'\xd9\x8c\x03Ni\xbf\xc6?'
p1304
tp1305
Rp1306
tp1307
a(S'myrmecocystus mexicanus'
p1308
g2
(g6
S'g<\xdf\xd9\x9b\xbc\xc6?'
p1309
tp1310
Rp1311
tp1312
a(S'animal migration'
p1313
g2
(g6
S'-i:\x05\x88\xb7\xc6?'
p1314
tp1315
Rp1316
tp1317
a(S'letdowncrush'
p1318
g2
(g6
S'\xf4\x88\x13\x91O\xaa\xc6?'
p1319
tp1320
Rp1321
tp1322
a(S'pelagic fish'
p1323
g2
(g6
S'\x13\xba\x1d\xc9-\xa5\xc6?'
p1324
tp1325
Rp1326
tp1327
a(S'design for behaviour change'
p1328
g2
(g6
S'xd\x02S\xfd\x9e\xc6?'
p1329
tp1330
Rp1331
tp1332
a(S'microbotics'
p1333
g2
(g6
S'\xd3\xfbL\xa3I\x9e\xc6?'
p1334
tp1335
Rp1336
tp1337
a(S'list of english animal nouns'
p1338
g2
(g6
S'u\xbe\xc5\xb3\xb6\x95\xc6?'
p1339
tp1340
Rp1341
tp1342
a(S'statary'
p1343
g2
(g6
S'\xd1\xdc,\x8f\xd2\x84\xc6?'
p1344
tp1345
Rp1346
tp1347
a(S'burakin, western australia'
p1348
g2
(g6
S'\x0e\x85R\xcd\xf9\x82\xc6?'
p1349
tp1350
Rp1351
tp1352
a(S'natural computing'
p1353
g2
(g6
S'\xf2\xd7\xcfB-\x80\xc6?'
p1354
tp1355
Rp1356
tp1357
a(S'oecophylla smaragdina'
p1358
g2
(g6
S',;\xf2\x02\xb1|\xc6?'
p1359
tp1360
Rp1361
tp1362
a(S'dorymyrmex bureni'
p1363
g2
(g6
S'Iz\x86pxz\xc6?'
p1364
tp1365
Rp1366
tp1367
a(S'saharan silver ant'
p1368
g2
(g6
S'\x94\xa8\xb9\xbf\xddy\xc6?'
p1369
tp1370
Rp1371
tp1372
a(S'eric pacey'
p1373
g2
(g6
S'5\x97\xa4\x91\xe3n\xc6?'
p1374
tp1375
Rp1376
tp1377
a(S'swarm'
p1378
g2
(g6
S'\xe2\xa9\xb8V\xa4j\xc6?'
p1379
tp1380
Rp1381
tp1382
a(S'ochetellus'
p1383
g2
(g6
S'\xb4SN\x8a\xacg\xc6?'
p1384
tp1385
Rp1386
tp1387
a(S'2012 nll season'
p1388
g2
(g6
S'\xaa\xfc\xb1F\xcd`\xc6?'
p1389
tp1390
Rp1391
tp1392
a(S'antwain smith'
p1393
g2
(g6
S'\xd9\xabxu\x9b_\xc6?'
p1394
tp1395
Rp1396
tp1397
a(S'le jour des fourmis'
p1398
g2
(g6
S'Oq\xbbZ\xf2Z\xc6?'
p1399
tp1400
Rp1401
tp1402
a(S'bio-inspired computing'
p1403
g2
(g6
S'|\xb9\x8e\x84NY\xc6?'
p1404
tp1405
Rp1406
tp1407
a(S'bait ball'
p1408
g2
(g6
S'Wj\x00##V\xc6?'
p1409
tp1410
Rp1411
tp1412
a(S'lomechusa pubicollis'
p1413
g2
(g6
S'!\xfb\x00\xd0MK\xc6?'
p1414
tp1415
Rp1416
tp1417
a(S'angiopolybia pallens'
p1418
g2
(g6
S'x\xf6\xbc\xd3\x93C\xc6?'
p1419
tp1420
Rp1421
tp1422
a(S'animal cognition'
p1423
g2
(g6
S'C\xd2\x91K\x0e,\xc6?'
p1424
tp1425
Rp1426
tp1427
a(S'2008 reno earthquakes'
p1428
g2
(g6
S'n \x12\r\x04+\xc6?'
p1429
tp1430
Rp1431
tp1432
a(S'plithotaxis'
p1433
g2
(g6
S"Yb\xca\x07S'\xc6?"
p1434
tp1435
Rp1436
tp1437
a(S'galadriel stineman'
p1438
g2
(g6
S'\x8b\xc1>s\x95!\xc6?'
p1439
tp1440
Rp1441
tp1442
a(S'patterns of self-organization in ants'
p1443
g2
(g6
S'}b\x9e\xb7\x8c\x15\xc6?'
p1444
tp1445
Rp1446
tp1447
a(S'dilobocondyla bangalorica'
p1448
g2
(g6
S'\x8a]\x8b\xd7\xff\x11\xc6?'
p1449
tp1450
Rp1451
tp1452
a(S'pheidologeton diversus'
p1453
g2
(g6
S'R.\x91\x8d\xb5\x0f\xc6?'
p1454
tp1455
Rp1456
tp1457
a(S'dorylus'
p1458
g2
(g6
S'k\x89\xa21\xd1\r\xc6?'
p1459
tp1460
Rp1461
tp1462
a(S'midwest professional basketball association'
p1463
g2
(g6
S'\xad\xd4\x87D)\x0c\xc6?'
p1464
tp1465
Rp1466
tp1467
a(S'hive mind'
p1468
g2
(g6
S'\xb6\x0bxa\x96\xfe\xc5?'
p1469
tp1470
Rp1471
tp1472
a(S'william gould (naturalist)'
p1473
g2
(g6
S'\xa7m\xed\xbc\xf3\xfa\xc5?'
p1474
tp1475
Rp1476
tp1477
a(S'rasberry crazy ant'
p1478
g2
(g6
S'Zs\x19\xb0\xe5\xe9\xc5?'
p1479
tp1480
Rp1481
tp1482
a(S'sphecomyrma'
p1483
g2
(g6
S'\xe9\xedZ\x16f\xe9\xc5?'
p1484
tp1485
Rp1486
tp1487
a(S'emergent algorithm'
p1488
g2
(g6
S'\xccHe\x02\xb8\xdc\xc5?'
p1489
tp1490
Rp1491
tp1492
a(S'glossary of fishery terms'
p1493
g2
(g6
S'\xec\xf9"\xd2\xac\xd0\xc5?'
p1494
tp1495
Rp1496
tp1497
a(S'black-headed sugar ant'
p1498
g2
(g6
S'\x8aq\xe9\x9a9\xce\xc5?'
p1499
tp1500
Rp1501
tp1502
a(S'inago no tsukudani'
p1503
g2
(g6
S'\x1f\x936\xc2\xab\xc9\xc5?'
p1504
tp1505
Rp1506
tp1507
a(S'ornithology'
p1508
g2
(g6
S'l\x8c^T\xb0\xbb\xc5?'
p1509
tp1510
Rp1511
tp1512
a.