(lp0
(S'swarm robotics'
p1
cnumpy.core.multiarray
scalar
p2
(cnumpy
dtype
p3
(S'f8'
p4
I0
I1
tp5
Rp6
(I3
S'<'
p7
NNNI-1
I-1
I0
tp8
bS'\x01\x00\x00\x00\x00\x00\xf0?'
p9
tp10
Rp11
tp12
a(S'swarm (disambiguation)'
p13
g2
(g6
S'\xd3Y\xb5\xac\\\x07\xe6?'
p14
tp15
Rp16
tp17
a(S'intelligent small world autonomous robots for micro-manipulation'
p18
g2
(g6
S'\xb040J9\xaa\xe5?'
p19
tp20
Rp21
tp22
a(S'the swarm'
p23
g2
(g6
S'HT\xf4\x175\xe4\xe4?'
p24
tp25
Rp26
tp27
a(S'swarm behaviour'
p28
g2
(g6
S'\x10D\xc9I\xac\xa3\xe4?'
p29
tp30
Rp31
tp32
a(S'multi-swarm optimization'
p33
g2
(g6
S'\xef!K\xcdv\x83\xe4?'
p34
tp35
Rp36
tp37
a(S'swarm intelligence'
p38
g2
(g6
S'\xd0e?\x93\xb5*\xe4?'
p39
tp40
Rp41
tp42
a(S'swarm robotic platforms'
p43
g2
(g6
S';2\xbf,\x08k\xe3?'
p44
tp45
Rp46
tp47
a(S'swarm (comics)'
p48
g2
(g6
S'q\xe3uO\xfa\xa1\xe2?'
p49
tp50
Rp51
tp52
a(S'mike lines'
p53
g2
(g6
S'0\xd2\xdb/WI\xe2?'
p54
tp55
Rp56
tp57
a(S'dike swarm'
p58
g2
(g6
S'*b\xdb\x8d\xf9\xb5\xe1?'
p59
tp60
Rp61
tp62
a(S'swarming (honey bee)'
p63
g2
(g6
S',\x04\x0f4SV\xe1?'
p64
tp65
Rp66
tp67
a(S'satakunta dyke swarms'
p68
g2
(g6
S'\xb4\xcc\xb8\xa7,\x07\xe1?'
p69
tp70
Rp71
tp72
a(S'georgia swarm'
p73
g2
(g6
S'\x1bo<\xda3\x9e\xe0?'
p74
tp75
Rp76
tp77
a(S'francesco mondada'
p78
g2
(g6
S'pezR\x12t\xe0?'
p79
tp80
Rp81
tp82
a(S'marco dorigo'
p83
g2
(g6
S'{\x89\xf8\xc7!\xfe\xdf?'
p84
tp85
Rp86
tp87
a(S'swarm (simulation)'
p88
g2
(g6
S'6\\Mw#\xbe\xdf?'
p89
tp90
Rp91
tp92
a(S'swarm of the snakehead'
p93
g2
(g6
S'#\x14\x8a\xeb[\x89\xdf?'
p94
tp95
Rp96
tp97
a(S'2013 minnesota swarm season'
p98
g2
(g6
S'\x82B\xd6Z\xc2~\xdf?'
p99
tp100
Rp101
tp102
a(S'mobile robotics laboratory at iisc'
p103
g2
(g6
S'\xa9\x00\x80T\x0e7\xdf?'
p104
tp105
Rp106
tp107
a(S'orb swarm'
p108
g2
(g6
S'\xe8\xc6\xf6^\xa4$\xdf?'
p109
tp110
Rp111
tp112
a(S'guy-greenbrier earthquake swarm'
p113
g2
(g6
S'u\xab\xa0\xdd\xdf\xf0\xde?'
p114
tp115
Rp116
tp117
a(S'minnesota swarm'
p118
g2
(g6
S"v\xba'\xc3\xef\xa2\xde?"
p119
tp120
Rp121
tp122
a(S"albert's swarm"
p123
g2
(g6
S'\x82\xb6/t\x95\x94\xde?'
p124
tp125
Rp126
tp127
a(S'ant robotics'
p128
g2
(g6
S'\x84]\xf0\x9e4\x8e\xdd?'
p129
tp130
Rp131
tp132
a(S'cincinnati swarm'
p133
g2
(g6
S'\x1e\t\x9c\xde\x1f\x8b\xdc?'
p134
tp135
Rp136
tp137
a(S's-bot mobile robot'
p138
g2
(g6
S'EP\x02\x13L|\xdc?'
p139
tp140
Rp141
tp142
a(S'alien swarm (mod)'
p143
g2
(g6
S'\x9a\x80\\\x80\x10k\xdc?'
p144
tp145
Rp146
tp147
a(S'centibots'
p148
g2
(g6
S'~\xb3\x1d\xbf6U\xdc?'
p149
tp150
Rp151
tp152
a(S'outline of robotics'
p153
g2
(g6
S'\x82;\x8c\x99\x13>\xdc?'
p154
tp155
Rp156
tp157
a(S'champaign swarm'
p158
g2
(g6
S'P\x16\x8f\xa0\x8d\xa6\xdb?'
p159
tp160
Rp161
tp162
a(S'2016 georgia swarm season'
p163
g2
(g6
S'\x12\x9cA\x1c\x85a\xdb?'
p164
tp165
Rp166
tp167
a(S'robot'
p168
g2
(g6
S'HNk\xb3;\r\xdb?'
p169
tp170
Rp171
tp172
a(S'swarm development group'
p173
g2
(g6
S'4\xf8\x1f\xb7\xb7\xa0\xda?'
p174
tp175
Rp176
tp177
a(S'swarm (novelette)'
p178
g2
(g6
S'\xe3W\x9cs\x10v\xda?'
p179
tp180
Rp181
tp182
a(S'earthquake swarm'
p183
g2
(g6
S'\xfdJr\xf5\xa0/\xda?'
p184
tp185
Rp186
tp187
a(S'robotics'
p188
g2
(g6
S'/~\x92\x04O\xfb\xd9?'
p189
tp190
Rp191
tp192
a(S'january 2016 argentinean locust swarm'
p193
g2
(g6
S'\x931\x0b(!\xed\xd9?'
p194
tp195
Rp196
tp197
a(S'a swarm of angels'
p198
g2
(g6
S'\xe4\x06\x0c\xf4\xcb\xce\xd9?'
p199
tp200
Rp201
tp202
a(S'independence dike swarm'
p203
g2
(g6
S'}6WV\xc0L\xd9?'
p204
tp205
Rp206
tp207
a(S'sill swarm'
p208
g2
(g6
S'\xaa=\xd7>\xad@\xd9?'
p209
tp210
Rp211
tp212
a(S'alcherio martinoli'
p213
g2
(g6
S'\x01K\xe5\x84q&\xd9?'
p214
tp215
Rp216
tp217
a(S'2005 minnesota swarm season'
p218
g2
(g6
S'j\xf8R`\xb9\x02\xd9?'
p219
tp220
Rp221
tp222
a(S'uruguayan dyke swarms'
p223
g2
(g6
S'<\x16\xb4D\xed\xf6\xd8?'
p224
tp225
Rp226
tp227
a(S'2012 minnesota swarm season'
p228
g2
(g6
S'\xa5?\x95\xfe\x0b\xe8\xd8?'
p229
tp230
Rp231
tp232
a(S'charlie huber'
p233
g2
(g6
S'\r\x1f\xca\x8e\x0e\xe6\xd8?'
p234
tp235
Rp236
tp237
a(S'microbotics'
p238
g2
(g6
S'\xc4%14\x1a\xaf\xd8?'
p239
tp240
Rp241
tp242
a(S'kilobot'
p243
g2
(g6
S'Y\xb0\xcc\x08\xa7\x8f\xd8?'
p244
tp245
Rp246
tp247
a(S'patrick conlon (artist)'
p248
g2
(g6
S'$\x94\xea\x98]\x86\xd8?'
p249
tp250
Rp251
tp252
a(S'the swarm (roller coaster)'
p253
g2
(g6
S'&\xb4y\xad9\x7f\xd8?'
p254
tp255
Rp256
tp257
a(S'2007\xe2\x80\x932008 nazko earthquakes'
p258
g2
(g6
S'\x8b\x18\xc6\xferp\xd8?'
p259
tp260
Rp261
tp262
a(S'alien swarm'
p263
g2
(g6
S'\xb1\x06\x1cV\xaeT\xd8?'
p264
tp265
Rp266
tp267
a(S'james kennedy (social psychologist)'
p268
g2
(g6
S'\xfax\xde\xe6TO\xd8?'
p269
tp270
Rp271
tp272
a(S'morphogenetic robotics'
p273
g2
(g6
S']\x13\x10\x8dD\xb8\xd7?'
p274
tp275
Rp276
tp277
a(S'2014 minnesota swarm season'
p278
g2
(g6
S'\xb0r%E\x9b\xa6\xd7?'
p279
tp280
Rp281
tp282
a(S'gerardo beni'
p283
g2
(g6
S'\xcbTC\xb8Z\xa5\xd7?'
p284
tp285
Rp286
tp287
a(S'geography of robotics'
p288
g2
(g6
S'\xa1\xea\x02\xb7\xdf\x8f\xd7?'
p289
tp290
Rp291
tp292
a(S'mobile robot'
p293
g2
(g6
S'\xf6G\xa4-\xc0\xfe\xd6?'
p294
tp295
Rp296
tp297
a(S'japanese robotics'
p298
g2
(g6
S'\x99@n\xd4\x9e\xe2\xd6?'
p299
tp300
Rp301
tp302
a(S'symbrion'
p303
g2
(g6
S'.SO\xe0\xa6\xc8\xd6?'
p304
tp305
Rp306
tp307
a(S'mistassini dike swarm'
p308
g2
(g6
S'\xad{\xdd\xac\x83\xac\xd6?'
p309
tp310
Rp311
tp312
a(S'swarm (app)'
p313
g2
(g6
S'T\x92\xa4b\xf8\xa9\xd6?'
p314
tp315
Rp316
tp317
a(S'starcraft ii: heart of the swarm'
p318
g2
(g6
S'J]#C\xa4n\xd6?'
p319
tp320
Rp321
tp322
a(S'matt hanson'
p323
g2
(g6
S'o~\xf5Z\xb0l\xd6?'
p324
tp325
Rp326
tp327
a(S'social robot'
p328
g2
(g6
S'j\xc0\xf8P\xe7e\xd6?'
p329
tp330
Rp331
tp332
a(S'grenville dike swarm'
p333
g2
(g6
S'\xb2\x08\x84\x0b\xe5b\xd6?'
p334
tp335
Rp336
tp337
a(S'robot competition'
p338
g2
(g6
S'\xb8OWa_K\xd6?'
p339
tp340
Rp341
tp342
a(S'roboticist'
p343
g2
(g6
S'6ic\xad\xc4I\xd6?'
p344
tp345
Rp346
tp347
a(S'robobee'
p348
g2
(g6
S'\x97\x10\xd9\x82\x173\xd6?'
p349
tp350
Rp351
tp352
a(S'2015 minnesota swarm season'
p353
g2
(g6
S'3\x06w\xa1\xe1\x17\xd6?'
p354
tp355
Rp356
tp357
a(S'active robots'
p358
g2
(g6
S'v\x01=\xaev\xff\xd5?'
p359
tp360
Rp361
tp362
a(S'robotshop'
p363
g2
(g6
S'\xa1\xd8\xfa|w\xd6\xd5?'
p364
tp365
Rp366
tp367
a(S'matachewan dike swarm'
p368
g2
(g6
S'\xce~\x11_\xe6\xc9\xd5?'
p369
tp370
Rp371
tp372
a(S'domestic robot'
p373
g2
(g6
S'\x1f\x9c\x95\xcc;\x85\xd5?'
p374
tp375
Rp376
tp377
a(S'joseph engelberger'
p378
g2
(g6
S'^ \xcfRwT\xd5?'
p379
tp380
Rp381
tp382
a(S'cloud robotics'
p383
g2
(g6
S'\x942\xb7\xd7\xeaQ\xd5?'
p384
tp385
Rp386
tp387
a(S'service robot'
p388
g2
(g6
S'X\xe4W\xe5\xbdN\xd5?'
p389
tp390
Rp391
tp392
a(S'glossary of robotics'
p393
g2
(g6
S'\xc5!\xe2cfL\xd5?'
p394
tp395
Rp396
tp397
a(S'autonomous robot'
p398
g2
(g6
S'\x10X{:\xcc4\xd5?'
p399
tp400
Rp401
tp402
a(S'ian wannamaker'
p403
g2
(g6
S'\xd0\x9ab\xaeY\x1b\xd5?'
p404
tp405
Rp406
tp407
a(S'2011 nzihl season'
p408
g2
(g6
S'\xfc\x82@Y~\x01\xd5?'
p409
tp410
Rp411
tp412
a(S'mobile industrial robots'
p413
g2
(g6
S'\xfe\xca\x8csS\xfd\xd4?'
p414
tp415
Rp416
tp417
a(S"isaac asimov's caliban"
p418
g2
(g6
S'\xd8"/\xbb\xd6\xf4\xd4?'
p419
tp420
Rp421
tp422
a(S'national lacrosse league transition player of the year award'
p423
g2
(g6
S'\xc2l\xe4\xe6\xf0\xf2\xd4?'
p424
tp425
Rp426
tp427
a(S'robot software'
p428
g2
(g6
S'\xa17\x0c\xa8\xd9\xf0\xd4?'
p429
tp430
Rp431
tp432
a(S'artbots'
p433
g2
(g6
S'\xb1\x05\t\x00H\xed\xd4?'
p434
tp435
Rp436
tp437
a(S'prey (novel)'
p438
g2
(g6
S'!\xbb\x1c\r&\xec\xd4?'
p439
tp440
Rp441
tp442
a(S'autonomous research robot'
p443
g2
(g6
S'+\xefY\xdbi\xb9\xd4?'
p444
tp445
Rp446
tp447
a(S'jisan research institute'
p448
g2
(g6
S'\xa6\xad\x0bW\x9a\x8c\xd4?'
p449
tp450
Rp451
tp452
a(S'rodney brooks'
p453
g2
(g6
S'H\xc5[DIz\xd4?'
p454
tp455
Rp456
tp457
a(S'military robot'
p458
g2
(g6
S'u**{\xfau\xd4?'
p459
tp460
Rp461
tp462
a(S'national lacrosse league executive of the year award'
p463
g2
(g6
S'2\x88\x82\xe7\x00j\xd4?'
p464
tp465
Rp466
tp467
a(S'2010 nzihl season'
p468
g2
(g6
S'\xeb\xa2\xc2\x9ebN\xd4?'
p469
tp470
Rp471
tp472
a(S'robot economics'
p473
g2
(g6
S'\xe6\xb1\x9f\x0e\xc7M\xd4?'
p474
tp475
Rp476
tp477
a(S'index of robotics articles'
p478
g2
(g6
S'\xad{\xd1-gG\xd4?'
p479
tp480
Rp481
tp482
a(S'human\xe2\x80\x93robot interaction'
p483
g2
(g6
S'\x97\xf2\xe6Z\x9cE\xd4?'
p484
tp485
Rp486
tp487
a(S'activmedia robotics'
p488
g2
(g6
S'\xe0\xa3\xa0\xa5\xd9@\xd4?'
p489
tp490
Rp491
tp492
a(S'the swarm (film)'
p493
g2
(g6
S'VQ"\xf4\x0b=\xd4?'
p494
tp495
Rp496
tp497
a(S'irobot'
p498
g2
(g6
S'0 \xc1\x89\xe5\x0b\xd4?'
p499
tp500
Rp501
tp502
a(S'robotics institute'
p503
g2
(g6
S'\x1f\xa3\xd3\x14\xe8\xfc\xd3?'
p504
tp505
Rp506
tp507
a(S'okavango dyke swarm'
p508
g2
(g6
S'|L\xa5\xb5\xfd\xdd\xd3?'
p509
tp510
Rp511
tp512
a(S'bio-inspired robotics'
p513
g2
(g6
S'\xc63dO\x1f\xd4\xd3?'
p514
tp515
Rp516
tp517
a(S'behavior-based robotics'
p518
g2
(g6
S'*\x1f\x17\xd2\x89\xc6\xd3?'
p519
tp520
Rp521
tp522
a(S'robotnik automation'
p523
g2
(g6
S"\t\xc7\x16\x98'\xbf\xd3?"
p524
tp525
Rp526
tp527
a(S'robotic industries association'
p528
g2
(g6
S'\xc2\xf7\xa4\xee\xe5\xb2\xd3?'
p529
tp530
Rp531
tp532
a(S'robogames'
p533
g2
(g6
S'AX\t\xe8\xb4\xa8\xd3?'
p534
tp535
Rp536
tp537
a(S'soft robotics'
p538
g2
(g6
S'\xbb\xb7h\xaf`\x90\xd3?'
p539
tp540
Rp541
tp542
a(S'rescue robot'
p543
g2
(g6
S'Z-\xe3\xbd\xa4\x85\xd3?'
p544
tp545
Rp546
tp547
a(S'swarm (spacecraft)'
p548
g2
(g6
S'\xb3\xa1]\xf3zl\xd3?'
p549
tp550
Rp551
tp552
a(S'daniela l. rus'
p553
g2
(g6
S'\x97\x84\x9f\x18$d\xd3?'
p554
tp555
Rp556
tp557
a(S'roboearth'
p558
g2
(g6
S']!\xb86\xfcS\xd3?'
p559
tp560
Rp561
tp562
a(S'the swarm (song)'
p563
g2
(g6
S'\xdd\x1b.\xbcV<\xd3?'
p564
tp565
Rp566
tp567
a(S'botball'
p568
g2
(g6
S'zY\xdc\x0b\x1c/\xd3?'
p569
tp570
Rp571
tp572
a(S'franklin dike swarm'
p573
g2
(g6
S'\x93\x81/\x9e\xcb$\xd3?'
p574
tp575
Rp576
tp577
a(S'personal robot'
p578
g2
(g6
S'-\x14\x8es\x91\x1a\xd3?'
p579
tp580
Rp581
tp582
a(S'peer exchange'
p583
g2
(g6
S'\xda\x96\xff\xa6\xa4\xd7\xd2?'
p584
tp585
Rp586
tp587
a(S'mackenzie dike swarm'
p588
g2
(g6
S'|7+S\x0b\xc5\xd2?'
p589
tp590
Rp591
tp592
a(S'entertainment robot'
p593
g2
(g6
S'\x97\xe9\x08\xbb\xc5\xc1\xd2?'
p594
tp595
Rp596
tp597
a(S'robot ethics'
p598
g2
(g6
S'\xc8b\xa2v\xcd\xa7\xd2?'
p599
tp600
Rp601
tp602
a(S'paladyn'
p603
g2
(g6
S'\x01\xb0KdN\xa5\xd2?'
p604
tp605
Rp606
tp607
a(S'list of european union robotics projects'
p608
g2
(g6
S'\x91\xb8\x1a0&\x9f\xd2?'
p609
tp610
Rp611
tp612
a(S'kangaamiut dike swarm'
p613
g2
(g6
S'\xb1\x1d\xb6\x1b\xf6\x9e\xd2?'
p614
tp615
Rp616
tp617
a(S'long range dikes'
p618
g2
(g6
S'l\xa7\x83\x86\x15\x9b\xd2?'
p619
tp620
Rp621
tp622
a(S'2007 nzihl season'
p623
g2
(g6
S'&t\xb7\x86\x03\x93\xd2?'
p624
tp625
Rp626
tp627
a(S'laws of robotics'
p628
g2
(g6
S'\xd9:MJV\x80\xd2?'
p629
tp630
Rp631
tp632
a(S'robotics suite'
p633
g2
(g6
S'E\x14I\x0b\xc9}\xd2?'
p634
tp635
Rp636
tp637
a(S'medical robot'
p638
g2
(g6
S'\x90\x01\xa3\x0c1k\xd2?'
p639
tp640
Rp641
tp642
a(S'beam robotics'
p643
g2
(g6
S'r<\xc4\xb1\x19k\xd2?'
p644
tp645
Rp646
tp647
a(S'surface robotics laboratory-cmeri'
p648
g2
(g6
S'9h\xde{xc\xd2?'
p649
tp650
Rp651
tp652
a(S'rethink robotics'
p653
g2
(g6
S'_\r\x903\x97N\xd2?'
p654
tp655
Rp656
tp657
a(S'anthrobotics'
p658
g2
(g6
S'\xaa \xf7\xa9\x89I\xd2?'
p659
tp660
Rp661
tp662
a(S'history of robots'
p663
g2
(g6
S'+\xd7-\x14\xecC\xd2?'
p664
tp665
Rp666
tp667
a(S'2006 nzihl season'
p668
g2
(g6
S'iq\xcdsX;\xd2?'
p669
tp670
Rp671
tp672
a(S'checkerboarding (beekeeping)'
p673
g2
(g6
S'\x04\xc5\r\xe5C6\xd2?'
p674
tp675
Rp676
tp677
a(S'physicomimetics'
p678
g2
(g6
S'\xa4\x97Rpt,\xd2?'
p679
tp680
Rp681
tp682
a(S'feelix growing'
p683
g2
(g6
S'\x94\xa0\x86Z\xe5+\xd2?'
p684
tp685
Rp686
tp687
a(S'greensboro swarm'
p688
g2
(g6
S'~\x9c\x1ej\xae\x14\xd2?'
p689
tp690
Rp691
tp692
a(S'legged robot'
p693
g2
(g6
S'\xf1q\xa6\x9e8\x0f\xd2?'
p694
tp695
Rp696
tp697
a(S'national lacrosse league gm of the year award'
p698
g2
(g6
S'\x8a\xe5\x92\xcf\x93\x0e\xd2?'
p699
tp700
Rp701
tp702
a(S'open-source robotics'
p703
g2
(g6
S'\x14\x17u\x8b\x96\t\xd2?'
p704
tp705
Rp706
tp707
a(S'international federation of robotics'
p708
g2
(g6
S'\x17\xee\x1b\xac\x18\x01\xd2?'
p709
tp710
Rp711
tp712
a(S'robot learning'
p713
g2
(g6
S'\xd2\x92}a+\xe9\xd1?'
p714
tp715
Rp716
tp717
a(S'galaxy of fear: the swarm'
p718
g2
(g6
S'y\xda\xb1W\xf7\xde\xd1?'
p719
tp720
Rp721
tp722
a(S'institute of robotics and intelligent systems'
p723
g2
(g6
S'\xbf\xaf\xc6\x86\xa2\xcf\xd1?'
p724
tp725
Rp726
tp727
a(S'swarm gallery'
p728
g2
(g6
S'\xb1K\t/\x8c\xcc\xd1?'
p729
tp730
Rp731
tp732
a(S'cognitive robotics'
p733
g2
(g6
S't\x9f\xf7\xf8V\xcb\xd1?'
p734
tp735
Rp736
tp737
a(S'national robotics challenge'
p738
g2
(g6
S'\xa0z\xcdD_\xc9\xd1?'
p739
tp740
Rp741
tp742
a(S'swarm (2011 video game)'
p743
g2
(g6
S'\x9c1r\xd7\xbf\xc7\xd1?'
p744
tp745
Rp746
tp747
a(S'storming robots'
p748
g2
(g6
S'\x17\x8e\xbf*:\xc2\xd1?'
p749
tp750
Rp751
tp752
a(S'2009 minnesota swarm season'
p753
g2
(g6
S'\x00\x9e\xf9n\x0b\xbf\xd1?'
p754
tp755
Rp756
tp757
a(S'institute of robotics in scandinavia ab'
p758
g2
(g6
S'^\xbe\xafA\xcd\xba\xd1?'
p759
tp760
Rp761
tp762
a(S'synoeca surinama'
p763
g2
(g6
S'\xc5\x95\x82\xf09\xb6\xd1?'
p764
tp765
Rp766
tp767
a(S'mark tilden'
p768
g2
(g6
S'\xb4~T\xc0\xc3\xb2\xd1?'
p769
tp770
Rp771
tp772
a(S'taarlab'
p773
g2
(g6
S'\r\x00\xadOe\xab\xd1?'
p774
tp775
Rp776
tp777
a(S'telerobotics'
p778
g2
(g6
S'\xb6-}\x95\xc6\xa9\xd1?'
p779
tp780
Rp781
tp782
a(S'debasish ghose'
p783
g2
(g6
S'\xcb$\x8f\xcd\xb7\x88\xd1?'
p784
tp785
Rp786
tp787
a(S'dario floreano'
p788
g2
(g6
S'?9\xdf?\x11\x85\xd1?'
p789
tp790
Rp791
tp792
a(S'robot locomotion'
p793
g2
(g6
S'\xfa\x91\xb3\xa9\xbf~\xd1?'
p794
tp795
Rp796
tp797
a(S'laboratory robotics'
p798
g2
(g6
S'\x00$U\xe1)y\xd1?'
p799
tp800
Rp801
tp802
a(S'robot app store'
p803
g2
(g6
S'\xb5\xc0\xf6\xe1nv\xd1?'
p804
tp805
Rp806
tp807
a(S'stefano nolfi'
p808
g2
(g6
S'\n\xe0]\xe9\xd3h\xd1?'
p809
tp810
Rp811
tp812
a(S'2008 nzihl season'
p813
g2
(g6
S'\x05\x8b\xe1\x9f\xeb^\xd1?'
p814
tp815
Rp816
tp817
a(S'ropalidia romandi'
p818
g2
(g6
S'\x0e8\x13\x02\xec]\xd1?'
p819
tp820
Rp821
tp822
a(S'particle swarm optimization'
p823
g2
(g6
S'\x1a\xdc\x9cr\x18Z\xd1?'
p824
tp825
Rp826
tp827
a(S'sudbury dike swarm'
p828
g2
(g6
S'\xf6R\xce\xfb\xedU\xd1?'
p829
tp830
Rp831
tp832
a(S'fran\xc3\xa7ois pierrot'
p833
g2
(g6
S'wQ\xf3LCG\xd1?'
p834
tp835
Rp836
tp837
a(S'kattsund-koster dyke swarm'
p838
g2
(g6
S"\xc1\x19\xc9'\x1b2\xd1?"
p839
tp840
Rp841
tp842
a(S'termite-inspired robots'
p843
g2
(g6
S'O\x92\xb2+W/\xd1?'
p844
tp845
Rp846
tp847
a(S'industrial robot'
p848
g2
(g6
S'\xbf\x1c\xfc\xe1\x07,\xd1?'
p849
tp850
Rp851
tp852
a(S'cynthia breazeal'
p853
g2
(g6
S'l:\xc1\x1c\x92)\xd1?'
p854
tp855
Rp856
tp857
a(S'educational robotics'
p858
g2
(g6
S'N\xbc\x8fLp)\xd1?'
p859
tp860
Rp861
tp862
a(S'national robotics engineering center'
p863
g2
(g6
S'\xe60\xea:\x96(\xd1?'
p864
tp865
Rp866
tp867
a(S'student space exploration & technology initiative'
p868
g2
(g6
S'^\x13B\xe4\xd4#\xd1?'
p869
tp870
Rp871
tp872
a(S'robot research initiative'
p873
g2
(g6
S'\xac\xd8@\xdbw\x1c\xd1?'
p874
tp875
Rp876
tp877
a(S'swedish robotics society'
p878
g2
(g6
S'\xc5\xad\xee\xeb}\x16\xd1?'
p879
tp880
Rp881
tp882
a(S'list of robot series characters'
p883
g2
(g6
S'R\xb2t\x95\xb6\xfe\xd0?'
p884
tp885
Rp886
tp887
a(S'microsoft robotics developer studio'
p888
g2
(g6
S'\x9c5+Z>\xfc\xd0?'
p889
tp890
Rp891
tp892
a(S'james j. kuffner jr.'
p893
g2
(g6
S',\xd1\xab\xb0\xe1\xfb\xd0?'
p894
tp895
Rp896
tp897
a(S'three laws of robotics'
p898
g2
(g6
S'\xd3k%>\xf8\xeb\xd0?'
p899
tp900
Rp901
tp902
a(S'the complete robot'
p903
g2
(g6
S'\x80\xfev\xe4\xa5\xdf\xd0?'
p904
tp905
Rp906
tp907
a(S'decentralised system'
p908
g2
(g6
S'^\xf5\xdb\x8e\x10\xd9\xd0?'
p909
tp910
Rp911
tp912
a(S'player project'
p913
g2
(g6
S'\xb9\x86\xd5\xf2\x00\xd9\xd0?'
p914
tp915
Rp916
tp917
a(S'humanoid robot'
p918
g2
(g6
S'_\x18\x914\xe7\xd6\xd0?'
p919
tp920
Rp921
tp922
a(S"isaac asimov's robot city: odyssey"
p923
g2
(g6
S')\x15\x0e\xd4\x8b\xba\xd0?'
p924
tp925
Rp926
tp927
a(S'puck collect'
p928
g2
(g6
S'\x83\xcc\xc6\xcd\xed\xb6\xd0?'
p929
tp930
Rp931
tp932
a(S'jean-christophe baillie'
p933
g2
(g6
S'F\xb0`\x88g\xb5\xd0?'
p934
tp935
Rp936
tp937
a(S'swarmed (film)'
p938
g2
(g6
S'\x93\x9dp=I\xab\xd0?'
p939
tp940
Rp941
tp942
a(S'developmental robotics'
p943
g2
(g6
S'\xc8\x9d\x1e!\xd3\xa1\xd0?'
p944
tp945
Rp946
tp947
a(S'universal robots'
p948
g2
(g6
S'\x98\x9d\xdb\x7f\x8b\x9e\xd0?'
p949
tp950
Rp951
tp952
a(S'robot football'
p953
g2
(g6
S'\xec\xa4\xed\xe39\x97\xd0?'
p954
tp955
Rp956
tp957
a(S'british automation and robot association'
p958
g2
(g6
S'o\xbc\xa82\xfd\x84\xd0?'
p959
tp960
Rp961
tp962
a(S'robots (computer game)'
p963
g2
(g6
S'9\xfd\x0et\xf7|\xd0?'
p964
tp965
Rp966
tp967
a(S'american robotics'
p968
g2
(g6
S'\xd4w\xcb\n(k\xd0?'
p969
tp970
Rp971
tp972
a(S'2006 minnesota swarm season'
p973
g2
(g6
S'\x149\xc1\x04\xb1e\xd0?'
p974
tp975
Rp976
tp977
a(S'kane easterbrook'
p978
g2
(g6
S'\x96\xb3&\x8b*\\\xd0?'
p979
tp980
Rp981
tp982
a(S'music for robots (ep)'
p983
g2
(g6
S'kaR\xbe\xa2;\xd0?'
p984
tp985
Rp986
tp987
a(S'2010 minnesota swarm season'
p988
g2
(g6
S'Uqp]E9\xd0?'
p989
tp990
Rp991
tp992
a(S'rehabilitation robotics'
p993
g2
(g6
S'}{\x08Xl1\xd0?'
p994
tp995
Rp996
tp997
a(S'collegiate aerial robotics demonstration'
p998
g2
(g6
S'\x1413\xf0p*\xd0?'
p999
tp1000
Rp1001
tp1002
a(S'war robots'
p1003
g2
(g6
S'\x8cJ\xde\x86S%\xd0?'
p1004
tp1005
Rp1006
tp1007
a(S'u.s. robots and mechanical men'
p1008
g2
(g6
S'\xee\t\xba\xb4\x9b!\xd0?'
p1009
tp1010
Rp1011
tp1012
a(S'openrave'
p1013
g2
(g6
S'\xe7{04\x87\x1f\xd0?'
p1014
tp1015
Rp1016
tp1017
a(S'robot magazine'
p1018
g2
(g6
S'\xc1!\xa7:O\x1e\xd0?'
p1019
tp1020
Rp1021
tp1022
a(S'the rest of the robots'
p1023
g2
(g6
S'\x8e\x184\xb8\x9c\x18\xd0?'
p1024
tp1025
Rp1026
tp1027
a(S'sociorobotics'
p1028
g2
(g6
S'\xe1:\xcd\x17\x0e\x14\xd0?'
p1029
tp1030
Rp1031
tp1032
a(S'robot award'
p1033
g2
(g6
S'\xa4\xef\x9a\x97\xee\x0f\xd0?'
p1034
tp1035
Rp1036
tp1037
a(S'robot dreams (short story)'
p1038
g2
(g6
S"9\x89'\xbb\xc7\x0c\xd0?"
p1039
tp1040
Rp1041
tp1042
a(S'myrobots'
p1043
g2
(g6
S'XF\x14O.\xf8\xcf?'
p1044
tp1045
Rp1046
tp1047
a(S'almost human: making robots think'
p1048
g2
(g6
S'\x9bn\x9a\xbe\xb0\xee\xcf?'
p1049
tp1050
Rp1051
tp1052
a(S'r.u.r.'
p1053
g2
(g6
S'l\x7f\x84\x1d\xc5\xd9\xcf?'
p1054
tp1055
Rp1056
tp1057
a(S'peter corke'
p1058
g2
(g6
S'aH\t\xc8\x90\xd9\xcf?'
p1059
tp1060
Rp1061
tp1062
a(S'robotis bioloid'
p1063
g2
(g6
S'Py/\xee\x14\xc4\xcf?'
p1064
tp1065
Rp1066
tp1067
a(S'darwin caldwell'
p1068
g2
(g6
S'\xf6\x8aI\xfbp\xb1\xcf?'
p1069
tp1070
Rp1071
tp1072
a(S'artificial ants'
p1073
g2
(g6
S'uyGdF\xb1\xcf?'
p1074
tp1075
Rp1076
tp1077
a(S'unanimous a.i.'
p1078
g2
(g6
S'\xd4Y\xfe\xbaT\xad\xcf?'
p1079
tp1080
Rp1081
tp1082
a(S'polybioides tabidus'
p1083
g2
(g6
S'\xbc!\xf8;v\xab\xcf?'
p1084
tp1085
Rp1086
tp1087
a(S'gregory dudek'
p1088
g2
(g6
S'\x00\x1b\xf1\x0f\x82\x8f\xcf?'
p1089
tp1090
Rp1091
tp1092
a(S'cobot'
p1093
g2
(g6
S'\\\xc8xN\x06\x8d\xcf?'
p1094
tp1095
Rp1096
tp1097
a(S'robotix (competition)'
p1098
g2
(g6
S'\xe0\xab\xc8\xf9,\x85\xcf?'
p1099
tp1100
Rp1101
tp1102
a(S'robot wars (tv series)'
p1103
g2
(g6
S'\x14\x94\x95\xa4r\x83\xcf?'
p1104
tp1105
Rp1106
tp1107
a(S'international aerial robotics competition'
p1108
g2
(g6
S'Uk3;\x86}\xcf?'
p1109
tp1110
Rp1111
tp1112
a(S'fembot (disambiguation)'
p1113
g2
(g6
S"r'\xc0\x9c\x128\xcf?"
p1114
tp1115
Rp1116
tp1117
a(S'self-reconfiguring modular robot'
p1118
g2
(g6
S'Z\x0bN\xb3\x0c/\xcf?'
p1119
tp1120
Rp1121
tp1122
a(S'victory unintentional'
p1123
g2
(g6
S'j\xba`\x86&*\xcf?'
p1124
tp1125
Rp1126
tp1127
a(S'gerd hirzinger'
p1128
g2
(g6
S'\xd7\x06m\xf4\x93&\xcf?'
p1129
tp1130
Rp1131
tp1132
a(S'robot (disambiguation)'
p1133
g2
(g6
S'\xcb\xcfV\x84\xfd\x06\xcf?'
p1134
tp1135
Rp1136
tp1137
a(S'ruppin academic center'
p1138
g2
(g6
S'\xaf\xd6\xab\x1d\x91\xfe\xce?'
p1139
tp1140
Rp1141
tp1142
a(S'cmucam'
p1143
g2
(g6
S'\xf0\xad\xd4\xfb\x86\xce\xce?'
p1144
tp1145
Rp1146
tp1147
a(S'robots (song)'
p1148
g2
(g6
S'~\x16\x91\xd0\x06\xca\xce?'
p1149
tp1150
Rp1151
tp1152
a(S'swarm peak'
p1153
g2
(g6
S'\xeb\xc1\xa6 \xcb\xb9\xce?'
p1154
tp1155
Rp1156
tp1157
a(S'alice mobile robot'
p1158
g2
(g6
S'\xdd\xaeF\x18j\xb9\xce?'
p1159
tp1160
Rp1161
tp1162
a(S'meka robotics'
p1163
g2
(g6
S':a\xfaK\x0f\xb0\xce?'
p1164
tp1165
Rp1166
tp1167
a(S'redwood robotics'
p1168
g2
(g6
S'\x8fDV\xf6\xfd\xab\xce?'
p1169
tp1170
Rp1171
tp1172
a(S'international basketball league (1999\xe2\x80\x932001)'
p1173
g2
(g6
S'\x13\x08\xaf\x1ez\xa1\xce?'
p1174
tp1175
Rp1176
tp1177
a(S'robotic sensing'
p1178
g2
(g6
S'\xf4\x88\xf4\xf4~\xa0\xce?'
p1179
tp1180
Rp1181
tp1182
a(S'webots'
p1183
g2
(g6
S'\x97\x17\xcbi\x87\x94\xce?'
p1184
tp1185
Rp1186
tp1187
a(S'ultrabots'
p1188
g2
(g6
S'\xd1\x07I0\xab\x8c\xce?'
p1189
tp1190
Rp1191
tp1192
a(S'patrolbot'
p1193
g2
(g6
S'\xd0\xc4m\xf6\xfdu\xce?'
p1194
tp1195
Rp1196
tp1197
a(S'sex life of robots'
p1198
g2
(g6
S'\xe1\xf8\xe5kRq\xce?'
p1199
tp1200
Rp1201
tp1202
a(S'geodefense swarm'
p1203
g2
(g6
S'\xed~e\\\xfbm\xce?'
p1204
tp1205
Rp1206
tp1207
a(S'occra'
p1208
g2
(g6
S'\x82\xd2 \xe1\xdah\xce?'
p1209
tp1210
Rp1211
tp1212
a(S'swarm of angels'
p1213
g2
(g6
S'\x88\x8a\xb6p\xccg\xce?'
p1214
tp1215
Rp1216
tp1217
a(S'robot hall of fame'
p1218
g2
(g6
S'\xda\xc6\xee\x854U\xce?'
p1219
tp1220
Rp1221
tp1222
a(S'ronald c. arkin'
p1223
g2
(g6
S'{$\x11\x0c\x9f9\xce?'
p1224
tp1225
Rp1226
tp1227
a(S'nasonov pheromone'
p1228
g2
(g6
S'\xda\xbe\x7ffB2\xce?'
p1229
tp1230
Rp1231
tp1232
a(S'roboy'
p1233
g2
(g6
S'Fid:\xfc.\xce?'
p1234
tp1235
Rp1236
tp1237
a(S"isaac asimov's robot city"
p1238
g2
(g6
S'\xe0\xc3\xa6\x05\xbe&\xce?'
p1239
tp1240
Rp1241
tp1242
a(S'robovalley'
p1243
g2
(g6
S'\xf9\xfc\x00\xdaP\x13\xce?'
p1244
tp1245
Rp1246
tp1247
a(S'bradley nelson'
p1248
g2
(g6
S'\xe3\r+\x05\xc4\x07\xce?'
p1249
tp1250
Rp1251
tp1252
a(S'roborocks'
p1253
g2
(g6
S'\x9c\xc9\x8f\x1b0\xf2\xcd?'
p1254
tp1255
Rp1256
tp1257
a(S'masakatsu g. fujie'
p1258
g2
(g6
S'F\xf7xf\xa8\xeb\xcd?'
p1259
tp1260
Rp1261
tp1262
a(S'2016 nll season'
p1263
g2
(g6
S'}\xca\t\x9en\xe8\xcd?'
p1264
tp1265
Rp1266
tp1267
a(S'loss of sensation'
p1268
g2
(g6
S'>\xec\xc0!\xb9\xe7\xcd?'
p1269
tp1270
Rp1271
tp1272
a(S'robotica'
p1273
g2
(g6
S'\xfe\xe0B*\xfc\xd4\xcd?'
p1274
tp1275
Rp1276
tp1277
a(S'andy flessas'
p1278
g2
(g6
S'S\xe2\x1c\x9b~\xc3\xcd?'
p1279
tp1280
Rp1281
tp1282
a(S'm. anthony lewis'
p1283
g2
(g6
S'0\xbb\x92)Y\xc2\xcd?'
p1284
tp1285
Rp1286
tp1287
a(S'boids'
p1288
g2
(g6
S'\xbf\\F\xb7\xf6\xa2\xcd?'
p1289
tp1290
Rp1291
tp1292
a(S'sean pollock'
p1293
g2
(g6
S'\xa4\x94\xda\x02\x85\xa0\xcd?'
p1294
tp1295
Rp1296
tp1297
a(S'adaptable robotics'
p1298
g2
(g6
S'\xf6\x07W\x90\x02\x95\xcd?'
p1299
tp1300
Rp1301
tp1302
a(S'documentary swarm'
p1303
g2
(g6
S'"an\xc8\x01\x84\xcd?'
p1304
tp1305
Rp1306
tp1307
a(S'analog robot'
p1308
g2
(g6
S')\x92Y\xcfh|\xcd?'
p1309
tp1310
Rp1311
tp1312
a(S'first lego league'
p1313
g2
(g6
S'\x18~\xc9\x83Sy\xcd?'
p1314
tp1315
Rp1316
tp1317
a(S'transformers: generation 2 (comics)'
p1318
g2
(g6
S'\x1a\xaf9\x1e6x\xcd?'
p1319
tp1320
Rp1321
tp1322
a(S'servo magazine'
p1323
g2
(g6
S'.\x9e\xa4n\xd7p\xcd?'
p1324
tp1325
Rp1326
tp1327
a(S'moribund (album)'
p1328
g2
(g6
S'E\x8b\x92L\xd2\\\xcd?'
p1329
tp1330
Rp1331
tp1332
a(S'zach higgins'
p1333
g2
(g6
S'(\xab;\xf1\xa9V\xcd?'
p1334
tp1335
Rp1336
tp1337
a(S'robofest'
p1338
g2
(g6
S'?\xbcX\xbeMJ\xcd?'
p1339
tp1340
Rp1341
tp1342
a(S'. . . that thou art mindful of him'
p1343
g2
(g6
S',\x18\x9f&\xc1?\xcd?'
p1344
tp1345
Rp1346
tp1347
a(S'swarm!'
p1348
g2
(g6
S'A7\xfd\xc9\x917\xcd?'
p1349
tp1350
Rp1351
tp1352
a(S'robocup junior'
p1353
g2
(g6
S'\x93R\xe6\xc3\xad,\xcd?'
p1354
tp1355
Rp1356
tp1357
a(S'ituro'
p1358
g2
(g6
S'\x8a\xd0\x10{\xa2,\xcd?'
p1359
tp1360
Rp1361
tp1362
a(S'cable robots'
p1363
g2
(g6
S'\x15\xf9\xff`\xd6\x15\xcd?'
p1364
tp1365
Rp1366
tp1367
a(S'indian underwater robotics society'
p1368
g2
(g6
S'Q-\x8f\xde\x84\x13\xcd?'
p1369
tp1370
Rp1371
tp1372
a(S'the swarm (sch\xc3\xa4tzing novel)'
p1373
g2
(g6
S'F.\xb6\xf2\xd6\t\xcd?'
p1374
tp1375
Rp1376
tp1377
a(S'national lacrosse league rookie of the year award'
p1378
g2
(g6
S'\x88\xb9\xaf\xaa\xdf\x04\xcd?'
p1379
tp1380
Rp1381
tp1382
a(S'anykode marilou'
p1383
g2
(g6
S'\xf6dD\xde\xd3\xf1\xcc?'
p1384
tp1385
Rp1386
tp1387
a(S'robot odyssey'
p1388
g2
(g6
S'vE\xb3\x0e-\xf1\xcc?'
p1389
tp1390
Rp1391
tp1392
a(S'shigeo hirose'
p1393
g2
(g6
S'# U\x81\x85\xed\xcc?'
p1394
tp1395
Rp1396
tp1397
a(S'milagrow'
p1398
g2
(g6
S'\x88\x12\x85=\x8a\xe9\xcc?'
p1399
tp1400
Rp1401
tp1402
a(S'free the robots'
p1403
g2
(g6
S'\t\xb6X\xcfk\xe0\xcc?'
p1404
tp1405
Rp1406
tp1407
a(S'agricultural robot'
p1408
g2
(g6
S'\x03\xf2vV0\xdd\xcc?'
p1409
tp1410
Rp1411
tp1412
a(S'rhex'
p1413
g2
(g6
S'\xfe\xa7\x91\xce,\xd2\xcc?'
p1414
tp1415
Rp1416
tp1417
a(S'iso 10218'
p1418
g2
(g6
S'p\xd0{\xfd\x11\xc9\xcc?'
p1419
tp1420
Rp1421
tp1422
a(S'robot series (asimov)'
p1423
g2
(g6
S'2[\xd7\xa1H\xc2\xcc?'
p1424
tp1425
Rp1426
tp1427
a(S'robotics design inc'
p1428
g2
(g6
S'\xa9c\x00bP\xbd\xcc?'
p1429
tp1430
Rp1431
tp1432
a(S'robots exclusion standard'
p1433
g2
(g6
S'\x05J\x0c\xff\x9c\xba\xcc?'
p1434
tp1435
Rp1436
tp1437
a(S'turtle (robot)'
p1438
g2
(g6
S'\x91\xe1\xb5p\xa3\xb1\xcc?'
p1439
tp1440
Rp1441
tp1442
a(S'robotic art'
p1443
g2
(g6
S'\x00\x0e\xa84\r\xac\xcc?'
p1444
tp1445
Rp1446
tp1447
a(S'nikolaus correll'
p1448
g2
(g6
S'\xdd? `\xb2\xa0\xcc?'
p1449
tp1450
Rp1451
tp1452
a(S'eciton'
p1453
g2
(g6
S'`\xc4C[\xa7\x94\xcc?'
p1454
tp1455
Rp1456
tp1457
a(S'multi autonomous ground-robotic international challenge'
p1458
g2
(g6
S'f\x8c\xe0S\xda\x8e\xcc?'
p1459
tp1460
Rp1461
tp1462
a(S'utility fog'
p1463
g2
(g6
S'\xe7\x04\x05\xe0tm\xcc?'
p1464
tp1465
Rp1466
tp1467
a(S'list of fictional robots and androids'
p1468
g2
(g6
S'\xcf\xbbR@\xfbk\xcc?'
p1469
tp1470
Rp1471
tp1472
a(S'susan calvin'
p1473
g2
(g6
S'\x93\x9c\xe4\xd2\x11d\xcc?'
p1474
tp1475
Rp1476
tp1477
a(S'robot wars: arenas of destruction'
p1478
g2
(g6
S'\xcd+\x1aOfb\xcc?'
p1479
tp1480
Rp1481
tp1482
a(S'bobcat robotics'
p1483
g2
(g6
S'\xeeC\xd4\xcek]\xcc?'
p1484
tp1485
Rp1486
tp1487
a(S'evolutionary robotics'
p1488
g2
(g6
S'\xc8\xf0\xec0\x93V\xcc?'
p1489
tp1490
Rp1491
tp1492
a(S'robot rescue'
p1493
g2
(g6
S'h\x08\xae\x05/U\xcc?'
p1494
tp1495
Rp1496
tp1497
a(S'alex crepinsek'
p1498
g2
(g6
S';>z\xabtS\xcc?'
p1499
tp1500
Rp1501
tp1502
a(S'robotics simulator'
p1503
g2
(g6
S'\x83\x82\x13G#P\xcc?'
p1504
tp1505
Rp1506
tp1507
a(S'terminal world'
p1508
g2
(g6
S'm/t\xdeJM\xcc?'
p1509
tp1510
Rp1511
tp1512
a.