(lp0
(S'system'
p1
cnumpy.core.multiarray
scalar
p2
(cnumpy
dtype
p3
(S'f8'
p4
I0
I1
tp5
Rp6
(I3
S'<'
p7
NNNI-1
I-1
I0
tp8
bS'\x04\x00\x00\x00\x00\x00\xf0?'
p9
tp10
Rp11
tp12
a(S'system of systems'
p13
g2
(g6
S'1\xdf[\xeez\xd9\xe8?'
p14
tp15
Rp16
tp17
a(S'systems thinking'
p18
g2
(g6
S'\x1c\xf6\xe2\xb2V\xd8\xe8?'
p19
tp20
Rp21
tp22
a(S'systems science'
p23
g2
(g6
S'(\xf13\xeb\x9e\xe4\xe7?'
p24
tp25
Rp26
tp27
a(S'systems theory'
p28
g2
(g6
S'\xe1\x85we\n\xa9\xe6?'
p29
tp30
Rp31
tp32
a(S'systemantics'
p33
g2
(g6
S';\xb67`\x10a\xe6?'
p34
tp35
Rp36
tp37
a(S'system of systems engineering'
p38
g2
(g6
S'\xaa\x11\xfa.\x13U\xe5?'
p39
tp40
Rp41
tp42
a(S'list of systems sciences organizations'
p43
g2
(g6
S'\x0b\\\xaf\xf6tG\xe4?'
p44
tp45
Rp46
tp47
a(S'ipo model'
p48
g2
(g6
S'_\tP\x00\xeb\x06\xe4?'
p49
tp50
Rp51
tp52
a(S'list of types of systems theory'
p53
g2
(g6
S'\x85\x87%\x90\xd2\x9f\xe3?'
p54
tp55
Rp56
tp57
a(S'glossary of systems theory'
p58
g2
(g6
S'GuYy\xee\x83\xe3?'
p59
tp60
Rp61
tp62
a(S'systems engineering'
p63
g2
(g6
S'\x81\x1b%\t\x17|\xe3?'
p64
tp65
Rp66
tp67
a(S"philip m'pherson"
p68
g2
(g6
S'mg\xb1\x158\xf8\xe2?'
p69
tp70
Rp71
tp72
a(S'work systems'
p73
g2
(g6
S'\x1c\xed\xefk\x0f\xf3\xe2?'
p74
tp75
Rp76
tp77
a(S'complex system'
p78
g2
(g6
S'\xd5(|\xdb\xbd\xa4\xe2?'
p79
tp80
Rp81
tp82
a(S'information system'
p83
g2
(g6
S'\xdf?\xf7\xcf\x02j\xe2?'
p84
tp85
Rp86
tp87
a(S'list of systems science journals'
p88
g2
(g6
S'\xfbuV\xd2\x8ai\xe2?'
p89
tp90
Rp91
tp92
a(S'living systems'
p93
g2
(g6
S'\xa7\x07\t\x05\x18Z\xe2?'
p94
tp95
Rp96
tp97
a(S'hard systems'
p98
g2
(g6
S'\x0c\x9e\xe8\xf9\xbaD\xe2?'
p99
tp100
Rp101
tp102
a(S'general systems'
p103
g2
(g6
S'2\xad\xda\xe8{\xf7\xe1?'
p104
tp105
Rp106
tp107
a(S'viable systems approach'
p108
g2
(g6
S'\x10\xf7%\xa5%\xee\xe1?'
p109
tp110
Rp111
tp112
a(S'world-system'
p113
g2
(g6
S'\xc1ldaT\xe0\xe1?'
p114
tp115
Rp116
tp117
a(S'list of systems scientists'
p118
g2
(g6
S'\xc9\x9a\x83\x7f\xa8\xbf\xe1?'
p119
tp120
Rp121
tp122
a(S'biomatrix systems theory'
p123
g2
(g6
S'6$\xde\xa1\xf4\x92\xe1?'
p124
tp125
Rp126
tp127
a(S'kyoichi kijima'
p128
g2
(g6
S'q\xb9\xf1\xfa\xb3i\xe1?'
p129
tp130
Rp131
tp132
a(S'systems philosophy'
p133
g2
(g6
S'\xf7A\x99\xd8\xb3[\xe1?'
p134
tp135
Rp136
tp137
a(S'mihajlo d. mesarovic'
p138
g2
(g6
S'\x89^\x06\xc4t=\xe1?'
p139
tp140
Rp141
tp142
a(S'b\xc3\xa9la a. b\xc3\xa1n\xc3\xa1thy'
p143
g2
(g6
S'\xec%E\xb9\xfd(\xe1?'
p144
tp145
Rp146
tp147
a(S'systems analyst'
p148
g2
(g6
S'\xfcu\xeb\xd7n\xf5\xe0?'
p149
tp150
Rp151
tp152
a(S'international federation for systems research'
p153
g2
(g6
S'dW\x957\xb4\xc9\xe0?'
p154
tp155
Rp156
tp157
a(S'peter checkland'
p158
g2
(g6
S'\x18?E^\xb0\xb1\xe0?'
p159
tp160
Rp161
tp162
a(S'service system'
p163
g2
(g6
S'\x82\xe9\xcc\xf7\x06\x9e\xe0?'
p164
tp165
Rp166
tp167
a(S'dutch systems group'
p168
g2
(g6
S'\x15\x18\x9f\x06\xa5]\xe0?'
p169
tp170
Rp171
tp172
a(S'jamshid gharajedaghi'
p173
g2
(g6
S'\xa1\xdd9\x1b\x8eE\xe0?'
p174
tp175
Rp176
tp177
a(S'system (disambiguation)'
p178
g2
(g6
S'\xf3\r9\x05\x8e>\xe0?'
p179
tp180
Rp181
tp182
a(S'life-critical system'
p183
g2
(g6
S'*\x0f\x10\xffq,\xe0?'
p184
tp185
Rp186
tp187
a(S'list of systems engineers'
p188
g2
(g6
S"\xe8\xf4\x1e\xac\xbf'\xe0?"
p189
tp190
Rp191
tp192
a(S'derek hitchins'
p193
g2
(g6
S'\xa8\x8c\xec!\x7f\x12\xe0?'
p194
tp195
Rp196
tp197
a(S'mit engineering systems division'
p198
g2
(g6
S'B\x00\xdd\x12?\t\xe0?'
p199
tp200
Rp201
tp202
a(S'albert hanken'
p203
g2
(g6
S'\x00\xde\xdf\x19\x9c\xda\xdf?'
p204
tp205
Rp206
tp207
a(S'ludwig von bertalanffy'
p208
g2
(g6
S'\x7f\x8c]S9\xa4\xdf?'
p209
tp210
Rp211
tp212
a(S'soft systems methodology'
p213
g2
(g6
S']@n*R\x91\xdf?'
p214
tp215
Rp216
tp217
a(S'len r. troncale'
p218
g2
(g6
S'\xdd\x97\xbe\x04^\x84\xdf?'
p219
tp220
Rp221
tp222
a(S'ultra-large-scale systems'
p223
g2
(g6
S'\xee(\xa8\x9e\xf7Z\xdf?'
p224
tp225
Rp226
tp227
a(S'critical systems thinking'
p228
g2
(g6
S'\x91\xe0\xf5\xf0\xbfL\xdf?'
p229
tp230
Rp231
tp232
a(S'complex systems'
p233
g2
(g6
S'\x04\xbc+\x16_J\xdf?'
p234
tp235
Rp236
tp237
a(S'lists of rapid transit systems'
p238
g2
(g6
S'\xfax2c\\3\xdf?'
p239
tp240
Rp241
tp242
a(S'open system'
p243
g2
(g6
S'\xfe&D\xef\xc4-\xdf?'
p244
tp245
Rp246
tp247
a(S'open system (systems theory)'
p248
g2
(g6
S'Qr\xf2e\x84\r\xdf?'
p249
tp250
Rp251
tp252
a(S'viable system theory'
p253
g2
(g6
S'\x00II\xbc]\xf5\xde?'
p254
tp255
Rp256
tp257
a(S'parallel running'
p258
g2
(g6
S'\xb1q\x98\xf5\x8f\x8d\xde?'
p259
tp260
Rp261
tp262
a(S'arc centre for complex systems'
p263
g2
(g6
S'\x8db\x8d\xdd\x9e\x83\xde?'
p264
tp265
Rp266
tp267
a(S'systems development life cycle'
p268
g2
(g6
S'9q\x84\x90\xabr\xde?'
p269
tp270
Rp271
tp272
a(S'john pourdehnad'
p273
g2
(g6
S'\xb5\x95\xc2\x0c\xe0`\xde?'
p274
tp275
Rp276
tp277
a(S'environment (systems)'
p278
g2
(g6
S'*\xa4\x10s\x0b9\xde?'
p279
tp280
Rp281
tp282
a(S'systemic development'
p283
g2
(g6
S'\xdfV\xe2\x0850\xde?'
p284
tp285
Rp286
tp287
a(S'barry richmond'
p288
g2
(g6
S'\x8f\xdb\xd7\x1a\x14\xf4\xdd?'
p289
tp290
Rp291
tp292
a(S'system analysis'
p293
g2
(g6
S'Z\x14\xfb\xf3\x81\xc8\xdd?'
p294
tp295
Rp296
tp297
a(S'jennifer wilby'
p298
g2
(g6
S')~\x9b\x91\xbc\xb0\xdd?'
p299
tp300
Rp301
tp302
a(S'system equivalence'
p303
g2
(g6
S'Q\x06\xa1\xa2\x00\xab\xdd?'
p304
tp305
Rp306
tp307
a(S'list of types of systems engineering'
p308
g2
(g6
S"\x1a\xfb'\x96\xef\x9a\xdd?"
p309
tp310
Rp311
tp312
a(S'physical system'
p313
g2
(g6
S'\x17J\x0cCx\x9a\xdd?'
p314
tp315
Rp316
tp317
a(S'new england complex systems institute'
p318
g2
(g6
S'/58\x04#\x96\xdd?'
p319
tp320
Rp321
tp322
a(S'gyrocam systems'
p323
g2
(g6
S'\xfd\x9a\xb8\x8e\n\x8b\xdd?'
p324
tp325
Rp326
tp327
a(S'meta-system'
p328
g2
(g6
S'\x98,\x8d\xaeC\x7f\xdd?'
p329
tp330
Rp331
tp332
a(S'bae systems land systems south africa'
p333
g2
(g6
S'\x83\x96X\xac\x8fG\xdd?'
p334
tp335
Rp336
tp337
a(S'defence science and technology agency'
p338
g2
(g6
S'um5~\xb6\x08\xdd?'
p339
tp340
Rp341
tp342
a(S'russell l. ackoff'
p343
g2
(g6
S'\xf8\xce\xd6xY\x05\xdd?'
p344
tp345
Rp346
tp347
a(S'software system'
p348
g2
(g6
S'Q\x85\x00Q\x05\x00\xdd?'
p349
tp350
Rp351
tp352
a(S'list of systems engineering universities'
p353
g2
(g6
S'sU\xd3\xb5\x14\xf5\xdc?'
p354
tp355
Rp356
tp357
a(S'systems design'
p358
g2
(g6
S'\xbff\x1dZ\x7f\xab\xdc?'
p359
tp360
Rp361
tp362
a(S'critical system'
p363
g2
(g6
S';\xadRP9\x93\xdc?'
p364
tp365
Rp366
tp367
a(S'globestar systems'
p368
g2
(g6
S'v\xe7\xba\x0etm\xdc?'
p369
tp370
Rp371
tp372
a(S'hartmut bossel'
p373
g2
(g6
S'\x96\xf2M\xe8\x82l\xdc?'
p374
tp375
Rp376
tp377
a(S'list of systems of plant taxonomy'
p378
g2
(g6
S'fo\n\x81\x15I\xdc?'
p379
tp380
Rp381
tp382
a(S'air force data systems design center'
p383
g2
(g6
S'\xde1tS2H\xdc?'
p384
tp385
Rp386
tp387
a(S'mike jackson (systems scientist)'
p388
g2
(g6
S'\x0f\x8b\x80\xde\xc2B\xdc?'
p389
tp390
Rp391
tp392
a(S'selex sistemi integrati'
p393
g2
(g6
S'w./\x9a\xb9B\xdc?'
p394
tp395
Rp396
tp397
a(S'systems modeling'
p398
g2
(g6
S'\xd3/U\xb7\xe7A\xdc?'
p399
tp400
Rp401
tp402
a(S'systems psychology'
p403
g2
(g6
S'\x0f%\xbe\xbd\xc5\xf4\xdb?'
p404
tp405
Rp406
tp407
a(S'arthur iberall'
p408
g2
(g6
S'$\xc3\xf5p\xfa\xdd\xdb?'
p409
tp410
Rp411
tp412
a(S'systems biology'
p413
g2
(g6
S'\xa4\x89\xcd\xd1P\xd3\xdb?'
p414
tp415
Rp416
tp417
a(S'ieee systems council'
p418
g2
(g6
S'|\xfac\xe6\xfc\xc6\xdb?'
p419
tp420
Rp421
tp422
a(S'systems medicine'
p423
g2
(g6
S'\xe1\xb8\x95[\x9f\xc6\xdb?'
p424
tp425
Rp426
tp427
a(S'international council on systems engineering'
p428
g2
(g6
S'x(G\xc4J\xaa\xdb?'
p429
tp430
Rp431
tp432
a(S'closed system'
p433
g2
(g6
S'\xa1\xb7\xd9P\xb9\xa9\xdb?'
p434
tp435
Rp436
tp437
a(S'dynamical systems theory'
p438
g2
(g6
S'=-\x84?~\xa4\xdb?'
p439
tp440
Rp441
tp442
a(S'complex adaptive system'
p443
g2
(g6
S'\xe6\xf1P\x14\xc2\x9a\xdb?'
p444
tp445
Rp446
tp447
a(S'information systems success model'
p448
g2
(g6
S'\x17\x0c\x06\xbf\xee\x98\xdb?'
p449
tp450
Rp451
tp452
a(S'legacy system'
p453
g2
(g6
S'\xca\x9b\xde\x9bE\x90\xdb?'
p454
tp455
Rp456
tp457
a(S'earth systems engineering and management'
p458
g2
(g6
S'\xe4\xdc\x9a\xc9~\x8b\xdb?'
p459
tp460
Rp461
tp462
a(S'elbit systems'
p463
g2
(g6
S'\x0b\x11\xef8E\x86\xdb?'
p464
tp465
Rp466
tp467
a(S'transformation processes (media systems)'
p468
g2
(g6
S'\xdf/Zo\xa2|\xdb?'
p469
tp470
Rp471
tp472
a(S'shadow system'
p473
g2
(g6
S'\xd0\x84r<\x96x\xdb?'
p474
tp475
Rp476
tp477
a(S'systems research and behavioral science'
p478
g2
(g6
S'\x8a\xcf\xc6>\x8eR\xdb?'
p479
tp480
Rp481
tp482
a(S'utc aerospace systems'
p483
g2
(g6
S'\x1f)\xf6\xc3\x81C\xdb?'
p484
tp485
Rp486
tp487
a(S'open and closed systems in social science'
p488
g2
(g6
S'\xfb\xe8\xabF\xba4\xdb?'
p489
tp490
Rp491
tp492
a(S'3d systems'
p493
g2
(g6
S'\x9c[l\xb881\xdb?'
p494
tp495
Rp496
tp497
a(S'northrop grumman electronic systems'
p498
g2
(g6
S'2\xd9\xda\xdd\x9f \xdb?'
p499
tp500
Rp501
tp502
a(S'all systems go'
p503
g2
(g6
S'Y"\xbd\xf2\x91\x18\xdb?'
p504
tp505
Rp506
tp507
a(S'653d electronic systems wing'
p508
g2
(g6
S'LX\x8a\xc6f\n\xdb?'
p509
tp510
Rp511
tp512
a(S'user (system)'
p513
g2
(g6
S'\x06\xef`\xfd\x00\n\xdb?'
p514
tp515
Rp516
tp517
a(S'sociotechnical system'
p518
g2
(g6
S'\xea\xc5\xa2\x01\x7f\x07\xdb?'
p519
tp520
Rp521
tp522
a(S'systems theory in archaeology'
p523
g2
(g6
S'\rk\xea\xd4Y\x05\xdb?'
p524
tp525
Rp526
tp527
a(S'systems theory in anthropology'
p528
g2
(g6
S'$]\xf0\\\xf2\x03\xdb?'
p529
tp530
Rp531
tp532
a(S'laws of information systems'
p533
g2
(g6
S'QK*e\xc5\xfe\xda?'
p534
tp535
Rp536
tp537
a(S'bell system practices'
p538
g2
(g6
S'!\xe53\x10\x1b\xf6\xda?'
p539
tp540
Rp541
tp542
a(S'system on tptp'
p543
g2
(g6
S'wz\xf49\xfb\xf4\xda?'
p544
tp545
Rp546
tp547
a(S'systems ecology'
p548
g2
(g6
S"'!\\\xdaq\xe5\xda?"
p549
tp550
Rp551
tp552
a(S't-systems'
p553
g2
(g6
S'\xac\xd6m0!\xdf\xda?'
p554
tp555
Rp556
tp557
a(S'model-based systems engineering'
p558
g2
(g6
S'\xd2\xf7\xc5\xf8P\xde\xda?'
p559
tp560
Rp561
tp562
a(S'kenneth d. bailey (sociologist)'
p563
g2
(g6
S'\xb4\xab\xffp-\xcb\xda?'
p564
tp565
Rp566
tp567
a(S'b\xc3\xb6rje langefors'
p568
g2
(g6
S'Ye\xec\xf5 \xb9\xda?'
p569
tp570
Rp571
tp572
a(S'business operating system (management)'
p573
g2
(g6
S'^\x94`\xc3l\x99\xda?'
p574
tp575
Rp576
tp577
a(S'biological system'
p578
g2
(g6
S'K&\xcd\xe8\x0f\x96\xda?'
p579
tp580
Rp581
tp582
a(S'international society for the systems sciences'
p583
g2
(g6
S'\xee\xf2\x0c\xf1$\x89\xda?'
p584
tp585
Rp586
tp587
a(S'jifa gu'
p588
g2
(g6
S'!M\xee\xab\x0by\xda?'
p589
tp590
Rp591
tp592
a(S'operating system'
p593
g2
(g6
S'\xcbz<iyT\xda?'
p594
tp595
Rp596
tp597
a(S'large-scale complex it systems'
p598
g2
(g6
S'y\x1c\x1e\xb0\x82Q\xda?'
p599
tp600
Rp601
tp602
a(S'systems architecture'
p603
g2
(g6
S'\x8a\x12\x1e\xbb\xa8H\xda?'
p604
tp605
Rp606
tp607
a(S'systems of engagement'
p608
g2
(g6
S'k.\xe8\xa2\xb4E\xda?'
p609
tp610
Rp611
tp612
a(S'tricotyledon theory of system design'
p613
g2
(g6
S'O\xc7G\x957E\xda?'
p614
tp615
Rp616
tp617
a(S'agil paradigm'
p618
g2
(g6
S';j\xf3\x9dU>\xda?'
p619
tp620
Rp621
tp622
a(S'viable system model'
p623
g2
(g6
S'\xf6\x9b\xe6\xc8V-\xda?'
p624
tp625
Rp626
tp627
a(S'arthur david hall iii'
p628
g2
(g6
S'\xdc\xa1}}\x08\x17\xda?'
p629
tp630
Rp631
tp632
a(S'list of information systems journals'
p633
g2
(g6
S'\xa5He\x8bh\x16\xda?'
p634
tp635
Rp636
tp637
a(S'information systems technician'
p638
g2
(g6
S'\xf0\xfaJS\xdb\x15\xda?'
p639
tp640
Rp641
tp642
a(S'david ing'
p643
g2
(g6
S'\xb2f?I\x05\x13\xda?'
p644
tp645
Rp646
tp647
a(S'normalized systems'
p648
g2
(g6
S'\x17r3\x81\xe9\r\xda?'
p649
tp650
Rp651
tp652
a(S'expert system'
p653
g2
(g6
S' \xa8R\xab<\xf9\xd9?'
p654
tp655
Rp656
tp657
a(S'history of operating systems'
p658
g2
(g6
S'\x1e\x81\xfe\xcc\x17\xf9\xd9?'
p659
tp660
Rp661
tp662
a(S'international journal of general systems'
p663
g2
(g6
S'\x9d\xb6\xc2$\x9b\xe5\xd9?'
p664
tp665
Rp666
tp667
a(S'proofpoint systems, inc'
p668
g2
(g6
S'\xa0\x88\x15\x94\x80\xcd\xd9?'
p669
tp670
Rp671
tp672
a(S'a. wayne wymore'
p673
g2
(g6
S'\xac-\xb7\x08\x14\xc2\xd9?'
p674
tp675
Rp676
tp677
a(S'c. g\xc3\xb6ran andersson'
p678
g2
(g6
S'\x83\xbd\xb7J"\xb8\xd9?'
p679
tp680
Rp681
tp682
a(S'systems architect'
p683
g2
(g6
S'\x03\xbf6m\n\xb0\xd9?'
p684
tp685
Rp686
tp687
a(S'list of data types of the standard libraries'
p688
g2
(g6
S'x\x8dTe\x97\xaf\xd9?'
p689
tp690
Rp691
tp692
a(S'differentiation (sociology)'
p693
g2
(g6
S'a\xe6\x17\x87\x16\xab\xd9?'
p694
tp695
Rp696
tp697
a(S'autopoiesis'
p698
g2
(g6
S'4\x80\x99\xb8O\x91\xd9?'
p699
tp700
Rp701
tp702
a(S'systems integrator'
p703
g2
(g6
S'\r\xc6s\xe9S\x8a\xd9?'
p704
tp705
Rp706
tp707
a(S'meidensha'
p708
g2
(g6
S'LYJ\xd7\x01\x85\xd9?'
p709
tp710
Rp711
tp712
a(S'embedded system'
p713
g2
(g6
S'\xe0\xe8\xe2;e\x82\xd9?'
p714
tp715
Rp716
tp717
a(S'systemics'
p718
g2
(g6
S'\x8b@8GGp\xd9?'
p719
tp720
Rp721
tp722
a(S'control system (disambiguation)'
p723
g2
(g6
S'\xed?^\x9eeX\xd9?'
p724
tp725
Rp726
tp727
a(S'kristo ivanov'
p728
g2
(g6
S'\xaf\xf7\x8d\xa0\x85Q\xd9?'
p729
tp730
Rp731
tp732
a(S'clinical systems and networks'
p733
g2
(g6
S'\xf8\x8ck\xc1.B\xd9?'
p734
tp735
Rp736
tp737
a(S'knowledge-based systems'
p738
g2
(g6
S'\xfanS\xf7\x991\xd9?'
p739
tp740
Rp741
tp742
a(S'architecture of interoperable information systems'
p743
g2
(g6
S'\xbd\x7f+\x97\xbf*\xd9?'
p744
tp745
Rp746
tp747
a(S'debora hammond'
p748
g2
(g6
S'\x0e\xf5e\x9f9\x17\xd9?'
p749
tp750
Rp751
tp752
a(S'ms4 modeling environment'
p753
g2
(g6
S'}\xc0\xe5\xe0\x0e\x10\xd9?'
p754
tp755
Rp756
tp757
a(S'newsql'
p758
g2
(g6
S'IBw\xa86\x0e\xd9?'
p759
tp760
Rp761
tp762
a(S'systems-oriented design'
p763
g2
(g6
S's\xea\x9d\xb7S\x03\xd9?'
p764
tp765
Rp766
tp767
a(S'program executive officer'
p768
g2
(g6
S'Y\x05\x0e\x88\x84\xfb\xd8?'
p769
tp770
Rp771
tp772
a(S'electronic systems'
p773
g2
(g6
S'<t\xacI\x0b\xfa\xd8?'
p774
tp775
Rp776
tp777
a(S'milton rubin'
p778
g2
(g6
S'\xb7\xd4\x1c\xbd8\xf0\xd8?'
p779
tp780
Rp781
tp782
a(S'laws of technical systems evolution'
p783
g2
(g6
S'ZU\xd8\xf2\xf7\xe7\xd8?'
p784
tp785
Rp786
tp787
a(S'time-triggered architecture'
p788
g2
(g6
S'\xcf_\x03\xe4\xb8\xdc\xd8?'
p789
tp790
Rp791
tp792
a(S'gtri electronic systems laboratory'
p793
g2
(g6
S'$\xd9e&O\xd5\xd8?'
p794
tp795
Rp796
tp797
a(S'system administrator'
p798
g2
(g6
S'\xc3\x01`\x97\xd8\xcb\xd8?'
p799
tp800
Rp801
tp802
a(S'stuart arnold'
p803
g2
(g6
S'RnT(/\xbd\xd8?'
p804
tp805
Rp806
tp807
a(S'akita prefectural university'
p808
g2
(g6
S'\x06\xbb\x07\xe9\xac\xb6\xd8?'
p809
tp810
Rp811
tp812
a(S'systems universalisation specialist'
p813
g2
(g6
S'\x14J\xe8\x8ce\xa7\xd8?'
p814
tp815
Rp816
tp817
a(S'list of bidding systems'
p818
g2
(g6
S'\xb9zmB\x9a\xa5\xd8?'
p819
tp820
Rp821
tp822
a(S'systems geology'
p823
g2
(g6
S'\xb4.S\x15\xe5{\xd8?'
p824
tp825
Rp826
tp827
a(S'power systems cad'
p828
g2
(g6
S'&\xf5e\xefey\xd8?'
p829
tp830
Rp831
tp832
a(S'george m marakas'
p833
g2
(g6
S'\xb8\xd9\xb4\xe0\x16x\xd8?'
p834
tp835
Rp836
tp837
a(S'systems analysis'
p838
g2
(g6
S'Alu?\xfdl\xd8?'
p839
tp840
Rp841
tp842
a(S'diederich hinrichsen'
p843
g2
(g6
S'\xacn,p\x03M\xd8?'
p844
tp845
Rp846
tp847
a(S'management information system'
p848
g2
(g6
S'\xd1\xaa\xd8\xbbS?\xd8?'
p849
tp850
Rp851
tp852
a(S'marine corps tactical systems support activity'
p853
g2
(g6
S'\rW\x91\n1=\xd8?'
p854
tp855
Rp856
tp857
a(S'sociocybernetics'
p858
g2
(g6
S'\x9fRt\x83\x1d0\xd8?'
p859
tp860
Rp861
tp862
a(S'transvaro'
p863
g2
(g6
S'\xd5:g1\x95\x15\xd8?'
p864
tp865
Rp866
tp867
a(S'systems simulation'
p868
g2
(g6
S'G\xe8\x17\x91)\x15\xd8?'
p869
tp870
Rp871
tp872
a(S'systems analysis and design'
p873
g2
(g6
S'|\xcd^\x9c&\r\xd8?'
p874
tp875
Rp876
tp877
a(S'warfare system'
p878
g2
(g6
S'\x1bH@|\x01\x0c\xd8?'
p879
tp880
Rp881
tp882
a(S'control engineering'
p883
g2
(g6
S'\xbdIXZN\x0b\xd8?'
p884
tp885
Rp886
tp887
a(S'process lifecycle'
p888
g2
(g6
S'w\x92n\xa0\x8f\x08\xd8?'
p889
tp890
Rp891
tp892
a(S'vpec-t'
p893
g2
(g6
S'L\xb5\xd8p\x90\xfd\xd7?'
p894
tp895
Rp896
tp897
a(S'organizational architecture'
p898
g2
(g6
S'\xd0\xe7\xcd\xf8\xae\xe5\xd7?'
p899
tp900
Rp901
tp902
a(S'systems-centered therapy'
p903
g2
(g6
S'\x15\xcf\x10\x1d\xbb\xda\xd7?'
p904
tp905
Rp906
tp907
a(S'socio-ecological system'
p908
g2
(g6
S'\xd8\x8f\xc1\x8b\x01\xd7\xd7?'
p909
tp910
Rp911
tp912
a(S'data system'
p913
g2
(g6
S'\xc1\x9c\xd6\xe2\xa7\xc2\xd7?'
p914
tp915
Rp916
tp917
a(S'v-model'
p918
g2
(g6
S'\x83\xfb4\xa2\xa2\xc2\xd7?'
p919
tp920
Rp921
tp922
a(S'conwip'
p923
g2
(g6
S'S\x81:x\xbc\xb8\xd7?'
p924
tp925
Rp926
tp927
a(S'wassim michael haddad'
p928
g2
(g6
S'\xde\xa5\xe6\xf7[\xa4\xd7?'
p929
tp930
Rp931
tp932
a(S'robert e. machol'
p933
g2
(g6
S'\xdc\xd2\xdf\xe6@\x97\xd7?'
p934
tp935
Rp936
tp937
a(S'united states navy systems commands'
p938
g2
(g6
S'\x06f\x08u\xf7\x91\xd7?'
p939
tp940
Rp941
tp942
a(S'observability'
p943
g2
(g6
S'\xa6;Y\xc8c\x8d\xd7?'
p944
tp945
Rp946
tp947
a(S'control theory'
p948
g2
(g6
S'\x7f\xc3[]\xf4z\xd7?'
p949
tp950
Rp951
tp952
a(S'space and missile systems center'
p953
g2
(g6
S'\xdc\xde\xee\xc0\xf3v\xd7?'
p954
tp955
Rp956
tp957
a(S'bae systems land & armaments'
p958
g2
(g6
S'\xb6L\x8b\xfcnu\xd7?'
p959
tp960
Rp961
tp962
a(S'bae systems integrated system technologies'
p963
g2
(g6
S'P\x08q\xca6q\xd7?'
p964
tp965
Rp966
tp967
a(S'intelligent decision support system'
p968
g2
(g6
S'\xbas\x94&Cn\xd7?'
p969
tp970
Rp971
tp972
a(S'ibm system/38'
p973
g2
(g6
S'\x0eS\x1f\x18\xffm\xd7?'
p974
tp975
Rp976
tp977
a(S'conceptual system'
p978
g2
(g6
S'OV\x1b\xdfMi\xd7?'
p979
tp980
Rp981
tp982
a(S'linear system'
p983
g2
(g6
S'2\xc8xh\tf\xd7?'
p984
tp985
Rp986
tp987
a(S'automated guideway transit'
p988
g2
(g6
S'\xd0c[\x96\xa2d\xd7?'
p989
tp990
Rp991
tp992
a(S'multics'
p993
g2
(g6
S'\xb5\xc0\x1f\x95\xd4W\xd7?'
p994
tp995
Rp996
tp997
a(S'system two'
p998
g2
(g6
S'\x97$A\xf1\x0fT\xd7?'
p999
tp1000
Rp1001
tp1002
a(S'selfsourcing'
p1003
g2
(g6
S'\xc2\xe0\xc8\x96@Q\xd7?'
p1004
tp1005
Rp1006
tp1007
a(S'igor hawryszkiewycz'
p1008
g2
(g6
S'y\x8e\x1a\xaa\xf8P\xd7?'
p1009
tp1010
Rp1011
tp1012
a(S'elisra'
p1013
g2
(g6
S'\x8d\xf9\x18=\xc8D\xd7?'
p1014
tp1015
Rp1016
tp1017
a(S'feral information systems'
p1018
g2
(g6
S'n\xa7\xfc\x18\x81;\xd7?'
p1019
tp1020
Rp1021
tp1022
a(S'equifinality'
p1023
g2
(g6
S'\xda,\x11\xe5>)\xd7?'
p1024
tp1025
Rp1026
tp1027
a(S'bae systems electronics, intelligence & support'
p1028
g2
(g6
S'\xf3\xf8\x92\xf0\x1f)\xd7?'
p1029
tp1030
Rp1031
tp1032
a(S'information systems research'
p1033
g2
(g6
S"9\xc8g\xe1\xeb'\xd7?"
p1034
tp1035
Rp1036
tp1037
a(S'energy systems language'
p1038
g2
(g6
S',%\xa2\xb4n\x1c\xd7?'
p1039
tp1040
Rp1041
tp1042
a(S'valeo'
p1043
g2
(g6
S'\xe1EB\xf0K\x1b\xd7?'
p1044
tp1045
Rp1046
tp1047
a(S'cosysmo'
p1048
g2
(g6
S'L\xe2r\xd8]\x17\xd7?'
p1049
tp1050
Rp1051
tp1052
a(S'discrete system'
p1053
g2
(g6
S'\x7f\xe5\xe6\xcdK\x0e\xd7?'
p1054
tp1055
Rp1056
tp1057
a(S'behavioral systems analysis'
p1058
g2
(g6
S'\x85yvCk\x05\xd7?'
p1059
tp1060
Rp1061
tp1062
a(S'viastore systems'
p1063
g2
(g6
S'\x8c\x00\x04o\xf5\xee\xd6?'
p1064
tp1065
Rp1066
tp1067
a(S'cs communication & syst\xc3\xa8mes'
p1068
g2
(g6
S'\xac\xae6\xd3\x9d\xed\xd6?'
p1069
tp1070
Rp1071
tp1072
a(S'forest informatics'
p1073
g2
(g6
S'\x16\x03\xef\xdd\xcc\xe9\xd6?'
p1074
tp1075
Rp1076
tp1077
a(S'thomas baumgartner'
p1078
g2
(g6
S'c\x8f\xad\x84\xe2\xe8\xd6?'
p1079
tp1080
Rp1081
tp1082
a(S'system safety'
p1083
g2
(g6
S'\x8b\x1b\x00x\xf5\xe3\xd6?'
p1084
tp1085
Rp1086
tp1087
a(S'world-systems theory'
p1088
g2
(g6
S'*R\xf0U\x05\xd6\xd6?'
p1089
tp1090
Rp1091
tp1092
a(S'marine corps systems command'
p1093
g2
(g6
S'|\xf9x4\x01\xd0\xd6?'
p1094
tp1095
Rp1096
tp1097
a(S'embedded operating system'
p1098
g2
(g6
S't+`\xb8\xed\xc8\xd6?'
p1099
tp1100
Rp1101
tp1102
a(S'system identification'
p1103
g2
(g6
S'\xfc\x96@\xa30\xc6\xd6?'
p1104
tp1105
Rp1106
tp1107
a(S'yvonne agazarian'
p1108
g2
(g6
S'\xb3\xaa\x0cc\\\xbb\xd6?'
p1109
tp1110
Rp1111
tp1112
a(S'institute for management information systems'
p1113
g2
(g6
S'\x04p\xdag\xa2\xb6\xd6?'
p1114
tp1115
Rp1116
tp1117
a(S'krauss-maffei transurban'
p1118
g2
(g6
S'\xd1\xc1~\xba]\xb2\xd6?'
p1119
tp1120
Rp1121
tp1122
a(S'john gall (author)'
p1123
g2
(g6
S'(<\xe1\xf1Z\xb1\xd6?'
p1124
tp1125
Rp1126
tp1127
a(S'cognitive model'
p1128
g2
(g6
S'{\xfe\xd0\x85r\xac\xd6?'
p1129
tp1130
Rp1131
tp1132
a(S'spoken dialog systems'
p1133
g2
(g6
S'\x10\xf2@_\xe9\xa2\xd6?'
p1134
tp1135
Rp1136
tp1137
a(S'small-gain theorem'
p1138
g2
(g6
S'\xe3ouda\xa2\xd6?'
p1139
tp1140
Rp1141
tp1142
a(S'public address system'
p1143
g2
(g6
S'\xdd\xaa\xaf\x1a\x00\x9e\xd6?'
p1144
tp1145
Rp1146
tp1147
a(S'distributed operating system'
p1148
g2
(g6
S'o\x0c\xc5\xc0x\x9b\xd6?'
p1149
tp1150
Rp1151
tp1152
a(S'artificial intelligence systems integration'
p1153
g2
(g6
S'\xd7\xf0\xc3o\xe8\x85\xd6?'
p1154
tp1155
Rp1156
tp1157
a(S'homeokinetics'
p1158
g2
(g6
S'\x8c\x195AD\x83\xd6?'
p1159
tp1160
Rp1161
tp1162
a(S'department of defense architecture framework'
p1163
g2
(g6
S'\xd0\\\xce+{x\xd6?'
p1164
tp1165
Rp1166
tp1167
a(S'operational continuity'
p1168
g2
(g6
S'\xd1\xa1\x89|\xb3u\xd6?'
p1169
tp1170
Rp1171
tp1172
a(S'messagenet systems'
p1173
g2
(g6
S'\xee\xc39\xd6\xf1r\xd6?'
p1174
tp1175
Rp1176
tp1177
a(S'cultural system'
p1178
g2
(g6
S'N\xa6\x90^+n\xd6?'
p1179
tp1180
Rp1181
tp1182
a(S'system programming'
p1183
g2
(g6
S'\x98@}\xce<`\xd6?'
p1184
tp1185
Rp1186
tp1187
a(S'john n. warfield'
p1188
g2
(g6
S'\xda\xa7\xb7\n\x92[\xd6?'
p1189
tp1190
Rp1191
tp1192
a(S'enterprise control'
p1193
g2
(g6
S'H\xbc\x18\xa7VZ\xd6?'
p1194
tp1195
Rp1196
tp1197
a(S'trusted system'
p1198
g2
(g6
S'\xd9\xf0\x16\x0f\xbdX\xd6?'
p1199
tp1200
Rp1201
tp1202
a(S'list of people in systems and control'
p1203
g2
(g6
S'x@j\xc9\x87Q\xd6?'
p1204
tp1205
Rp1206
tp1207
a(S'end system'
p1208
g2
(g6
S'\x9b#d\xfd\xcbL\xd6?'
p1209
tp1210
Rp1211
tp1212
a(S'microreboot'
p1213
g2
(g6
S';\xa2\xa1\x17\xb0A\xd6?'
p1214
tp1215
Rp1216
tp1217
a(S'time-invariant system'
p1218
g2
(g6
S'$Z\xb2T\x91@\xd6?'
p1219
tp1220
Rp1221
tp1222
a(S'enterprise system'
p1223
g2
(g6
S'l7,\x84j1\xd6?'
p1224
tp1225
Rp1226
tp1227
a(S'international systems and storage conference'
p1228
g2
(g6
S',\xdez\x9e\x9e/\xd6?'
p1229
tp1230
Rp1231
tp1232
a(S'frank land'
p1233
g2
(g6
S'\xfbS\xb4u|.\xd6?'
p1234
tp1235
Rp1236
tp1237
a(S'global information system'
p1238
g2
(g6
S'\xc8\xf1&9n(\xd6?'
p1239
tp1240
Rp1241
tp1242
a(S'view model'
p1243
g2
(g6
S'\xc7\xfb:\x83\xb5"\xd6?'
p1244
tp1245
Rp1246
tp1247
a(S'lynn g. gref'
p1248
g2
(g6
S'I\xa5\xc3\x82+!\xd6?'
p1249
tp1250
Rp1251
tp1252
a(S'reasoning system'
p1253
g2
(g6
S'\x01\xf3Jnl\x1e\xd6?'
p1254
tp1255
Rp1256
tp1257
a(S'incomplete nature'
p1258
g2
(g6
S'\x82\xeb\x9c\xd1\xe3\x1b\xd6?'
p1259
tp1260
Rp1261
tp1262
a(S'association for information systems'
p1263
g2
(g6
S'\xa1\xce\xa3\xcf\xe9\x19\xd6?'
p1264
tp1265
Rp1266
tp1267
a(S'economic system'
p1268
g2
(g6
S'X\xe7\xf4\x18\xad\x14\xd6?'
p1269
tp1270
Rp1271
tp1272
a(S'real-time gross settlement'
p1273
g2
(g6
S'M\xc1\x1f-\x10\x12\xd6?'
p1274
tp1275
Rp1276
tp1277
a(S'system one'
p1278
g2
(g6
S"Y'\xdc\x05\r\x06\xd6?"
p1279
tp1280
Rp1281
tp1282
a(S'behavioral modeling'
p1283
g2
(g6
S'\xf9q\x8b_c\x04\xd6?'
p1284
tp1285
Rp1286
tp1287
a(S'general dynamics mission systems'
p1288
g2
(g6
S'\x8d\xa9\x1d\xc51\x00\xd6?'
p1289
tp1290
Rp1291
tp1292
a(S'creek systems'
p1293
g2
(g6
S'\x1d\xae\x9ei\x8b\xfd\xd5?'
p1294
tp1295
Rp1296
tp1297
a(S'reachability problem'
p1298
g2
(g6
S'\x86\x14&\xf0S\xfa\xd5?'
p1299
tp1300
Rp1301
tp1302
a(S'opennebula systems'
p1303
g2
(g6
S'-\x12,_\xa1\xf8\xd5?'
p1304
tp1305
Rp1306
tp1307
a(S'gary metcalf'
p1308
g2
(g6
S'\xae\x9fPqf\xf7\xd5?'
p1309
tp1310
Rp1311
tp1312
a(S'george klir'
p1313
g2
(g6
S'x\x9c:\xc5y\xf6\xd5?'
p1314
tp1315
Rp1316
tp1317
a(S'independent verification systems'
p1318
g2
(g6
S'\xf0WYd8\xf5\xd5?'
p1319
tp1320
Rp1321
tp1322
a(S'system model'
p1323
g2
(g6
S'\xa1NS\x0c\xe9\xf4\xd5?'
p1324
tp1325
Rp1326
tp1327
a(S'ji-feng zhang'
p1328
g2
(g6
S'\xa3\xd0\xbf\xe5\x19\xf1\xd5?'
p1329
tp1330
Rp1331
tp1332
a(S'agent systems reference model'
p1333
g2
(g6
S'\xbf\xb0na\xe1\xe8\xd5?'
p1334
tp1335
Rp1336
tp1337
a(S'selex es'
p1338
g2
(g6
S'f\xf1\xa2\xa9=\xe8\xd5?'
p1339
tp1340
Rp1341
tp1342
a(S'uk academy for information systems'
p1343
g2
(g6
S'\tAX\xb7r\xe6\xd5?'
p1344
tp1345
Rp1346
tp1347
a(S'adaptive system'
p1348
g2
(g6
S'\xab\xc5\x14\xdfa\xe6\xd5?'
p1349
tp1350
Rp1351
tp1352
a(S'systems planning and analysis'
p1353
g2
(g6
S'\x9e\x88\x18\x91\x14\xe4\xd5?'
p1354
tp1355
Rp1356
tp1357
a(S'file system'
p1358
g2
(g6
S'\xcf\xb2\xc09!\xe3\xd5?'
p1359
tp1360
Rp1361
tp1362
a(S'autonetics'
p1363
g2
(g6
S'\xa9\x84\xbb&1\xe2\xd5?'
p1364
tp1365
Rp1366
tp1367
a(S'cado systems'
p1368
g2
(g6
S"'.\x00Q\x94\xe1\xd5?"
p1369
tp1370
Rp1371
tp1372
a(S'kjell samuelson'
p1373
g2
(g6
S'\x95\x98\x8d9\xfa\xdd\xd5?'
p1374
tp1375
Rp1376
tp1377
a(S'yaneer bar-yam'
p1378
g2
(g6
S'\xc8t\x027\x89\xd2\xd5?'
p1379
tp1380
Rp1381
tp1382
a(S'haldex (company)'
p1383
g2
(g6
S'x"b5\xa2\xd0\xd5?'
p1384
tp1385
Rp1386
tp1387
a(S'system commander'
p1388
g2
(g6
S'\x82\xb4-\xc6S\xcc\xd5?'
p1389
tp1390
Rp1391
tp1392
a(S'luc hoebeke'
p1393
g2
(g6
S"'\\G}]\xcb\xd5?"
p1394
tp1395
Rp1396
tp1397
a(S'business & information systems engineering'
p1398
g2
(g6
S'\x1dOT\x01\xb7\xc2\xd5?'
p1399
tp1400
Rp1401
tp1402
a(S'john milsum'
p1403
g2
(g6
S'\x18\x97\xa4\xc6\xbe\xc0\xd5?'
p1404
tp1405
Rp1406
tp1407
a(S'bidding system'
p1408
g2
(g6
S'\xbe?<\xcf\xb3\xbe\xd5?'
p1409
tp1410
Rp1411
tp1412
a(S'knowledge engineering'
p1413
g2
(g6
S'E\x1eSyT\xbe\xd5?'
p1414
tp1415
Rp1416
tp1417
a(S'cyber-physical system'
p1418
g2
(g6
S'\x12\xcc\xac)\xed\xbd\xd5?'
p1419
tp1420
Rp1421
tp1422
a(S'iec 62682'
p1423
g2
(g6
S'\x83?\x01\x9a\x14\xb6\xd5?'
p1424
tp1425
Rp1426
tp1427
a(S'specialized mobile radio'
p1428
g2
(g6
S'\xb3z\x18\xf5\xaf\xb5\xd5?'
p1429
tp1430
Rp1431
tp1432
a(S'aircraft systems'
p1433
g2
(g6
S"\xdc\x1a\xbd\x95'\xb4\xd5?"
p1434
tp1435
Rp1436
tp1437
a(S'eros (microkernel)'
p1438
g2
(g6
S'\xc2\xfd\\\xb14\xb3\xd5?'
p1439
tp1440
Rp1441
tp1442
a(S'micromation'
p1443
g2
(g6
S'\x94\xeb\xbf\xcf&\xb3\xd5?'
p1444
tp1445
Rp1446
tp1447
a(S'earth system science'
p1448
g2
(g6
S'\xb2u\xf9\x1cl\xb1\xd5?'
p1449
tp1450
Rp1451
tp1452
a(S'wilford b. poe'
p1453
g2
(g6
S'\xbf{:\x92<\xad\xd5?'
p1454
tp1455
Rp1456
tp1457
a(S'digital systems'
p1458
g2
(g6
S'\x0ci\xd5\xa1s\xac\xd5?'
p1459
tp1460
Rp1461
tp1462
a(S'operational system'
p1463
g2
(g6
S'\x14\xed\xb99!\xac\xd5?'
p1464
tp1465
Rp1466
tp1467
a(S'accounting information system'
p1468
g2
(g6
S'q\xbc\xbcP{\xa6\xd5?'
p1469
tp1470
Rp1471
tp1472
a(S'swedish bar systems'
p1473
g2
(g6
S'\x0e P\x1b@\x93\xd5?'
p1474
tp1475
Rp1476
tp1477
a(S'strategic information system'
p1478
g2
(g6
S'\xda\xd4\xc4oe\x85\xd5?'
p1479
tp1480
Rp1481
tp1482
a(S'active daylighting'
p1483
g2
(g6
S'\xb2\xac-\xad,\x84\xd5?'
p1484
tp1485
Rp1486
tp1487
a(S'janis bubenko'
p1488
g2
(g6
S'k4\x7f\xab\xba\x81\xd5?'
p1489
tp1490
Rp1491
tp1492
a(S'global industrial defence solutions'
p1493
g2
(g6
S'\xd9p\x88\xddy\x80\xd5?'
p1494
tp1495
Rp1496
tp1497
a(S'mit center for information systems research'
p1498
g2
(g6
S'{E\xde\xa8\xae~\xd5?'
p1499
tp1500
Rp1501
tp1502
a(S'mascos'
p1503
g2
(g6
S'\xd1\xcboGg|\xd5?'
p1504
tp1505
Rp1506
tp1507
a(S'outline of science'
p1508
g2
(g6
S'B\x83\xe41\x8ds\xd5?'
p1509
tp1510
Rp1511
tp1512
a.