(lp0
(S'the animatrix'
p1
cnumpy.core.multiarray
scalar
p2
(cnumpy
dtype
p3
(S'f8'
p4
I0
I1
tp5
Rp6
(I3
S'<'
p7
NNNI-1
I-1
I0
tp8
bS'\xff\xff\xff\xff\xff\xff\xef?'
p9
tp10
Rp11
tp12
a(S'the matrix (franchise)'
p13
g2
(g6
S'\xe2\xe5\x9e6;\xc5\xe2?'
p14
tp15
Rp16
tp17
a(S'the matrix'
p18
g2
(g6
S'\tX>\xaf\xf34\xe2?'
p19
tp20
Rp21
tp22
a(S'trinity (the matrix)'
p23
g2
(g6
S'\xad\xc4@\xe3\x8d7\xe1?'
p24
tp25
Rp26
tp27
a(S'matrix'
p28
g2
(g6
S's\xe6,\xd58\x13\xe1?'
p29
tp30
Rp31
tp32
a(S'architect (the matrix)'
p33
g2
(g6
S'\xc2o5\xcb\x04\x08\xe1?'
p34
tp35
Rp36
tp37
a(S'list of matrices'
p38
g2
(g6
S"d'\xe5\xef\xf7\xda\xe0?"
p39
tp40
Rp41
tp42
a(S'mega city (the matrix)'
p43
g2
(g6
S'\x97<*\xa7^X\xdf?'
p44
tp45
Rp46
tp47
a(S'list of minor characters in the matrix series'
p48
g2
(g6
S'\xca\xb1\x8d_g.\xdf?'
p49
tp50
Rp51
tp52
a(S'the oracle (the matrix)'
p53
g2
(g6
S'\x08a\xff\xb3\x9f\xa6\xde?'
p54
tp55
Rp56
tp57
a(S'supnick matrix'
p58
g2
(g6
S'\xd1\xb1\xe7\xc9\xd8\xa4\xde?'
p59
tp60
Rp61
tp62
a(S'stieltjes matrix'
p63
g2
(g6
S'\xad\x0c\xd0\x02\xf3:\xde?'
p64
tp65
Rp66
tp67
a(S'conformable matrix'
p68
g2
(g6
S'L\xcb\xa70\x9c(\xde?'
p69
tp70
Rp71
tp72
a(S'duplication and elimination matrices'
p73
g2
(g6
S'\xd4@w\xe2\xcd\xc2\xdd?'
p74
tp75
Rp76
tp77
a(S'neo (the matrix)'
p78
g2
(g6
S'\xaf\xc6\xf9\x15\xed\xc1\xdd?'
p79
tp80
Rp81
tp82
a(S'matrix of ones'
p83
g2
(g6
S'\xf9\xc9\xad\xf0\x9b\xa2\xdd?'
p84
tp85
Rp86
tp87
a(S'lapack'
p88
g2
(g6
S'\t\xd2\x9a\x10\xd3\x98\xdd?'
p89
tp90
Rp91
tp92
a(S'involutory matrix'
p93
g2
(g6
S'\x14\xd8\xdb\xf5\xc6\x91\xdd?'
p94
tp95
Rp96
tp97
a(S'toeplitz matrix'
p98
g2
(g6
S'xJ\xad\x04=\xb0\xdc?'
p99
tp100
Rp101
tp102
a(S'zbus'
p103
g2
(g6
S'\x9bx\xc71Gm\xdc?'
p104
tp105
Rp106
tp107
a(S'logical matrix'
p108
g2
(g6
S'\x90}\x99\x8c\x91d\xdc?'
p109
tp110
Rp111
tp112
a(S'hollow matrix'
p113
g2
(g6
S'\x1e;\xa1\xdejb\xdc?'
p114
tp115
Rp116
tp117
a(S'hessenberg matrix'
p118
g2
(g6
S'R\xefPC%^\xdc?'
p119
tp120
Rp121
tp122
a(S'hankel matrix'
p123
g2
(g6
S'\xe1\x18\xc8\xc9\x1b]\xdc?'
p124
tp125
Rp126
tp127
a(S'irving joshua matrix'
p128
g2
(g6
S'\xe8\x89}\xdc\x14M\xdc?'
p129
tp130
Rp131
tp132
a(S'matrix analysis'
p133
g2
(g6
S'\x82b\xfek\xec6\xdc?'
p134
tp135
Rp136
tp137
a(S'idempotent matrix'
p138
g2
(g6
S'\xff>\xd7o\xbe5\xdc?'
p139
tp140
Rp141
tp142
a(S'weyr canonical form'
p143
g2
(g6
S'A\x8a\xa3M\xf52\xdc?'
p144
tp145
Rp146
tp147
a(S'square matrix'
p148
g2
(g6
S'\xf6e\x1a\x1b\xa6\x19\xdc?'
p149
tp150
Rp151
tp152
a(S'lehmer matrix'
p153
g2
(g6
S'\xd1%\x07\xa0x\xe7\xdb?'
p154
tp155
Rp156
tp157
a(S'the matrix revolutions'
p158
g2
(g6
S'Y\x93\xe8\xa0[\xdc\xdb?'
p159
tp160
Rp161
tp162
a(S'regular matrix'
p163
g2
(g6
S"\xe9\xd1\xf7\xbc'\xd6\xdb?"
p164
tp165
Rp166
tp167
a(S'matrix unit'
p168
g2
(g6
S'\xb8\x05\x98\xedJ\xb3\xdb?'
p169
tp170
Rp171
tp172
a(S'data matrix (multivariate statistics)'
p173
g2
(g6
S'Q\xf3\xfd$\xd5\xb2\xdb?'
p174
tp175
Rp176
tp177
a(S'identity matrix'
p178
g2
(g6
S'0\x92\xcc\xd6\xae\xa4\xdb?'
p179
tp180
Rp181
tp182
a(S'matrix model'
p183
g2
(g6
S'\xf5&\x94\xd3\xf3\x93\xdb?'
p184
tp185
Rp186
tp187
a(S'matrix management'
p188
g2
(g6
S'\xee\xb9\xdd\x8c\xffd\xdb?'
p189
tp190
Rp191
tp192
a(S'matrix function'
p193
g2
(g6
S'.u\xe8\xf8oJ\xdb?'
p194
tp195
Rp196
tp197
a(S'matrix (doctor who)'
p198
g2
(g6
S'\xcc\xe4\xac_\xdb9\xdb?'
p199
tp200
Rp201
tp202
a(S'commutation matrix'
p203
g2
(g6
S'n\xa5\xad\xc8\xb02\xdb?'
p204
tp205
Rp206
tp207
a(S'google matrix'
p208
g2
(g6
S'5H\x13\xc3x,\xdb?'
p209
tp210
Rp211
tp212
a(S'single-entry matrix'
p213
g2
(g6
S'\x00\xf5k\xbd<\x1a\xdb?'
p214
tp215
Rp216
tp217
a(S'matrix business technologies'
p218
g2
(g6
S'\xd4b\xb8\xbb\xfa\x18\xdb?'
p219
tp220
Rp221
tp222
a(S'tridiagonal matrix'
p223
g2
(g6
S'\x03L\x87\xa6\xb0\x17\xdb?'
p224
tp225
Rp226
tp227
a(S'the matrix reloaded'
p228
g2
(g6
S'\xff\xebW\xf7\x1f\x0e\xdb?'
p229
tp230
Rp231
tp232
a(S'exchange matrix'
p233
g2
(g6
S'\x9a\x1d\xd9\xba\xd9\t\xdb?'
p234
tp235
Rp236
tp237
a(S'matrix (numismatics)'
p238
g2
(g6
S'\xeeq\xe15B\xee\xda?'
p239
tp240
Rp241
tp242
a(S'block matrix'
p243
g2
(g6
S'@(\x9f\xd7\xf4\xde\xda?'
p244
tp245
Rp246
tp247
a(S'matrix partners'
p248
g2
(g6
S'\x98\xce\x82#\x92\xbf\xda?'
p249
tp250
Rp251
tp252
a(S'shift matrix'
p253
g2
(g6
S'\xa3\xeb# \xfbv\xda?'
p254
tp255
Rp256
tp257
a(S'state-transition matrix'
p258
g2
(g6
S'\xf3\xa3\xa41\x05g\xda?'
p259
tp260
Rp261
tp262
a(S'the matrix online'
p263
g2
(g6
S'\x0b\xa6>\x9d\xac`\xda?'
p264
tp265
Rp266
tp267
a(S'agent smith'
p268
g2
(g6
S'\t\xb7\xde\xf4\xe0[\xda?'
p269
tp270
Rp271
tp272
a(S'the wachowskis'
p273
g2
(g6
S'\x80\xc7\xach\xdbJ\xda?'
p274
tp275
Rp276
tp277
a(S'persymmetric matrix'
p278
g2
(g6
S"N\xe9'\xbd\xd8I\xda?"
p279
tp280
Rp281
tp282
a(S'crout matrix decomposition'
p283
g2
(g6
S'\xb0\xb8\x98\xae\x18I\xda?'
p284
tp285
Rp286
tp287
a(S'oberheim matrix synthesizers'
p288
g2
(g6
S'\x02Y\x96J\xeaB\xda?'
p289
tp290
Rp291
tp292
a(S'zero matrix'
p293
g2
(g6
S'\xd8I u\x18?\xda?'
p294
tp295
Rp296
tp297
a(S'augmented matrix'
p298
g2
(g6
S'\x10\xe45\x01\x9e"\xda?'
p299
tp300
Rp301
tp302
a(S'agent (the matrix)'
p303
g2
(g6
S'\x96~k\x95\xa6\x0f\xda?'
p304
tp305
Rp306
tp307
a(S'matrix digital rain'
p308
g2
(g6
S'pq\x83C\xf3\x0b\xda?'
p309
tp310
Rp311
tp312
a(S'matrix multiplication'
p313
g2
(g6
S'\x1a\xb0\n\xae\x06\x0b\xda?'
p314
tp315
Rp316
tp317
a(S'enter the matrix'
p318
g2
(g6
S'y\x92"\xdc\xa3\xed\xd9?'
p319
tp320
Rp321
tp322
a(S'pascal matrix'
p323
g2
(g6
S'\x16)z\x1dt\xe5\xd9?'
p324
tp325
Rp326
tp327
a(S'matrix of leadership'
p328
g2
(g6
S'\x8b\x87\xec\xb1\xda\xde\xd9?'
p329
tp330
Rp331
tp332
a(S'pentadiagonal matrix'
p333
g2
(g6
S'DE\xa2\xa5\x91\xd1\xd9?'
p334
tp335
Rp336
tp337
a(S'irregular matrix'
p338
g2
(g6
S'\x1e]\xed\xeaF\xd1\xd9?'
p339
tp340
Rp341
tp342
a(S'matrix (mathematics)'
p343
g2
(g6
S'\x18\x17OGb\xb0\xd9?'
p344
tp345
Rp346
tp347
a(S'the matrix: path of neo'
p348
g2
(g6
S'\x1d\xd7W\xed`\xa2\xd9?'
p349
tp350
Rp351
tp352
a(S'diagonalizable matrix'
p353
g2
(g6
S'\xd0\xb4\n\xb9\xe7\x9f\xd9?'
p354
tp355
Rp356
tp357
a(S'adjugate matrix'
p358
g2
(g6
S'-\xa6v\xe0j\x94\xd9?'
p359
tp360
Rp361
tp362
a(S'list of linear algebra topics'
p363
g2
(g6
S'\x0c\xbb\xad\xa7\x1e\x86\xd9?'
p364
tp365
Rp366
tp367
a(S'matrix scheme'
p368
g2
(g6
S'\xf1\xf7oN\xa7v\xd9?'
p369
tp370
Rp371
tp372
a(S'interpolative decomposition'
p373
g2
(g6
S"'\xf4\xc4\x17\xfbH\xd9?"
p374
tp375
Rp376
tp377
a(S'matrix (chemical analysis)'
p378
g2
(g6
S'T\x8b\x957K9\xd9?'
p379
tp380
Rp381
tp382
a(S'polynomial matrix'
p383
g2
(g6
S'\xe91\xf4\x1f\xf96\xd9?'
p384
tp385
Rp386
tp387
a(S'polyphase matrix'
p388
g2
(g6
S'f:\xfe\x1eR"\xd9?'
p389
tp390
Rp391
tp392
a(S'generator matrix'
p393
g2
(g6
S'\xa4\xfa\x8bu\xf7\xf5\xd8?'
p394
tp395
Rp396
tp397
a(S'dodgson condensation'
p398
g2
(g6
S'\xe7~Ts4\xf3\xd8?'
p399
tp400
Rp401
tp402
a(S'commando (1985 film)'
p403
g2
(g6
S'\xf0\x9bKcM\xea\xd8?'
p404
tp405
Rp406
tp407
a(S'peritrophic matrix'
p408
g2
(g6
S'\x84or\xedJ\xc2\xd8?'
p409
tp410
Rp411
tp412
a(S'unimodular matrix'
p413
g2
(g6
S'\xa3\xddp\xa6\xec\xb8\xd8?'
p414
tp415
Rp416
tp417
a(S'carleman matrix'
p418
g2
(g6
S'\x07\xf0Y\x9f\xfd\xb7\xd8?'
p419
tp420
Rp421
tp422
a(S'diagonal matrix'
p423
g2
(g6
S'\x96\xb6\xb5]S\x94\xd8?'
p424
tp425
Rp426
tp427
a(S'band matrix'
p428
g2
(g6
S'\x9e\x0b8\x0cS\x87\xd8?'
p429
tp430
Rp431
tp432
a(S'projection matrix'
p433
g2
(g6
S"\xcd\xb6'q\x14\x87\xd8?"
p434
tp435
Rp436
tp437
a(S'zion (the matrix)'
p438
g2
(g6
S'\x05\xc3\xfe\x00\x90\x85\xd8?'
p439
tp440
Rp441
tp442
a(S'centering matrix'
p443
g2
(g6
S'\x8b\x0czprw\xd8?'
p444
tp445
Rp446
tp447
a(S'essential matrix'
p448
g2
(g6
S'T\xe4\x15\x01r^\xd8?'
p449
tp450
Rp451
tp452
a(S'bay area matrix'
p453
g2
(g6
S'Y\x9d~\xb8[C\xd8?'
p454
tp455
Rp456
tp457
a(S'scatter matrix'
p458
g2
(g6
S'9\xc7Oc\xf2>\xd8?'
p459
tp460
Rp461
tp462
a(S'zach staenberg'
p463
g2
(g6
S'\\\xebv\xdcJ;\xd8?'
p464
tp465
Rp466
tp467
a(S'dot matrix (disambiguation)'
p468
g2
(g6
S'\xda\x16\x86\xa0~7\xd8?'
p469
tp470
Rp471
tp472
a(S'invertible matrix'
p473
g2
(g6
S'h\x9cs\xc4\xa75\xd8?'
p474
tp475
Rp476
tp477
a(S'elementary matrix'
p478
g2
(g6
S'\xbbg\x8e/%\r\xd8?'
p479
tp480
Rp481
tp482
a(S'centrosymmetric matrix'
p483
g2
(g6
S'CO%\xc8B\xfc\xd7?'
p484
tp485
Rp486
tp487
a(S'matrix gamma distribution'
p488
g2
(g6
S'T\xe4<\x18#\xfc\xd7?'
p489
tp490
Rp491
tp492
a(S'euclidean distance matrix'
p493
g2
(g6
S'g\xcc9\xc2\xdf\xf5\xd7?'
p494
tp495
Rp496
tp497
a(S'sparse matrix'
p498
g2
(g6
S'B\x87-\xe2\xa3\xe5\xd7?'
p499
tp500
Rp501
tp502
a(S'rosenbrock system matrix'
p503
g2
(g6
S'\xfb\xad\x81\xea\xe2\xd9\xd7?'
p504
tp505
Rp506
tp507
a(S'symmetric matrix'
p508
g2
(g6
S'7\x8dIk\xf9\xa6\xd7?'
p509
tp510
Rp511
tp512
a(S'matrix consimilarity'
p513
g2
(g6
S'F\xf6\x01o\xd9\x98\xd7?'
p514
tp515
Rp516
tp517
a(S'matrix t-distribution'
p518
g2
(g6
S'Uc[e\xeb\x8f\xd7?'
p519
tp520
Rp521
tp522
a(S'o-matrix'
p523
g2
(g6
S'\xd6\xbc\xefm\xad\x8d\xd7?'
p524
tp525
Rp526
tp527
a(S'sylvester domain'
p528
g2
(g6
S'D\xfe\xd0Z}v\xd7?'
p529
tp530
Rp531
tp532
a(S'fundamental matrix (computer vision)'
p533
g2
(g6
S'H\x1d\xf6\x98\x18s\xd7?'
p534
tp535
Rp536
tp537
a(S'matrix completion'
p538
g2
(g6
S'3f\xc2\xc6\xffn\xd7?'
p539
tp540
Rp541
tp542
a(S'matrix exponential'
p543
g2
(g6
S'X\xad2\x873f\xd7?'
p544
tp545
Rp546
tp547
a(S'woodbury matrix identity'
p548
g2
(g6
S'\x9a\xf4\xd2\x82\x9d]\xd7?'
p549
tp550
Rp551
tp552
a(S'minor (linear algebra)'
p553
g2
(g6
S'\x06\xeb{\xea\x8fP\xd7?'
p554
tp555
Rp556
tp557
a(S'matrix realty group, inc.'
p558
g2
(g6
S'L{c\xbb\xaaL\xd7?'
p559
tp560
Rp561
tp562
a(S'design matrix'
p563
g2
(g6
S'\xabD\xc8;iE\xd7?'
p564
tp565
Rp566
tp567
a(S'multistate anti-terrorism information exchange'
p568
g2
(g6
S'r\xa6j\xdaW,\xd7?'
p569
tp570
Rp571
tp572
a(S'matrix (biology)'
p573
g2
(g6
S'\xc0\xf8\xaf\xfc<&\xd7?'
p574
tp575
Rp576
tp577
a(S'nuclear matrix'
p578
g2
(g6
S'\xa9\x80\xd1_\xc4!\xd7?'
p579
tp580
Rp581
tp582
a(S'block lu decomposition'
p583
g2
(g6
S'\xa0\xf4\xfd\xd9\xe5\x11\xd7?'
p584
tp585
Rp586
tp587
a(S'square root of a 2 by 2 matrix'
p588
g2
(g6
S'V\xfd\x8b;\x87\x10\xd7?'
p589
tp590
Rp591
tp592
a(S'walsh matrix'
p593
g2
(g6
S'@3\x04\x90\xd4\x0c\xd7?'
p594
tp595
Rp596
tp597
a(S'list of vehicles in the matrix series'
p598
g2
(g6
S'^\x15g,g\t\xd7?'
p599
tp600
Rp601
tp602
a(S'm-matrix'
p603
g2
(g6
S'\xd1\x8f\x9aX,\xfe\xd6?'
p604
tp605
Rp606
tp607
a(S'convergent matrix'
p608
g2
(g6
S'\xd4\xe9\xf4\x07w\xf8\xd6?'
p609
tp610
Rp611
tp612
a(S'companion matrix'
p613
g2
(g6
S'\xcc\x99\xdf\xb7i\xe9\xd6?'
p614
tp615
Rp616
tp617
a(S'determinant identities'
p618
g2
(g6
S'\xf4_<\xa6(\xe9\xd6?'
p619
tp620
Rp621
tp622
a(S'nonnegative matrix'
p623
g2
(g6
S'In\xb8\xcc\xa8\xe5\xd6?'
p624
tp625
Rp626
tp627
a(S'matrix h'
p628
g2
(g6
S'^-\x96\xcc\xe4\x9c\xd6?'
p629
tp630
Rp631
tp632
a(S'laffey matrix'
p633
g2
(g6
S'6\x9d\xd0\xb0\xda\x96\xd6?'
p634
tp635
Rp636
tp637
a(S'gray level size zone matrix'
p638
g2
(g6
S'\xac_t\x14\xa4\x7f\xd6?'
p639
tp640
Rp641
tp642
a(S'vectorization (mathematics)'
p643
g2
(g6
S'%\r\\e\xb2r\xd6?'
p644
tp645
Rp646
tp647
a(S'distance matrix'
p648
g2
(g6
S'\xb6\xe7\x9caEV\xd6?'
p649
tp650
Rp651
tp652
a(S'gramian matrix'
p653
g2
(g6
S'\xcd\x15tN\xe8A\xd6?'
p654
tp655
Rp656
tp657
a(S'logarithm of a matrix'
p658
g2
(g6
S'\x0c\x19$E\xff@\xd6?'
p659
tp660
Rp661
tp662
a(S'bisymmetric matrix'
p663
g2
(g6
S'u\xd2\xd6Io2\xd6?'
p664
tp665
Rp666
tp667
a(S'spread of a matrix'
p668
g2
(g6
S'a0I\xdcQ\x1c\xd6?'
p669
tp670
Rp671
tp672
a(S'modal matrix'
p673
g2
(g6
S'r\\k&\x89\x11\xd6?'
p674
tp675
Rp676
tp677
a(S'steve courtley'
p678
g2
(g6
S'\xe4*\xabs\x81\n\xd6?'
p679
tp680
Rp681
tp682
a(S'non-negative matrix factorization'
p683
g2
(g6
S'a\xff\xfe4\x1f\x00\xd6?'
p684
tp685
Rp686
tp687
a(S'lu decomposition'
p688
g2
(g6
S'`\x8c\xdd\x1c\x1a\x00\xd6?'
p689
tp690
Rp691
tp692
a(S'unitary matrix'
p693
g2
(g6
S'\n\x88\x9c\xd3\x8c\xfa\xd5?'
p694
tp695
Rp696
tp697
a(S'what more can i ask?'
p698
g2
(g6
S'\xcdD\x8fH\x91\xeb\xd5?'
p699
tp700
Rp701
tp702
a(S'fundamental matrix (linear differential equation)'
p703
g2
(g6
S'\xd2\xd3\x1f;z\xe8\xd5?'
p704
tp705
Rp706
tp707
a(S'square root of a matrix'
p708
g2
(g6
S'\xf9Ou\xbc\x88\xe5\xd5?'
p709
tp710
Rp711
tp712
a(S'paley construction'
p713
g2
(g6
S'\x01/\x9a\x81\xf3\xe2\xd5?'
p714
tp715
Rp716
tp717
a(S'balanced matrix'
p718
g2
(g6
S'U\xb7\xee\x12\xb8\xde\xd5?'
p719
tp720
Rp721
tp722
a(S'frobenius matrix'
p723
g2
(g6
S'\xdf\xedS)\x95\xda\xd5?'
p724
tp725
Rp726
tp727
a(S'matrix representation'
p728
g2
(g6
S'\xc5\xc9\xd7k;\xd9\xd5?'
p729
tp730
Rp731
tp732
a(S'morpheus (the matrix)'
p733
g2
(g6
S'\xe0/@dN\xd0\xd5?'
p734
tp735
Rp736
tp737
a(S'bidiagonal matrix'
p738
g2
(g6
S'\x10\xd3Q\x17Y\xc4\xd5?'
p739
tp740
Rp741
tp742
a(S'decomposition matrix'
p743
g2
(g6
S'\xcf\x10\xfa#\x9c\xc3\xd5?'
p744
tp745
Rp746
tp747
a(S'burlyman entertainment'
p748
g2
(g6
S'\xe3\x9c\xdd\x0fC\xbb\xd5?'
p749
tp750
Rp751
tp752
a(S'the official matrix exhibit'
p753
g2
(g6
S'\x1c-\xdc\x14\xd7\xb6\xd5?'
p754
tp755
Rp756
tp757
a(S'compound matrix'
p758
g2
(g6
S'\xe2\x97\t#M\xaa\xd5?'
p759
tp760
Rp761
tp762
a(S'moment matrix'
p763
g2
(g6
S'*\x87\xcf\xce\xee\x95\xd5?'
p764
tp765
Rp766
tp767
a(S'qr decomposition'
p768
g2
(g6
S'\xb4\xa3\xc9D\x19\x8c\xd5?'
p769
tp770
Rp771
tp772
a(S'matrix-supported rock'
p773
g2
(g6
S'h\xfc/sT\x8a\xd5?'
p774
tp775
Rp776
tp777
a(S'transition rate matrix'
p778
g2
(g6
S'\x9e\xf5\x7f\xfe\x17\x88\xd5?'
p779
tp780
Rp781
tp782
a(S'data matrix'
p783
g2
(g6
S'[\xcdrO\xe2~\xd5?'
p784
tp785
Rp786
tp787
a(S'matrix splitting'
p788
g2
(g6
S'\xbe\xa4a\x88\xd8O\xd5?'
p789
tp790
Rp791
tp792
a(S'conference matrix'
p793
g2
(g6
S'\xa4\xb3K\x17\xceF\xd5?'
p794
tp795
Rp796
tp797
a(S'signature matrix'
p798
g2
(g6
S'\xf6e\x8d\x82}A\xd5?'
p799
tp800
Rp801
tp802
a(S'list of nostalgia critic episodes (2015)'
p803
g2
(g6
S'#\xbc\xb2\xb3\xb6@\xd5?'
p804
tp805
Rp806
tp807
a(S'black/matrix'
p808
g2
(g6
S'\xcf\x91HK\x0e/\xd5?'
p809
tp810
Rp811
tp812
a(S's-matrix'
p813
g2
(g6
S'\x9bn\xf0r,$\xd5?'
p814
tp815
Rp816
tp817
a(S'digital print matrix'
p818
g2
(g6
S'\x16\xc5\xae\x18\x1d!\xd5?'
p819
tp820
Rp821
tp822
a(S'autocorrelation matrix'
p823
g2
(g6
S'\xec\xa8\xf3\x1b\x89\x1d\xd5?'
p824
tp825
Rp826
tp827
a(S'matrix mixer'
p828
g2
(g6
S'L\x93\x10\x11"\x1d\xd5?'
p829
tp830
Rp831
tp832
a(S'nodal admittance matrix'
p833
g2
(g6
S'\x16o\xac$8\x15\xd5?'
p834
tp835
Rp836
tp837
a(S'matrix (tv series)'
p838
g2
(g6
S'\x85]h\xb4\xb8\x14\xd5?'
p839
tp840
Rp841
tp842
a(S'sylvester matrix'
p843
g2
(g6
S'\xca\x00t\x86\x13\x11\xd5?'
p844
tp845
Rp846
tp847
a(S'sean deason'
p848
g2
(g6
S',Z\x12`\xac\xf8\xd4?'
p849
tp850
Rp851
tp852
a(S'matrix clock'
p853
g2
(g6
S'-\xa7q\xab\x17\xe6\xd4?'
p854
tp855
Rp856
tp857
a(S'general matrix notation of a var(p)'
p858
g2
(g6
S'\x90\xe2/;J\xd5\xd4?'
p859
tp860
Rp861
tp862
a(S'incidence matrix'
p863
g2
(g6
S'\x8bP\xd0\x12\x10\xbf\xd4?'
p864
tp865
Rp866
tp867
a(S'triangular matrix ring'
p868
g2
(g6
S'\xa5.\xd3\xa7\x83\xbe\xd4?'
p869
tp870
Rp871
tp872
a(S'hurwitz matrix'
p873
g2
(g6
S'+\xc3\x9cw\x0e\xb7\xd4?'
p874
tp875
Rp876
tp877
a(S'kym barrett'
p878
g2
(g6
S'\x03P\x1b$\xcc\xb6\xd4?'
p879
tp880
Rp881
tp882
a(S'hilbert matrix'
p883
g2
(g6
S' \x8f\xc7\x0cX\xb2\xd4?'
p884
tp885
Rp886
tp887
a(S'tanveer k. atwal'
p888
g2
(g6
S'CG\x0e/\xb1\xaa\xd4?'
p889
tp890
Rp891
tp892
a(S'jordan matrix'
p893
g2
(g6
S'\xd5\xcf\x98\xa9\x80\xa7\xd4?'
p894
tp895
Rp896
tp897
a(S'packed storage matrix'
p898
g2
(g6
S'\xda`,j\xe0\xa6\xd4?'
p899
tp900
Rp901
tp902
a(S'coefficient matrix'
p903
g2
(g6
S'\x95\x91\xfd\x83\x93\x9b\xd4?'
p904
tp905
Rp906
tp907
a(S'niobe (the matrix)'
p908
g2
(g6
S'\x12\xc4LB\x13\x9a\xd4?'
p909
tp910
Rp911
tp912
a(S'tutte matrix'
p913
g2
(g6
S'/5\t@\xad\x95\xd4?'
p914
tp915
Rp916
tp917
a(S'matrix (communication protocol)'
p918
g2
(g6
S'\x9f\xe7\xb1H\xba\x8e\xd4?'
p919
tp920
Rp921
tp922
a(S'matrix quest'
p923
g2
(g6
S'\xba\x0b\xf2\x10\xf2f\xd4?'
p924
tp925
Rp926
tp927
a(S'ayria'
p928
g2
(g6
S'\xe8\xe0d\x8aH[\xd4?'
p929
tp930
Rp931
tp932
a(S'the matrix (club)'
p933
g2
(g6
S'\x93\xc4\x86eFT\xd4?'
p934
tp935
Rp936
tp937
a(S'block matrix pseudoinverse'
p938
g2
(g6
S'K\x17\x10\xa3\x1cI\xd4?'
p939
tp940
Rp941
tp942
a(S'stochastic matrix'
p943
g2
(g6
S'\x98\x19\x98\x9f\xc7.\xd4?'
p944
tp945
Rp946
tp947
a(S'samsung sph-n270'
p948
g2
(g6
S'\xa4\x90\x86\xe8z\x08\xd4?'
p949
tp950
Rp951
tp952
a(S'transpose'
p953
g2
(g6
S'J\xe8\xdb\x15\x8d\x06\xd4?'
p954
tp955
Rp956
tp957
a(S'circulant matrix'
p958
g2
(g6
S'\xd4\xc1gA \x01\xd4?'
p959
tp960
Rp961
tp962
a(S"sylvester's determinant identity"
p963
g2
(g6
S'.\x1a\xe5 {\xfe\xd3?'
p964
tp965
Rp966
tp967
a(S'supergirl: wings'
p968
g2
(g6
S']\xcc\xa0\xea\xcb\xfa\xd3?'
p969
tp970
Rp971
tp972
a(S'parity-check matrix'
p973
g2
(g6
S"\xadM'\xef:\xf9\xd3?"
p974
tp975
Rp976
tp977
a(S'matrix similarity'
p978
g2
(g6
S'0\xfd\xc5\x8dV\xf0\xd3?'
p979
tp980
Rp981
tp982
a(S'inverse matrix gamma distribution'
p983
g2
(g6
S'\xbeG\xad\xd9\r\xe7\xd3?'
p984
tp985
Rp986
tp987
a(S'the matrix defense'
p988
g2
(g6
S'\xfb\xc2\xc7\x84M\xe3\xd3?'
p989
tp990
Rp991
tp992
a(S'wigner d-matrix'
p993
g2
(g6
S'Q\xfe\xb9;\x8c\xd4\xd3?'
p994
tp995
Rp996
tp997
a(S'gaussian elimination'
p998
g2
(g6
S'hHF\xca\x0f\xcf\xd3?'
p999
tp1000
Rp1001
tp1002
a(S'positive-definite matrix'
p1003
g2
(g6
S'\xbf\xdc\xc7\xb3\t\xb8\xd3?'
p1004
tp1005
Rp1006
tp1007
a(S"boston consulting group's advantage matrix"
p1008
g2
(g6
S'f\xb5\x92\x12\x0f\xb1\xd3?'
p1009
tp1010
Rp1011
tp1012
a(S'pl\xc3\xbccker matrix'
p1013
g2
(g6
S'\xeb0a\x1b\x16\xb0\xd3?'
p1014
tp1015
Rp1016
tp1017
a(S'unter null'
p1018
g2
(g6
S'\xa6\xd2 \x12\xde\xad\xd3?'
p1019
tp1020
Rp1021
tp1022
a(S'nilpotent matrix'
p1023
g2
(g6
S'\t[~z&\xa1\xd3?'
p1024
tp1025
Rp1026
tp1027
a(S'metzler matrix'
p1028
g2
(g6
S'\x98\r\xefu\x1a\x8f\xd3?'
p1029
tp1030
Rp1031
tp1032
a(S'persephone (the matrix)'
p1033
g2
(g6
S'(\x19%\xdd\xcd\x8b\xd3?'
p1034
tp1035
Rp1036
tp1037
a(S'covariance matrix'
p1038
g2
(g6
S'\xe7\xc8^\x1e\x1c\x87\xd3?'
p1039
tp1040
Rp1041
tp1042
a(S'binomial inverse theorem'
p1043
g2
(g6
S'\xf9\x12*\xd0P}\xd3?'
p1044
tp1045
Rp1046
tp1047
a(S'matrix (printing)'
p1048
g2
(g6
S'\x84qb"\xady\xd3?'
p1049
tp1050
Rp1051
tp1052
a(S'alternant matrix'
p1053
g2
(g6
S'"\x99\x82\x07\xecr\xd3?'
p1054
tp1055
Rp1056
tp1057
a(S'moore matrix'
p1058
g2
(g6
S';#\xa6\x90Zl\xd3?'
p1059
tp1060
Rp1061
tp1062
a(S'jacket matrix'
p1063
g2
(g6
S'0G\x1e\xa75l\xd3?'
p1064
tp1065
Rp1066
tp1067
a(S'dot matrix'
p1068
g2
(g6
S'Q\x85\x16\x0f\xfek\xd3?'
p1069
tp1070
Rp1071
tp1072
a(S'adjacency matrix'
p1073
g2
(g6
S'g=AV\xb9g\xd3?'
p1074
tp1075
Rp1076
tp1077
a(S'keymaker'
p1078
g2
(g6
S'\x7f7?m\x9bd\xd3?'
p1079
tp1080
Rp1081
tp1082
a(S'hypergeometric function of a matrix argument'
p1083
g2
(g6
S'r\xa4V\x0fPR\xd3?'
p1084
tp1085
Rp1086
tp1087
a(S'eight-point algorithm'
p1088
g2
(g6
S'\x9c\xc4O\xe8\xda4\xd3?'
p1089
tp1090
Rp1091
tp1092
a(S'matrix number'
p1093
g2
(g6
S'\x90\xfb\x8c\x0e\x9c,\xd3?'
p1094
tp1095
Rp1096
tp1097
a(S'matrix decomposition'
p1098
g2
(g6
S"\xae\xbbV\xe9\x1e'\xd3?"
p1099
tp1100
Rp1101
tp1102
a(S'doc sausage'
p1103
g2
(g6
S'\x1a\xb0Oh\x0b\r\xd3?'
p1104
tp1105
Rp1106
tp1107
a(S'matrix isolation'
p1108
g2
(g6
S'5\x9f\xc3UT\x05\xd3?'
p1109
tp1110
Rp1111
tp1112
a(S'optimal estimation'
p1113
g2
(g6
S'K\xbd\xb6\x7f\x8a\xfb\xd2?'
p1114
tp1115
Rp1116
tp1117
a(S'monotone matrix'
p1118
g2
(g6
S'g3\xec\x19\xc4\xee\xd2?'
p1119
tp1120
Rp1121
tp1122
a(S'matrix differential equation'
p1123
g2
(g6
S'\xd2\xd8\x04\xdc\x95\xec\xd2?'
p1124
tp1125
Rp1126
tp1127
a(S'transfer-matrix method (optics)'
p1128
g2
(g6
S'.\xc2\xe2\xeb\xe8\xde\xd2?'
p1129
tp1130
Rp1131
tp1132
a(S'laplacian matrix'
p1133
g2
(g6
S'\x99\x06\xef>\xb4\xdd\xd2?'
p1134
tp1135
Rp1136
tp1137
a(S'matrix normal distribution'
p1138
g2
(g6
S'4/\x83\x18\x88\xdd\xd2?'
p1139
tp1140
Rp1141
tp1142
a(S'spark (mathematics)'
p1143
g2
(g6
S't\xbd\x1f\xbfi\xd1\xd2?'
p1144
tp1145
Rp1146
tp1147
a(S'cabibbo\xe2\x80\x93kobayashi\xe2\x80\x93maskawa matrix'
p1148
g2
(g6
S'\xe9\x02t~\xc8\xca\xd2?'
p1149
tp1150
Rp1151
tp1152
a(S'dot-matrix display'
p1153
g2
(g6
S'\x04\x912\x11g\xbe\xd2?'
p1154
tp1155
Rp1156
tp1157
a(S'sleeping awake'
p1158
g2
(g6
S'\x9a6u!^\xbd\xd2?'
p1159
tp1160
Rp1161
tp1162
a(S'matrix string theory'
p1163
g2
(g6
S'O\xc2\xfe\xc1\x14\xab\xd2?'
p1164
tp1165
Rp1166
tp1167
a(S'matrix market exchange formats'
p1168
g2
(g6
S'\x13]vY@\xa6\xd2?'
p1169
tp1170
Rp1171
tp1172
a(S'substitution matrix'
p1173
g2
(g6
S'\xb1\xe3\x0f@\x9f\xa1\xd2?'
p1174
tp1175
Rp1176
tp1177
a(S'permanent'
p1178
g2
(g6
S"\x7f'K\x99p\x99\xd2?"
p1179
tp1180
Rp1181
tp1182
a(S'stiffness matrix'
p1183
g2
(g6
S'%X\x90\x80\xfe\x96\xd2?'
p1184
tp1185
Rp1186
tp1187
a(S'dane davis'
p1188
g2
(g6
S'\xc3\x15\x07\x9c=\x92\xd2?'
p1189
tp1190
Rp1191
tp1192
a(S'anthony brandon wong'
p1193
g2
(g6
S'\xb3\x95\xc6\x14\x00\x90\xd2?'
p1194
tp1195
Rp1196
tp1197
a(S'the matrix (the matrix album)'
p1198
g2
(g6
S'\xee\xe9\xe9\xc9\xc0\x8f\xd2?'
p1199
tp1200
Rp1201
tp1202
a(S'matrix geometric method'
p1203
g2
(g6
S"\xc4\xbbB\xcd'\x8f\xd2?"
p1204
tp1205
Rp1206
tp1207
a(S'x\xe2\x80\x93y\xe2\x80\x93z matrix'
p1208
g2
(g6
S'\xeb\tZ\x08K\x83\xd2?'
p1209
tp1210
Rp1211
tp1212
a(S'pfaffian'
p1213
g2
(g6
S'.\xa9\xf5\x9e\xba\x80\xd2?'
p1214
tp1215
Rp1216
tp1217
a(S'arrowhead matrix'
p1218
g2
(g6
S'\xbf\xe5d\xfa(}\xd2?'
p1219
tp1220
Rp1221
tp1222
a(S'data matrix'
p1223
g2
(g6
S'[X\x19\xa5\xb3s\xd2?'
p1224
tp1225
Rp1226
tp1227
a(S'moore\xe2\x80\x93penrose pseudoinverse'
p1228
g2
(g6
S'\x8c\x01\xfb\xd9Lm\xd2?'
p1229
tp1230
Rp1231
tp1232
a(S'change of basis'
p1233
g2
(g6
S'\xe5\x98\x91aMl\xd2?'
p1234
tp1235
Rp1236
tp1237
a(S'matrix regularization'
p1238
g2
(g6
S'\xc8\x17\xdc\xb7\xdfd\xd2?'
p1239
tp1240
Rp1241
tp1242
a(S'cayley\xe2\x80\x93hamilton theorem'
p1243
g2
(g6
S'0\xef\xe9\x02\xaf]\xd2?'
p1244
tp1245
Rp1246
tp1247
a(S'matrix difference equation'
p1248
g2
(g6
S's\xfc\xc2\xf3\x01[\xd2?'
p1249
tp1250
Rp1251
tp1252
a(S'rank (linear algebra)'
p1253
g2
(g6
S'\x0b\xb2\xda\x1a\xd2N\xd2?'
p1254
tp1255
Rp1256
tp1257
a(S'matrix field'
p1258
g2
(g6
S'\xedn\xb1#\xefA\xd2?'
p1259
tp1260
Rp1261
tp1262
a(S'line matrix printer'
p1263
g2
(g6
S'\xb4\x15\xd5\x12UA\xd2?'
p1264
tp1265
Rp1266
tp1267
a(S'min-plus matrix multiplication'
p1268
g2
(g6
S':\xecw\xc3\xa3>\xd2?'
p1269
tp1270
Rp1271
tp1272
a(S'matrix polynomial'
p1273
g2
(g6
S'b\xec\xf67\xd78\xd2?'
p1274
tp1275
Rp1276
tp1277
a(S'damping matrix'
p1278
g2
(g6
S'G1\xd4\x0c\xa92\xd2?'
p1279
tp1280
Rp1281
tp1282
a(S'triangular matrix'
p1283
g2
(g6
S'\xf7\xaeBn 0\xd2?'
p1284
tp1285
Rp1286
tp1287
a(S'generalized eigenvector'
p1288
g2
(g6
S'\x9f\x1d\x8f+\x8c/\xd2?'
p1289
tp1290
Rp1291
tp1292
a(S'floquet theory'
p1293
g2
(g6
S'\x17\x05\xeb\xc8:-\xd2?'
p1294
tp1295
Rp1296
tp1297
a(S"hadamard's maximal determinant problem"
p1298
g2
(g6
S"\x85'\xd7\x16G$\xd2?"
p1299
tp1300
Rp1301
tp1302
a(S'harris matrix'
p1303
g2
(g6
S'\x1e\x02"LG\x1f\xd2?'
p1304
tp1305
Rp1306
tp1307
a(S'householder transformation'
p1308
g2
(g6
S'\x04m\xb4\xf6\xf5\x1a\xd2?'
p1309
tp1310
Rp1311
tp1312
a(S'z-matrix (mathematics)'
p1313
g2
(g6
S'4\x8b5\xad\x81\x16\xd2?'
p1314
tp1315
Rp1316
tp1317
a(S'bid\xe2\x80\x93ask matrix'
p1318
g2
(g6
S'\x13\xe1\xaf\x83\x90\x13\xd2?'
p1319
tp1320
Rp1321
tp1322
a(S'document-term matrix'
p1323
g2
(g6
S'\xccT\xc4\xc3\x12\x11\xd2?'
p1324
tp1325
Rp1326
tp1327
a(S'rouch\xc3\xa9\xe2\x80\x93capelli theorem'
p1328
g2
(g6
S'\x04\xe7\x13\xdf\xa4\r\xd2?'
p1329
tp1330
Rp1331
tp1332
a(S'z-matrix (chemistry)'
p1333
g2
(g6
S'\x0ez\x96\xf7)\n\xd2?'
p1334
tp1335
Rp1336
tp1337
a(S'three-dimensional rotation operator'
p1338
g2
(g6
S'\xf9\xd0\xab\x01\x0c\x07\xd2?'
p1339
tp1340
Rp1341
tp1342
a(S'supergirl (matrix)'
p1343
g2
(g6
S'\xc7\x88oy\xba\x00\xd2?'
p1344
tp1345
Rp1346
tp1347
a(S'matrix ring'
p1348
g2
(g6
S'\xe4\xccS\xbf\x8e\xfd\xd1?'
p1349
tp1350
Rp1351
tp1352
a(S'manex visual effects'
p1353
g2
(g6
S'\x8d\xe3\x18\xef\x87\xfc\xd1?'
p1354
tp1355
Rp1356
tp1357
a(S'orthogonal matrix'
p1358
g2
(g6
S'4\x1a\x07\xb0E\xfc\xd1?'
p1359
tp1360
Rp1361
tp1362
a(S'frobenius covariant'
p1363
g2
(g6
S"^\xdfK['\xfa\xd1?"
p1364
tp1365
Rp1366
tp1367
a(S'weakly chained diagonally dominant matrix'
p1368
g2
(g6
S'\x1aO2T\xf4\xf5\xd1?'
p1369
tp1370
Rp1371
tp1372
a(S'robert leonhardt'
p1373
g2
(g6
S'F\xffc\x1en\xf2\xd1?'
p1374
tp1375
Rp1376
tp1377
a(S'dermatopontin'
p1378
g2
(g6
S'K\xd7\xac+\xb7\xee\xd1?'
p1379
tp1380
Rp1381
tp1382
a(S'sample matrix inversion'
p1383
g2
(g6
S'F\x91u\xe0,\xed\xd1?'
p1384
tp1385
Rp1386
tp1387
a(S"sylvester's law of inertia"
p1388
g2
(g6
S"\x18'\xc9\xda\x1c\xe6\xd1?"
p1389
tp1390
Rp1391
tp1392
a(S'cholesky decomposition'
p1393
g2
(g6
S'\xa7\xc2U\x8eg\xe3\xd1?'
p1394
tp1395
Rp1396
tp1397
a(S"kirchhoff's theorem"
p1398
g2
(g6
S'\x8c\x8dc\xb6P\xde\xd1?'
p1399
tp1400
Rp1401
tp1402
a(S'sherman\xe2\x80\x93morrison formula'
p1403
g2
(g6
S'\xd5\xd4\x10\xf1x\xdb\xd1?'
p1404
tp1405
Rp1406
tp1407
a(S'camera matrix'
p1408
g2
(g6
S'\x9cbZ\x19\xe8\xd6\xd1?'
p1409
tp1410
Rp1411
tp1412
a(S'co-occurrence matrix'
p1413
g2
(g6
S'Wx\xa1\x91\x84\xca\xd1?'
p1414
tp1415
Rp1416
tp1417
a(S'2 \xc3\x97 2 real matrices'
p1418
g2
(g6
S'\x05s\xebs\x7f\xc7\xd1?'
p1419
tp1420
Rp1421
tp1422
a(S'matrix-free methods'
p1423
g2
(g6
S'\xcc\x89zwK\xc5\xd1?'
p1424
tp1425
Rp1426
tp1427
a(S'matrix pencil'
p1428
g2
(g6
S'\xb41\x03\x0c\xfa\xbe\xd1?'
p1429
tp1430
Rp1431
tp1432
a(S'r-matrix'
p1433
g2
(g6
S'\x84\x98\xa3\x85\x9f\xbc\xd1?'
p1434
tp1435
Rp1436
tp1437
a(S'priority matrix'
p1438
g2
(g6
S'\xb1\x9a2\xd1\xd1\xae\xd1?'
p1439
tp1440
Rp1441
tp1442
a(S'orthostochastic matrix'
p1443
g2
(g6
S'\xbeI\xa1O\x8a\xaa\xd1?'
p1444
tp1445
Rp1446
tp1447
a(S'jacking in to the matrix franchise'
p1448
g2
(g6
S'\x8eV\x8a\xa3\x7f\xaa\xd1?'
p1449
tp1450
Rp1451
tp1452
a(S'matrix analytic method'
p1453
g2
(g6
S'\x87R&sQ\xa9\xd1?'
p1454
tp1455
Rp1456
tp1457
a(S'active-matrix liquid-crystal display'
p1458
g2
(g6
S'\x19\xba<m_\xa8\xd1?'
p1459
tp1460
Rp1461
tp1462
a(S'vandermonde matrix'
p1463
g2
(g6
S'\xa6\x99#\x1e\xa1\xa7\xd1?'
p1464
tp1465
Rp1466
tp1467
a(S'frontal solver'
p1468
g2
(g6
S'Ww\x18\xeb\xa8\xa6\xd1?'
p1469
tp1470
Rp1471
tp1472
a(S'metal matrix composite'
p1473
g2
(g6
S'\x9d?6\xa8J\xa3\xd1?'
p1474
tp1475
Rp1476
tp1477
a(S'tallygenicom'
p1478
g2
(g6
S"'z\xa7%$\x9f\xd1?"
p1479
tp1480
Rp1481
tp1482
a(S'matrix decoder'
p1483
g2
(g6
S'\xa3D\x82\x13\xa0\x98\xd1?'
p1484
tp1485
Rp1486
tp1487
a(S'transfer-matrix method'
p1488
g2
(g6
S'86\xe10\xd7\x8d\xd1?'
p1489
tp1490
Rp1491
tp1492
a(S'totally positive matrix'
p1493
g2
(g6
S'\xf0\xc0D\xed]\x8b\xd1?'
p1494
tp1495
Rp1496
tp1497
a(S'mind:state'
p1498
g2
(g6
S'\x9e;8\x90\x98\x88\xd1?'
p1499
tp1500
Rp1501
tp1502
a(S'matrix games'
p1503
g2
(g6
S';\xdc\xd4b\x0e~\xd1?'
p1504
tp1505
Rp1506
tp1507
a(S'fastica'
p1508
g2
(g6
S'\xa1\xd9\xba\x94\xff|\xd1?'
p1509
tp1510
Rp1511
tp1512
a.