(lp0
(S'three laws of robotics'
p1
cnumpy.core.multiarray
scalar
p2
(cnumpy
dtype
p3
(S'f8'
p4
I0
I1
tp5
Rp6
(I3
S'<'
p7
NNNI-1
I-1
I0
tp8
bS'\xf6\xff\xff\xff\xff\xff\xef?'
p9
tp10
Rp11
tp12
a(S'the three laws of robotics in popular culture'
p13
g2
(g6
S'\xb7#\x11\xc0\xa3\xaa\xeb?'
p14
tp15
Rp16
tp17
a(S'robot series (asimov)'
p18
g2
(g6
S'\x18\xf6x\x1e\xaa\xa1\xe9?'
p19
tp20
Rp21
tp22
a(S'the complete robot'
p23
g2
(g6
S'\x9f=\t\xd2\x1f\xdd\xe8?'
p24
tp25
Rp26
tp27
a(S"isaac asimov's robot city"
p28
g2
(g6
S"\xd5.\x93\xd9'\xb9\xe7?"
p29
tp30
Rp31
tp32
a(S'the rest of the robots'
p33
g2
(g6
S'\x1b\xe4:^\xbcH\xe7?'
p34
tp35
Rp36
tp37
a(S'i, robot'
p38
g2
(g6
S'\xf72K\x99\x13~\xe6?'
p39
tp40
Rp41
tp42
a(S'positronic brain'
p43
g2
(g6
S"\xe4\xee\x10\xaeH'\xe6?"
p44
tp45
Rp46
tp47
a(S'robot'
p48
g2
(g6
S'\r\x80\xd6L\xaf\x12\xe6?'
p49
tp50
Rp51
tp52
a(S'laws of robotics'
p53
g2
(g6
S'Eg\xa1\xae\x04\x06\xe6?'
p54
tp55
Rp56
tp57
a(S'robot dreams (short story)'
p58
g2
(g6
S'\x1c\x00z\xad\xdb\xc8\xe5?'
p59
tp60
Rp61
tp62
a(S'susan calvin'
p63
g2
(g6
S'Z\xee\xa9\xc5\xa0\xa4\xe5?'
p64
tp65
Rp66
tp67
a(S'robotics'
p68
g2
(g6
S'\x9c\xfc\xc5\x91a\x15\xe5?'
p69
tp70
Rp71
tp72
a(S"isaac asimov's caliban"
p73
g2
(g6
S'$\x0bP_\x19\xc6\xe4?'
p74
tp75
Rp76
tp77
a(S'robots and empire'
p78
g2
(g6
S'\xe6\x13\x84 \x91\xbc\xe4?'
p79
tp80
Rp81
tp82
a(S'list of robot series characters'
p83
g2
(g6
S'\x89\xe2|\xb5\x94\x85\xe4?'
p84
tp85
Rp86
tp87
a(S"foundation's friends"
p88
g2
(g6
S'\x04\xca\xa1lnr\xe4?'
p89
tp90
Rp91
tp92
a(S'robopsychology'
p93
g2
(g6
S'Th\xfd\n\xe6\xd9\xe3?'
p94
tp95
Rp96
tp97
a(S'. . . that thou art mindful of him'
p98
g2
(g6
S'\xf4\xca\x98=B\xaf\xe3?'
p99
tp100
Rp101
tp102
a(S'u.s. robots and mechanical men'
p103
g2
(g6
S'\xfa h\x06\x81\xa7\xe3?'
p104
tp105
Rp106
tp107
a(S'first law'
p108
g2
(g6
S'\xa7\x1d#\x97\x87\xa5\xe3?'
p109
tp110
Rp111
tp112
a(S'robot (disambiguation)'
p113
g2
(g6
S'\xf3\x18\x9b\xf7\xe4\x95\xe3?'
p114
tp115
Rp116
tp117
a(S'r. daneel olivaw'
p118
g2
(g6
S'\xea\xdf\x8er\xf3]\xe3?'
p119
tp120
Rp121
tp122
a(S'little lost robot'
p123
g2
(g6
S'q\xf2!?\xccW\xe3?'
p124
tp125
Rp126
tp127
a(S"isaac asimov's robot city: odyssey"
p128
g2
(g6
S'\xf7\xf2\x9f\x01\x95=\xe3?'
p129
tp130
Rp131
tp132
a(S'domestic robot'
p133
g2
(g6
S'Kg\xd1\xf4\t(\xe3?'
p134
tp135
Rp136
tp137
a(S'japanese robotics'
p138
g2
(g6
S'\x8c\xf5\x0fR\xf0\x1b\xe3?'
p139
tp140
Rp141
tp142
a(S"isaac asimov's robots and aliens"
p143
g2
(g6
S'\xba{4\xb1\x0f\xa5\xe2?'
p144
tp145
Rp146
tp147
a(S'outline of robotics'
p148
g2
(g6
S'#\xfd(O9\x81\xe2?'
p149
tp150
Rp151
tp152
a(S'robot economics'
p153
g2
(g6
S'\xf1\x13+\x07W_\xe2?'
p154
tp155
Rp156
tp157
a(S'the positronic man'
p158
g2
(g6
S'\xa4\xcb\x19\t\xf6L\xe2?'
p159
tp160
Rp161
tp162
a(S'victory unintentional'
p163
g2
(g6
S'\xac\x13\xe0&\xe6\x15\xe2?'
p164
tp165
Rp166
tp167
a(S'mobile robot'
p168
g2
(g6
S'Uo\xac~\xe5\x14\xe2?'
p169
tp170
Rp171
tp172
a(S'i, robot (film)'
p173
g2
(g6
S'\xc9x\x13g\x0b\x11\xe2?'
p174
tp175
Rp176
tp177
a(S'list of fictional robots and androids'
p178
g2
(g6
S'<\xf4\xefX\xb3\n\xe2?'
p179
tp180
Rp181
tp182
a(S'human\xe2\x80\x93robot interaction'
p183
g2
(g6
S'rB\xe6\xfe\x0f\x04\xe2?'
p184
tp185
Rp186
tp187
a(S"isaac asimov's robot city: cyborg"
p188
g2
(g6
S'\x9d\xf4;H\xf0a\xe1?'
p189
tp190
Rp191
tp192
a(S'liar! (short story)'
p193
g2
(g6
S'DsGr\x83E\xe1?'
p194
tp195
Rp196
tp197
a(S'social robot'
p198
g2
(g6
S'F\xdc>\x9d\x8b8\xe1?'
p199
tp200
Rp201
tp202
a(S'rescue robot'
p203
g2
(g6
S'\x00\nH\xe3P6\xe1?'
p204
tp205
Rp206
tp207
a(S'isaac asimov'
p208
g2
(g6
S"\x83'\x85\xaf\x8b\x0f\xe1?"
p209
tp210
Rp211
tp212
a(S'entertainment robot'
p213
g2
(g6
S'x\x036\xf9\xe4\x06\xe1?'
p214
tp215
Rp216
tp217
a(S'robot ethics'
p218
g2
(g6
S'\xb6\xb6\x19\xde\x05\xf8\xe0?'
p219
tp220
Rp221
tp222
a(S'r.u.r.'
p223
g2
(g6
S'W\xa9\xabV\x82\xe4\xe0?'
p224
tp225
Rp226
tp227
a(S'frankenstein complex'
p228
g2
(g6
S'\x81\x90\x81n<\xc7\xe0?'
p229
tp230
Rp231
tp232
a(S'death sentence (short story)'
p233
g2
(g6
S'\xbb\xd9\xd4H\x1e\xbf\xe0?'
p234
tp235
Rp236
tp237
a(S'robot wars (tv series)'
p238
g2
(g6
S'\x19\xb7\x95Na\xbe\xe0?'
p239
tp240
Rp241
tp242
a(S'industrial robot'
p243
g2
(g6
S'\xd4A\xab\xfbP\xab\xe0?'
p244
tp245
Rp246
tp247
a(S'history of robots'
p248
g2
(g6
S'\xa5\xeb\x16%\xc7\xa3\xe0?'
p249
tp250
Rp251
tp252
a(S'robot football'
p253
g2
(g6
S'\xc4I\x01\xcc\x9f\x92\xe0?'
p254
tp255
Rp256
tp257
a(S'taarlab'
p258
g2
(g6
S'\xf1;\x1e\xaco\x8b\xe0?'
p259
tp260
Rp261
tp262
a(S'glossary of robotics'
p263
g2
(g6
S'6\xfa\x015%\x8a\xe0?'
p264
tp265
Rp266
tp267
a(S'robot locomotion'
p268
g2
(g6
S'L\x85q\xfb\x01\x7f\xe0?'
p269
tp270
Rp271
tp272
a(S'active robots'
p273
g2
(g6
S'\xa5)vW\x05|\xe0?'
p274
tp275
Rp276
tp277
a(S'the bicentennial man'
p278
g2
(g6
S'\x08\xf0$A\x1dz\xe0?'
p279
tp280
Rp281
tp282
a(S'isaac asimov book series bibliography'
p283
g2
(g6
S'\xa2\x00\xc8u\xbe5\xe0?'
p284
tp285
Rp286
tp287
a(S'robot battle'
p288
g2
(g6
S'\xea\x13\x99V\x861\xe0?'
p289
tp290
Rp291
tp292
a(S'evidence (short story)'
p293
g2
(g6
S'S~f\xfb6#\xe0?'
p294
tp295
Rp296
tp297
a(S'mobile industrial robots'
p298
g2
(g6
S'\x17\xd3P\x15\xb2\x14\xe0?'
p299
tp300
Rp301
tp302
a(S'lenny (short story)'
p303
g2
(g6
S't\x12\x88\xb1\x83\x0e\xe0?'
p304
tp305
Rp306
tp307
a(S'robot city (video game)'
p308
g2
(g6
S'\xcc\x84vu\xc0\x0b\xe0?'
p309
tp310
Rp311
tp312
a(S'risk (short story)'
p313
g2
(g6
S'\xc3\xfba\x94\xd0\xba\xdf?'
p314
tp315
Rp316
tp317
a(S'mirror image (short story)'
p318
g2
(g6
S"'\xce1 G\xa4\xdf?"
p319
tp320
Rp321
tp322
a(S'robot combat'
p323
g2
(g6
S"\xb8P\x8a\x05'\xa4\xdf?"
p324
tp325
Rp326
tp327
a(S'isaac asimov bibliography (alphabetical)'
p328
g2
(g6
S',\x08\xa5B\xab\xa0\xdf?'
p329
tp330
Rp331
tp332
a(S'satisfaction guaranteed (short story)'
p333
g2
(g6
S'3f\xe8\xbd!\x83\xdf?'
p334
tp335
Rp336
tp337
a(S'spacer (asimov)'
p338
g2
(g6
S'\xfb\xa4z\xc3\xb8w\xdf?'
p339
tp340
Rp341
tp342
a(S'legged robot'
p343
g2
(g6
S"\x9d\x0b\xb8'\ns\xdf?"
p344
tp345
Rp346
tp347
a(S'index of robotics articles'
p348
g2
(g6
S'i\x9f;\x07\x19]\xdf?'
p349
tp350
Rp351
tp352
a(S'robot software'
p353
g2
(g6
S'4\xc1nr\xbcQ\xdf?'
p354
tp355
Rp356
tp357
a(S'humanoid robot'
p358
g2
(g6
S'\xf6.\x05\xeb\x0bK\xdf?'
p359
tp360
Rp361
tp362
a(S'the naked sun'
p363
g2
(g6
S'\xe6\xc9\xceM\x99=\xdf?'
p364
tp365
Rp366
tp367
a(S'cynthia breazeal'
p368
g2
(g6
S'\x1a\xd6\xde\x9b\x108\xdf?'
p369
tp370
Rp371
tp372
a(S'galactic empire (series)'
p373
g2
(g6
S'\xda\xb3q\x02\x02\x0b\xdf?'
p374
tp375
Rp376
tp377
a(S'sex life of robots'
p378
g2
(g6
S'~z\xa8\x06<\x07\xdf?'
p379
tp380
Rp381
tp382
a(S'ns-2 (character)'
p383
g2
(g6
S'\xdd\xf4*p\xf3\xfd\xde?'
p384
tp385
Rp386
tp387
a(S'salvius'
p388
g2
(g6
S'$\xd9l\xb8\xe4\xf0\xde?'
p389
tp390
Rp391
tp392
a(S'catch that rabbit'
p393
g2
(g6
S'\x82\xec\x95\xad\xe8\xcf\xde?'
p394
tp395
Rp396
tp397
a(S'artbots'
p398
g2
(g6
S'@\xd3\xb8\xbf\xca\xab\xde?'
p399
tp400
Rp401
tp402
a(S'galley slave'
p403
g2
(g6
S'\x1f\xad\xfds\xe1\x9d\xde?'
p404
tp405
Rp406
tp407
a(S'robots in literature'
p408
g2
(g6
S'\xca\x84\x84\x8d\xc5\x86\xde?'
p409
tp410
Rp411
tp412
a(S'irobot'
p413
g2
(g6
S'qo\xf9\xbf\xd8^\xde?'
p414
tp415
Rp416
tp417
a(S'autobiographies of isaac asimov'
p418
g2
(g6
S'CF\x9a\x9fI[\xde?'
p419
tp420
Rp421
tp422
a(S'i, robot (disambiguation)'
p423
g2
(g6
S'5\x921HXZ\xde?'
p424
tp425
Rp426
tp427
a(S'roboearth'
p428
g2
(g6
S'gc\xdd\xa2\x06Z\xde?'
p429
tp430
Rp431
tp432
a(S'service robot'
p433
g2
(g6
S'\xd5:\xea\x03q?\xde?'
p434
tp435
Rp436
tp437
a(S'robot dreams'
p438
g2
(g6
S'\x83\x84\xae\x16\xdf=\xde?'
p439
tp440
Rp441
tp442
a(S'japan robot association'
p443
g2
(g6
S'H\xe76\xa2\xf39\xde?'
p444
tp445
Rp446
tp447
a(S'robot galaxy'
p448
g2
(g6
S'q\x84:b\x909\xde?'
p449
tp450
Rp451
tp452
a(S'military robot'
p453
g2
(g6
S'\x11\n;\xd8\x809\xde?'
p454
tp455
Rp456
tp457
a(S'cubix'
p458
g2
(g6
S'\x7f\x18\xcd\xd5/8\xde?'
p459
tp460
Rp461
tp462
a(S'geography of robotics'
p463
g2
(g6
S'C\xf7\x91\xbf{1\xde?'
p464
tp465
Rp466
tp467
a(S'cholo (video game)'
p468
g2
(g6
S'U\xc0p\xb8\xea0\xde?'
p469
tp470
Rp471
tp472
a(S'robots (asimov anthology)'
p473
g2
(g6
S'\xbc\xf3\x16\x1a>\x13\xde?'
p474
tp475
Rp476
tp477
a(S'robogames'
p478
g2
(g6
S'\xc9\xc4<\xdd\x8a\x0c\xde?'
p479
tp480
Rp481
tp482
a(S'robotica'
p483
g2
(g6
S'TJ\x02\x11\xde\x07\xde?'
p484
tp485
Rp486
tp487
a(S'isaac asimov short stories bibliography'
p488
g2
(g6
S'\x85\xf2x#\x91\xfb\xdd?'
p489
tp490
Rp491
tp492
a(S'robot award'
p493
g2
(g6
S"\x88\xd1\x19'\xf8\xd8\xdd?"
p494
tp495
Rp496
tp497
a(S'the evitable conflict'
p498
g2
(g6
S'\n\xa2{\xa7<\xd5\xdd?'
p499
tp500
Rp501
tp502
a(S'real robot'
p503
g2
(g6
S'b\xa2\xcb*Y\xcf\xdd?'
p504
tp505
Rp506
tp507
a(S'war robots'
p508
g2
(g6
S'%\x06]\xfe\xc3\xaf\xdd?'
p509
tp510
Rp511
tp512
a(S'medical robot'
p513
g2
(g6
S'\xaa\xf1\xf6qL\x89\xdd?'
p514
tp515
Rp516
tp517
a(S'asimov (disambiguation)'
p518
g2
(g6
S'/\x11={\x8bQ\xdd?'
p519
tp520
Rp521
tp522
a(S'universal robots'
p523
g2
(g6
S'\x11\x95T/\xa0K\xdd?'
p524
tp525
Rp526
tp527
a(S'robotshop'
p528
g2
(g6
S'\x11\xf3\xbdUcC\xdd?'
p529
tp530
Rp531
tp532
a(S'them, robot'
p533
g2
(g6
S'\x95\x1f/\xd3P8\xdd?'
p534
tp535
Rp536
tp537
a(S'robbie (short story)'
p538
g2
(g6
S'\xda\xd9\xe7W\xe6.\xdd?'
p539
tp540
Rp541
tp542
a(S'robots (computer game)'
p543
g2
(g6
S'\xe3\xb3\x88\xbc:\xfd\xdc?'
p544
tp545
Rp546
tp547
a(S'combots'
p548
g2
(g6
S' \x89b\x14\x82\xf2\xdc?'
p549
tp550
Rp551
tp552
a(S'robot visions'
p553
g2
(g6
S'\xe0\x9f\x16Nr\xef\xdc?'
p554
tp555
Rp556
tp557
a(S"isaac asimov's robot city: perihelion"
p558
g2
(g6
S'\x13\x14@uU\xbf\xdc?'
p559
tp560
Rp561
tp562
a(S"isaac asimov's robots in time"
p563
g2
(g6
S'\x8f\xfbS\xd6\x89\xba\xdc?'
p564
tp565
Rp566
tp567
a(S'the early asimov'
p568
g2
(g6
S'\x1f@\xaaZ\xbe\xb3\xdc?'
p569
tp570
Rp571
tp572
a(S'robot wars: arenas of destruction'
p573
g2
(g6
S'IO\xde+#\xa3\xdc?'
p574
tp575
Rp576
tp577
a(S'autonomous robot'
p578
g2
(g6
S'\xfe(6\x84D\x98\xdc?'
p579
tp580
Rp581
tp582
a(S"let's get together (short story)"
p583
g2
(g6
S'5Vd\xb5\x1ec\xdc?'
p584
tp585
Rp586
tp587
a(S'robotwar'
p588
g2
(g6
S'4\x15\x7f=\xe8N\xdc?'
p589
tp590
Rp591
tp592
a(S'robot rescue'
p593
g2
(g6
S'\x12U\x13\xd8\x91B\xdc?'
p594
tp595
Rp596
tp597
a(S'feelix growing'
p598
g2
(g6
S'p/\xb8F\x1c;\xdc?'
p599
tp600
Rp601
tp602
a(S'international robot exhibition'
p603
g2
(g6
S'H%\x93\xa6\x87\x0b\xdc?'
p604
tp605
Rp606
tp607
a(S'music for robots (ep)'
p608
g2
(g6
S'87\xe4\xd4\x98\x04\xdc?'
p609
tp610
Rp611
tp612
a(S'elijah baley'
p613
g2
(g6
S'\xcd\xa8%\xa7G\x03\xdc?'
p614
tp615
Rp616
tp617
a(S'surface robotics laboratory-cmeri'
p618
g2
(g6
S'\xba\xcc\xa8\x93\x7f\xfb\xdb?'
p619
tp620
Rp621
tp622
a(S'termite-inspired robots'
p623
g2
(g6
S'\xfb\x11NPE\xec\xdb?'
p624
tp625
Rp626
tp627
a(S'the robots of death'
p628
g2
(g6
S'^c\x85@\xd3\xea\xdb?'
p629
tp630
Rp631
tp632
a(S'bio-inspired robotics'
p633
g2
(g6
S'\x9c*O\xc0\xf1\xe7\xdb?'
p634
tp635
Rp636
tp637
a(S'robotix (competition)'
p638
g2
(g6
S'?\xea\xfc\xbc\xaa\xe4\xdb?'
p639
tp640
Rp641
tp642
a(S'the tercentenary incident'
p643
g2
(g6
S'\xb4\x7f\x83\x17\x1a\xd3\xdb?'
p644
tp645
Rp646
tp647
a(S"isaac asimov's robot city: prodigy"
p648
g2
(g6
S'\xb4)L\x1f5\xd0\xdb?'
p649
tp650
Rp651
tp652
a(S'robot odyssey'
p653
g2
(g6
S'\x1a?\xe0_\x17\xc9\xdb?'
p654
tp655
Rp656
tp657
a(S'patrolbot'
p658
g2
(g6
S'\xdc\xa2\xda\x0b:\xb7\xdb?'
p659
tp660
Rp661
tp662
a(S'cobot'
p663
g2
(g6
S'\x1e\xcf~\xcf\x9e\x9c\xdb?'
p664
tp665
Rp666
tp667
a(S'list of doctor who robots'
p668
g2
(g6
S'_\xe7\xc9\xb9\x8c\x96\xdb?'
p669
tp670
Rp671
tp672
a(S'robotis bioloid'
p673
g2
(g6
S'u\x9e:e\x86\x92\xdb?'
p674
tp675
Rp676
tp677
a(S'wakamaru'
p678
g2
(g6
S'$\xe4/$\xc6\x90\xdb?'
p679
tp680
Rp681
tp682
a(S'i, robot (short story)'
p683
g2
(g6
S'k\x8b\x01\xb9\xe5\x88\xdb?'
p684
tp685
Rp686
tp687
a(S'robot al-76 goes astray'
p688
g2
(g6
S'\x96\xf6v\x87\x00\x88\xdb?'
p689
tp690
Rp691
tp692
a(S"isaac asimov's robot city: suspicion"
p693
g2
(g6
S's\xc2\x9d\xdd\xd7d\xdb?'
p694
tp695
Rp696
tp697
a(S'ultrabots'
p698
g2
(g6
S'=\xc0Z\xa1\xe9a\xdb?'
p699
tp700
Rp701
tp702
a(S'wu yulu'
p703
g2
(g6
S'[^n\xc4\xa6;\xdb?'
p704
tp705
Rp706
tp707
a(S'reason (short story)'
p708
g2
(g6
S'&\xb3Z\xcc?*\xdb?'
p709
tp710
Rp711
tp712
a(S'escape!'
p713
g2
(g6
S"\x99.\x1c'\xc9(\xdb?"
p714
tp715
Rp716
tp717
a(S'robot competition'
p718
g2
(g6
S'\x94=[\xf1c\x1e\xdb?'
p719
tp720
Rp721
tp722
a(S'institute of robotics in scandinavia ab'
p723
g2
(g6
S'\x83B\xe3F\xcb\x14\xdb?'
p724
tp725
Rp726
tp727
a(S'night stalker (video game)'
p728
g2
(g6
S'\xa7~\xb5\xbf\x87\xec\xda?'
p729
tp730
Rp731
tp732
a(S'leonardo (robot)'
p733
g2
(g6
S'k)\xa7\xa4u\xdf\xda?'
p734
tp735
Rp736
tp737
a(S'autonomous research robot'
p738
g2
(g6
S'DO\x0b\xc9[\xdb\xda?'
p739
tp740
Rp741
tp742
a(S"asimov's guide to shakespeare"
p743
g2
(g6
S'\x07\x88G\xad\xe5\xc1\xda?'
p744
tp745
Rp746
tp747
a(S'janet asimov'
p748
g2
(g6
S'\x1dN6\x1ae\xb9\xda?'
p749
tp750
Rp751
tp752
a(S'ai takeovers in popular culture'
p753
g2
(g6
S'(\xda_\xcd\x88\xb0\xda?'
p754
tp755
Rp756
tp757
a(S'robot wars: extreme destruction'
p758
g2
(g6
S'\xe2\x99\xd5\xc5\x8e\xaf\xda?'
p759
tp760
Rp761
tp762
a(S'loss of sensation'
p763
g2
(g6
S'\xb2\x12zk\xba\xad\xda?'
p764
tp765
Rp766
tp767
a(S'off-line programming (robotics)'
p768
g2
(g6
S'4\xcc\xbf*~\x98\xda?'
p769
tp770
Rp771
tp772
a(S'roboy'
p773
g2
(g6
S')\xa3{A\xb2\x80\xda?'
p774
tp775
Rp776
tp777
a(S'rocketship 2010'
p778
g2
(g6
S'\xf7\x83\x82\\\xeax\xda?'
p779
tp780
Rp781
tp782
a(S'puck collect'
p783
g2
(g6
S'\xafA}\xb9 t\xda?'
p784
tp785
Rp786
tp787
a(S'the caves of steel'
p788
g2
(g6
S'\xe6\xb9Q\x1d\xfar\xda?'
p789
tp790
Rp791
tp792
a(S'foundation series'
p793
g2
(g6
S'\x0f\x00"(4o\xda?'
p794
tp795
Rp796
tp797
a(S'activmedia robotics'
p798
g2
(g6
S'=%9;\x97b\xda?'
p799
tp800
Rp801
tp802
a(S'fembot'
p803
g2
(g6
S'\x91\xc1\xb9\xa9\x80a\xda?'
p804
tp805
Rp806
tp807
a(S'science fiction by asimov'
p808
g2
(g6
S'l\x16%\xc2.a\xda?'
p809
tp810
Rp811
tp812
a(S'ricochet robot'
p813
g2
(g6
S'\xd4\xaa\x1d!\xe1P\xda?'
p814
tp815
Rp816
tp817
a(S'open-source robotics'
p818
g2
(g6
S'e\x91\xabz~L\xda?'
p819
tp820
Rp821
tp822
a(S'telerobotics'
p823
g2
(g6
S'\xdd\xa4G\xd6GK\xda?'
p824
tp825
Rp826
tp827
a(S'war with the robots'
p828
g2
(g6
S'\x14+\xa6\xcf\x82F\xda?'
p829
tp830
Rp831
tp832
a(S'mark tilden'
p833
g2
(g6
S'\xe5\x19\xf1\xd0E?\xda?'
p834
tp835
Rp836
tp837
a(S'sociorobotics'
p838
g2
(g6
S'\x96\t\xd8\x1b\t9\xda?'
p839
tp840
Rp841
tp842
a(S'transforming robots'
p843
g2
(g6
S'E\xa2\xd9\x89\xe01\xda?'
p844
tp845
Rp846
tp847
a(S'foundation and chaos'
p848
g2
(g6
S"\xbf\x9aU\x03\xde'\xda?"
p849
tp850
Rp851
tp852
a(S'settler (asimov)'
p853
g2
(g6
S'<\x0f\xe7\xc4D#\xda?'
p854
tp855
Rp856
tp857
a(S"rock 'em sock 'em robots"
p858
g2
(g6
S'\x08\x19B\xb6&\n\xda?'
p859
tp860
Rp861
tp862
a(S'norby (disambiguation)'
p863
g2
(g6
S'\xe4\xbaU\x08o\x08\xda?'
p864
tp865
Rp866
tp867
a(S'blendo'
p868
g2
(g6
S'\xb94y\xa0[\xff\xd9?'
p869
tp870
Rp871
tp872
a(S'kilobot'
p873
g2
(g6
S']\x9b\xdf>\x0c\xfd\xd9?'
p874
tp875
Rp876
tp877
a(S'the robots of dawn'
p878
g2
(g6
S'F\xb6\xdd\xd4\x84\xef\xd9?'
p879
tp880
Rp881
tp882
a(S'isaac asimov awards'
p883
g2
(g6
S'\x81t3=\xc7\xd9\xd9?'
p884
tp885
Rp886
tp887
a(S"the intelligent man's guide to science"
p888
g2
(g6
S'\xe3\x88\xad\xdb\x9d\xd8\xd9?'
p889
tp890
Rp891
tp892
a(S'tik-tok (novel)'
p893
g2
(g6
S'\x9a\xee6\x8c\xd5\xd5\xd9?'
p894
tp895
Rp896
tp897
a(S'robot arena 2: design and destroy'
p898
g2
(g6
S'\xaf\xc6\xd6Uy\xd5\xd9?'
p899
tp900
Rp901
tp902
a(S'robot magazine'
p903
g2
(g6
S'k\xbf\x8a\x18^\xc4\xd9?'
p904
tp905
Rp906
tp907
a(S"isaac asimov's inferno"
p908
g2
(g6
S'\xe7\xda\x8e\xd7>\xc0\xd9?'
p909
tp910
Rp911
tp912
a(S'tosy'
p913
g2
(g6
S'\x11m4_\xca\xa7\xd9?'
p914
tp915
Rp916
tp917
a(S'world robot olympiad'
p918
g2
(g6
S')\x92\x80\xa4\x1b\xa6\xd9?'
p919
tp920
Rp921
tp922
a(S'ethics of artificial intelligence'
p923
g2
(g6
S'\xd7\xd5\xcal\x9d\xa3\xd9?'
p924
tp925
Rp926
tp927
a(S'tomotaka takahashi'
p928
g2
(g6
S'ZI_\xed\xb4\x8e\xd9?'
p929
tp930
Rp931
tp932
a(S'robot arena'
p933
g2
(g6
S'\xa5F\x1fF\x10x\xd9?'
p934
tp935
Rp936
tp937
a(S'sex robot'
p938
g2
(g6
S'\xff\x7f\x97U2q\xd9?'
p939
tp940
Rp941
tp942
a(S'beam robotics'
p943
g2
(g6
S'\xebq\x96\xb4)Z\xd9?'
p944
tp945
Rp946
tp947
a(S'robot learning'
p948
g2
(g6
S'Ts\xa4\xb7\xfeR\xd9?'
p949
tp950
Rp951
tp952
a(S'ibn sina robot'
p953
g2
(g6
S'Oh\xf2\xc2\xf7C\xd9?'
p954
tp955
Rp956
tp957
a(S'robofest'
p958
g2
(g6
S"b'\x1a\x8f>,\xd9?"
p959
tp960
Rp961
tp962
a(S'land walker'
p963
g2
(g6
S'\x80\x14\xdb\xb3;+\xd9?'
p964
tp965
Rp966
tp967
a(S'robots exclusion standard'
p968
g2
(g6
S')9 _\x9e\x1a\xd9?'
p969
tp970
Rp971
tp972
a(S'robots (song)'
p973
g2
(g6
S'\x93\xf9\xca\x07\xdf\x15\xd9?'
p974
tp975
Rp976
tp977
a(S'anthrobotics'
p978
g2
(g6
S'q\xb1La(\x14\xd9?'
p979
tp980
Rp981
tp982
a(S'thiotimoline'
p983
g2
(g6
S'\x13\xd7\xac}\xf8\x12\xd9?'
p984
tp985
Rp986
tp987
a(S'khr-1'
p988
g2
(g6
S'\xf0\x84$E<\x01\xd9?'
p989
tp990
Rp991
tp992
a(S'paint robot'
p993
g2
(g6
S'\xce\xc1WUl\xf3\xd8?'
p994
tp995
Rp996
tp997
a(S'android (robot)'
p998
g2
(g6
S'G\x04O\xaat\xf0\xd8?'
p999
tp1000
Rp1001
tp1002
a(S'list of laws'
p1003
g2
(g6
S'\xef\xe0\x0e\xbe\x97\xed\xd8?'
p1004
tp1005
Rp1006
tp1007
a(S'black friar of the flame'
p1008
g2
(g6
S'\x12\x07\xd8\x91f\xe5\xd8?'
p1009
tp1010
Rp1011
tp1012
a(S'player project'
p1013
g2
(g6
S'L\xfc[}^\xe5\xd8?'
p1014
tp1015
Rp1016
tp1017
a(S'chicago engineering design team'
p1018
g2
(g6
S'\xd4g\xe6\xe9\x0b\xe3\xd8?'
p1019
tp1020
Rp1021
tp1022
a(S'eric asimov'
p1023
g2
(g6
S'\xad\xab\xady:\xce\xd8?'
p1024
tp1025
Rp1026
tp1027
a(S'cloud robotics'
p1028
g2
(g6
S'\xa1\xb5\xfe@\x85\xcc\xd8?'
p1029
tp1030
Rp1031
tp1032
a(S'robots (1988 film)'
p1033
g2
(g6
S'/\xc3\r\xc1\xb4\xb6\xd8?'
p1034
tp1035
Rp1036
tp1037
a(S'buy jupiter and other stories'
p1038
g2
(g6
S'^\x90C\xfb\\\xae\xd8?'
p1039
tp1040
Rp1041
tp1042
a(S'ant robotics'
p1043
g2
(g6
S'T\x1b\xe3\xec\xb1\xad\xd8?'
p1044
tp1045
Rp1046
tp1047
a(S'fear of a bot planet'
p1048
g2
(g6
S'y\xb5\xed\x93\xde\xaa\xd8?'
p1049
tp1050
Rp1051
tp1052
a(S'nickelodeon robot wars'
p1053
g2
(g6
S'\xa9s\xa7\xf0\xf5\xa1\xd8?'
p1054
tp1055
Rp1056
tp1057
a(S"asimov's science fiction: 30th anniversary anthology"
p1058
g2
(g6
S'+\xb1\xe3\xb6\xb2\x9f\xd8?'
p1059
tp1060
Rp1061
tp1062
a(S'blind alley'
p1063
g2
(g6
S'$\xc6\x9d\xda\xf6\x98\xd8?'
p1064
tp1065
Rp1066
tp1067
a(S'botseer'
p1068
g2
(g6
S'd\x18c-_\x85\xd8?'
p1069
tp1070
Rp1071
tp1072
a(S'rise 2: resurrection'
p1073
g2
(g6
S'\xc3\xae\x80\xdaL\x83\xd8?'
p1074
tp1075
Rp1076
tp1077
a(S'almost human: making robots think'
p1078
g2
(g6
S'\xe0\xde\x93\xfebt\xd8?'
p1079
tp1080
Rp1081
tp1082
a(S'personal robot'
p1083
g2
(g6
S'\xfb\xfe\x1e\x1c\x03m\xd8?'
p1084
tp1085
Rp1086
tp1087
a(S'robotic sensing'
p1088
g2
(g6
S'\x8e95\x8f\xb0l\xd8?'
p1089
tp1090
Rp1091
tp1092
a(S'analog robot'
p1093
g2
(g6
S'\xf6\xc6:\xb9\xdek\xd8?'
p1094
tp1095
Rp1096
tp1097
a(S'robot wars: metal mayhem'
p1098
g2
(g6
S'\x81$iR\xe8g\xd8?'
p1099
tp1100
Rp1101
tp1102
a(S'snakebot'
p1103
g2
(g6
S'\x87F\x18\xd5\xe5M\xd8?'
p1104
tp1105
Rp1106
tp1107
a(S'american robotics'
p1108
g2
(g6
S'\xa0L\xd9\xe4\x10M\xd8?'
p1109
tp1110
Rp1111
tp1112
a(S'behavior-based robotics'
p1113
g2
(g6
S',\xef\x02\\\x99/\xd8?'
p1114
tp1115
Rp1116
tp1117
a(S'jack skillingstead'
p1118
g2
(g6
S'\xf2q\x18\xa8\x00-\xd8?'
p1119
tp1120
Rp1121
tp1122
a(S'the deep (short story)'
p1123
g2
(g6
S'An\x89\x1d\xf4(\xd8?'
p1124
tp1125
Rp1126
tp1127
a(S'robocup middle size league'
p1128
g2
(g6
S'\xcf\x86l\x9f\x16%\xd8?'
p1129
tp1130
Rp1131
tp1132
a(S'botball'
p1133
g2
(g6
S'c\xf9r8M#\xd8?'
p1134
tp1135
Rp1136
tp1137
a(S'heredity (short story)'
p1138
g2
(g6
S'\x08\x00\x84%\xf5\x17\xd8?'
p1139
tp1140
Rp1141
tp1142
a(S'three laws'
p1143
g2
(g6
S'\xe8\x01\x81\x8f\xee\x14\xd8?'
p1144
tp1145
Rp1146
tp1147
a(S'robot hall of fame'
p1148
g2
(g6
S'?\x8d\x9fUr\x10\xd8?'
p1149
tp1150
Rp1151
tp1152
a(S'2430 a.d.'
p1153
g2
(g6
S'\x92\xab\x04me\xff\xd7?'
p1154
tp1155
Rp1156
tp1157
a(S'the trons'
p1158
g2
(g6
S'\x9c\x99\x10\xe15\xfa\xd7?'
p1159
tp1160
Rp1161
tp1162
a(S'robot (comics)'
p1163
g2
(g6
S'\xbe\x86\x90R\xaf\xf2\xd7?'
p1164
tp1165
Rp1166
tp1167
a(S'cartesian coordinate robot'
p1168
g2
(g6
S'+\xb2a\x81+\xed\xd7?'
p1169
tp1170
Rp1171
tp1172
a(S'berzerk (video game)'
p1173
g2
(g6
S'\x03W\x92Q\xf2\xe7\xd7?'
p1174
tp1175
Rp1176
tp1177
a(S'swedish robotics society'
p1178
g2
(g6
S'\x1c\xc3\xd4\xa9~\xde\xd7?'
p1179
tp1180
Rp1181
tp1182
a(S'iso 10218'
p1183
g2
(g6
S'sJ\xd9\xb8:\xce\xd7?'
p1184
tp1185
Rp1186
tp1187
a(S'slim john'
p1188
g2
(g6
S'\x19$@\xefT\xcb\xd7?'
p1189
tp1190
Rp1191
tp1192
a(S'free the robots'
p1193
g2
(g6
S'Q\x16%\x05\xaf\xca\xd7?'
p1194
tp1195
Rp1196
tp1197
a(S'mindrover'
p1198
g2
(g6
S'\xcb\xd3\x01\xb4\xc3\xc7\xd7?'
p1199
tp1200
Rp1201
tp1202
a(S'zektor'
p1203
g2
(g6
S'~\x88\xdbT\xd5\xb7\xd7?'
p1204
tp1205
Rp1206
tp1207
a(S't-52 enryu'
p1208
g2
(g6
S'\xe9\xc5|\xed\x19\xa8\xd7?'
p1209
tp1210
Rp1211
tp1212
a(S'the asimov chronicles: fifty years of isaac asimov'
p1213
g2
(g6
S'\xba\xe5\x05\x14i\xa0\xd7?'
p1214
tp1215
Rp1216
tp1217
a(S'big game (short story)'
p1218
g2
(g6
S'Y\xb9\xdf\xd0\xdf\x97\xd7?'
p1219
tp1220
Rp1221
tp1222
a(S'asimo'
p1223
g2
(g6
S'\x85Rx\x87\xa1\x86\xd7?'
p1224
tp1225
Rp1226
tp1227
a(S'robot kit'
p1228
g2
(g6
S'W\r\xf1\xe3\x15\x84\xd7?'
p1229
tp1230
Rp1231
tp1232
a(S'insert knob a in hole b'
p1233
g2
(g6
S'\xf0\x9b\xb2\xdbh`\xd7?'
p1234
tp1235
Rp1236
tp1237
a(S'headlander'
p1238
g2
(g6
S'l\xe9\x01}``\xd7?'
p1239
tp1240
Rp1241
tp1242
a(S'runaround (story)'
p1243
g2
(g6
S'\xe2\x9d\x8d\xb5E^\xd7?'
p1244
tp1245
Rp1246
tp1247
a(S'robot warriors'
p1248
g2
(g6
S'\xe6h\xcb\x85\xffZ\xd7?'
p1249
tp1250
Rp1251
tp1252
a(S'robo story'
p1253
g2
(g6
S'\x82\x06(\xb9\xbdY\xd7?'
p1254
tp1255
Rp1256
tp1257
a(S'isaac asimov presents the great sf stories 9 (1947)'
p1258
g2
(g6
S'\xda\xc4\xc5\x8d1W\xd7?'
p1259
tp1260
Rp1261
tp1262
a(S'battlebots'
p1263
g2
(g6
S'\xe50\x0e\xb7\nS\xd7?'
p1264
tp1265
Rp1266
tp1267
a(S'robot overlords'
p1268
g2
(g6
S'2\xd8R\xf3tB\xd7?'
p1269
tp1270
Rp1271
tp1272
a(S'exile to hell'
p1273
g2
(g6
S'\x8d^\xa4v\xa2=\xd7?'
p1274
tp1275
Rp1276
tp1277
a(S'deterministic rendezvous problem'
p1278
g2
(g6
S'\xaf\xc5\x1c\x10\x85<\xd7?'
p1279
tp1280
Rp1281
tp1282
a(S'the stars, like dust'
p1283
g2
(g6
S"\xc1'\xee5b5\xd7?"
p1284
tp1285
Rp1286
tp1287
a(S'robocup junior'
p1288
g2
(g6
S'\xfc\x0c\x04}k.\xd7?'
p1289
tp1290
Rp1291
tp1292
a(S'cable robots'
p1293
g2
(g6
S'/Z\x06o\x08(\xd7?'
p1294
tp1295
Rp1296
tp1297
a(S'frenzy (1982 video game)'
p1298
g2
(g6
S'\xf1M\x1d:\xb7\x12\xd7?'
p1299
tp1300
Rp1301
tp1302
a(S'rescue robots'
p1303
g2
(g6
S':\xab\x0bf\xcc\x0f\xd7?'
p1304
tp1305
Rp1306
tp1307
a(S'solaria'
p1308
g2
(g6
S'\x1c&\x9d\x0e\xbb\n\xd7?'
p1309
tp1310
Rp1311
tp1312
a(S'differential wheeled robot'
p1313
g2
(g6
S'>\x88\x99\xac\x00\x07\xd7?'
p1314
tp1315
Rp1316
tp1317
a(S'razer (robot)'
p1318
g2
(g6
S'(\xb1\xe3\xd0\x89\x06\xd7?'
p1319
tp1320
Rp1321
tp1322
a(S"asimov's science fiction"
p1323
g2
(g6
S'\xe7\x9e\x85\xfbu\x06\xd7?'
p1324
tp1325
Rp1326
tp1327
a(S'hexapod (robotics)'
p1328
g2
(g6
S'\xc7\xcap\xc9\xcc\x02\xd7?'
p1329
tp1330
Rp1331
tp1332
a(S'nikola kesarovski'
p1333
g2
(g6
S'\xef&%\xdb9\x02\xd7?'
p1334
tp1335
Rp1336
tp1337
a(S'robot wars: advanced destruction'
p1338
g2
(g6
S'\xe7\xcc*\x00\xd0\xfe\xd6?'
p1339
tp1340
Rp1341
tp1342
a(S'nether earth'
p1343
g2
(g6
S'/\x80\xe9u\x06\xfb\xd6?'
p1344
tp1345
Rp1346
tp1347
a(S'maize craze'
p1348
g2
(g6
S'xj\x96\x1a\xea\xf3\xd6?'
p1349
tp1350
Rp1351
tp1352
a(S"isaac asimov's wonderful worlds of science fiction"
p1353
g2
(g6
S'i\n+\xc6\xbb\xf1\xd6?'
p1354
tp1355
Rp1356
tp1357
a(S'robot taekwon v'
p1358
g2
(g6
S'NP}\xe7\x9c\xf0\xd6?'
p1359
tp1360
Rp1361
tp1362
a(S'large workspace robot'
p1363
g2
(g6
S'!\xf2<\xf8\x14\xec\xd6?'
p1364
tp1365
Rp1366
tp1367
a(S'first lego league'
p1368
g2
(g6
S'\x99\x02\x89\xf4\xfc\xcd\xd6?'
p1369
tp1370
Rp1371
tp1372
a(S'robot battle (macintosh game)'
p1373
g2
(g6
S'\x10K\xc9\xa3\x15\xcb\xd6?'
p1374
tp1375
Rp1376
tp1377
a(S'nancy kress bibliography'
p1378
g2
(g6
S'UAcR\x85\xca\xd6?'
p1379
tp1380
Rp1381
tp1382
a(S'articulated robot'
p1383
g2
(g6
S'\x03s\xf4\xa97\xc4\xd6?'
p1384
tp1385
Rp1386
tp1387
a(S"asimov's sf adventure magazine"
p1388
g2
(g6
S'\x7f\xb2\xf8q(\xc4\xd6?'
p1389
tp1390
Rp1391
tp1392
a(S'rodney brooks'
p1393
g2
(g6
S'\xc4"\xf6\x95\xa5\xc0\xd6?'
p1394
tp1395
Rp1396
tp1397
a(S'before the golden age'
p1398
g2
(g6
S'}\xe4\xb0\x7fF\xbd\xd6?'
p1399
tp1400
Rp1401
tp1402
a(S'riot runners'
p1403
g2
(g6
S'\xd1\xf7]\x7f\xdd\xb6\xd6?'
p1404
tp1405
Rp1406
tp1407
a(S'franchise (short story)'
p1408
g2
(g6
S'\\\xa4.\xe5\xfd\xb3\xd6?'
p1409
tp1410
Rp1411
tp1412
a(S'invincible robo trider g7'
p1413
g2
(g6
S'OI\xb2\x8d\xfe\xb0\xd6?'
p1414
tp1415
Rp1416
tp1417
a(S'robot calibration'
p1418
g2
(g6
S'\xf0\xa4L\xb3\xc7\xb0\xd6?'
p1419
tp1420
Rp1421
tp1422
a(S'biorobotics'
p1423
g2
(g6
S'\xfa\x10!+\xd4\xae\xd6?'
p1424
tp1425
Rp1426
tp1427
a(S'theodore sturgeon award'
p1428
g2
(g6
S'\xe5\xcc\xe3\xdd\xa8\xac\xd6?'
p1429
tp1430
Rp1431
tp1432
a(S'the portable star'
p1433
g2
(g6
S'\xd2\x9a\xc1\xd3\xcb\xa3\xd6?'
p1434
tp1435
Rp1436
tp1437
a(S'dustbot'
p1438
g2
(g6
S'\xf3\x85\xf6\xba\xfa\x95\xd6?'
p1439
tp1440
Rp1441
tp1442
a(S'toyota partner robot'
p1443
g2
(g6
S'3M\x93\x19\xd1\x91\xd6?'
p1444
tp1445
Rp1446
tp1447
a(S'shawna mccarthy'
p1448
g2
(g6
S'\xff\xa2\xfcB!\x8a\xd6?'
p1449
tp1450
Rp1451
tp1452
a(S'robot app store'
p1453
g2
(g6
S'E\xdf?v\xbe\x87\xd6?'
p1454
tp1455
Rp1456
tp1457
a(S'robot b-9'
p1458
g2
(g6
S'\xc5Z\x06\xe0\xb0{\xd6?'
p1459
tp1460
Rp1461
tp1462
a(S'scara'
p1463
g2
(g6
S'X\xecy\xb1\xa9z\xd6?'
p1464
tp1465
Rp1466
tp1467
a(S'question (short story)'
p1468
g2
(g6
S'C\xbe=\xfe\xc4f\xd6?'
p1469
tp1470
Rp1471
tp1472
a(S'robot (dance)'
p1473
g2
(g6
S'\xf5%\xcc\x93\xeeF\xd6?'
p1474
tp1475
Rp1476
tp1477
a(S'institute for personal robots in education'
p1478
g2
(g6
S'\x98\xbbN\xc6\xd2F\xd6?'
p1479
tp1480
Rp1481
tp1482
a(S'programming by demonstration'
p1483
g2
(g6
S' \x0e\x00H\xfaE\xd6?'
p1484
tp1485
Rp1486
tp1487
a(S'rehabilitation robotics'
p1488
g2
(g6
S'C\x1a\xe9\x18,;\xd6?'
p1489
tp1490
Rp1491
tp1492
a(S'actroid'
p1493
g2
(g6
S'v\xcf\x84\xc7\x059\xd6?'
p1494
tp1495
Rp1496
tp1497
a(S'ituro'
p1498
g2
(g6
S'\x1c\xb7\xa1&?2\xd6?'
p1499
tp1500
Rp1501
tp1502
a(S'wake-up robot problem'
p1503
g2
(g6
S'\x88y7\xfc\xb8-\xd6?'
p1504
tp1505
Rp1506
tp1507
a(S'captured! by robots'
p1508
g2
(g6
S'\xb7\xa1%P"*\xd6?'
p1509
tp1510
Rp1511
tp1512
a.