(lp0
(S'topic model'
p1
cnumpy.core.multiarray
scalar
p2
(cnumpy
dtype
p3
(S'f8'
p4
I0
I1
tp5
Rp6
(I3
S'<'
p7
NNNI-1
I-1
I0
tp8
bS'\xf6\xff\xff\xff\xff\xff\xef?'
p9
tp10
Rp11
tp12
a(S'latent dirichlet allocation'
p13
g2
(g6
S'm\x0e\xf2\xaa=e\xe2?'
p14
tp15
Rp16
tp17
a(S'dynamic topic model'
p18
g2
(g6
S'p\xcf\xd4\x92\xf3\x00\xe2?'
p19
tp20
Rp21
tp22
a(S'topic'
p23
g2
(g6
S'\x022\xa4\x9e\x8a\xc3\xe1?'
p24
tp25
Rp26
tp27
a(S'topic maps'
p28
g2
(g6
S'l\xe3\x94\xdcTJ\xdf?'
p29
tp30
Rp31
tp32
a(S'topic and comment'
p33
g2
(g6
S"': \x04@?\xdd?"
p34
tp35
Rp36
tp37
a(S'topic-prominent language'
p38
g2
(g6
S"\xa9\x0e\xb6'\xc1\xe6\xdb?"
p39
tp40
Rp41
tp42
a(S'pachinko allocation'
p43
g2
(g6
S'\xdd\xdd\xe8\xa9\xaa\x05\xdb?'
p44
tp45
Rp46
tp47
a(S'topic: the washington & jefferson college review'
p48
g2
(g6
S'\x85\xd0q\xeaVz\xda?'
p49
tp50
Rp51
tp52
a(S"history's mysteries"
p53
g2
(g6
S'S\x97\xc3{\xc1=\xda?'
p54
tp55
Rp56
tp57
a(S's.c.a.m.p.e.r'
p58
g2
(g6
S'l|(2\xddm\xd9?'
p59
tp60
Rp61
tp62
a(S'outburst (game)'
p63
g2
(g6
S"\x99'\xa2\x96\xe4\x88\xd8?"
p64
tp65
Rp66
tp67
a(S'hot topic'
p68
g2
(g6
S'\xe6\xc95\teB\xd7?'
p69
tp70
Rp71
tp72
a(S'topic marker'
p73
g2
(g6
S'\xca\xf3\x02q9B\xd7?'
p74
tp75
Rp76
tp77
a(S'off topic'
p78
g2
(g6
S'\xb5\xce\xf0\x8c\xb9P\xd6?'
p79
tp80
Rp81
tp82
a(S'united states case law topical index'
p83
g2
(g6
S'\xdfH<\xd8W\xc9\xd5?'
p84
tp85
Rp86
tp87
a(S'international association of students in agricultural and related sciences'
p88
g2
(g6
S'9\xd7^R\x8e\xba\xd5?'
p89
tp90
Rp91
tp92
a(S'probabilistic latent semantic analysis'
p93
g2
(g6
S'\xfd\xd30\x01\x07\xa4\xd5?'
p94
tp95
Rp96
tp97
a(S'discourse topic'
p98
g2
(g6
S'\x15\x9a\xdd\xb7t\x80\xd5?'
p99
tp100
Rp101
tp102
a(S'bid 770'
p103
g2
(g6
S'\xbb\xc9\xa1\xc1)g\xd5?'
p104
tp105
Rp106
tp107
a(S'david blei'
p108
g2
(g6
S'\xda\xad\xc5\x0b\x1c,\xd5?'
p109
tp110
Rp111
tp112
a(S'ib group 4 subjects'
p113
g2
(g6
S'\x14\r\x00KV(\xd5?'
p114
tp115
Rp116
tp117
a(S'gensim'
p118
g2
(g6
S'\xbdUJ\x9ec\xc5\xd4?'
p119
tp120
Rp121
tp122
a(S'westmeath topic'
p123
g2
(g6
S'g\xef-?\xb5\xb4\xd4?'
p124
tp125
Rp126
tp127
a(S'more (application)'
p128
g2
(g6
S'\xfd|\x89\xc0\x01<\xd4?'
p129
tp130
Rp131
tp132
a(S'systems modeling'
p133
g2
(g6
S"\x0f\xe7\xc8\xcb'\xef\xd3?"
p134
tp135
Rp136
tp137
a(S'multiscale modeling'
p138
g2
(g6
S'q\xbdn\xeb$\xc0\xd3?'
p139
tp140
Rp141
tp142
a(S'modeling language'
p143
g2
(g6
S'\xcc#\xb5\xdb\xbay\xd3?'
p144
tp145
Rp146
tp147
a(S'table topic'
p148
g2
(g6
S'\xa5\x9ef\xd5\xb9A\xd3?'
p149
tp150
Rp151
tp152
a(S'magportal'
p153
g2
(g6
S'\xc9\x06I\xc9D\xda\xd2?'
p154
tp155
Rp156
tp157
a(S'common modeling infrastructure'
p158
g2
(g6
S'\xe7\xc1#\xb8\xd7\xba\xd2?'
p159
tp160
Rp161
tp162
a(S'participatory modeling'
p163
g2
(g6
S'\x85\x15v\xe8N\x8b\xd2?'
p164
tp165
Rp166
tp167
a(S'prewriting'
p168
g2
(g6
S'?+\x92\x1bI\x80\xd2?'
p169
tp170
Rp171
tp172
a(S'dispatches (magazine)'
p173
g2
(g6
S'\x9a\x92\xf0]\x7f}\xd2?'
p174
tp175
Rp176
tp177
a(S'mallet (software project)'
p178
g2
(g6
S'\x83\x03\x16m\x97&\xd2?'
p179
tp180
Rp181
tp182
a(S'modeling website'
p183
g2
(g6
S'\x8c\xf9\x84\xbc\x03\x18\xd2?'
p184
tp185
Rp186
tp187
a(S'sketch-based modeling'
p188
g2
(g6
S'\x98a\x0b\n\x12\xb7\xd1?'
p189
tp190
Rp191
tp192
a(S'list of the best thing i ever ate episodes'
p193
g2
(g6
S'\xffo\xc6\xd1U\xb1\xd1?'
p194
tp195
Rp196
tp197
a(S'3d modeling'
p198
g2
(g6
S'\xb5]\xd4\xde\xa8\xa3\xd1?'
p199
tp200
Rp201
tp202
a(S'information structure'
p203
g2
(g6
S'\xc6\xbd\xc8?\\\x93\xd1?'
p204
tp205
Rp206
tp207
a(S'flanagan brothers'
p208
g2
(g6
S'\x98\xd5\x9a\xea\xd0e\xd1?'
p209
tp210
Rp211
tp212
a(S'air quality modeling group'
p213
g2
(g6
S'\xaf\xca\xde\xec\xfe_\xd1?'
p214
tp215
Rp216
tp217
a(S'return on modeling effort'
p218
g2
(g6
S'|\xb0co\xa7\x1f\xd1?'
p219
tp220
Rp221
tp222
a(S'data modeling'
p223
g2
(g6
S'PwG\xb7\x10\x1a\xd1?'
p224
tp225
Rp226
tp227
a(S'process modeling'
p228
g2
(g6
S'\xe0e\xea\x8b\xb5\xf6\xd0?'
p229
tp230
Rp231
tp232
a(S'idef'
p233
g2
(g6
S',\xfa\xa3.|\x9e\xd0?'
p234
tp235
Rp236
tp237
a(S'bitemporal modeling'
p238
g2
(g6
S'\xaa\x899\x14\xc5s\xd0?'
p239
tp240
Rp241
tp242
a(S'a. l. lloyd'
p243
g2
(g6
S"'U\x93\x00T\\\xd0?"
p244
tp245
Rp246
tp247
a(S'news-topic'
p248
g2
(g6
S'\x8c\x92\xd4\x19\x82N\xd0?'
p249
tp250
Rp251
tp252
a(S'british studies'
p253
g2
(g6
S'\xa5\x18\xcb\x94\xd42\xd0?'
p254
tp255
Rp256
tp257
a(S'kwl table'
p258
g2
(g6
S'\x95\x8a\xd8\xfd\xf5!\xd0?'
p259
tp260
Rp261
tp262
a(S'winhelp'
p263
g2
(g6
S'q\x81\x07/\xa9\xb7\xcf?'
p264
tp265
Rp266
tp267
a(S'generic eclipse modeling system'
p268
g2
(g6
S'\xca\x14U\x18\xb2F\xcf?'
p269
tp270
Rp271
tp272
a(S'video modeling'
p273
g2
(g6
S'69q\x97]/\xcf?'
p274
tp275
Rp276
tp277
a(S'anylogic'
p278
g2
(g6
S"\x97>\x14+\xca'\xcf?"
p279
tp280
Rp281
tp282
a(S'object-oriented modeling'
p283
g2
(g6
S'\x11v\x8dC\xc2\xea\xce?'
p284
tp285
Rp286
tp287
a(S'topic continuity in discourse'
p288
g2
(g6
S'\xcdJ\xfa0\x9c\xd4\xce?'
p289
tp290
Rp291
tp292
a(S'topic records'
p293
g2
(g6
S'$\x90h\xb7\xf1\xcc\xce?'
p294
tp295
Rp296
tp297
a(S'visual modeling'
p298
g2
(g6
S'\x1b\xfb\x17\xb0%\xc7\xce?'
p299
tp300
Rp301
tp302
a(S'c3d'
p303
g2
(g6
S'}fY\xce\xf6\xc2\xce?'
p304
tp305
Rp306
tp307
a(S'topic-based vector space model'
p308
g2
(g6
S'\xde\x81\xadL&\xac\xce?'
p309
tp310
Rp311
tp312
a(S'conceptual model'
p313
g2
(g6
S'Z\xf8\xc7\xcc \xa7\xce?'
p314
tp315
Rp316
tp317
a(S'high level ranters'
p318
g2
(g6
S'l\xd0\x0c\x98\r\x9a\xce?'
p319
tp320
Rp321
tp322
a(S'behavioral modeling in computer-aided design'
p323
g2
(g6
S'Z\x11*\x0c<\x97\xce?'
p324
tp325
Rp326
tp327
a(S'bumblehood'
p328
g2
(g6
S'*\x98\xba\xa0\xe4\x94\xce?'
p329
tp330
Rp331
tp332
a(S'metamodeling'
p333
g2
(g6
S'#\xff\x81\x88\xd4\x87\xce?'
p334
tp335
Rp336
tp337
a(S'video lesson'
p338
g2
(g6
S'\xdfG;\x8c\xaat\xce?'
p339
tp340
Rp341
tp342
a(S'document-term matrix'
p343
g2
(g6
S'\x85#l\xa5\x1ch\xce?'
p344
tp345
Rp346
tp347
a(S'johnny handle'
p348
g2
(g6
S'@l)\xe1Ff\xce?'
p349
tp350
Rp351
tp352
a(S'digital humanities'
p353
g2
(g6
S'Er\\w@Y\xce?'
p354
tp355
Rp356
tp357
a(S'my generation (australian game show)'
p358
g2
(g6
S'p\xb9\x92j\\X\xce?'
p359
tp360
Rp361
tp362
a(S'platform-independent model'
p363
g2
(g6
S'N\x9a\xe0#\x8d\x01\xce?'
p364
tp365
Rp366
tp367
a(S'open modelsphere'
p368
g2
(g6
S'_\xf6\xd3\x83\xef\xe9\xcd?'
p369
tp370
Rp371
tp372
a(S'open hearing'
p373
g2
(g6
S'\x10)\xf9\x9e\xfb\xde\xcd?'
p374
tp375
Rp376
tp377
a(S'the hazards of love (ep)'
p378
g2
(g6
S'b\x01\xf5w\x8e\xd2\xcd?'
p379
tp380
Rp381
tp382
a(S'child model'
p383
g2
(g6
S'\x1eq\xf0\xbe1\xcf\xcd?'
p384
tp385
Rp386
tp387
a(S'harry boardman'
p388
g2
(g6
S'[\x1a;\xfa\xa0\xc2\xcd?'
p389
tp390
Rp391
tp392
a(S'michael b.t. bell'
p393
g2
(g6
S'\xda\x12d\xa4\x0c\xc2\xcd?'
p394
tp395
Rp396
tp397
a(S'aigaion'
p398
g2
(g6
S'kS"w\x1b]\xcd?'
p399
tp400
Rp401
tp402
a(S'information search process'
p403
g2
(g6
S'\x1d;\n\x1a\x05M\xcd?'
p404
tp405
Rp406
tp407
a(S'model-driven engineering'
p408
g2
(g6
S']\x9d\xaa"\x19?\xcd?'
p409
tp410
Rp411
tp412
a(S'emso simulator'
p413
g2
(g6
S'\xba\r\xc2\xb7\xe5;\xcd?'
p414
tp415
Rp416
tp417
a(S'betsy mclaughlin'
p418
g2
(g6
S'[F\x1eTb7\xcd?'
p419
tp420
Rp421
tp422
a(S'multigenre research paper'
p423
g2
(g6
S'\xd4\xd8\x9c\xc3f!\xcd?'
p424
tp425
Rp426
tp427
a(S'mariana bay\xc3\xb3n'
p428
g2
(g6
S'\xfd|\xfe\xb4\xc8\x17\xcd?'
p429
tp430
Rp431
tp432
a(S'semantic analysis (machine learning)'
p433
g2
(g6
S'/\x98n\x048\t\xcd?'
p434
tp435
Rp436
tp437
a(S'out in the open (radio show)'
p438
g2
(g6
S'Y\xd1\x07"F\x04\xcd?'
p439
tp440
Rp441
tp442
a(S'dirichlet-multinomial distribution'
p443
g2
(g6
S'(\xdd\xb4!\x0c\xe5\xcc?'
p444
tp445
Rp446
tp447
a(S'integrated enterprise modeling'
p448
g2
(g6
S'@ \xf8\xc1\xc3\xdc\xcc?'
p449
tp450
Rp451
tp452
a(S'topic-sensitive pagerank'
p453
g2
(g6
S'\x7f\x85(\xc5\x19\xc1\xcc?'
p454
tp455
Rp456
tp457
a(S'information model'
p458
g2
(g6
S'1H\xe7>h\xb7\xcc?'
p459
tp460
Rp461
tp462
a(S'agile modeling'
p463
g2
(g6
S"\xd2\xf0\xfb\xde'\xb0\xcc?"
p464
tp465
Rp466
tp467
a(S'modeling perspective'
p468
g2
(g6
S'\x84\x19\x8b\xc1\x0e\xa1\xcc?'
p469
tp470
Rp471
tp472
a(S'latent growth modeling'
p473
g2
(g6
S'\x02\xff\x84&\xef\x9a\xcc?'
p474
tp475
Rp476
tp477
a(S'p-modeling framework'
p478
g2
(g6
S'x\x1f\x900\\\x8e\xcc?'
p479
tp480
Rp481
tp482
a(S'james rumbaugh'
p483
g2
(g6
S'\xde\x9a\xa9\xe0\x96b\xcc?'
p484
tp485
Rp486
tp487
a(S'enterprise architect (software)'
p488
g2
(g6
S'u\x81\xf5\xe3\xbd\\\xcc?'
p489
tp490
Rp491
tp492
a(S'work in progress (1951 film)'
p493
g2
(g6
S'3\xde2o\x9cH\xcc?'
p494
tp495
Rp496
tp497
a(S'procedural modeling'
p498
g2
(g6
S'\x02\xc2\xd6\xc4\xdd<\xcc?'
p499
tp500
Rp501
tp502
a(S'photo mill'
p503
g2
(g6
S'4\x9b\x9a\xa2w-\xcc?'
p504
tp505
Rp506
tp507
a(S'main lesson'
p508
g2
(g6
S'-q\xb6\xa78)\xcc?'
p509
tp510
Rp511
tp512
a(S'anchor modeling'
p513
g2
(g6
S'\xce\xed\xa5;N\x1d\xcc?'
p514
tp515
Rp516
tp517
a(S'cordula reyer'
p518
g2
(g6
S'\xb6\x7f\xd6\x05\x1e\x1a\xcc?'
p519
tp520
Rp521
tp522
a(S'die andere liebe'
p523
g2
(g6
S'\x92\xe6\xfe\xd5\xf7\x19\xcc?'
p524
tp525
Rp526
tp527
a(S'semantic data model'
p528
g2
(g6
S'w\xfc\xbfIo\xfb\xcb?'
p529
tp530
Rp531
tp532
a(S'topic-based authoring'
p533
g2
(g6
S'\xdb\xcb\xbb\x1f\xc3\xed\xcb?'
p534
tp535
Rp536
tp537
a(S'earth system modeling framework'
p538
g2
(g6
S'\n\x1a~\xbb\xb8\xdb\xcb?'
p539
tp540
Rp541
tp542
a(S'hierarchical dirichlet process'
p543
g2
(g6
S'\x7f\xfb\xdc\xd6\x12\xda\xcb?'
p544
tp545
Rp546
tp547
a(S'logico-linguistic modeling'
p548
g2
(g6
S'\xdby\x17U\xd0\xbf\xcb?'
p549
tp550
Rp551
tp552
a(S'service-oriented modeling'
p553
g2
(g6
S'0U7\xaa\xf7\x9e\xcb?'
p554
tp555
Rp556
tp557
a(S'frontiers of health services management'
p558
g2
(g6
S'\xe3\x06\xecR)g\xcb?'
p559
tp560
Rp561
tp562
a(S'structural equations with latent variables'
p563
g2
(g6
S'}Z\xfe\xb6^W\xcb?'
p564
tp565
Rp566
tp567
a(S'nutrition physiology'
p568
g2
(g6
S'\xcd\x0c\x12\t\x07?\xcb?'
p569
tp570
Rp571
tp572
a(S'pieter mosterman'
p573
g2
(g6
S'\xf4\xcb]\xa602\xcb?'
p574
tp575
Rp576
tp577
a(S'metaedit+'
p578
g2
(g6
S'\x99\xe2c\x92O-\xcb?'
p579
tp580
Rp581
tp582
a(S'philosophy talk'
p583
g2
(g6
S'\x04\x8e\xd4\xf4\xc5)\xcb?'
p584
tp585
Rp586
tp587
a(S'agent-based model'
p588
g2
(g6
S'\x14\xb1P\xb1\x96$\xcb?'
p589
tp590
Rp591
tp592
a(S'tangential speech'
p593
g2
(g6
S'\x12 \x8f\x11\xf4\x13\xcb?'
p594
tp595
Rp596
tp597
a(S'kim alley'
p598
g2
(g6
S'\x1b\x9c3\xdb2\x13\xcb?'
p599
tp600
Rp601
tp602
a(S'process driven development'
p603
g2
(g6
S'C>Jn\x05\xcb\xca?'
p604
tp605
Rp606
tp607
a(S'alternative model'
p608
g2
(g6
S')/\xca\x08\xbd\xc3\xca?'
p609
tp610
Rp611
tp612
a(S'surelee joseph'
p613
g2
(g6
S'\x8bp>y\x1a\xb2\xca?'
p614
tp615
Rp616
tp617
a(S'language model'
p618
g2
(g6
S'\x86\x89/\xf7*\x95\xca?'
p619
tp620
Rp621
tp622
a(S'terry halpin'
p623
g2
(g6
S'=bV\xaa\xc4~\xca?'
p624
tp625
Rp626
tp627
a(S'dynamic stochastic general equilibrium'
p628
g2
(g6
S'F\xae\x97&pp\xca?'
p629
tp630
Rp631
tp632
a(S'multilevel modeling for repeated measures'
p633
g2
(g6
S'\x9f7\xe7o\x1en\xca?'
p634
tp635
Rp636
tp637
a(S'threat model'
p638
g2
(g6
S'\xb2\x8d9\x0cj[\xca?'
p639
tp640
Rp641
tp642
a(S'object-modeling technique'
p643
g2
(g6
S'\xed@u\xc7lX\xca?'
p644
tp645
Rp646
tp647
a(S'penda sports'
p648
g2
(g6
S'O_q3\xd97\xca?'
p649
tp650
Rp651
tp652
a(S'cofluent design'
p653
g2
(g6
S'\xa8\x9f\xb3\xd7\xa50\xca?'
p654
tp655
Rp656
tp657
a(S'smart team'
p658
g2
(g6
S',\x10\xca\xe2u\x08\xca?'
p659
tp660
Rp661
tp662
a(S'list of software reliability models'
p663
g2
(g6
S'\xe4X\x98~\xdd\xfc\xc9?'
p664
tp665
Rp666
tp667
a(S'modeling and simulation coordination office'
p668
g2
(g6
S'\x95\xfd;>\x87\xf7\xc9?'
p669
tp670
Rp671
tp672
a(S'financial modeling'
p673
g2
(g6
S' \xb3\xdf\xbe\xdf\xf3\xc9?'
p674
tp675
Rp676
tp677
a(S'semiconductor device modeling'
p678
g2
(g6
S'\x17&\xf8>?\xdf\xc9?'
p679
tp680
Rp681
tp682
a(S'ten talk'
p683
g2
(g6
S'\xc7\x0c<\x1f/\xdf\xc9?'
p684
tp685
Rp686
tp687
a(S'structural equation modeling'
p688
g2
(g6
S'\xc2\x08\x96\xda8\xd2\xc9?'
p689
tp690
Rp691
tp692
a(S'topic (chocolate bar)'
p693
g2
(g6
S'\xf2`$xQ\xbe\xc9?'
p694
tp695
Rp696
tp697
a(S'rodos (operating system)'
p698
g2
(g6
S'\xaf-\x97\xd6\x96\xbd\xc9?'
p699
tp700
Rp701
tp702
a(S'box modeling'
p703
g2
(g6
S'\xa4\xc6g\xe4\xbc\xb9\xc9?'
p704
tp705
Rp706
tp707
a(S'solid modeling'
p708
g2
(g6
S'_\xe7\xd26\x19\xb1\xc9?'
p709
tp710
Rp711
tp712
a(S'ogml'
p713
g2
(g6
S'c\xdd\x9aub\xae\xc9?'
p714
tp715
Rp716
tp717
a(S'digital humanities summer institute'
p718
g2
(g6
S'UO\xa4\xbe\x8c\x98\xc9?'
p719
tp720
Rp721
tp722
a(S'lists of mathematics topics'
p723
g2
(g6
S'h\xc1\xf1\xd0\xdd\x95\xc9?'
p724
tp725
Rp726
tp727
a(S'winnowtag'
p728
g2
(g6
S'\xf1\x8b \x8e\xb5}\xc9?'
p729
tp730
Rp731
tp732
a(S'model-based design'
p733
g2
(g6
S'\x84\x92/=\x16q\xc9?'
p734
tp735
Rp736
tp737
a(S'rockworks'
p738
g2
(g6
S'\x04Ri7\x18n\xc9?'
p739
tp740
Rp741
tp742
a(S'vn-zoom'
p743
g2
(g6
S'\xf2\xeeD\x9c\x07`\xc9?'
p744
tp745
Rp746
tp747
a(S'modeling agency'
p748
g2
(g6
S'\x1b\xfd5U\x84[\xc9?'
p749
tp750
Rp751
tp752
a(S'behavioral modeling in hydrology'
p753
g2
(g6
S'\x87\xf4\xe4\xe9KP\xc9?'
p754
tp755
Rp756
tp757
a(S'unsupervised learning'
p758
g2
(g6
S'N\xc5\xa5w\x89D\xc9?'
p759
tp760
Rp761
tp762
a(S'data model'
p763
g2
(g6
S'\x83;v\xb1\xc84\xc9?'
p764
tp765
Rp766
tp767
a(S'mathematical model'
p768
g2
(g6
S'\xd0\x88L\xd9\xd5*\xc9?'
p769
tp770
Rp771
tp772
a(S'amplifier modeling'
p773
g2
(g6
S'\x12\xa3\x069c"\xc9?'
p774
tp775
Rp776
tp777
a(S'historical dynamics'
p778
g2
(g6
S'\xb8\xe6\xf1\x8d\x03 \xc9?'
p779
tp780
Rp781
tp782
a(S'hilltop algorithm'
p783
g2
(g6
S'>&\x1e\x9b\x7f\x00\xc9?'
p784
tp785
Rp786
tp787
a(S'extended enterprise modeling language'
p788
g2
(g6
S'\xcc\x9b\x9ed\t\xf8\xc8?'
p789
tp790
Rp791
tp792
a(S'tajjaliyat e nubuwat (book)'
p793
g2
(g6
S'\x82\xb7\x94\xd8f\xed\xc8?'
p794
tp795
Rp796
tp797
a(S'business process modeling'
p798
g2
(g6
S'$\x17\xd4:^\xea\xc8?'
p799
tp800
Rp801
tp802
a(S'tom lenihan'
p803
g2
(g6
S'\xe9\xcb\xd8\xde\xac\xe2\xc8?'
p804
tp805
Rp806
tp807
a(S'george bournoutian'
p808
g2
(g6
S'\xd7\r\x04dL\xd9\xc8?'
p809
tp810
Rp811
tp812
a(S'topincs'
p813
g2
(g6
S';%g\x83\x04\xd8\xc8?'
p814
tp815
Rp816
tp817
a(S'model for prediction across scales'
p818
g2
(g6
S'\x013\t\xcd\xea\xd6\xc8?'
p819
tp820
Rp821
tp822
a(S'francina international modeling agency'
p823
g2
(g6
S'a1bT]\xcc\xc8?'
p824
tp825
Rp826
tp827
a(S'the frank anthony memorial all-india inter-school debate'
p828
g2
(g6
S'\x82\xa2\xbcWg\xbd\xc8?'
p829
tp830
Rp831
tp832
a(S'raysupreme'
p833
g2
(g6
S'T\x04\xdd\xf7r\xb2\xc8?'
p834
tp835
Rp836
tp837
a(S'the vent!'
p838
g2
(g6
S'\xd4\x8c\xdf\x8c\xeb\xaa\xc8?'
p839
tp840
Rp841
tp842
a(S'humanities'
p843
g2
(g6
S'\x89\xf3T\xcb\xe6\xa6\xc8?'
p844
tp845
Rp846
tp847
a(S'3d computer graphics software'
p848
g2
(g6
S'\xa2\x01\x98\xa5\r\x97\xc8?'
p849
tp850
Rp851
tp852
a(S'cris kobryn'
p853
g2
(g6
S'L\x83y\xda\x8a\x84\xc8?'
p854
tp855
Rp856
tp857
a(S'fred jordan (singer)'
p858
g2
(g6
S'^Q\x9e\x08\x1bo\xc8?'
p859
tp860
Rp861
tp862
a(S'multi-document summarization'
p863
g2
(g6
S'r\x90\xb3UUb\xc8?'
p864
tp865
Rp866
tp867
a(S'software and systems modeling'
p868
g2
(g6
S'g\x1bU\xd9\x9d^\xc8?'
p869
tp870
Rp871
tp872
a(S'demand modeling'
p873
g2
(g6
S'\x15)M\xdf&Q\xc8?'
p874
tp875
Rp876
tp877
a(S'rule-based modeling'
p878
g2
(g6
S'\x1e\xac\xf6\xd4UC\xc8?'
p879
tp880
Rp881
tp882
a(S'transaction-level modeling'
p883
g2
(g6
S'7\xd22v\xb7=\xc8?'
p884
tp885
Rp886
tp887
a(S'big history (tv series)'
p888
g2
(g6
S'\x8ehwJM \xc8?'
p889
tp890
Rp891
tp892
a(S'alliance of digital humanities organizations'
p893
g2
(g6
S'\x95| \x89\x96\x1f\xc8?'
p894
tp895
Rp896
tp897
a(S'peche di'
p898
g2
(g6
S'D&?\xbcV\x17\xc8?'
p899
tp900
Rp901
tp902
a(S'instructional modeling'
p903
g2
(g6
S"'\x87\n\xe2\xa9\x14\xc8?"
p904
tp905
Rp906
tp907
a(S'john krogstie'
p908
g2
(g6
S'\xe2\x86\xb9\xbe\xdf\x12\xc8?'
p909
tp910
Rp911
tp912
a(S'model (person)'
p913
g2
(g6
S'\xa5\xdao\x93\xa7\x0f\xc8?'
p914
tp915
Rp916
tp917
a(S'western australian prohibition referendum, 1950'
p918
g2
(g6
S'\x81\xc9f\xbb\x10\x0e\xc8?'
p919
tp920
Rp921
tp922
a(S'generalized environmental modeling system for surfacewaters'
p923
g2
(g6
S'4g\x05#\xec\x0c\xc8?'
p924
tp925
Rp926
tp927
a(S'2016 golden disc awards'
p928
g2
(g6
S'\xc0\x10\x8a\xa1\xdc\x03\xc8?'
p929
tp930
Rp931
tp932
a(S'sequal framework'
p933
g2
(g6
S'\xd5xM\xbc\x1b\xfd\xc7?'
p934
tp935
Rp936
tp937
a(S'catastrophe modeling'
p938
g2
(g6
S'\x10c\x96e\xb9\xfc\xc7?'
p939
tp940
Rp941
tp942
a(S'physiologically based pharmacokinetic modelling'
p943
g2
(g6
S"\xcd'\n\xc1\x18\xf7\xc7?"
p944
tp945
Rp946
tp947
a(S'population model'
p948
g2
(g6
S'\x03\xd0\xba3\x07\xf4\xc7?'
p949
tp950
Rp951
tp952
a(S'service modeling language'
p953
g2
(g6
S'$\x01c\x83\x19\xe8\xc7?'
p954
tp955
Rp956
tp957
a(S'human performance modeling'
p958
g2
(g6
S'\xd3\x89,\xcd\x90\xe1\xc7?'
p959
tp960
Rp961
tp962
a(S'image-based modeling and rendering'
p963
g2
(g6
S'+\x17\xfe\xc25\xdd\xc7?'
p964
tp965
Rp966
tp967
a(S'outline of the humanities'
p968
g2
(g6
S'd\xeb\xd9*\xc3\xd2\xc7?'
p969
tp970
Rp971
tp972
a(S'geometric modeling'
p973
g2
(g6
S'\xa0\xe1\xf3\xd7\x9b\xc7\xc7?'
p974
tp975
Rp976
tp977
a(S'charles m. eastman'
p978
g2
(g6
S'\xe9)\xa7Bv\xba\xc7?'
p979
tp980
Rp981
tp982
a(S'look model agency'
p983
g2
(g6
S'\xa9<2ds\xa3\xc7?'
p984
tp985
Rp986
tp987
a(S'hatley\xe2\x80\x93pirbhai modeling'
p988
g2
(g6
S'\xdc\x97\xb9\x89\xd9\xa2\xc7?'
p989
tp990
Rp991
tp992
a(S'macrostructure (linguistics)'
p993
g2
(g6
S'\xd0\x05\x88n\x80\x98\xc7?'
p994
tp995
Rp996
tp997
a(S'latent semantic mapping'
p998
g2
(g6
S'w\xb9fB\x08\x96\xc7?'
p999
tp1000
Rp1001
tp1002
a(S'visualsim architect'
p1003
g2
(g6
S'\x80=n\xf8T\x8d\xc7?'
p1004
tp1005
Rp1006
tp1007
a(S'lerato moloi'
p1008
g2
(g6
S'/Z\xe1\xf2:\x88\xc7?'
p1009
tp1010
Rp1011
tp1012
a(S'xml metadata interchange'
p1013
g2
(g6
S'%s\xe8\tw\x86\xc7?'
p1014
tp1015
Rp1016
tp1017
a(S'comparison of system dynamics software'
p1018
g2
(g6
S'7\x12\xce\xb4g}\xc7?'
p1019
tp1020
Rp1021
tp1022
a(S'concept mining'
p1023
g2
(g6
S'm\x03\x9a\x82\x87n\xc7?'
p1024
tp1025
Rp1026
tp1027
a(S'paper model'
p1028
g2
(g6
S'\x95mZ\x01Wi\xc7?'
p1029
tp1030
Rp1031
tp1032
a(S'omnioutliner'
p1033
g2
(g6
S'$\xa4\x08\xbf\xff^\xc7?'
p1034
tp1035
Rp1036
tp1037
a(S'oliver bjerrehuus'
p1038
g2
(g6
S'\x96\xa6\xe3m=Y\xc7?'
p1039
tp1040
Rp1041
tp1042
a(S'quizup'
p1043
g2
(g6
S'\xd6I\x9d\xe1\x18Y\xc7?'
p1044
tp1045
Rp1046
tp1047
a(S'genius hour'
p1048
g2
(g6
S'k\x12\x01\x10\xaaS\xc7?'
p1049
tp1050
Rp1051
tp1052
a(S'pravda (lithuania)'
p1053
g2
(g6
S'\x90t\xf785R\xc7?'
p1054
tp1055
Rp1056
tp1057
a(S'kaya wittenburg'
p1058
g2
(g6
S'\xef\xd3>\x949?\xc7?'
p1059
tp1060
Rp1061
tp1062
a(S'idef0'
p1063
g2
(g6
S'\x12Nau\xb76\xc7?'
p1064
tp1065
Rp1066
tp1067
a(S'molecular design software'
p1068
g2
(g6
S'\xf4\xb4\xbf\xe0D0\xc7?'
p1069
tp1070
Rp1071
tp1072
a(S'hazhir rahmandad'
p1073
g2
(g6
S'5\xfag\x99@(\xc7?'
p1074
tp1075
Rp1076
tp1077
a(S'latent semantic analysis'
p1078
g2
(g6
S'\xe4\xf1\xd9j\xa1#\xc7?'
p1079
tp1080
Rp1081
tp1082
a(S'modbase'
p1083
g2
(g6
S'\xf5\xc0>%\x0b\x1c\xc7?'
p1084
tp1085
Rp1086
tp1087
a(S'zaltman metaphor elicitation technique'
p1088
g2
(g6
S'\xa6\x04\x1ed%\x18\xc7?'
p1089
tp1090
Rp1091
tp1092
a(S'online content analysis'
p1093
g2
(g6
S'\xaa9p8\xb3\x0e\xc7?'
p1094
tp1095
Rp1096
tp1097
a(S'video self-modeling'
p1098
g2
(g6
S'\x14\xad\x9eh\x96\x0e\xc7?'
p1099
tp1100
Rp1101
tp1102
a(S'modeling and analysis of real time and embedded systems'
p1103
g2
(g6
S'\xba\xd3#"\x8a\xf9\xc6?'
p1104
tp1105
Rp1106
tp1107
a(S'elsa hosk'
p1108
g2
(g6
S'\xa9R\x90Q\x81\xf5\xc6?'
p1109
tp1110
Rp1111
tp1112
a(S'powerdesigner'
p1113
g2
(g6
S'\xe1 \x7f\x9d8\xe5\xc6?'
p1114
tp1115
Rp1116
tp1117
a(S'list of humanities journals'
p1118
g2
(g6
S'\x854\x0ed\xae\xce\xc6?'
p1119
tp1120
Rp1121
tp1122
a(S'autodesk alias surface'
p1123
g2
(g6
S';\xc1;\x95x\xc9\xc6?'
p1124
tp1125
Rp1126
tp1127
a(S'environmental niche modelling'
p1128
g2
(g6
S'\xe1\x83\xf7\xbe{\xc1\xc6?'
p1129
tp1130
Rp1131
tp1132
a(S'topic sentence'
p1133
g2
(g6
S'm\x1bUR\x85\xbc\xc6?'
p1134
tp1135
Rp1136
tp1137
a(S'quag'
p1138
g2
(g6
S'\xa5u\xf4\x11\x9f\xba\xc6?'
p1139
tp1140
Rp1141
tp1142
a(S'graphical modeling framework'
p1143
g2
(g6
S'B\xdb\x03-\x88\xb8\xc6?'
p1144
tp1145
Rp1146
tp1147
a(S'buzznet'
p1148
g2
(g6
S'\x9c\x80*\xc2\x0c\xb5\xc6?'
p1149
tp1150
Rp1151
tp1152
a(S'public humanities'
p1153
g2
(g6
S'\xbf\xb0k\x815\xb2\xc6?'
p1154
tp1155
Rp1156
tp1157
a(S'curiyo'
p1158
g2
(g6
S'\x00\x0c\xec$S\xae\xc6?'
p1159
tp1160
Rp1161
tp1162
a(S'european society for neurochemistry'
p1163
g2
(g6
S',\xb8O\x9dK\xa5\xc6?'
p1164
tp1165
Rp1166
tp1167
a(S'user interface modeling'
p1168
g2
(g6
S'\xa6b\x1d\xacD\xa5\xc6?'
p1169
tp1170
Rp1171
tp1172
a(S'interaction flow modeling language'
p1173
g2
(g6
S'sr\x101\x0e\x9e\xc6?'
p1174
tp1175
Rp1176
tp1177
a(S'the encyclopedia show'
p1178
g2
(g6
S'\xfe\xdda\x94\x1f\x98\xc6?'
p1179
tp1180
Rp1181
tp1182
a(S'humanistic informatics'
p1183
g2
(g6
S'\xaa\xde\xe0\xb7\x12\x95\xc6?'
p1184
tp1185
Rp1186
tp1187
a(S'inchiesta'
p1188
g2
(g6
S'9\x88\x1c\x0c\x00\x92\xc6?'
p1189
tp1190
Rp1191
tp1192
a(S'dymola'
p1193
g2
(g6
S'\x94\xdcB\xe8\xa7\x8e\xc6?'
p1194
tp1195
Rp1196
tp1197
a(S'2015 thai league cup'
p1198
g2
(g6
S'\xde;k\xa8\x07\x8d\xc6?'
p1199
tp1200
Rp1201
tp1202
a(S'energy modeling'
p1203
g2
(g6
S'\xf4\xf9\xa4@\x1a\x86\xc6?'
p1204
tp1205
Rp1206
tp1207
a(S'kristina tu\xc4\x8dkut\xc4\x97'
p1208
g2
(g6
S'\x16\x1b[\x82\x7f\x82\xc6?'
p1209
tp1210
Rp1211
tp1212
a(S'event relationship graph'
p1213
g2
(g6
S'i@\xc3\xd1d|\xc6?'
p1214
tp1215
Rp1216
tp1217
a(S'list of state humanities councils'
p1218
g2
(g6
S'\x9f\xc9\xf80Uz\xc6?'
p1219
tp1220
Rp1221
tp1222
a(S'objecteering'
p1223
g2
(g6
S'\x191\x97\x13\xa4q\xc6?'
p1224
tp1225
Rp1226
tp1227
a(S'nonmem'
p1228
g2
(g6
S'\x8d\xbb\xa1Y\xf2a\xc6?'
p1229
tp1230
Rp1231
tp1232
a(S'object categorization from image search'
p1233
g2
(g6
S'{*\x02\xb0\x1eZ\xc6?'
p1234
tp1235
Rp1236
tp1237
a(S'avolution'
p1238
g2
(g6
S'\x17N\x05S\x8aV\xc6?'
p1239
tp1240
Rp1241
tp1242
a(S'topic (musician)'
p1243
g2
(g6
S'\xed\xb4\xee)\x80M\xc6?'
p1244
tp1245
Rp1246
tp1247
a(S'east asian languages'
p1248
g2
(g6
S'\x0eH4x\xa8K\xc6?'
p1249
tp1250
Rp1251
tp1252
a(S'time-item'
p1253
g2
(g6
S'\x8a\x13^qtI\xc6?'
p1254
tp1255
Rp1256
tp1257
a(S'bag-of-words model in computer vision'
p1258
g2
(g6
S'5\xd13gxE\xc6?'
p1259
tp1260
Rp1261
tp1262
a(S"department of digital humanities, king's college london"
p1263
g2
(g6
S'\x9a\x84\x1d\xeb3D\xc6?'
p1264
tp1265
Rp1266
tp1267
a(S'a model life'
p1268
g2
(g6
S'~d\x8eI_A\xc6?'
p1269
tp1270
Rp1271
tp1272
a(S'2016 thai league cup'
p1273
g2
(g6
S'A\xc4frN?\xc6?'
p1274
tp1275
Rp1276
tp1277
a(S'list of 3d computer graphics software'
p1278
g2
(g6
S'\xb8\xd5\x06\x03\xf7>\xc6?'
p1279
tp1280
Rp1281
tp1282
a(S'object-modeling language'
p1283
g2
(g6
S'\xbc\t\xe5\xdb\xff5\xc6?'
p1284
tp1285
Rp1286
tp1287
a(S'umodel'
p1288
g2
(g6
S'aE\xc8*\x074\xc6?'
p1289
tp1290
Rp1291
tp1292
a(S'knowledge-based decision making'
p1293
g2
(g6
S'\xa5,\xe1\xbfw0\xc6?'
p1294
tp1295
Rp1296
tp1297
a(S'john casablancas'
p1298
g2
(g6
S'\xf9\xc4\xc7\x1e\xba\x19\xc6?'
p1299
tp1300
Rp1301
tp1302
a(S'triune continuum paradigm'
p1303
g2
(g6
S'\xff\x94:0\x8c\x12\xc6?'
p1304
tp1305
Rp1306
tp1307
a(S'idef1x'
p1308
g2
(g6
S'\xfdn\xb6{r\r\xc6?'
p1309
tp1310
Rp1311
tp1312
a(S'the leadership council'
p1313
g2
(g6
S'\xfaPT\xebU\r\xc6?'
p1314
tp1315
Rp1316
tp1317
a(S'ulrich frank'
p1318
g2
(g6
S'\x8d\xf2"=\xd4\x0b\xc6?'
p1319
tp1320
Rp1321
tp1322
a(S'smartpls'
p1323
g2
(g6
S'.IM\xdb\xa7\x02\xc6?'
p1324
tp1325
Rp1326
tp1327
a(S'objectif'
p1328
g2
(g6
S']&\xbc8\x97\x01\xc6?'
p1329
tp1330
Rp1331
tp1332
a(S'law of primacy in persuasion'
p1333
g2
(g6
S'\xdc\xf0\xafx\x92\xfe\xc5?'
p1334
tp1335
Rp1336
tp1337
a(S'software design'
p1338
g2
(g6
S'$\xa4\xd0\xd0 \xf9\xc5?'
p1339
tp1340
Rp1341
tp1342
a(S'faculty of conflict and catastrophe medicine'
p1343
g2
(g6
S'\xaa#F\x1e\x90\xf8\xc5?'
p1344
tp1345
Rp1346
tp1347
a(S'vensim'
p1348
g2
(g6
S'\x19A\xa1\x9a\xd4\xf4\xc5?'
p1349
tp1350
Rp1351
tp1352
a(S'helen erickson'
p1353
g2
(g6
S'\xad_\xdc\x9dE\xec\xc5?'
p1354
tp1355
Rp1356
tp1357
a(S'the journal of defense modeling and simulation'
p1358
g2
(g6
S'\xd7^"\xe9\r\xe5\xc5?'
p1359
tp1360
Rp1361
tp1362
a(S'darko vujovi\xc4\x87'
p1363
g2
(g6
S'\xf6\xe4\xda\xec\xb8\xe1\xc5?'
p1364
tp1365
Rp1366
tp1367
a(S'humanities in the united states'
p1368
g2
(g6
S'M\x98\x82\xde\x05\xd6\xc5?'
p1369
tp1370
Rp1371
tp1372
a(S'modeling (psychology)'
p1373
g2
(g6
S'\x1b\xeb\xf4^\xde\xd5\xc5?'
p1374
tp1375
Rp1376
tp1377
a(S'semantic research'
p1378
g2
(g6
S' \x9d\xc9\x11\x18\xd5\xc5?'
p1379
tp1380
Rp1381
tp1382
a(S'domain-specific modeling'
p1383
g2
(g6
S'\x85\xf2\x95\xf3L\xd1\xc5?'
p1384
tp1385
Rp1386
tp1387
a(S'nora cleary'
p1388
g2
(g6
S'1\x17c\x94\x19\xb7\xc5?'
p1389
tp1390
Rp1391
tp1392
a(S'jennifer \xc3\x85kerman'
p1393
g2
(g6
S'\x1d\x14\xc6\xbc~\xb6\xc5?'
p1394
tp1395
Rp1396
tp1397
a(S'pillarone.riskanalytics'
p1398
g2
(g6
S'\x93\x12k/\xb0\xb5\xc5?'
p1399
tp1400
Rp1401
tp1402
a(S'weka (machine learning)'
p1403
g2
(g6
S'd36[\x9a\xb4\xc5?'
p1404
tp1405
Rp1406
tp1407
a(S'dynamic business modeling'
p1408
g2
(g6
S'\x88c\xbe7\xab\xb0\xc5?'
p1409
tp1410
Rp1411
tp1412
a(S'arnetminer'
p1413
g2
(g6
S'DG\x9cIV\xaf\xc5?'
p1414
tp1415
Rp1416
tp1417
a(S'army modeling & simulation office'
p1418
g2
(g6
S'\x1f\x9a\x99\xb7\x86\xaa\xc5?'
p1419
tp1420
Rp1421
tp1422
a(S'brinkler classification'
p1423
g2
(g6
S'\xda\xc0l\xfdL\xaa\xc5?'
p1424
tp1425
Rp1426
tp1427
a(S'maryland institute for technology in the humanities'
p1428
g2
(g6
S'\x9f\xf9\xfd\x85\xa3\xa8\xc5?'
p1429
tp1430
Rp1431
tp1432
a(S'jim south'
p1433
g2
(g6
S'e\xb5\x89\xb3\xc1\xa5\xc5?'
p1434
tp1435
Rp1436
tp1437
a(S'sms (hydrology software)'
p1438
g2
(g6
S'R0f\xbc\xf3\x9c\xc5?'
p1439
tp1440
Rp1441
tp1442
a(S'synthetic psychological environment'
p1443
g2
(g6
S'b\xe7xE\xd7\x9c\xc5?'
p1444
tp1445
Rp1446
tp1447
a(S'aquaveo'
p1448
g2
(g6
S']\xa6\xd1\xcfd\x9c\xc5?'
p1449
tp1450
Rp1451
tp1452
a(S'danijela dimitrovska'
p1453
g2
(g6
S'\x03\x86\xd1NT\x9b\xc5?'
p1454
tp1455
Rp1456
tp1457
a(S'alt.usage.english'
p1458
g2
(g6
S'\xc4\xd9!\x1e\xf8\x99\xc5?'
p1459
tp1460
Rp1461
tp1462
a(S'eileen ford'
p1463
g2
(g6
S'J\x9c\x85)z\x96\xc5?'
p1464
tp1465
Rp1466
tp1467
a(S'pivotpoint technology corporation'
p1468
g2
(g6
S'\xba\x9d)|(\x93\xc5?'
p1469
tp1470
Rp1471
tp1472
a(S'automatic summarization'
p1473
g2
(g6
S'\x11o\x8a\x19\xd1\x90\xc5?'
p1474
tp1475
Rp1476
tp1477
a(S'consortium of humanities centers and institutes'
p1478
g2
(g6
S'\xb8U\xdf\x893\x90\xc5?'
p1479
tp1480
Rp1481
tp1482
a(S'virtual design and construction'
p1483
g2
(g6
S'\xbc\x95\\\xf5\x8c\x8f\xc5?'
p1484
tp1485
Rp1486
tp1487
a(S'forty group'
p1488
g2
(g6
S'J~\xb7\xad\x15\x8b\xc5?'
p1489
tp1490
Rp1491
tp1492
a(S'mixture model'
p1493
g2
(g6
S'\xbf&m\x03\xe4\x89\xc5?'
p1494
tp1495
Rp1496
tp1497
a(S'freeflyer'
p1498
g2
(g6
S'\x9d\x8b\xbc.\x0b\x89\xc5?'
p1499
tp1500
Rp1501
tp1502
a(S'ingenias'
p1503
g2
(g6
S'\xf8\xa8\xa7\xf1\xa5\x87\xc5?'
p1504
tp1505
Rp1506
tp1507
a(S'actor modeling'
p1508
g2
(g6
S'U=1\x1e\x04\x84\xc5?'
p1509
tp1510
Rp1511
tp1512
a.