(lp0
(S'twitter'
p1
cnumpy.core.multiarray
scalar
p2
(cnumpy
dtype
p3
(S'f8'
p4
I0
I1
tp5
Rp6
(I3
S'<'
p7
NNNI-1
I-1
I0
tp8
bS'\xfd\xff\xff\xff\xff\xff\xef?'
p9
tp10
Rp11
tp12
a(S'twitter usage'
p13
g2
(g6
S"\x04'\xce'\x0ez\xec?"
p14
tp15
Rp16
tp17
a(S'timeline of twitter'
p18
g2
(g6
S'\xaa\xf0\x9d\xa7\x9dn\xec?'
p19
tp20
Rp21
tp22
a(S'use of twitter by public figures'
p23
g2
(g6
S'\x8f\xbf\xa3\x03\xb9e\xea?'
p24
tp25
Rp26
tp27
a(S'list of twitter services and applications'
p28
g2
(g6
S'\xbae\x84\xb6\xb6\x9d\xe9?'
p29
tp30
Rp31
tp32
a(S'censorship of twitter'
p33
g2
(g6
S'\xe0\xf08\x03\xcf\x9b\xe9?'
p34
tp35
Rp36
tp37
a(S'twitterature'
p38
g2
(g6
S'dJUX\x8d\x0b\xe9?'
p39
tp40
Rp41
tp42
a(S'tweetdeck'
p43
g2
(g6
S'&\xc8\xf8X\xac\xdf\xe8?'
p44
tp45
Rp46
tp47
a(S'twitter bomb'
p48
g2
(g6
S'"w\xb2\x08\xec\x8a\xe7?'
p49
tp50
Rp51
tp52
a(S'black twitter'
p53
g2
(g6
S'S:\xbeE![\xe7?'
p54
tp55
Rp56
tp57
a(S'twitter diplomacy'
p58
g2
(g6
S'\xb30U\xbd\xff\x14\xe7?'
p59
tp60
Rp61
tp62
a(S'twittercounter'
p63
g2
(g6
S'xgP\xb2\x90\x05\xe7?'
p64
tp65
Rp66
tp67
a(S'manageflitter'
p68
g2
(g6
S'ky&\xc1\xae\xc9\xe6?'
p69
tp70
Rp71
tp72
a(S'tweetie'
p73
g2
(g6
S'\xce=X\xd5Q\xd8\xe5?'
p74
tp75
Rp76
tp77
a(S'twitdom'
p78
g2
(g6
S'z\xb2w\xd4\xd9\xa2\xe5?'
p79
tp80
Rp81
tp82
a(S'twitter power'
p83
g2
(g6
S'\xf0D6\n\xc6x\xe5?'
p84
tp85
Rp86
tp87
a(S'twitter revolution'
p88
g2
(g6
S'\xc0Y\xf1\xe0,p\xe5?'
p89
tp90
Rp91
tp92
a(S'twitter amplify'
p93
g2
(g6
S'm.\xa8sF\xd9\xe4?'
p94
tp95
Rp96
tp97
a(S'twitpic'
p98
g2
(g6
S'\x1ei\xab\t\\\x9f\xe4?'
p99
tp100
Rp101
tp102
a(S'backtweets'
p103
g2
(g6
S'}\xa201R\x94\xe4?'
p104
tp105
Rp106
tp107
a(S'billboard twitter real-time'
p108
g2
(g6
S'~1\xa6~\xe3B\xe4?'
p109
tp110
Rp111
tp112
a(S'list of twitter controversies'
p113
g2
(g6
S'\xafo^\xb4\xe7@\xe4?'
p114
tp115
Rp116
tp117
a(S'mtv europe music award for artist on the rise'
p118
g2
(g6
S'h\xf0\xdaz\xa1\xf4\xe3?'
p119
tp120
Rp121
tp122
a(S'twitterfall'
p123
g2
(g6
S'\xec\x94\xd6\xbf\x952\xe3?'
p124
tp125
Rp126
tp127
a(S'peggyolson'
p128
g2
(g6
S'\xab\xce\x05\xe3q\x14\xe3?'
p129
tp130
Rp131
tp132
a(S'raffi krikorian'
p133
g2
(g6
S']\x1a\x13\xfe\x90\xf9\xe2?'
p134
tp135
Rp136
tp137
a(S'sockington'
p138
g2
(g6
S'Pdi1\xf9\x9b\xe2?'
p139
tp140
Rp141
tp142
a(S'social television'
p143
g2
(g6
S't|\x18\x19 \x8d\xe2?'
p144
tp145
Rp146
tp147
a(S'microblogging'
p148
g2
(g6
S'\xd1t\xb0\xd8\xef\x83\xe2?'
p149
tp150
Rp151
tp152
a(S'twitscoop'
p153
g2
(g6
S'\xf5\xce\x86\x8e\xb9`\xe2?'
p154
tp155
Rp156
tp157
a(S'twitoaster'
p158
g2
(g6
S'GoB\x9c89\xe2?'
p159
tp160
Rp161
tp162
a(S'twitter subtitling'
p163
g2
(g6
S'i&O\x16\x924\xe2?'
p164
tp165
Rp166
tp167
a(S'republik twitter'
p168
g2
(g6
S'\xa4\x9c\x1a|\xd5-\xe2?'
p169
tp170
Rp171
tp172
a(S'vijay pandurangan'
p173
g2
(g6
S'\x05\xd1\xf7(\x8e\xee\xe1?'
p174
tp175
Rp176
tp177
a(S'persiankiwi'
p178
g2
(g6
S'\x08.:\x19\x89\xc7\xe1?'
p179
tp180
Rp181
tp182
a(S'mention (blogging)'
p183
g2
(g6
S"\x81\xdb\x1c\xfd'[\xe1?"
p184
tp185
Rp186
tp187
a(S'tweetembed'
p188
g2
(g6
S'\x01\x98\xf4\xbadK\xe1?'
p189
tp190
Rp191
tp192
a(S'seesmic'
p193
g2
(g6
S'~rI![\x1d\xe1?'
p194
tp195
Rp196
tp197
a(S'hosebird'
p198
g2
(g6
S'\x19\xcf:*\x8e\x00\xe1?'
p199
tp200
Rp201
tp202
a(S'ritual view of communication'
p203
g2
(g6
S'gb\x86|\n\x8f\xe0?'
p204
tp205
Rp206
tp207
a(S'blaine cook (programmer)'
p208
g2
(g6
S'<O\xf5\x02\x17\x84\xe0?'
p209
tp210
Rp211
tp212
a(S'barack obama on social media'
p213
g2
(g6
S'\xefi\xb67\xc9\x1f\xe0?'
p214
tp215
Rp216
tp217
a(S'twitterbot'
p218
g2
(g6
S'HY\xa0\xc2\xaf\x1c\xe0?'
p219
tp220
Rp221
tp222
a(S'favstar'
p223
g2
(g6
S'\xde\xdfk!\xdf\t\xe0?'
p224
tp225
Rp226
tp227
a(S'schmap'
p228
g2
(g6
S'\x0b.\x80\x00\x98?\xdf?'
p229
tp230
Rp231
tp232
a(S'twitter zero'
p233
g2
(g6
S'\xfcA;\xa3\xfd\x07\xdf?'
p234
tp235
Rp236
tp237
a(S'stocktwits'
p238
g2
(g6
S'\x1a/p\xa8\x915\xdd?'
p239
tp240
Rp241
tp242
a(S'noah glass (twitter)'
p243
g2
(g6
S'\x821\xc8\xa3\x0c\x0c\xdd?'
p244
tp245
Rp246
tp247
a(S'faky'
p248
g2
(g6
S'\x9cm\xd0\xb8+\xd6\xdc?'
p249
tp250
Rp251
tp252
a(S'horse ebooks'
p253
g2
(g6
S'w)tq\xcd\xae\xdc?'
p254
tp255
Rp256
tp257
a(S'reblogging'
p258
g2
(g6
S'u\xfe\x93E}\x97\xdc?'
p259
tp260
Rp261
tp262
a(S'usabilaraby'
p263
g2
(g6
S'9\x8bZX\xdef\xdc?'
p264
tp265
Rp266
tp267
a(S'twitterrific'
p268
g2
(g6
S'a\xef\xe5\xaa|c\xdc?'
p269
tp270
Rp271
tp272
a(S'bno news'
p273
g2
(g6
S'\x1b\xee\xe3\xfd\xd8T\xdc?'
p274
tp275
Rp276
tp277
a(S'mikeyy'
p278
g2
(g6
S'O\xa0\xc5\x8a*\x00\xdc?'
p279
tp280
Rp281
tp282
a(S'dick costolo'
p283
g2
(g6
S'\x8e\x90\xf1\x14\xe5\xf8\xdb?'
p284
tp285
Rp286
tp287
a(S'roger cosmonkey'
p288
g2
(g6
S'\xf6~\xf8?\xb6\xed\xdb?'
p289
tp290
Rp291
tp292
a(S'wikileaks-related twitter court orders'
p293
g2
(g6
S'\xe8\xabn\xed\xc9\xb2\xdb?'
p294
tp295
Rp296
tp297
a(S'octopusocial'
p298
g2
(g6
S'\x92NG\xe3 \x86\xdb?'
p299
tp300
Rp301
tp302
a(S'twitter (disambiguation)'
p303
g2
(g6
S' \x03\xc4\xba\xf0#\xdb?'
p304
tp305
Rp306
tp307
a(S'twitcam'
p308
g2
(g6
S'\xc8\xec_j(\xd8\xda?'
p309
tp310
Rp311
tp312
a(S'hotot (program)'
p313
g2
(g6
S'tJ\xcb\xe4I\xbb\xda?'
p314
tp315
Rp316
tp317
a(S'brizzly'
p318
g2
(g6
S'\xe54|`n\x91\xda?'
p319
tp320
Rp321
tp322
a(S'rotation curation'
p323
g2
(g6
S'\xa5\xb8\x01\x0e\x89\x17\xda?'
p324
tp325
Rp326
tp327
a(S'heello'
p328
g2
(g6
S'W\xfa\x93\xecn\r\xda?'
p329
tp330
Rp331
tp332
a(S'weratedogs'
p333
g2
(g6
S'\xc6\xb6\xa0\xb1\xf0\xde\xd9?'
p334
tp335
Rp336
tp337
a(S'hacker croll'
p338
g2
(g6
S'\xf1~\x84\x81$\xd4\xd9?'
p339
tp340
Rp341
tp342
a(S'evan williams (internet entrepreneur)'
p343
g2
(g6
S'9\xef\x97\xe4\xa8\xbb\xd9?'
p344
tp345
Rp346
tp347
a(S'ali rowghani'
p348
g2
(g6
S'\xb4\xf8YW\xfc\xb8\xd9?'
p349
tp350
Rp351
tp352
a(S'howard lindzon'
p353
g2
(g6
S'\x06\xb4q\n\xc6l\xd9?'
p354
tp355
Rp356
tp357
a(S'social media and television'
p358
g2
(g6
S'\xbf\xae\xed\xeb\x1f.\xd9?'
p359
tp360
Rp361
tp362
a(S'ribbon (company)'
p363
g2
(g6
S'!\x13\x17a\xb8\x1c\xd9?'
p364
tp365
Rp366
tp367
a(S'matt stewart (author)'
p368
g2
(g6
S'\xb5"O\x96R\x00\xd9?'
p369
tp370
Rp371
tp372
a(S'farah baker'
p373
g2
(g6
S'\x80\x93\x136\x93\xd9\xd8?'
p374
tp375
Rp376
tp377
a(S'virato social news'
p378
g2
(g6
S'F\xfei\xd4\xe3\xbb\xd8?'
p379
tp380
Rp381
tp382
a(S'jack dorsey'
p383
g2
(g6
S'I9\xa0\xe6\x15\xac\xd8?'
p384
tp385
Rp386
tp387
a(S'gnip'
p388
g2
(g6
S'[\xa6\xd5J\xfdl\xd8?'
p389
tp390
Rp391
tp392
a(S'list of mergers and acquisitions by twitter'
p393
g2
(g6
S'y\xbb\xbd\x91\xc0b\xd8?'
p394
tp395
Rp396
tp397
a(S'shit girls say'
p398
g2
(g6
S'>@"\\\xd8P\xd8?'
p399
tp400
Rp401
tp402
a(S'samaritans radar'
p403
g2
(g6
S'\xe0\xe7\x1a\x94\xbaN\xd8?'
p404
tp405
Rp406
tp407
a(S'u2opia mobile'
p408
g2
(g6
S'-\x93\x90GOJ\xd8?'
p409
tp410
Rp411
tp412
a(S'fflick'
p413
g2
(g6
S'\xed\x81\xedC\x91B\xd8?'
p414
tp415
Rp416
tp417
a(S'national commission of telecommunications'
p418
g2
(g6
S'\x11\xc8Kg\x8f\x1e\xd8?'
p419
tp420
Rp421
tp422
a(S'whyistayed/whyileft'
p423
g2
(g6
S'\x80l\xd1W\x9b\x01\xd8?'
p424
tp425
Rp426
tp427
a(S'gabriel stricker'
p428
g2
(g6
S'\xb7\xe68\xa28\xe4\xd7?'
p429
tp430
Rp431
tp432
a(S'yfrog'
p433
g2
(g6
S'^#\x9b\xcb\x12\xd4\xd7?'
p434
tp435
Rp436
tp437
a(S'speak to tweet'
p438
g2
(g6
S'[T\xfe\xac\x15\xc7\xd7?'
p439
tp440
Rp441
tp442
a(S'stolen!'
p443
g2
(g6
S'\xeeA\x83\x8b\xd6\xc6\xd7?'
p444
tp445
Rp446
tp447
a(S'real-name system'
p448
g2
(g6
S' t\x8d-\x02\xc5\xd7?'
p449
tp450
Rp451
tp452
a(S'xtian dela'
p453
g2
(g6
S'\xee\x02+8<\xb5\xd7?'
p454
tp455
Rp456
tp457
a(S'qaiku'
p458
g2
(g6
S'\x9f\x00\xda\x05\xe5\x92\xd7?'
p459
tp460
Rp461
tp462
a(S'peerpong'
p463
g2
(g6
S'+\x16\x9c\x9b\xbcj\xd7?'
p464
tp465
Rp466
tp467
a(S'geosocial networking'
p468
g2
(g6
S'\xfeg\xca<\xdcT\xd7?'
p469
tp470
Rp471
tp472
a(S'google real-time search'
p473
g2
(g6
S'\x8c_\xb3\xe85?\xd7?'
p474
tp475
Rp476
tp477
a(S'flutrack'
p478
g2
(g6
S'\xbc\xe0H\xc3\x9e\x07\xd7?'
p479
tp480
Rp481
tp482
a(S'crashlytics'
p483
g2
(g6
S'\x86\x98\x04\x8a\xa4\x00\xd7?'
p484
tp485
Rp486
tp487
a(S'simplytweet'
p488
g2
(g6
S'y\xa2>\x8au\xf6\xd6?'
p489
tp490
Rp491
tp492
a(S'peoplebrowsr'
p493
g2
(g6
S'\x142\x18\x84\xb1\xe5\xd6?'
p494
tp495
Rp496
tp497
a(S'twimight'
p498
g2
(g6
S'\xb11#\xb4\xa8\xe3\xd6?'
p499
tp500
Rp501
tp502
a(S'mrs stephen fry'
p503
g2
(g6
S'\x94\x80\x13\xf6\x06\xde\xd6?'
p504
tp505
Rp506
tp507
a(S'nanofiction'
p508
g2
(g6
S"'\x98\x18\xd9\xfe\x87\xd6?"
p509
tp510
Rp511
tp512
a(S'laura fitton'
p513
g2
(g6
S'X\xa9*\xfeSm\xd6?'
p514
tp515
Rp516
tp517
a(S'legion hacktivist group'
p518
g2
(g6
S'fL\x1dq9l\xd6?'
p519
tp520
Rp521
tp522
a(S'quartweet'
p523
g2
(g6
S"\xfe'\xe0\x9f\x8aR\xd6?"
p524
tp525
Rp526
tp527
a(S'katie jacobs stanton'
p528
g2
(g6
S'\xf3b\xf5SsP\xd6?'
p529
tp530
Rp531
tp532
a(S'12secondstv'
p533
g2
(g6
S'{\x13\xea/\xd0F\xd6?'
p534
tp535
Rp536
tp537
a(S'michael van poppel'
p538
g2
(g6
S'\xaa\xfc\xecm_5\xd6?'
p539
tp540
Rp541
tp542
a(S'socialflow'
p543
g2
(g6
S"G\x05\xb3\x9c'$\xd6?"
p544
tp545
Rp546
tp547
a(S'tribe (internet)'
p548
g2
(g6
S'2hq\xc0s\x1b\xd6?'
p549
tp550
Rp551
tp552
a(S'sysomos'
p553
g2
(g6
S'lXW\x13\xd7\x18\xd6?'
p554
tp555
Rp556
tp557
a(S'topsy labs'
p558
g2
(g6
S'_A\x1b\xcd"\xff\xd5?'
p559
tp560
Rp561
tp562
a(S'list of most followed users on twitter'
p563
g2
(g6
S'\xc9X\x7fO\x80\xe3\xd5?'
p564
tp565
Rp566
tp567
a(S'twitart.com'
p568
g2
(g6
S'\xe6\x8a\xfa\xbb\xb7\xdc\xd5?'
p569
tp570
Rp571
tp572
a(S'mike abbott'
p573
g2
(g6
S'\xdb1\xe1T)\xcd\xd5?'
p574
tp575
Rp576
tp577
a(S'april underwood'
p578
g2
(g6
S'\x99b\xa5V\xb6\xc4\xd5?'
p579
tp580
Rp581
tp582
a(S'pheed'
p583
g2
(g6
S'\x81\xc5\x80\xa9`\xaa\xd5?'
p584
tp585
Rp586
tp587
a(S'twitchy'
p588
g2
(g6
S'\xd2\\\xc3\xf1\x90\xa8\xd5?'
p589
tp590
Rp591
tp592
a(S'careerarc social recruiting'
p593
g2
(g6
S'wI\x90m\x8d\x8f\xd5?'
p594
tp595
Rp596
tp597
a(S'penelope brown (journalist)'
p598
g2
(g6
S'\xa83S\xdf d\xd5?'
p599
tp600
Rp601
tp602
a(S'viralheat'
p603
g2
(g6
S'\x7f\x00%E\xd6Y\xd5?'
p604
tp605
Rp606
tp607
a(S'james fridman'
p608
g2
(g6
S'J\xf7hN(S\xd5?'
p609
tp610
Rp611
tp612
a(S'fanfou'
p613
g2
(g6
S'\xaf9\xb5}\x08C\xd5?'
p614
tp615
Rp616
tp617
a(S'ex-muslims of north america'
p618
g2
(g6
S'\x16\x915\xe4{4\xd5?'
p619
tp620
Rp621
tp622
a(S'claire diaz ortiz'
p623
g2
(g6
S'\x13\xef\xa8\x1b\xfd\x1e\xd5?'
p624
tp625
Rp626
tp627
a(S'ctb v news group newspapers ltd'
p628
g2
(g6
S'\xfan1\xf5{\x0b\xd5?'
p629
tp630
Rp631
tp632
a(S'pownce'
p633
g2
(g6
S'\xf2\xe0\xe9\xc5Y\x04\xd5?'
p634
tp635
Rp636
tp637
a(S'simon oxley'
p638
g2
(g6
S'\xa2\x88\x0c\xb7U\x02\xd5?'
p639
tp640
Rp641
tp642
a(S'fuat avni'
p643
g2
(g6
S'\xe7\x1b"(\xb4\xdb\xd4?'
p644
tp645
Rp646
tp647
a(S"it's on with alexa chung"
p648
g2
(g6
S'\xac\x85\x03HD\xa5\xd4?'
p649
tp650
Rp651
tp652
a(S'cheng jianping'
p653
g2
(g6
S'\xbf\x0fP&\xe5\xa0\xd4?'
p654
tp655
Rp656
tp657
a(S'internet activism during the 2009 iranian election protests'
p658
g2
(g6
S'\xcdD\x97\x10\xeb\x94\xd4?'
p659
tp660
Rp661
tp662
a(S'trendrr'
p663
g2
(g6
S'D\x02\xef\x8d=@\xd4?'
p664
tp665
Rp666
tp667
a(S'flockdb'
p668
g2
(g6
S'{=\xfcg\x92.\xd4?'
p669
tp670
Rp671
tp672
a(S'use of social media in the wisconsin protests'
p673
g2
(g6
S'\x8c\xebQA\xc4\x16\xd4?'
p674
tp675
Rp676
tp677
a(S'easy chirp'
p678
g2
(g6
S'R\x89\x18"\xf2\x12\xd4?'
p679
tp680
Rp681
tp682
a(S'investment in social media'
p683
g2
(g6
S' D\xf2>\xd7\xfd\xd3?'
p684
tp685
Rp686
tp687
a(S'siyanda mohutsiwa'
p688
g2
(g6
S'V\x17\xf7\x0b\xf3\xf6\xd3?'
p689
tp690
Rp691
tp692
a(S'milo yiannopoulos'
p693
g2
(g6
S'L=C\x9c\x10\xe5\xd3?'
p694
tp695
Rp696
tp697
a(S'loren brichter'
p698
g2
(g6
S'\xcc2\x89k\xeb\xe4\xd3?'
p699
tp700
Rp701
tp702
a(S'glastopoem'
p703
g2
(g6
S'\xf6\xe0\x0fN\xfa\xe2\xd3?'
p704
tp705
Rp706
tp707
a(S'lanyrd'
p708
g2
(g6
S'w\xb8U\xbc@\xe1\xd3?'
p709
tp710
Rp711
tp712
a(S'derwent capital markets'
p713
g2
(g6
S'(\x91$\xbbE\xbe\xd3?'
p714
tp715
Rp716
tp717
a(S'hootsuite'
p718
g2
(g6
S'\xe6\x8c\x9f\x8cl\xa1\xd3?'
p719
tp720
Rp721
tp722
a(S'pontiflex'
p723
g2
(g6
S'\x10EC\xe4}\xa0\xd3?'
p724
tp725
Rp726
tp727
a(S'social media'
p728
g2
(g6
S'\xfdq\x9a\xe9_\x99\xd3?'
p729
tp730
Rp731
tp732
a(S'hashtag'
p733
g2
(g6
S'5\xa6\xbdQn\x7f\xd3?'
p734
tp735
Rp736
tp737
a(S'deb roy'
p738
g2
(g6
S'\xa7\xe6i\xae\xdb{\xd3?'
p739
tp740
Rp741
tp742
a(S'jaiku'
p743
g2
(g6
S'G\xfaq[\x1d{\xd3?'
p744
tp745
Rp746
tp747
a(S'shabooty'
p748
g2
(g6
S'^\xc1/\xec\xe5y\xd3?'
p749
tp750
Rp751
tp752
a(S'me2day'
p753
g2
(g6
S'\xb5\xc0u\xbe\x8bj\xd3?'
p754
tp755
Rp756
tp757
a(S'jeff seibert'
p758
g2
(g6
S';\xbel\\\xa9e\xd3?'
p759
tp760
Rp761
tp762
a(S'milifandom'
p763
g2
(g6
S'V\xcb\x08\x8c\xe4K\xd3?'
p764
tp765
Rp766
tp767
a(S'medium (website)'
p768
g2
(g6
S'M\xc5\x92\x16MD\xd3?'
p769
tp770
Rp771
tp772
a(S'chapo trap house'
p773
g2
(g6
S'\x86\xce\xe7\x87"A\xd3?'
p774
tp775
Rp776
tp777
a(S'caroline criado-perez'
p778
g2
(g6
S'iw\xd0\xb3\xc1?\xd3?'
p779
tp780
Rp781
tp782
a(S'indigenous tweets'
p783
g2
(g6
S'\xe76\x19\x91f \xd3?'
p784
tp785
Rp786
tp787
a(S'hajjaj al-ajmi'
p788
g2
(g6
S'\xc3w{|{\t\xd3?'
p789
tp790
Rp791
tp792
a(S'backchannel'
p793
g2
(g6
S'\xdd$\xc6$\n\xfc\xd2?'
p794
tp795
Rp796
tp797
a(S'phonedog v. kravitz'
p798
g2
(g6
S'\x84u\x1a\x9d\xd9\xdd\xd2?'
p799
tp800
Rp801
tp802
a(S'kirstine stewart'
p803
g2
(g6
S'\x9b\x89W\x16\x08\xdc\xd2?'
p804
tp805
Rp806
tp807
a(S'frienditeplus'
p808
g2
(g6
S'\x07q2\x7fG\xdb\xd2?'
p809
tp810
Rp811
tp812
a(S'breaking tweets'
p813
g2
(g6
S'\xad\xedn\xab\x99\xd3\xd2?'
p814
tp815
Rp816
tp817
a(S'bootstrapcdn'
p818
g2
(g6
S'\xc2\x8e\x8f\xc5\xb9\xd1\xd2?'
p819
tp820
Rp821
tp822
a(S'gnu social'
p823
g2
(g6
S'\xceu\x88\xfc\x9f\xb9\xd2?'
p824
tp825
Rp826
tp827
a(S'matthew karwalski'
p828
g2
(g6
S'\xcdP4\x87\xc6\x9c\xd2?'
p829
tp830
Rp831
tp832
a(S'syrian electronic army'
p833
g2
(g6
S'\x0c\xc5/3A\x91\xd2?'
p834
tp835
Rp836
tp837
a(S'taghreedat'
p838
g2
(g6
S'\xe6A\x81\xea\x1e\x8f\xd2?'
p839
tp840
Rp841
tp842
a(S'cybersquatting'
p843
g2
(g6
S';e\xd1\xc3%\x84\xd2?'
p844
tp845
Rp846
tp847
a(S'thingbuzz'
p848
g2
(g6
S',\xd3}+q/\xd2?'
p849
tp850
Rp851
tp852
a(S'bana alabed'
p853
g2
(g6
S'\xb2\xd2\x18ON\xff\xd1?'
p854
tp855
Rp856
tp857
a(S'black women syllabus'
p858
g2
(g6
S'\xfa\x8b}\xf1\xeb\xf8\xd1?'
p859
tp860
Rp861
tp862
a(S'the sport review'
p863
g2
(g6
S'\x14\xda\x93V\x9c\xf5\xd1?'
p864
tp865
Rp866
tp867
a(S'posterous'
p868
g2
(g6
S'\x1b\xd1\xb7\xad+\xd9\xd1?'
p869
tp870
Rp871
tp872
a(S'frrole'
p873
g2
(g6
S'b\x07;\x9fp\xc7\xd1?'
p874
tp875
Rp876
tp877
a(S'charleston syllabus'
p878
g2
(g6
S'\xe3\xa0Z\xbd\x14\xc5\xd1?'
p879
tp880
Rp881
tp882
a(S'ugnazi'
p883
g2
(g6
S'\x17\x7fD.\x88\xb2\xd1?'
p884
tp885
Rp886
tp887
a(S'socialbakers'
p888
g2
(g6
S'\x11\x12\xe4\xc9p\x92\xd1?'
p889
tp890
Rp891
tp892
a(S'promojam'
p893
g2
(g6
S'\x11\xd8\xc2\xcaT\x87\xd1?'
p894
tp895
Rp896
tp897
a(S'tay (bot)'
p898
g2
(g6
S'\xd1\xffnl\xa4}\xd1?'
p899
tp900
Rp901
tp902
a(S'aldub'
p903
g2
(g6
S'\xbcy9\xa7ij\xd1?'
p904
tp905
Rp906
tp907
a(S'yo (album)'
p908
g2
(g6
S'\xf5\xbfO\xdb\xf0]\xd1?'
p909
tp910
Rp911
tp912
a(S'craig stone (author)'
p913
g2
(g6
S'hg\xf3\x89\xc7Y\xd1?'
p914
tp915
Rp916
tp917
a(S'trazzler'
p918
g2
(g6
S'\x95\x05\xc0[]G\xd1?'
p919
tp920
Rp921
tp922
a(S'mark ghuneim'
p923
g2
(g6
S'\x82\xcf\xda\xb1\xf3B\xd1?'
p924
tp925
Rp926
tp927
a(S'daniel jeremiah'
p928
g2
(g6
S'Q\xeeG#D8\xd1?'
p929
tp930
Rp931
tp932
a(S'vikram sood'
p933
g2
(g6
S"I\x10\xaf'\xc87\xd1?"
p934
tp935
Rp936
tp937
a(S'tween (software)'
p938
g2
(g6
S'\xb7\xbd\x9f;\xfa$\xd1?'
p939
tp940
Rp941
tp942
a(S'kelly oxford'
p943
g2
(g6
S'rm\xeb8W\x1f\xd1?'
p944
tp945
Rp946
tp947
a(S'flipora'
p948
g2
(g6
S'\xa5t\x05\xbb\x94\x18\xd1?'
p949
tp950
Rp951
tp952
a(S'spark capital'
p953
g2
(g6
S'n\xe5\x8f\xf2\xaa\xf7\xd0?'
p954
tp955
Rp956
tp957
a(S'reply marketing'
p958
g2
(g6
S'\xf7\x95tO\x1d\xea\xd0?'
p959
tp960
Rp961
tp962
a(S'tweetbot'
p963
g2
(g6
S'\xb4}Cd\x94\xe3\xd0?'
p964
tp965
Rp966
tp967
a(S'dmitry chernyshenko'
p968
g2
(g6
S'\xc9\x91o\x97-\xd8\xd0?'
p969
tp970
Rp971
tp972
a(S'black box (short story)'
p973
g2
(g6
S'\xdacI\xbb\x01\xb7\xd0?'
p974
tp975
Rp976
tp977
a(S'johan bollen'
p978
g2
(g6
S'\xa2[\xc9\xfa\x03\xb0\xd0?'
p979
tp980
Rp981
tp982
a(S'moonfruit'
p983
g2
(g6
S'\\\xa4z\x0e)\xaa\xd0?'
p984
tp985
Rp986
tp987
a(S'notallmen'
p988
g2
(g6
S'(\xea-]\xbe\xa7\xd0?'
p989
tp990
Rp991
tp992
a(S'klout'
p993
g2
(g6
S'\xa2H\xbe\x84\x7f\xa6\xd0?'
p994
tp995
Rp996
tp997
a(S'seriously mcdonalds'
p998
g2
(g6
S'\xdf\xd4\xc9\xd7\xe6\x94\xd0?'
p999
tp1000
Rp1001
tp1002
a(S'bill lavoy'
p1003
g2
(g6
S'\xc5l\x91#\x10\x82\xd0?'
p1004
tp1005
Rp1006
tp1007
a(S'paul smith (blogger)'
p1008
g2
(g6
S'\xb7\x1f[\xd5\xce\x80\xd0?'
p1009
tp1010
Rp1011
tp1012
a(S'negicco'
p1013
g2
(g6
S'\xfd\x8d\xec\xa4\xba|\xd0?'
p1014
tp1015
Rp1016
tp1017
a(S'prayerbox'
p1018
g2
(g6
S'-\xe2\x13\x8eFu\xd0?'
p1019
tp1020
Rp1021
tp1022
a(S'live media'
p1023
g2
(g6
S'\xdf\rL\xa8\x1dq\xd0?'
p1024
tp1025
Rp1026
tp1027
a(S'israelpolitik'
p1028
g2
(g6
S'0\xe7\x8f\xbdnT\xd0?'
p1029
tp1030
Rp1031
tp1032
a(S'journal club'
p1033
g2
(g6
S'\x1bl;\x1a\xb0K\xd0?'
p1034
tp1035
Rp1036
tp1037
a(S'slashtag'
p1038
g2
(g6
S'\xa9\xdf!5\x0f<\xd0?'
p1039
tp1040
Rp1041
tp1042
a(S'joel comm'
p1043
g2
(g6
S'Z\x10H\xb4{1\xd0?'
p1044
tp1045
Rp1046
tp1047
a(S'awareness avatar'
p1048
g2
(g6
S'\x9bB~k\x87+\xd0?'
p1049
tp1050
Rp1051
tp1052
a(S'thaqafi tulkarm'
p1053
g2
(g6
S'F\x12s*\x98\x16\xd0?'
p1054
tp1055
Rp1056
tp1057
a(S'privacy concerns with social networking services'
p1058
g2
(g6
S'\xdf\x8aw\xe8T\x0f\xd0?'
p1059
tp1060
Rp1061
tp1062
a(S'terrorism and social media'
p1063
g2
(g6
S'\x9f\xae\xbe\x931\x07\xd0?'
p1064
tp1065
Rp1066
tp1067
a(S'landmarkshops'
p1068
g2
(g6
S'\xa3\xc5<\x85\x03\xe6\xcf?'
p1069
tp1070
Rp1071
tp1072
a(S'gypsii'
p1073
g2
(g6
S'K\xce\x94|\xf2\xd7\xcf?'
p1074
tp1075
Rp1076
tp1077
a(S'micropoetry'
p1078
g2
(g6
S'l\r\xba?\xf0\xc5\xcf?'
p1079
tp1080
Rp1081
tp1082
a(S'sally bercow'
p1083
g2
(g6
S'\xa4\xeeRL\x17\xbf\xcf?'
p1084
tp1085
Rp1086
tp1087
a(S'social media marketing'
p1088
g2
(g6
S'\x06g\x81]S\x8f\xcf?'
p1089
tp1090
Rp1091
tp1092
a(S'gaa scores'
p1093
g2
(g6
S'\xd8\x1ee\x83D\x8e\xcf?'
p1094
tp1095
Rp1096
tp1097
a(S'trafficdito'
p1098
g2
(g6
S'T\xd4\x18a\x87\x88\xcf?'
p1099
tp1100
Rp1101
tp1102
a(S'photobucket'
p1103
g2
(g6
S'k\xa9\x8e\xa9\x11w\xcf?'
p1104
tp1105
Rp1106
tp1107
a(S'gary striewski'
p1108
g2
(g6
S'\x1f\xca\xb4$\xc1k\xcf?'
p1109
tp1110
Rp1111
tp1112
a(S'like button'
p1113
g2
(g6
S's\x9d\x05\xad\x13b\xcf?'
p1114
tp1115
Rp1116
tp1117
a(S'gab (social network)'
p1118
g2
(g6
S'\xc9\xdc*\x03\xbeS\xcf?'
p1119
tp1120
Rp1121
tp1122
a(S'later (song)'
p1123
g2
(g6
S'\xaeM\xffi\x8aH\xcf?'
p1124
tp1125
Rp1126
tp1127
a(S'failbook'
p1128
g2
(g6
S'\xf5(pgeE\xcf?'
p1129
tp1130
Rp1131
tp1132
a(S'why five'
p1133
g2
(g6
S'\xec\xe2\xce\x7f\xdb0\xcf?'
p1134
tp1135
Rp1136
tp1137
a(S'shorty awards'
p1138
g2
(g6
S'5\x99\x9a\x9c\x8b+\xcf?'
p1139
tp1140
Rp1141
tp1142
a(S'jacqueline davies'
p1143
g2
(g6
S'f\x16\xf3&t\x11\xcf?'
p1144
tp1145
Rp1146
tp1147
a(S'o.t.t (song)'
p1148
g2
(g6
S'\xb3$|>\xbb\x10\xcf?'
p1149
tp1150
Rp1151
tp1152
a(S'pearltrees'
p1153
g2
(g6
S'\xf27!\x0bU\x03\xcf?'
p1154
tp1155
Rp1156
tp1157
a(S'dailybooth'
p1158
g2
(g6
S'\x98S\xce\xcd\x9f\xfa\xce?'
p1159
tp1160
Rp1161
tp1162
a(S'ghost followers'
p1163
g2
(g6
S'jZ<\xaa?\xf4\xce?'
p1164
tp1165
Rp1166
tp1167
a(S'studentadvisor'
p1168
g2
(g6
S'F\xd43>\xd8\xe9\xce?'
p1169
tp1170
Rp1171
tp1172
a(S'r v elliott'
p1173
g2
(g6
S']\xc4\xa5\xaf\xc3\xe3\xce?'
p1174
tp1175
Rp1176
tp1177
a(S'meerkat (app)'
p1178
g2
(g6
S'\xea2M&\xb8\xda\xce?'
p1179
tp1180
Rp1181
tp1182
a(S'blippy'
p1183
g2
(g6
S'\xbf\xb3\xbd\x91}\xb5\xce?'
p1184
tp1185
Rp1186
tp1187
a(S'e-dostluk'
p1188
g2
(g6
S'\xc33s\xc5\xc9\xa6\xce?'
p1189
tp1190
Rp1191
tp1192
a(S'soundtracker (music streaming)'
p1193
g2
(g6
S'\xad#ZT\xdb\xa5\xce?'
p1194
tp1195
Rp1196
tp1197
a(S'kardashian index'
p1198
g2
(g6
S'\x84\x11\x14#\xfa\xa4\xce?'
p1199
tp1200
Rp1201
tp1202
a(S'comparison of microblogging services'
p1203
g2
(g6
S'\xdc*\x87\x1b\xa2\x81\xce?'
p1204
tp1205
Rp1206
tp1207
a(S'the beat 99.9 fm'
p1208
g2
(g6
S'\xcf\xd7\x94\xe2\x9b{\xce?'
p1209
tp1210
Rp1211
tp1212
a(S'social network advertising'
p1213
g2
(g6
S'\xc5>\xa8} z\xce?'
p1214
tp1215
Rp1216
tp1217
a(S'pwytter'
p1218
g2
(g6
S'\xd5\xa0d\xd9;w\xce?'
p1219
tp1220
Rp1221
tp1222
a(S'usamah mohamad'
p1223
g2
(g6
S'\x81]C\x8c\xdff\xce?'
p1224
tp1225
Rp1226
tp1227
a(S'mory diaw'
p1228
g2
(g6
S'\xdf\xc8\x8e\x1a\x97b\xce?'
p1229
tp1230
Rp1231
tp1232
a(S'justpaste.it'
p1233
g2
(g6
S'\xe9\xd6\xc1\xb4\x91`\xce?'
p1234
tp1235
Rp1236
tp1237
a(S'censorship in venezuela'
p1238
g2
(g6
S'!\n\t*\x87`\xce?'
p1239
tp1240
Rp1241
tp1242
a(S'friendfeed'
p1243
g2
(g6
S'#F\xe7\x90\xb9P\xce?'
p1244
tp1245
Rp1246
tp1247
a(S'lucyphone'
p1248
g2
(g6
S'+`o5\xebI\xce?'
p1249
tp1250
Rp1251
tp1252
a(S'keek'
p1253
g2
(g6
S"\x11'\xfa\x03uG\xce?"
p1254
tp1255
Rp1256
tp1257
a(S'yahoo! meme'
p1258
g2
(g6
S'2PM<\xe3E\xce?'
p1259
tp1260
Rp1261
tp1262
a(S'total film'
p1263
g2
(g6
S'zw\xe0\xfa\x1b8\xce?'
p1264
tp1265
Rp1266
tp1267
a(S'death and the internet'
p1268
g2
(g6
S'wy\xf5[P%\xce?'
p1269
tp1270
Rp1271
tp1272
a(S'rael dornfest'
p1273
g2
(g6
S'P\x8a\xaf\xa2\xf8\x1e\xce?'
p1274
tp1275
Rp1276
tp1277
a(S'brandjacking'
p1278
g2
(g6
S'-\t\x14\xd8:\x1b\xce?'
p1279
tp1280
Rp1281
tp1282
a(S'2011 mexican drug gang attack twitter hoax'
p1283
g2
(g6
S"'\xb8p\xdc%\x1a\xce?"
p1284
tp1285
Rp1286
tp1287
a(S'cybernat'
p1288
g2
(g6
S'\xc9\xc7]96\xf9\xcd?'
p1289
tp1290
Rp1291
tp1292
a(S'alec sulkin'
p1293
g2
(g6
S'M\xdb&\x89\xe9\xf5\xcd?'
p1294
tp1295
Rp1296
tp1297
a(S'social information seeking'
p1298
g2
(g6
S'\xe2(wT(\xf0\xcd?'
p1299
tp1300
Rp1301
tp1302
a(S'directgov'
p1303
g2
(g6
S'\x932q4\xee\xee\xcd?'
p1304
tp1305
Rp1306
tp1307
a(S'list of the late late show with craig ferguson episodes (2005)'
p1308
g2
(g6
S'\xb1}\xc1\x8e\xec\xda\xcd?'
p1309
tp1310
Rp1311
tp1312
a(S'list of the late late show with craig ferguson episodes (2014)'
p1313
g2
(g6
S'\xb1}\xc1\x8e\xec\xda\xcd?'
p1314
tp1315
Rp1316
tp1317
a(S'list of the late late show with craig ferguson episodes (2008)'
p1318
g2
(g6
S'\xb1}\xc1\x8e\xec\xda\xcd?'
p1319
tp1320
Rp1321
tp1322
a(S'list of the late late show with craig ferguson episodes (2006)'
p1323
g2
(g6
S'\xb1}\xc1\x8e\xec\xda\xcd?'
p1324
tp1325
Rp1326
tp1327
a(S'list of the late late show with craig ferguson episodes (2009)'
p1328
g2
(g6
S'\xb1}\xc1\x8e\xec\xda\xcd?'
p1329
tp1330
Rp1331
tp1332
a(S'list of the late late show with craig ferguson episodes (2013)'
p1333
g2
(g6
S'\xb1}\xc1\x8e\xec\xda\xcd?'
p1334
tp1335
Rp1336
tp1337
a(S'curators of sweden'
p1338
g2
(g6
S'*(\xc9\x97\x19\xd1\xcd?'
p1339
tp1340
Rp1341
tp1342
a(S'identity on fire'
p1343
g2
(g6
S'\xebRc\x91x\xc8\xcd?'
p1344
tp1345
Rp1346
tp1347
a(S'digital diplomacy'
p1348
g2
(g6
S'7\xe9|l3\xb7\xcd?'
p1349
tp1350
Rp1351
tp1352
a(S'claudia ochoa felix'
p1353
g2
(g6
S'\x08\xaa\xafKt\xb4\xcd?'
p1354
tp1355
Rp1356
tp1357
a(S'marjorie scardino'
p1358
g2
(g6
S'\xecb\xde:\xb7\xa9\xcd?'
p1359
tp1360
Rp1361
tp1362
a(S'geofeedia'
p1363
g2
(g6
S'\xa5p#Kh\x8f\xcd?'
p1364
tp1365
Rp1366
tp1367
a(S'the unreal times'
p1368
g2
(g6
S'\x1d\x97,\x1c\x13\x8c\xcd?'
p1369
tp1370
Rp1371
tp1372
a(S'whisper systems'
p1373
g2
(g6
S' \x8e\xb1\x01l\x8a\xcd?'
p1374
tp1375
Rp1376
tp1377
a(S'the roar (website)'
p1378
g2
(g6
S'\xbeA!H\xf5\x83\xcd?'
p1379
tp1380
Rp1381
tp1382
a(S'lojinx'
p1383
g2
(g6
S'lL\x0c#gn\xcd?'
p1384
tp1385
Rp1386
tp1387
a(S'social pull marketing'
p1388
g2
(g6
S'\x88\x0eVg\x98i\xcd?'
p1389
tp1390
Rp1391
tp1392
a(S'fleinhausen'
p1393
g2
(g6
S'\xab-\xac\xf6\x82]\xcd?'
p1394
tp1395
Rp1396
tp1397
a(S'priyanka chaturvedi'
p1398
g2
(g6
S'\xbd\x98o?!]\xcd?'
p1399
tp1400
Rp1401
tp1402
a(S'masmou3'
p1403
g2
(g6
S'\xc4\x08\xe4\x12iJ\xcd?'
p1404
tp1405
Rp1406
tp1407
a(S'ows media group'
p1408
g2
(g6
S'\x0f\xd4\xfc"h@\xcd?'
p1409
tp1410
Rp1411
tp1412
a(S'new.music.live.'
p1413
g2
(g6
S'\xb0\xe8\x90\x1e#=\xcd?'
p1414
tp1415
Rp1416
tp1417
a(S'pressclub information agency'
p1418
g2
(g6
S'\x07\xc4*\x0bN7\xcd?'
p1419
tp1420
Rp1421
tp1422
a(S'yesallwomen'
p1423
g2
(g6
S'\xceW\xe8\xb8\x802\xcd?'
p1424
tp1425
Rp1426
tp1427
a(S'realmassive'
p1428
g2
(g6
S'&>&\xa5z-\xcd?'
p1429
tp1430
Rp1431
tp1432
a(S'gifboom'
p1433
g2
(g6
S'\xb5M\xcc\xc6\xfc)\xcd?'
p1434
tp1435
Rp1436
tp1437
a(S'after school club'
p1438
g2
(g6
S'\xcb\xaf\xee\x0c9#\xcd?'
p1439
tp1440
Rp1441
tp1442
a(S'zaida cucusa hern\xc3\xa1ndez'
p1443
g2
(g6
S'\xe6\x9e\x00;\xae\x07\xcd?'
p1444
tp1445
Rp1446
tp1447
a(S'runkeeper'
p1448
g2
(g6
S'\x18\xa5\x04\xabt\x07\xcd?'
p1449
tp1450
Rp1451
tp1452
a(S'grabyo'
p1453
g2
(g6
S'\x80\xc8\xd7\xc7b\x04\xcd?'
p1454
tp1455
Rp1456
tp1457
a(S'bradtheladlong'
p1458
g2
(g6
S'u\x0c\xe4\x08\x84\xff\xcc?'
p1459
tp1460
Rp1461
tp1462
a(S'hyves'
p1463
g2
(g6
S'b~q\xd4\xce\xfd\xcc?'
p1464
tp1465
Rp1466
tp1467
a(S'narendra rocherolle'
p1468
g2
(g6
S'\x9a[\xea\x08#\xfd\xcc?'
p1469
tp1470
Rp1471
tp1472
a(S'dom sagolla'
p1473
g2
(g6
S'\xdd\x15\xa6\x8c\x88\xf9\xcc?'
p1474
tp1475
Rp1476
tp1477
a(S'fiksimini'
p1478
g2
(g6
S'jc\xf7Y6\xf2\xcc?'
p1479
tp1480
Rp1481
tp1482
a(S'inq mobile'
p1483
g2
(g6
S'\x97\x07\xb8\x93\xbf\xf1\xcc?'
p1484
tp1485
Rp1486
tp1487
a(S'lionel perez (politician)'
p1488
g2
(g6
S'\xd2\x8a\n\x8dd\xed\xcc?'
p1489
tp1490
Rp1491
tp1492
a(S'cary carbonaro'
p1493
g2
(g6
S'R\xe1gi\\\xe1\xcc?'
p1494
tp1495
Rp1496
tp1497
a(S'blackplanet'
p1498
g2
(g6
S'\xf5\xb2\x99\x90\xbd\xe0\xcc?'
p1499
tp1500
Rp1501
tp1502
a(S'clutchpoints'
p1503
g2
(g6
S'\xbaI\x0c\xd6\x0c\xdf\xcc?'
p1504
tp1505
Rp1506
tp1507
a(S'web community'
p1508
g2
(g6
S'\x0cK/N^\xd7\xcc?'
p1509
tp1510
Rp1511
tp1512
a.