(lp0
(S'ultrasound'
p1
cnumpy.core.multiarray
scalar
p2
(cnumpy
dtype
p3
(S'f8'
p4
I0
I1
tp5
Rp6
(I3
S'<'
p7
NNNI-1
I-1
I0
tp8
bS'\x00\x00\x00\x00\x00\x00\xf0?'
p9
tp10
Rp11
tp12
a(S'ultrasound (disambiguation)'
p13
g2
(g6
S'\x89\x9eg\x82\x89\xd5\xea?'
p14
tp15
Rp16
tp17
a(S'home ultrasound'
p18
g2
(g6
S'#y\x90\x16\x93\xc8\xe6?'
p19
tp20
Rp21
tp22
a(S'therapeutic ultrasound'
p23
g2
(g6
S'\xd7\xa7\x82q\xc0\xab\xe5?'
p24
tp25
Rp26
tp27
a(S'ultrasonic transducer'
p28
g2
(g6
S'\x00e\xaa&;\xee\xe3?'
p29
tp30
Rp31
tp32
a(S'sonication'
p33
g2
(g6
S'D#\xdc\x95+r\xe3?'
p34
tp35
Rp36
tp37
a(S'ultrasound energy'
p38
g2
(g6
S'\xe0R\xdeUH.\xe3?'
p39
tp40
Rp41
tp42
a(S'3d ultrasound'
p43
g2
(g6
S'\x149\xa5\x01_,\xe3?'
p44
tp45
Rp46
tp47
a(S'medical ultrasound'
p48
g2
(g6
S'd\x86\x9e\x9bu\x0c\xe3?'
p49
tp50
Rp51
tp52
a(S'ultrasonic toothbrush'
p53
g2
(g6
S'\xfed\r\x1aDp\xe2?'
p54
tp55
Rp56
tp57
a(S'electronic pest control'
p58
g2
(g6
S'YI\x10\x9b\x17J\xe2?'
p59
tp60
Rp61
tp62
a(S'american institute of ultrasound in medicine'
p63
g2
(g6
S' \xd2j\xa3jF\xe2?'
p64
tp65
Rp66
tp67
a(S'sonochemistry'
p68
g2
(g6
S'\xd2\xaeCZ|C\xe2?'
p69
tp70
Rp71
tp72
a(S'ultrasonic horn'
p73
g2
(g6
S"\x0e\xb3'0'.\xe2?"
p74
tp75
Rp76
tp77
a(S'sound from ultrasound'
p78
g2
(g6
S'\xc8\xe7\xd3\xb1C\x15\xe2?'
p79
tp80
Rp81
tp82
a(S'high-intensity focused ultrasound'
p83
g2
(g6
S'h\xa3\n\x9b&\x11\xe2?'
p84
tp85
Rp86
tp87
a(S'ultrasound avoidance'
p88
g2
(g6
S'n\x12\x89\x17\xcc\xd1\xe1?'
p89
tp90
Rp91
tp92
a(S'ultrasonic testing'
p93
g2
(g6
S'\x87\x92\xf8\xb2E\x9b\xe1?'
p94
tp95
Rp96
tp97
a(S'siui'
p98
g2
(g6
S'L\xac\xa1l\x02c\xe1?'
p99
tp100
Rp101
tp102
a(S'emergency ultrasound'
p103
g2
(g6
S'\xfb\x03\xba\x05IJ\xe1?'
p104
tp105
Rp106
tp107
a(S'foundation for focused ultrasound research'
p108
g2
(g6
S'\xbd\x97\xdad\xe1-\xe1?'
p109
tp110
Rp111
tp112
a(S'ultrasound biomicroscopy'
p113
g2
(g6
S'\x80>\xbe\xe8\xb0\xdc\xe0?'
p114
tp115
Rp116
tp117
a(S'peter n. t. wells'
p118
g2
(g6
S'B\xd7\xb9\x1d\xa6\xd4\xe0?'
p119
tp120
Rp121
tp122
a(S'automated whole-breast ultrasound'
p123
g2
(g6
S'\x93\x86\x16U\x13\xb5\xe0?'
p124
tp125
Rp126
tp127
a(S'non-contact ultrasound'
p128
g2
(g6
S'\xde\x1e\x1ez)~\xe0?'
p129
tp130
Rp131
tp132
a(S'contrast-enhanced ultrasound'
p133
g2
(g6
S'\xcei\xf0\x81g;\xe0?'
p134
tp135
Rp136
tp137
a(S'abdominal ultrasonography'
p138
g2
(g6
S'\x82\xa5y\xca\xc0\x03\xe0?'
p139
tp140
Rp141
tp142
a(S'ultrasound computer tomography'
p143
g2
(g6
S'\xf4\x1euh5\xa0\xdf?'
p144
tp145
Rp146
tp147
a(S'portable ultrasound'
p148
g2
(g6
S'R\xc7\xa8<\xefT\xdf?'
p149
tp150
Rp151
tp152
a(S'breast ultrasound'
p153
g2
(g6
S'9\xd0\x82\x08\xcd7\xdf?'
p154
tp155
Rp156
tp157
a(S'advanced diagnostic ultrasound in microgravity'
p158
g2
(g6
S'\xbav\xb05\'"\xdf?'
p159
tp160
Rp161
tp162
a(S'terason'
p163
g2
(g6
S'\xa0QO\n\x01\xe9\xde?'
p164
tp165
Rp166
tp167
a(S'diagnostic medical sonography'
p168
g2
(g6
S'\xb6\x93\xc5\xe7P\xe7\xde?'
p169
tp170
Rp171
tp172
a(S'neuromuscular ultrasound'
p173
g2
(g6
S',\x86\xff\xc8\xd2\xaa\xde?'
p174
tp175
Rp176
tp177
a(S'pre-hospital ultrasound'
p178
g2
(g6
S'XK\x08\x9b\x82\xa4\xde?'
p179
tp180
Rp181
tp182
a(S'lilfu'
p183
g2
(g6
S'\xadj\x90\n\x9f\x9d\xde?'
p184
tp185
Rp186
tp187
a(S'ubeam'
p188
g2
(g6
S'\x7fs\xef\xcc\xfdQ\xde?'
p189
tp190
Rp191
tp192
a(S'ultrasonic antifouling'
p193
g2
(g6
S'9C\xba\x03\x06\x13\xde?'
p194
tp195
Rp196
tp197
a(S'nadine barrie smith'
p198
g2
(g6
S'_cIPS\xb8\xdd?'
p199
tp200
Rp201
tp202
a(S'ian donald'
p203
g2
(g6
S'\x1c\xf7\x9e`\xae\x91\xdd?'
p204
tp205
Rp206
tp207
a(S'ultrasound in medicine and biology'
p208
g2
(g6
S'rk\xd4>t>\xdd?'
p209
tp210
Rp211
tp212
a(S'ultrasonic cleaning'
p213
g2
(g6
S'Y\xb0\x8f`\x0c2\xdd?'
p214
tp215
Rp216
tp217
a(S'ultrasound identification'
p218
g2
(g6
S'\x99\xad\xa8\x97\x0b0\xdd?'
p219
tp220
Rp221
tp222
a(S'mechanical index'
p223
g2
(g6
S'\x10\x13\xd9de\x10\xdd?'
p224
tp225
Rp226
tp227
a(S'roger sanders'
p228
g2
(g6
S'\xe9\xcc\x1f*o\xa0\xdc?'
p229
tp230
Rp231
tp232
a(S'transscrotal ultrasound'
p233
g2
(g6
S'W\x81\xdc\xa0\xf4\x80\xdc?'
p234
tp235
Rp236
tp237
a(S'ultrasonic drug delivery'
p238
g2
(g6
S'\\\xd9\xa0+\x11o\xdc?'
p239
tp240
Rp241
tp242
a(S'gene strandness'
p243
g2
(g6
S'\xb0\rYQ\x0bo\xdc?'
p244
tp245
Rp246
tp247
a(S'sonosim'
p248
g2
(g6
S'o\xb7Bc{.\xdc?'
p249
tp250
Rp251
tp252
a(S'ultrasound transmission tomography'
p253
g2
(g6
S'~\x86u\xf2\xd3\x17\xdc?'
p254
tp255
Rp256
tp257
a(S'obstetric ultrasonography'
p258
g2
(g6
S"\x1b\xab\xe4+'\r\xdc?"
p259
tp260
Rp261
tp262
a(S'sonotrode'
p263
g2
(g6
S'\x13\x8f\x99\xdb6\xfa\xdb?'
p264
tp265
Rp266
tp267
a(S'ultrasound-modulated optical tomography'
p268
g2
(g6
S'\x9d!\xf4\xfa\x88\xf3\xdb?'
p269
tp270
Rp271
tp272
a(S'ultrasonic hearing'
p273
g2
(g6
S'\x8e^y"}\xec\xdb?'
p274
tp275
Rp276
tp277
a(S'cranial ultrasound'
p278
g2
(g6
S'\xc3\xcc\xc5\xe8\xa2\xea\xdb?'
p279
tp280
Rp281
tp282
a(S'focused ultrasound foundation'
p283
g2
(g6
S'\x1b{\xd1E\x08\xb3\xdb?'
p284
tp285
Rp286
tp287
a(S'ultrasonic welding'
p288
g2
(g6
S'\x05\xd4\xe4??L\xdb?'
p289
tp290
Rp291
tp292
a(S'acuson'
p293
g2
(g6
S'$s\xd3\x82SI\xdb?'
p294
tp295
Rp296
tp297
a(S'index of physics articles (u)'
p298
g2
(g6
S'\xbf\xd8\xbb\xcc\xdfG\xdb?'
p299
tp300
Rp301
tp302
a(S'echogenicity'
p303
g2
(g6
S'\xefC\x1aV\xfd\x01\xdb?'
p304
tp305
Rp306
tp307
a(S'ultrasonic flow meter'
p308
g2
(g6
S'\x1a\xdf\xcb\xae}\xf5\xda?'
p309
tp310
Rp311
tp312
a(S'ultrasound research interface'
p313
g2
(g6
S'ff1\xf9o\x91\xda?'
p314
tp315
Rp316
tp317
a(S'ultrasound-enhanced systemic thrombolysis'
p318
g2
(g6
S'\xab\xfc\x90R\xf5\x8f\xda?'
p319
tp320
Rp321
tp322
a(S'ultrasonic motor'
p323
g2
(g6
S'\xa5*I\xc77,\xda?'
p324
tp325
Rp326
tp327
a(S'modulated ultrasound'
p328
g2
(g6
S'\xae]\x9f\x8f^\x04\xda?'
p329
tp330
Rp331
tp332
a(S'electric toothbrush'
p333
g2
(g6
S'\xa7Y\xef1\xbf\x88\xd9?'
p334
tp335
Rp336
tp337
a(S'megasonic cleaning'
p338
g2
(g6
S'\xae\xc4\x18\x8f\x89\x7f\xd9?'
p339
tp340
Rp341
tp342
a(S'ultrasonic nozzle'
p343
g2
(g6
S't\xc7\xd6\xde\xf3@\xd9?'
p344
tp345
Rp346
tp347
a(S'vox ultrasonic'
p348
g2
(g6
S'\x83R\xcc\x92\x188\xd9?'
p349
tp350
Rp351
tp352
a(S'endoscopic ultrasound'
p353
g2
(g6
S'r\xc6\x1fV\xf9\xfc\xd8?'
p354
tp355
Rp356
tp357
a(S'photoacoustic imaging'
p358
g2
(g6
S'\xc4.\x01My\xed\xd8?'
p359
tp360
Rp361
tp362
a(S'sonophoresis'
p363
g2
(g6
S'\xa3\xff\xc4\x0c=\xe3\xd8?'
p364
tp365
Rp366
tp367
a(S'transrectal ultrasonography'
p368
g2
(g6
S'\xc7a\xd4\xb6;\xa1\xd8?'
p369
tp370
Rp371
tp372
a(S'ultrasonic thickness measurement'
p373
g2
(g6
S'\xb8YN8\xf4\x95\xd8?'
p374
tp375
Rp376
tp377
a(S'laser ultrasonics'
p378
g2
(g6
S'\x9e\x9a-!c\x89\xd8?'
p379
tp380
Rp381
tp382
a(S'd. jackson coleman'
p383
g2
(g6
S'\xdf \x95\xd6\xf7~\xd8?'
p384
tp385
Rp386
tp387
a(S'sonoelectrochemistry'
p388
g2
(g6
S'>\xf0\xa6h\xdca\xd8?'
p389
tp390
Rp391
tp392
a(S'ultrasonic grating'
p393
g2
(g6
S'X>\x99\xd9\x13C\xd8?'
p394
tp395
Rp396
tp397
a(S'ultrasound attenuation spectroscopy'
p398
g2
(g6
S'2\xe8U;\xc5\xf7\xd7?'
p399
tp400
Rp401
tp402
a(S'phonophoresis'
p403
g2
(g6
S'\x93\xdb\x7f\x88\x04\xef\xd7?'
p404
tp405
Rp406
tp407
a(S'acoustic microscopy'
p408
g2
(g6
S'\x9d\x1e\xa4\x8cV\xea\xd7?'
p409
tp410
Rp411
tp412
a(S'gravis ultrasound'
p413
g2
(g6
S'\x8f<79\xb4\xae\xd7?'
p414
tp415
Rp416
tp417
a(S'marnix van holsbeeck'
p418
g2
(g6
S'\xc1G\x06\xe5\x83\xa9\xd7?'
p419
tp420
Rp421
tp422
a(S'john j. wild'
p423
g2
(g6
S'0u\xbe,5C\xd7?'
p424
tp425
Rp426
tp427
a(S'ultrasound (band)'
p428
g2
(g6
S'p\x8b!\xa1 >\xd7?'
p429
tp430
Rp431
tp432
a(S'ultrasonic pulse velocity test'
p433
g2
(g6
S'u\x14\xab\\\x99\x12\xd7?'
p434
tp435
Rp436
tp437
a(S'ultrasonic impact treatment'
p438
g2
(g6
S'[\x93R\xbd\xfa\xdf\xd6?'
p439
tp440
Rp441
tp442
a(S'ultrasonic (film)'
p443
g2
(g6
S'\xe2\xf5}!\x91\xc7\xd6?'
p444
tp445
Rp446
tp447
a(S'visualsonics'
p448
g2
(g6
S'\xaf9\xe55\x1a}\xd6?'
p449
tp450
Rp451
tp452
a(S'cat repeller'
p453
g2
(g6
S'\x97\xc6\xce\xb3z_\xd6?'
p454
tp455
Rp456
tp457
a(S'echocardiography'
p458
g2
(g6
S'\xfe~\x15\rc%\xd6?'
p459
tp460
Rp461
tp462
a(S'stuart palmer (physicist)'
p463
g2
(g6
S'^\x83\x8d\x88\xf2\x10\xd6?'
p464
tp465
Rp466
tp467
a(S'scott dulchavsky'
p468
g2
(g6
S'\x9b\x84\xe3M\x0e\xf5\xd5?'
p469
tp470
Rp471
tp472
a(S'haifu'
p473
g2
(g6
S'<~\xff\xa1\xeb\xeb\xd5?'
p474
tp475
Rp476
tp477
a(S'sustained acoustic medicine'
p478
g2
(g6
S'\xb3N%\x94\x13\x94\xd5?'
p479
tp480
Rp481
tp482
a(S'intraductal papilloma'
p483
g2
(g6
S'\xbc\x03\x8f\xf4\xb0\x88\xd5?'
p484
tp485
Rp486
tp487
a(S'ultrasonic machining'
p488
g2
(g6
S'\xdf]\x04\xf6\xc0y\xd5?'
p489
tp490
Rp491
tp492
a(S'ultrasonic cavitation device'
p493
g2
(g6
S'\x08\x1c\x1b\xf8Eh\xd5?'
p494
tp495
Rp496
tp497
a(S'ultrasonic consolidation'
p498
g2
(g6
S'c~\xc6\x14\xb2=\xd5?'
p499
tp500
Rp501
tp502
a(S'stuart campbell (obstetrician)'
p503
g2
(g6
S'}/=s\x05$\xd5?'
p504
tp505
Rp506
tp507
a(S'phased array ultrasonics'
p508
g2
(g6
S'C\xe5l\x02<\xe9\xd4?'
p509
tp510
Rp511
tp512
a(S'ultrasonic thickness gauge'
p513
g2
(g6
S'N\xee\xf0\x05\xe3\xe5\xd4?'
p514
tp515
Rp516
tp517
a(S'acoustic resonance technology'
p518
g2
(g6
S'\x16\xff\xd9\xf8!\xd8\xd4?'
p519
tp520
Rp521
tp522
a(S'rexonics'
p523
g2
(g6
S'G\xfb\xc1%R\xcd\xd4?'
p524
tp525
Rp526
tp527
a(S'ronald silverman'
p528
g2
(g6
S'\x83KD\xd66\xbe\xd4?'
p529
tp530
Rp531
tp532
a(S'transcranial pulsed ultrasound'
p533
g2
(g6
S'l\xe2\x195\x19\x89\xd4?'
p534
tp535
Rp536
tp537
a(S'ultrasound-guided lumbar puncture'
p538
g2
(g6
S'\x00\x8e\xbf\xd8\x87X\xd4?'
p539
tp540
Rp541
tp542
a(S'scanning near-field ultrasound holography'
p543
g2
(g6
S'\xc5\x10\x7f@\x8d!\xd4?'
p544
tp545
Rp546
tp547
a(S'george ludwig'
p548
g2
(g6
S'\xa84\xa6\x01\xec\xfa\xd3?'
p549
tp550
Rp551
tp552
a(S'mechanoluminescence'
p553
g2
(g6
S'\xca\xe3\x9c\xd2i\xfa\xd3?'
p554
tp555
Rp556
tp557
a(S'medixsysteme'
p558
g2
(g6
S'\x04\x8f]A\xda\xe5\xd3?'
p559
tp560
Rp561
tp562
a(S'academy of clinical thyroidologists'
p563
g2
(g6
S'\xb3\xd0D\xc6\x83\xad\xd3?'
p564
tp565
Rp566
tp567
a(S'dog whistle'
p568
g2
(g6
S'\x94\xdc\x02\xffW\xa9\xd3?'
p569
tp570
Rp571
tp572
a(S'time-of-flight diffraction ultrasonics'
p573
g2
(g6
S'\x0cE\xa6\xa6\x88\xa0\xd3?'
p574
tp575
Rp576
tp577
a(S'national institute of family and life advocates'
p578
g2
(g6
S'y\x1f\xc6\x85\xaa\x9d\xd3?'
p579
tp580
Rp581
tp582
a(S'floyd dunn'
p583
g2
(g6
S'\xaa\xf2\x86\xb0\x9f\x8a\xd3?'
p584
tp585
Rp586
tp587
a(S'robert w. wood'
p588
g2
(g6
S'!\xc4b\x9dOg\xd3?'
p589
tp590
Rp591
tp592
a(S'melese laodamia'
p593
g2
(g6
S'\xb6\x86\xc1\xa7eR\xd3?'
p594
tp595
Rp596
tp597
a(S'heat-based contraception'
p598
g2
(g6
S'=\xe5\xb5Z\xf1I\xd3?'
p599
tp600
Rp601
tp602
a(S'time-of-flight ultrasonic determination of 3d elastic constants'
p603
g2
(g6
S':\xb2G\xc0ZB\xd3?'
p604
tp605
Rp606
tp607
a(S'photoacoustic doppler effect'
p608
g2
(g6
S'V\xd5\xea\x1dl%\xd3?'
p609
tp610
Rp611
tp612
a(S'capacitive micromachined ultrasonic transducers'
p613
g2
(g6
S'^&\x82\x08q\x04\xd3?'
p614
tp615
Rp616
tp617
a(S'multispectral optoacoustic tomography'
p618
g2
(g6
S'\x10\xc3g\xb5/\xf4\xd2?'
p619
tp620
Rp621
tp622
a(S'insightec'
p623
g2
(g6
S':\xee\xd9\x83\x8a\xd6\xd2?'
p624
tp625
Rp626
tp627
a(S'claude franceschi'
p628
g2
(g6
S'U\xae\x90\xa3\xf3\xd1\xd2?'
p629
tp630
Rp631
tp632
a(S'ultrasonic foil (papermaking)'
p633
g2
(g6
S'\x84\x84a\xb8\x8a\xc9\xd2?'
p634
tp635
Rp636
tp637
a(S'piezoelectric surgery'
p638
g2
(g6
S'k"\xd7I\xbf\xc8\xd2?'
p639
tp640
Rp641
tp642
a(S'ultrasonic studios, new orleans'
p643
g2
(g6
S'_+\x05\xe9\\\xc1\xd2?'
p644
tp645
Rp646
tp647
a(S'the verifier'
p648
g2
(g6
S'\x84b0\xbay\x7f\xd2?'
p649
tp650
Rp651
tp652
a(S'jewellery cleaning'
p653
g2
(g6
S'\xd096\xbc\xf2w\xd2?'
p654
tp655
Rp656
tp657
a(S'remote guidance'
p658
g2
(g6
S'\xff\xd52\xf2\x94i\xd2?'
p659
tp660
Rp661
tp662
a(S'oswald leroy'
p663
g2
(g6
S'\x8a\x94?\xbe\x0eb\xd2?'
p664
tp665
Rp666
tp667
a(S'klaas bom'
p668
g2
(g6
S'\xc5zy\xe3\xb34\xd2?'
p669
tp670
Rp671
tp672
a(S'acoustic radiation force impulse imaging'
p673
g2
(g6
S'\xf2\x94I\xa3\xc2\x1e\xd2?'
p674
tp675
Rp676
tp677
a(S'paula ferrada'
p678
g2
(g6
S'\x82\x85\x9c\x02Z\x12\xd2?'
p679
tp680
Rp681
tp682
a(S'ormosil'
p683
g2
(g6
S'\xe4\xbe\x0ew\x99\xf4\xd1?'
p684
tp685
Rp686
tp687
a(S'asim kurjak'
p688
g2
(g6
S'\xc1`\x16\x87\xdd\xf0\xd1?'
p689
tp690
Rp691
tp692
a(S'hypersonic effect'
p693
g2
(g6
S'3\x9d\xb1Ui\xed\xd1?'
p694
tp695
Rp696
tp697
a(S'exablate'
p698
g2
(g6
S'\x91\x83\xf5\xbe\t\xd8\xd1?'
p699
tp700
Rp701
tp702
a(S'sonographer'
p703
g2
(g6
S'\x87\x0f\xfb1\x95\xc1\xd1?'
p704
tp705
Rp706
tp707
a(S'cardiac imaging'
p708
g2
(g6
S';\t\x88\xea>\x99\xd1?'
p709
tp710
Rp711
tp712
a(S'shigeo satomura'
p713
g2
(g6
S'\xc6\x9e\xc4\x93K\x92\xd1?'
p714
tp715
Rp716
tp717
a(S'harvey l. berger'
p718
g2
(g6
S'\xd8\x18\xf5\x87\xcd\x83\xd1?'
p719
tp720
Rp721
tp722
a(S'self-focusing transducers'
p723
g2
(g6
S'\xdd#\xac\x7f\xbbx\xd1?'
p724
tp725
Rp726
tp727
a(S'acoustic radiation force'
p728
g2
(g6
S'`\xbe\xab\x02\xf3_\xd1?'
p729
tp730
Rp731
tp732
a(S'acoustic contrast factor'
p733
g2
(g6
S'.\x16\xe3w\xd6T\xd1?'
p734
tp735
Rp736
tp737
a(S'anembryonic gestation'
p738
g2
(g6
S'\\\x89\x00\x96WN\xd1?'
p739
tp740
Rp741
tp742
a(S'sonalleve mr-hifu'
p743
g2
(g6
S'\x91\x02\x03y\x98+\xd1?'
p744
tp745
Rp746
tp747
a(S'analogic corporation'
p748
g2
(g6
S'x3b\xabW%\xd1?'
p749
tp750
Rp751
tp752
a(S'sonicaid'
p753
g2
(g6
S"'\xba\xaaT\xf9\xfc\xd0?"
p754
tp755
Rp756
tp757
a(S'ultrasonic hydroponic fogger'
p758
g2
(g6
S'\x15W\xb0\xdd\x12\xcd\xd0?'
p759
tp760
Rp761
tp762
a(S'carotid doppler machine'
p763
g2
(g6
S'GS\xdb}\xa0\xbc\xd0?'
p764
tp765
Rp766
tp767
a(S'steven r. goldstein'
p768
g2
(g6
S'-.\x8b>\xd1k\xd0?'
p769
tp770
Rp771
tp772
a(S'diana mcsherry'
p773
g2
(g6
S'\xcc\xb8\x8bo\xe5[\xd0?'
p774
tp775
Rp776
tp777
a(S'hearing range'
p778
g2
(g6
S'\xdf6\xea\xc8\xebQ\xd0?'
p779
tp780
Rp781
tp782
a(S'acoustic droplet vaporization'
p783
g2
(g6
S'M\x07\xb5\xae\xe9K\xd0?'
p784
tp785
Rp786
tp787
a(S'nebulizer'
p788
g2
(g6
S'\x86\x8c\x17\x99A+\xd0?'
p789
tp790
Rp791
tp792
a(S'ultrasonic force microscopy'
p793
g2
(g6
S'\xb2\xb1f\x8d\xdf \xd0?'
p794
tp795
Rp796
tp797
a(S'non-surgical liposuction'
p798
g2
(g6
S'`\xbc\xc6\xc0\xee\x04\xd0?'
p799
tp800
Rp801
tp802
a(S'deer horn'
p803
g2
(g6
S'\r\x0f\x96\x98V\xe7\xcf?'
p804
tp805
Rp806
tp807
a(S'electromagnetic acoustic transducer'
p808
g2
(g6
S'\xb96$|\xea\xd3\xcf?'
p809
tp810
Rp811
tp812
a(S'ultrasonic soldering'
p813
g2
(g6
S'\xf1[C\x94\xf5\xc5\xcf?'
p814
tp815
Rp816
tp817
a(S'sonic weapon'
p818
g2
(g6
S'g!7\xce"\xbf\xcf?'
p819
tp820
Rp821
tp822
a(S'alexander klibanov (biologist)'
p823
g2
(g6
S'\xdf\x86\x18\xbej\x93\xcf?'
p824
tp825
Rp826
tp827
a(S'hystero contrast sonography'
p828
g2
(g6
S'\xc5\x96\x84\xcb\xe2\x85\xcf?'
p829
tp830
Rp831
tp832
a(S'voluson 730'
p833
g2
(g6
S'\x97[\x15L\xecp\xcf?'
p834
tp835
Rp836
tp837
a(S'albert macovski'
p838
g2
(g6
S'\xee\x9bv\xf9r\\\xcf?'
p839
tp840
Rp841
tp842
a(S'multiscale motion mapping'
p843
g2
(g6
S'P\xfc\x1d\x95wK\xcf?'
p844
tp845
Rp846
tp847
a(S'the tumor (short story)'
p848
g2
(g6
S'\x1a\xe5\xfa\xe7UJ\xcf?'
p849
tp850
Rp851
tp852
a(S"north carolina women's right to know act"
p853
g2
(g6
S'\x7f\xe4\xcdh\x14\xf9\xce?'
p854
tp855
Rp856
tp857
a(S'earthworks (company)'
p858
g2
(g6
S"S\xf7'X\xb4\xc6\xce?"
p859
tp860
Rp861
tp862
a(S'active bat'
p863
g2
(g6
S'\xd2\xd4\xbe)\xa6\xad\xce?'
p864
tp865
Rp866
tp867
a(S'javan torrent frog'
p868
g2
(g6
S'\xb7\xafZ\x87|\x80\xce?'
p869
tp870
Rp871
tp872
a(S'directional sound'
p873
g2
(g6
S'\x08\xdb7\xa7\x03s\xce?'
p874
tp875
Rp876
tp877
a(S'elastography'
p878
g2
(g6
S'\xc4\xd8E\x84\x01Q\xce?'
p879
tp880
Rp881
tp882
a(S'timothy leighton'
p883
g2
(g6
S'd\x00\xd2\xb8\x10K\xce?'
p884
tp885
Rp886
tp887
a(S'odorrana graminea'
p888
g2
(g6
S'9Nq\x9a\xe9\x05\xce?'
p889
tp890
Rp891
tp892
a(S'floyd firestone'
p893
g2
(g6
S'us\r[\x88\xdc\xcd?'
p894
tp895
Rp896
tp897
a(S'digital speaker'
p898
g2
(g6
S'j\xfc+1\xe0\xc4\xcd?'
p899
tp900
Rp901
tp902
a(S'urt'
p903
g2
(g6
S'\xe8\xfd\x0c\xd1\x8e\xa6\xcd?'
p904
tp905
Rp906
tp907
a(S'tendinosis'
p908
g2
(g6
S'\xe6\x01R\xdcp\x94\xcd?'
p909
tp910
Rp911
tp912
a(S'lisnr'
p913
g2
(g6
S'\xd6z\xb57\x1e\x87\xcd?'
p914
tp915
Rp916
tp917
a(S'pmut'
p918
g2
(g6
S'\xc7\xeb\xbf\xc2\xc2z\xcd?'
p919
tp920
Rp921
tp922
a(S'sonodynamic therapy'
p923
g2
(g6
S'tr\x0b-\xd2t\xcd?'
p924
tp925
Rp926
tp927
a(S'uit'
p928
g2
(g6
S'\x84\x96\xb2\xd5\xaec\xcd?'
p929
tp930
Rp931
tp932
a(S'thermosonic bonding'
p933
g2
(g6
S'\xadv\xca\xb2\x9f\xeb\xcc?'
p934
tp935
Rp936
tp937
a(S'sonoporation'
p938
g2
(g6
S'U}\xf9\xce\x1d\xbd\xcc?'
p939
tp940
Rp941
tp942
a(S"morton's neuroma"
p943
g2
(g6
S'\x90c{\xa7\xd6\xb2\xcc?'
p944
tp945
Rp946
tp947
a(S'interventional ultrasonography'
p948
g2
(g6
S'\x8e\x19\n\xc7\x96\xaf\xcc?'
p949
tp950
Rp951
tp952
a(S'time of flight'
p953
g2
(g6
S'(\x19_\r\xdf\xa6\xcc?'
p954
tp955
Rp956
tp957
a(S'synthetic aperture ultrasound'
p958
g2
(g6
S'\xc8]\xf2_[\x92\xcc?'
p959
tp960
Rp961
tp962
a(S'horn analyzer'
p963
g2
(g6
S"\xcb'\xea\x0e\x92\x80\xcc?"
p964
tp965
Rp966
tp967
a(S'urachus'
p968
g2
(g6
S'y<\x1d?\x1df\xcc?'
p969
tp970
Rp971
tp972
a(S'papero'
p973
g2
(g6
S'\x1e\xd6!\xf8\x00`\xcc?'
p974
tp975
Rp976
tp977
a(S'acoustic emission'
p978
g2
(g6
S'\x90b\x8a }^\xcc?'
p979
tp980
Rp981
tp982
a(S'transient elastography'
p983
g2
(g6
S'5\xdb\x88\xac\xf1N\xcc?'
p984
tp985
Rp986
tp987
a(S'carotid ultrasonography'
p988
g2
(g6
S'\xb1\xa3\xd3\xe1\xe1:\xcc?'
p989
tp990
Rp991
tp992
a(S'pelvic congestion syndrome'
p993
g2
(g6
S'\xafP2\xa19\xe1\xcb?'
p994
tp995
Rp996
tp997
a(S'liposuction'
p998
g2
(g6
S'36\x08\x1c\xf0{\xcb?'
p999
tp1000
Rp1001
tp1002
a(S'cater metrotrolley'
p1003
g2
(g6
S'\xb4\xe4\xf8k|]\xcb?'
p1004
tp1005
Rp1006
tp1007
a(S'microbubbles'
p1008
g2
(g6
S'\xb9\xc9\x85N\xaeS\xcb?'
p1009
tp1010
Rp1011
tp1012
a(S'diathermy'
p1013
g2
(g6
S'^\x8b\xd7\x8d\x01>\xcb?'
p1014
tp1015
Rp1016
tp1017
a(S'preclinical imaging'
p1018
g2
(g6
S'\xee\xd9\x98Y\xa8.\xcb?'
p1019
tp1020
Rp1021
tp1022
a(S'transesophageal echocardiogram'
p1023
g2
(g6
S'\x98\xca\xb7\x1d\xec\x08\xcb?'
p1024
tp1025
Rp1026
tp1027
a(S'medical imaging'
p1028
g2
(g6
S'\xab\x80\x9eo\x87\x07\xcb?'
p1029
tp1030
Rp1031
tp1032
a(S'physical factors affecting microbial life'
p1033
g2
(g6
S'g\xbbk.,\xf1\xca?'
p1034
tp1035
Rp1036
tp1037
a(S'fracture sonography'
p1038
g2
(g6
S'\xedD\x0bKZ\xbd\xca?'
p1039
tp1040
Rp1041
tp1042
a(S'thrombolysis'
p1043
g2
(g6
S'\r\x04\xfe@\xe9\xab\xca?'
p1044
tp1045
Rp1046
tp1047
a(S'low-intensity pulsed ultrasound'
p1048
g2
(g6
S')\x0f\xa5*\x91\xa0\xca?'
p1049
tp1050
Rp1051
tp1052
a(S'hydrolipoclasy'
p1053
g2
(g6
S'\x89\x01^\xb9^r\xca?'
p1054
tp1055
Rp1056
tp1057
a(S'internal rotary inspection system'
p1058
g2
(g6
S'\x85\x057L\x14m\xca?'
p1059
tp1060
Rp1061
tp1062
a(S'level sensor'
p1063
g2
(g6
S'\xba\xeeJ)\x96l\xca?'
p1064
tp1065
Rp1066
tp1067
a(S'acousto-electronics'
p1068
g2
(g6
S'\xbbH\xb61\xa1J\xca?'
p1069
tp1070
Rp1071
tp1072
a(S'stanislav emelianov'
p1073
g2
(g6
S'\xe3\xa4\xb0\xad\x12G\xca?'
p1074
tp1075
Rp1076
tp1077
a(S'anemometer'
p1078
g2
(g6
S'\x92\xc2S35/\xca?'
p1079
tp1080
Rp1081
tp1082
a(S'allantois'
p1083
g2
(g6
S'|W/\xe4\xa6\xfd\xc9?'
p1084
tp1085
Rp1086
tp1087
a(S'concave-eared torrent frog'
p1088
g2
(g6
S'\x91j\xfe\xea\x0f\xf8\xc9?'
p1089
tp1090
Rp1091
tp1092
a(S'acoustic resonance spectroscopy'
p1093
g2
(g6
S'~ \x0b\xd1\x08\xf4\xc9?'
p1094
tp1095
Rp1096
tp1097
a(S'intravascular ultrasound'
p1098
g2
(g6
S'\x92\xb0\xc3\x88\x10\xf3\xc9?'
p1099
tp1100
Rp1101
tp1102
a(S'olaf von ramm'
p1103
g2
(g6
S'\x1eS\xe4P\xf8\xef\xc9?'
p1104
tp1105
Rp1106
tp1107
a(S'cardiovascular technologist'
p1108
g2
(g6
S';H0VN\xa5\xc9?'
p1109
tp1110
Rp1111
tp1112
a(S'ieee ultrasonics, ferroelectrics, and frequency control society'
p1113
g2
(g6
S'\xfb\xe4\x907^\x98\xc9?'
p1114
tp1115
Rp1116
tp1117
a(S'acoustic interferometer'
p1118
g2
(g6
S'\x81>\xdb\x05w}\xc9?'
p1119
tp1120
Rp1121
tp1122
a(S'heavy crown (album)'
p1123
g2
(g6
S'\xdf\x02~\x12:z\xc9?'
p1124
tp1125
Rp1126
tp1127
a(S'nasa research'
p1128
g2
(g6
S'C=\x1b\x82ss\xc9?'
p1129
tp1130
Rp1131
tp1132
a(S'terahertz nondestructive evaluation'
p1133
g2
(g6
S'!n\r}\xf5\xfc\xc8?'
p1134
tp1135
Rp1136
tp1137
a(S'sclerotherapy'
p1138
g2
(g6
S'\xa7\x0cK\xdb\xf1\xfc\xc8?'
p1139
tp1140
Rp1141
tp1142
a(S'thyroidologist'
p1143
g2
(g6
S'8\x1e{\x0eT\xf8\xc8?'
p1144
tp1145
Rp1146
tp1147
a(S'international society of ultrasound in obstetrics and gynecology'
p1148
g2
(g6
S'\x82\xbb\x17\xa5-\xc8\xc8?'
p1149
tp1150
Rp1151
tp1152
a(S'echogenic intracardiac focus'
p1153
g2
(g6
S'[\x93vU9\xaf\xc8?'
p1154
tp1155
Rp1156
tp1157
a(S'soundbeam'
p1158
g2
(g6
S'\xf60\xce\xe7(\xa4\xc8?'
p1159
tp1160
Rp1161
tp1162
a(S'radiographic findings in efast'
p1163
g2
(g6
S'57l\n\xa6\x9f\xc8?'
p1164
tp1165
Rp1166
tp1167
a(S'fetal pole'
p1168
g2
(g6
S'5\xe7\xef\x8aK\x8f\xc8?'
p1169
tp1170
Rp1171
tp1172
a(S'roman maev'
p1173
g2
(g6
S'_d\xe7\xd8\x88\x8e\xc8?'
p1174
tp1175
Rp1176
tp1177
a(S'predictive maintenance'
p1178
g2
(g6
S'\x91\xf6\xdd\x8b\x0bS\xc8?'
p1179
tp1180
Rp1181
tp1182
a(S'george varghese koppara'
p1183
g2
(g6
S'm\x8f\x08FG@\xc8?'
p1184
tp1185
Rp1186
tp1187
a(S'duplex ultrasonography'
p1188
g2
(g6
S"\xe6\xdc|9~'\xc8?"
p1189
tp1190
Rp1191
tp1192
a(S'attenuation'
p1193
g2
(g6
S'=\xb1\xa4\x94\xb8\x1c\xc8?'
p1194
tp1195
Rp1196
tp1197
a(S'armen sarvazyan'
p1198
g2
(g6
S'\x93\xc5_\xcf!\x17\xc8?'
p1199
tp1200
Rp1201
tp1202
a(S'radiology'
p1203
g2
(g6
S' <f\xce\x00\xf2\xc7?'
p1204
tp1205
Rp1206
tp1207
a(S'nondestructive testing'
p1208
g2
(g6
S'^\xb7\xdb\xbc\xaa\xe3\xc7?'
p1209
tp1210
Rp1211
tp1212
a(S'intima-media thickness'
p1213
g2
(g6
S'\x9a\xcd\x8c\xe3Q\xe2\xc7?'
p1214
tp1215
Rp1216
tp1217
a(S'ghaleb husseini'
p1218
g2
(g6
S')\x83S\xb3Z\xda\xc7?'
p1219
tp1220
Rp1221
tp1222
a(S'bioacoustics'
p1223
g2
(g6
S'\x93\x113?R\xd5\xc7?'
p1224
tp1225
Rp1226
tp1227
a(S'badbios'
p1228
g2
(g6
S'[\x8b\x05\xdf\x9c\xd1\xc7?'
p1229
tp1230
Rp1231
tp1232
a(S'single umbilical artery'
p1233
g2
(g6
S'&|+\xc0\xe5\xd0\xc7?'
p1234
tp1235
Rp1236
tp1237
a(S'carbon stereoxide'
p1238
g2
(g6
S'j\x1d1:\x9c\xcb\xc7?'
p1239
tp1240
Rp1241
tp1242
a(S'dymd'
p1243
g2
(g6
S'\\`\x152\xf6\xc8\xc7?'
p1244
tp1245
Rp1246
tp1247
a(S'cyclic microcellular foaming'
p1248
g2
(g6
S'\xeaR\xc3|\x14\xbe\xc7?'
p1249
tp1250
Rp1251
tp1252
a(S'telecommand'
p1253
g2
(g6
S'\xf20>\xe8\x10\x8d\xc7?'
p1254
tp1255
Rp1256
tp1257
a(S'parking sensor'
p1258
g2
(g6
S'\xce^B8\xf1\x88\xc7?'
p1259
tp1260
Rp1261
tp1262
a(S'sy ari da kid'
p1263
g2
(g6
S'\xa4\xef-\xf0\n\x86\xc7?'
p1264
tp1265
Rp1266
tp1267
a(S'homogenizer'
p1268
g2
(g6
S'\x8a\xf1\xb7\x06%w\xc7?'
p1269
tp1270
Rp1271
tp1272
a(S'american registry for diagnostic medical sonography'
p1273
g2
(g6
S'\n\x157V,M\xc7?'
p1274
tp1275
Rp1276
tp1277
a(S'doppler echocardiography'
p1278
g2
(g6
S'\x8b\xffP93D\xc7?'
p1279
tp1280
Rp1281
tp1282
a(S'ultra-sonic (band)'
p1283
g2
(g6
S'\xa4\x90\xd5\x1f\x187\xc7?'
p1284
tp1285
Rp1286
tp1287
a(S'audiosim (software synthesizer)'
p1288
g2
(g6
S'\xd3\xed\xb2\x7f\xe3\xfe\xc6?'
p1289
tp1290
Rp1291
tp1292
a(S'focused assessment with sonography for trauma'
p1293
g2
(g6
S'\xf5FV~\n\xfb\xc6?'
p1294
tp1295
Rp1296
tp1297
a(S'ball bonding'
p1298
g2
(g6
S'\xe30;t\xda\xe8\xc6?'
p1299
tp1300
Rp1301
tp1302
a(S'thermographic inspection'
p1303
g2
(g6
S'\xf0\x94`\x17{\xd8\xc6?'
p1304
tp1305
Rp1306
tp1307
a(S'nico f. declercq'
p1308
g2
(g6
S'\x835*\xaf\xab\xc8\xc6?'
p1309
tp1310
Rp1311
tp1312
a(S'condition monitoring'
p1313
g2
(g6
S'\x11,S\xcd\x99\xc8\xc6?'
p1314
tp1315
Rp1316
tp1317
a(S'delamination'
p1318
g2
(g6
S'u[\x87@\xb0\xa3\xc6?'
p1319
tp1320
Rp1321
tp1322
a(S'custody transfer'
p1323
g2
(g6
S'\x96\x08]&\x99\x9b\xc6?'
p1324
tp1325
Rp1326
tp1327
a(S'lamb waves'
p1328
g2
(g6
S'Rw\x12\xda\xce\x8b\xc6?'
p1329
tp1330
Rp1331
tp1332
a(S'corrosion mapping by ultrasonics'
p1333
g2
(g6
S'\xb6 \x98\x7fq}\xc6?'
p1334
tp1335
Rp1336
tp1337
a(S'acoustic metamaterial'
p1338
g2
(g6
S'\x8a"\xa53pt\xc6?'
p1339
tp1340
Rp1341
tp1342
a(S'acoustic location'
p1343
g2
(g6
S"s'$S\x13l\xc6?"
p1344
tp1345
Rp1346
tp1347
a(S'marvin (robot)'
p1348
g2
(g6
S'AAq\xef\x03c\xc6?'
p1349
tp1350
Rp1351
tp1352
a(S'acoustics'
p1353
g2
(g6
S'\x88\x8fTPYb\xc6?'
p1354
tp1355
Rp1356
tp1357
a(S'transcranial doppler'
p1358
g2
(g6
S'\xb0O\xd9j\x81a\xc6?'
p1359
tp1360
Rp1361
tp1362
a(S"alston's brown mouse"
p1363
g2
(g6
S'\xcd\xb4A\xf3\xb2V\xc6?'
p1364
tp1365
Rp1366
tp1367
a(S'acoustocerebrography'
p1368
g2
(g6
S'\xfeH\x865\xbc3\xc6?'
p1369
tp1370
Rp1371
tp1372
a(S'bubble sensor'
p1373
g2
(g6
S"#\xeb\x14\xd6'/\xc6?"
p1374
tp1375
Rp1376
tp1377
a(S'cavitation'
p1378
g2
(g6
S'\xa3[\x91\xf1\x83)\xc6?'
p1379
tp1380
Rp1381
tp1382
a(S'intravascular imaging'
p1383
g2
(g6
S'\xd4sC\xfd= \xc6?'
p1384
tp1385
Rp1386
tp1387
a(S'my third husband'
p1388
g2
(g6
S'AE\ng5\x16\xc6?'
p1389
tp1390
Rp1391
tp1392
a(S'lead zirconate titanate'
p1393
g2
(g6
S'\x90}y9\xed\x15\xc6?'
p1394
tp1395
Rp1396
tp1397
a(S'underwater acoustics'
p1398
g2
(g6
S"\x96\xcb\xc5I'\x0c\xc6?"
p1399
tp1400
Rp1401
tp1402
a(S'choroid plexus cyst'
p1403
g2
(g6
S'b\xf1\xc5\xf4R\x0b\xc6?'
p1404
tp1405
Rp1406
tp1407
a(S'guided wave testing'
p1408
g2
(g6
S'\xe1\x17\x96\x079\x03\xc6?'
p1409
tp1410
Rp1411
tp1412
a(S'non-invasive intracranial pressure measurement methods'
p1413
g2
(g6
S'\xca\xbc\xaf\x18?\x02\xc6?'
p1414
tp1415
Rp1416
tp1417
a(S'mathias fink'
p1418
g2
(g6
S'q\x85\x0c#\xf7\xf9\xc5?'
p1419
tp1420
Rp1421
tp1422
a(S'density meter'
p1423
g2
(g6
S'\x9d\xb7\xc6\xdb\x9a\xf1\xc5?'
p1424
tp1425
Rp1426
tp1427
a(S'pseudoaneurysm'
p1428
g2
(g6
S'\x9d\xed\xa6\xb7\xd8\xe9\xc5?'
p1429
tp1430
Rp1431
tp1432
a(S'open doors (album)'
p1433
g2
(g6
S'4\xfe%1\x12\xe4\xc5?'
p1434
tp1435
Rp1436
tp1437
a(S'resonant ultrasound spectroscopy'
p1438
g2
(g6
S'\xb4\x7f[3\xe9\xc3\xc5?'
p1439
tp1440
Rp1441
tp1442
a(S'shear wave elasticity imaging'
p1443
g2
(g6
S't+\x1f\x04\xac\xb5\xc5?'
p1444
tp1445
Rp1446
tp1447
a(S'a-scan ultrasound biometry'
p1448
g2
(g6
S'}\xe9\x06\x83\xfd\xb4\xc5?'
p1449
tp1450
Rp1451
tp1452
a(S'clarius'
p1453
g2
(g6
S'\x00,\xceP\xbd\x9f\xc5?'
p1454
tp1455
Rp1456
tp1457
a(S'american society of echocardiography'
p1458
g2
(g6
S'\x16r\xf2\xec\xe9\x98\xc5?'
p1459
tp1460
Rp1461
tp1462
a(S'biological imaging'
p1463
g2
(g6
S'\xf2\xbd\x97\xbf\xd9\x8d\xc5?'
p1464
tp1465
Rp1466
tp1467
a(S'utm'
p1468
g2
(g6
S'\x11*M|\xcas\xc5?'
p1469
tp1470
Rp1471
tp1472
a(S'biliary microlithiasis'
p1473
g2
(g6
S'\x9b.\xc3>\xb9s\xc5?'
p1474
tp1475
Rp1476
tp1477
a(S'radiographer'
p1478
g2
(g6
S'\x00F\xca\x14\xbcE\xc5?'
p1479
tp1480
Rp1481
tp1482
a(S'transmediastinal gunshot wound'
p1483
g2
(g6
S'?L\xa7\x19\xce9\xc5?'
p1484
tp1485
Rp1486
tp1487
a(S'super tweeter'
p1488
g2
(g6
S'Nc:\xb7\xfd4\xc5?'
p1489
tp1490
Rp1491
tp1492
a(S'dan reinstein'
p1493
g2
(g6
S'\xf5\x9d{\xcaU3\xc5?'
p1494
tp1495
Rp1496
tp1497
a(S'frank a. chervenak'
p1498
g2
(g6
S'Y\x8dE\xd5\xf3*\xc5?'
p1499
tp1500
Rp1501
tp1502
a(S'bruce saran'
p1503
g2
(g6
S'_\xf8q\xfbO(\xc5?'
p1504
tp1505
Rp1506
tp1507
a(S'ellex medical lasers'
p1508
g2
(g6
S'.\xbdn\x06\x19#\xc5?'
p1509
tp1510
Rp1511
tp1512
a.