(lp0
(S'university of glasgow'
p1
cnumpy.core.multiarray
scalar
p2
(cnumpy
dtype
p3
(S'f8'
p4
I0
I1
tp5
Rp6
(I3
S'<'
p7
NNNI-1
I-1
I0
tp8
bS'\xe9\xff\xff\xff\xff\xff\xef?'
p9
tp10
Rp11
tp12
a(S'glasgow'
p13
g2
(g6
S'\xa7_\xd9\xca\x8a\xc4\xe3?'
p14
tp15
Rp16
tp17
a(S'timeline of glasgow history'
p18
g2
(g6
S'N\xc8\xbb\xfa\xb7\xb6\xe2?'
p19
tp20
Rp21
tp22
a(S'glasgow parliamentary constituencies'
p23
g2
(g6
S'-j\xdb\xa7\xfc$\xe2?'
p24
tp25
Rp26
tp27
a(S'glasgow (disambiguation)'
p28
g2
(g6
S'\x12\xab\xfe\xba\xbf!\xe2?'
p29
tp30
Rp31
tp32
a(S'history of glasgow'
p33
g2
(g6
S'm\xe7\x9c&~\xa5\xe1?'
p34
tp35
Rp36
tp37
a(S'glasgow metropolitan college'
p38
g2
(g6
S'2\xad\xeb(\xa1\xf7\xe0?'
p39
tp40
Rp41
tp42
a(S'g postcode area'
p43
g2
(g6
S'\xeb\x0b\xee|\xfe\xe6\xe0?'
p44
tp45
Rp46
tp47
a(S'anton muscatelli'
p48
g2
(g6
S'Z\xd7.\x87\x8b\xc8\xe0?'
p49
tp50
Rp51
tp52
a(S'glasgow (european parliament constituency)'
p53
g2
(g6
S'q\x9dV\xbb\xb5\x91\xe0?'
p54
tp55
Rp56
tp57
a(S'greater glasgow'
p58
g2
(g6
S'\xc5\xe3\xe0@\xa3\x7f\xdf?'
p59
tp60
Rp61
tp62
a(S'james cleland (statistician)'
p63
g2
(g6
S'@\xa1\xf0\x9d\xb9J\xdf?'
p64
tp65
Rp66
tp67
a(S'glasgow caledonian university'
p68
g2
(g6
S'\x04$\x1e\xdf\xa7\x11\xdf?'
p69
tp70
Rp71
tp72
a(S'glasgow airport (disambiguation)'
p73
g2
(g6
S"\x02\x00'\x8d\r\r\xdf?"
p74
tp75
Rp76
tp77
a(S'glasgow, montana'
p78
g2
(g6
S'&&\xddlM\xf9\xde?'
p79
tp80
Rp81
tp82
a(S'list of festivals in glasgow'
p83
g2
(g6
S'(\x85\xd9\xf1\xad\xf7\xde?'
p84
tp85
Rp86
tp87
a(S'high school of glasgow'
p88
g2
(g6
S'\xc6\x101$9\xd8\xde?'
p89
tp90
Rp91
tp92
a(S'old anniesland'
p93
g2
(g6
S'\xa7S\x99\xdb\x06\xc8\xde?'
p94
tp95
Rp96
tp97
a(S'architecture in glasgow'
p98
g2
(g6
S'\x8f|Op\xabn\xde?'
p99
tp100
Rp101
tp102
a(S'glasgow high kelvinside'
p103
g2
(g6
S'a\x1f\xc7 &+\xde?'
p104
tp105
Rp106
tp107
a(S'john baird i (1798-1859)'
p108
g2
(g6
S'L\xc7\xa8\xdeA\x11\xde?'
p109
tp110
Rp111
tp112
a(S'glasgow provan (scottish parliament constituency)'
p113
g2
(g6
S'\x9b\xde\x7f*\xcd\xed\xdd?'
p114
tp115
Rp116
tp117
a(S'west end festival'
p118
g2
(g6
S'\xa3\x1d\xfd\xa9\x17\xcd\xdd?'
p119
tp120
Rp121
tp122
a(S'culture in glasgow'
p123
g2
(g6
S'\x1a\xe9\xfb\x8f?\xc8\xdd?'
p124
tp125
Rp126
tp127
a(S'john wheatley college'
p128
g2
(g6
S'U\xd2^\x18\x83\xb4\xdd?'
p129
tp130
Rp131
tp132
a(S'sport in glasgow'
p133
g2
(g6
S'|\xef$Y\xd2\xa8\xdd?'
p134
tp135
Rp136
tp137
a(S'glasgow clinical research facility'
p138
g2
(g6
S'\xb2!v.\xd6\xa1\xdd?'
p139
tp140
Rp141
tp142
a(S'townhead'
p143
g2
(g6
S'a\x87\x960a\x93\xdd?'
p144
tp145
Rp146
tp147
a(S'geography of glasgow'
p148
g2
(g6
S'\x83\x15`\xd5\x9a\x91\xdd?'
p149
tp150
Rp151
tp152
a(S'glasgow university dialectic society'
p153
g2
(g6
S'\x18\xc2\xca\x96\xcb\x8c\xdd?'
p154
tp155
Rp156
tp157
a(S'trinity college, glasgow'
p158
g2
(g6
S'\xcasj\xf7Aq\xdd?'
p159
tp160
Rp161
tp162
a(S'transport in glasgow'
p163
g2
(g6
S'\x10\x86@\x03\x12e\xdd?'
p164
tp165
Rp166
tp167
a(S'central college (glasgow)'
p168
g2
(g6
S'[\x93\x8b#;T\xdd?'
p169
tp170
Rp171
tp172
a(S'glasgow city centre'
p173
g2
(g6
S'b\xabYL<=\xdd?'
p174
tp175
Rp176
tp177
a(S'international financial services district'
p178
g2
(g6
S'[\x118\x8998\xdd?'
p179
tp180
Rp181
tp182
a(S'edward mccombie mcgirr'
p183
g2
(g6
S'\x80\xf0\xc81q3\xdd?'
p184
tp185
Rp186
tp187
a(S'george henry edington'
p188
g2
(g6
S'>\xc9nuF/\xdd?'
p189
tp190
Rp191
tp192
a(S'bessie macnicol'
p193
g2
(g6
S'|\x01\xb0\xa9\xee\x1d\xdd?'
p194
tp195
Rp196
tp197
a(S'glasgow girls'
p198
g2
(g6
S'\xea/\x94\xbb\xff\x1c\xdd?'
p199
tp200
Rp201
tp202
a(S'william glasgow (general)'
p203
g2
(g6
S'\xbb\x9c\xc6\x94n\x15\xdd?'
p204
tp205
Rp206
tp207
a(S'university of glasgow medico-chirurgical society'
p208
g2
(g6
S'\xbf%!\xc5N\x0c\xdd?'
p209
tp210
Rp211
tp212
a(S'glasgow cathedral'
p213
g2
(g6
S'X\x032\xbd\xae\xfd\xdc?'
p214
tp215
Rp216
tp217
a(S'james miller (architect)'
p218
g2
(g6
S'\xb7R,a2\xfa\xdc?'
p219
tp220
Rp221
tp222
a(S'william kellock brown'
p223
g2
(g6
S'A\x9d\xf8CZ\xf7\xdc?'
p224
tp225
Rp226
tp227
a(S'glasgow, kentucky'
p228
g2
(g6
S'}\xa0\xd6\xd88\xf4\xdc?'
p229
tp230
Rp231
tp232
a(S'glasgow art'
p233
g2
(g6
S'E\x93\xb3\x8b\x1d\xf2\xdc?'
p234
tp235
Rp236
tp237
a(S'ellen glasgow'
p238
g2
(g6
S'\x945W\x1d\xfa\xd5\xdc?'
p239
tp240
Rp241
tp242
a(S'gerry hawkes'
p243
g2
(g6
S'>\xacX\n\x8d\xb6\xdc?'
p244
tp245
Rp246
tp247
a(S'george breckenridge'
p248
g2
(g6
S':\xad\x81\x9e\xa8\xa7\xdc?'
p249
tp250
Rp251
tp252
a(S'glasgow school'
p253
g2
(g6
S'\xab\xd3\xc4\x8c\x04\x90\xdc?'
p254
tp255
Rp256
tp257
a(S"glasgow colleges' regional board"
p258
g2
(g6
S'o\x8a\xb8\x87\xec\x8b\xdc?'
p259
tp260
Rp261
tp262
a(S'list of listed buildings in glasgow'
p263
g2
(g6
S'\xcd\x97\r7;y\xdc?'
p264
tp265
Rp266
tp267
a(S'cowcaddens'
p268
g2
(g6
S'\xdf\xc1\xf4\xf3\x1eB\xdc?'
p269
tp270
Rp271
tp272
a(S'glasgow royal maternity hospital'
p273
g2
(g6
S'Q\x83\x95\xf5\xf57\xdc?'
p274
tp275
Rp276
tp277
a(S'myer galpern'
p278
g2
(g6
S'\xd6\xde,\x84\xb4\x13\xdc?'
p279
tp280
Rp281
tp282
a(S'glasgow kelvin (scottish parliament constituency)'
p283
g2
(g6
S'\x1d\xacJ\xf2\x1e\r\xdc?'
p284
tp285
Rp286
tp287
a(S'robert freer (physician)'
p288
g2
(g6
S'\xc1\xdaM\x18\x96\xf9\xdb?'
p289
tp290
Rp291
tp292
a(S'sarah crilly'
p293
g2
(g6
S'\x84N\x1e\xf5v\xd6\xdb?'
p294
tp295
Rp296
tp297
a(S'glasgow kelvin (uk parliament constituency)'
p298
g2
(g6
S'\xbat~\xd0\x9b\xd3\xdb?'
p299
tp300
Rp301
tp302
a(S'glasgow shettleston (scottish parliament constituency)'
p303
g2
(g6
S'E2\xb7\x85\xba\xbf\xdb?'
p304
tp305
Rp306
tp307
a(S'glasgow harbour'
p308
g2
(g6
S'\xbfE\x05[\xab\xac\xdb?'
p309
tp310
Rp311
tp312
a(S'william george black'
p313
g2
(g6
S'\x00Z\xacE\x01v\xdb?'
p314
tp315
Rp316
tp317
a(S'louise gibson annand'
p318
g2
(g6
S'\x1d\xd6\x8e\x08\xf4s\xdb?'
p319
tp320
Rp321
tp322
a(S'charles wilson (political scientist)'
p323
g2
(g6
S'\xb8Q\x0b\xff6R\xdb?'
p324
tp325
Rp326
tp327
a(S'glasgow anniesland (scottish parliament constituency)'
p328
g2
(g6
S'\x88r\xeen\xeaP\xdb?'
p329
tp330
Rp331
tp332
a(S'glasgow maryhill and springburn (scottish parliament constituency)'
p333
g2
(g6
S'\x0ft\xe8\x82\xe0L\xdb?'
p334
tp335
Rp336
tp337
a(S'queen margaret college (glasgow)'
p338
g2
(g6
S'\xf3\x84\x07w[L\xdb?'
p339
tp340
Rp341
tp342
a(S'john keppie'
p343
g2
(g6
S'\xdf\xca\x8e\x11N7\xdb?'
p344
tp345
Rp346
tp347
a(S'bishopbriggs'
p348
g2
(g6
S"\xa5(\xeb'B/\xdb?"
p349
tp350
Rp351
tp352
a(S'glasgow kelvin college'
p353
g2
(g6
S'\xae\x03$\xf7W-\xdb?'
p354
tp355
Rp356
tp357
a(S"glasgow university students' representative council"
p358
g2
(g6
S'\xa2l|\x9f\xff\x12\xdb?'
p359
tp360
Rp361
tp362
a(S"st andrew's-by-the-green"
p363
g2
(g6
S'\xdd\xc77\xc1I\r\xdb?'
p364
tp365
Rp366
tp367
a(S'william kerr fraser'
p368
g2
(g6
S'\x92\x1a0-\xf5\x06\xdb?'
p369
tp370
Rp371
tp372
a(S'glasgow railway'
p373
g2
(g6
S'\x1c\xc6\xf5\xda8\xfe\xda?'
p374
tp375
Rp376
tp377
a(S'frank mcaveety'
p378
g2
(g6
S'\xe5\xa9 1\xdd\xfc\xda?'
p379
tp380
Rp381
tp382
a(S'easterhouse'
p383
g2
(g6
S'\xbckZ\xcad\xfc\xda?'
p384
tp385
Rp386
tp387
a(S'glasgow science centre'
p388
g2
(g6
S'\x87\x166\xa2G\xe6\xda?'
p389
tp390
Rp391
tp392
a(S'chris simmers'
p393
g2
(g6
S'#(\xfa\x86\xb0\xdc\xda?'
p394
tp395
Rp396
tp397
a(S'new glasgow, nova scotia'
p398
g2
(g6
S'\x7f\xae\x98\xe9\xd3\xdb\xda?'
p399
tp400
Rp401
tp402
a(S'hms glasgow (c21)'
p403
g2
(g6
S'\xe1K\xe0\xd52\xd7\xda?'
p404
tp405
Rp406
tp407
a(S'history of universities in scotland'
p408
g2
(g6
S'\x91\t\xf5!\xbb\xb6\xda?'
p409
tp410
Rp411
tp412
a(S'glasgow pollok (scottish parliament constituency)'
p413
g2
(g6
S'Y\x1b\xdav\xab\x9c\xda?'
p414
tp415
Rp416
tp417
a(S'hamish kemp'
p418
g2
(g6
S'\xcb\xcc\x9ft\xb2\x98\xda?'
p419
tp420
Rp421
tp422
a(S'glasgow southern rfc'
p423
g2
(g6
S'\t\x1eW\xca\xef\x97\xda?'
p424
tp425
Rp426
tp427
a(S'glasgow bid for the 2014 commonwealth games'
p428
g2
(g6
S'\xf6\x82\xf5\x8cE\x8d\xda?'
p429
tp430
Rp431
tp432
a(S'high street, glasgow'
p433
g2
(g6
S'hh\xe5l\xfb\x89\xda?'
p434
tp435
Rp436
tp437
a(S'dowanhill'
p438
g2
(g6
S'W\x01%I\xd5}\xda?'
p439
tp440
Rp441
tp442
a(S'chris docherty'
p443
g2
(g6
S'g\xe2\xe1r\xe0u\xda?'
p444
tp445
Rp446
tp447
a(S'first glasgow'
p448
g2
(g6
S'\xdf\xa0$\x81Ll\xda?'
p449
tp450
Rp451
tp452
a(S'bob winter'
p453
g2
(g6
S'\xb5\xdf{\xe8\x93g\xda?'
p454
tp455
Rp456
tp457
a(S'john thomas rochead'
p458
g2
(g6
S'\xfc\xe7\xa1c\x16g\xda?'
p459
tp460
Rp461
tp462
a(S'glasgow southside (scottish parliament constituency)'
p463
g2
(g6
S'\xb3\xd4\xed\x87C\\\xda?'
p464
tp465
Rp466
tp467
a(S'jude burkhauser'
p468
g2
(g6
S'\xc9\xd0\xf6\x07\xa4Y\xda?'
p469
tp470
Rp471
tp472
a(S'langside college'
p473
g2
(g6
S'\x7f\x95v\x8e\xb0U\xda?'
p474
tp475
Rp476
tp477
a(S'glasgow cathedral (disambiguation)'
p478
g2
(g6
S'\xfcaK%\x07T\xda?'
p479
tp480
Rp481
tp482
a(S'dougie hall'
p483
g2
(g6
S':\xd2\xff\xc8\xd4C\xda?'
p484
tp485
Rp486
tp487
a(S'glasgow maryhill (scottish parliament constituency)'
p488
g2
(g6
S'\x9d\t\xa1\xa2\x94A\xda?'
p489
tp490
Rp491
tp492
a(S'glasgow college of nautical studies'
p493
g2
(g6
S'\xd4D\xf4n;?\xda?'
p494
tp495
Rp496
tp497
a(S'collegelands'
p498
g2
(g6
S'\xb6M\x98vr5\xda?'
p499
tp500
Rp501
tp502
a(S'glasgow hsfp'
p503
g2
(g6
S'@tiER5\xda?'
p504
tp505
Rp506
tp507
a(S'gordon mackay (rugby union)'
p508
g2
(g6
S'XOK\xcbl0\xda?'
p509
tp510
Rp511
tp512
a(S'david gauld'
p513
g2
(g6
S'\x9aNU\x10\xe9+\xda?'
p514
tp515
Rp516
tp517
a(S'andrew ness'
p518
g2
(g6
S'\x1f\x08B\xc3\xd2\x1a\xda?'
p519
tp520
Rp521
tp522
a(S'insane championship wrestling'
p523
g2
(g6
S'\xd4;p\xcc[\n\xda?'
p524
tp525
Rp526
tp527
a(S'port glasgow'
p528
g2
(g6
S'[\x87)t\xc0\xfa\xd9?'
p529
tp530
Rp531
tp532
a(S'charles afuakwah'
p533
g2
(g6
S'\x95\xb4F\xe8u\xf1\xd9?'
p534
tp535
Rp536
tp537
a(S'harry bassi'
p538
g2
(g6
S'4-\x8d\xc0\x1c\xeb\xd9?'
p539
tp540
Rp541
tp542
a(S'james mylne'
p543
g2
(g6
S'\xe7\x16\xd3f\xe1\xe4\xd9?'
p544
tp545
Rp546
tp547
a(S'glasgow warriors'
p548
g2
(g6
S'\x98=\xbf5\xcb\xca\xd9?'
p549
tp550
Rp551
tp552
a(S'kevin greene (rugby union)'
p553
g2
(g6
S'&\xc8#\xb9s\xca\xd9?'
p554
tp555
Rp556
tp557
a(S'john gibson fleming'
p558
g2
(g6
S'\x8b\x96\xa5\xd3\x1a\xc8\xd9?'
p559
tp560
Rp561
tp562
a(S'campbell douglas'
p563
g2
(g6
S'\xe4\x13$S\xee\xc5\xd9?'
p564
tp565
Rp566
tp567
a(S'st vincent street church, glasgow'
p568
g2
(g6
S'\xd5Z\xc0W\x17\xc1\xd9?'
p569
tp570
Rp571
tp572
a(S'glasgow, missouri'
p573
g2
(g6
S'n\x1d\x83\x16\xcb\xbe\xd9?'
p574
tp575
Rp576
tp577
a(S'glasgow royal concert hall'
p578
g2
(g6
S'\x01\xa6\xf6\x95\xb5\xbe\xd9?'
p579
tp580
Rp581
tp582
a(S'john macleod (rugby union)'
p583
g2
(g6
S'\xccT\r\x8d\x08\xb4\xd9?'
p584
tp585
Rp586
tp587
a(S'hilton glasgow'
p588
g2
(g6
S'\x16\x9d\xca\xb1\x13\xb3\xd9?'
p589
tp590
Rp591
tp592
a(S'scottish boat race'
p593
g2
(g6
S'\x01\xff\x1bh\xa1\xb2\xd9?'
p594
tp595
Rp596
tp597
a(S'university of strathclyde'
p598
g2
(g6
S'N\xd7\xba\xaf\xc0\xb0\xd9?'
p599
tp600
Rp601
tp602
a(S'william euing'
p603
g2
(g6
S"'T}\x94\x8c\xad\xd9?"
p604
tp605
Rp606
tp607
a(S'bob gemmill'
p608
g2
(g6
S'l\xbb\x08\xaa\x14\xa8\xd9?'
p609
tp610
Rp611
tp612
a(S'1872 cup'
p613
g2
(g6
S'Sb\x80\x13\xb1\xa4\xd9?'
p614
tp615
Rp616
tp617
a(S'glasgow cathcart (scottish parliament constituency)'
p618
g2
(g6
S'R\xfb?\xea\x81\xa4\xd9?'
p619
tp620
Rp621
tp622
a(S'sarah lowndes'
p623
g2
(g6
S'\xe2a\xb8!\xf2\x98\xd9?'
p624
tp625
Rp626
tp627
a(S'glasgow film office'
p628
g2
(g6
S'\x0b\xd9:\xcab\x87\xd9?'
p629
tp630
Rp631
tp632
a(S'architecture in modern scotland'
p633
g2
(g6
S'\x01\x14E`\xe7\x85\xd9?'
p634
tp635
Rp636
tp637
a(S'1997\xe2\x80\x9398 glasgow warriors season'
p638
g2
(g6
S'\x10A\x1d\x06u\x83\xd9?'
p639
tp640
Rp641
tp642
a(S'calum macgregor'
p643
g2
(g6
S'\x0c\x15\x0eJ\xd3\x80\xd9?'
p644
tp645
Rp646
tp647
a(S'haghill'
p648
g2
(g6
S'\x98\x9f\x98\x1c\xe1t\xd9?'
p649
tp650
Rp651
tp652
a(S'liz cameron'
p653
g2
(g6
S'E1\x01X\x85R\xd9?'
p654
tp655
Rp656
tp657
a(S'john glaister'
p658
g2
(g6
S'9?T\x1c\xb0J\xd9?'
p659
tp660
Rp661
tp662
a(S'new glasgow, prince edward island'
p663
g2
(g6
S'\xd8\xdc\xa6\x8eUE\xd9?'
p664
tp665
Rp666
tp667
a(S'kelvinside academicals rfc'
p668
g2
(g6
S']\xf0d\xb0\xbc8\xd9?'
p669
tp670
Rp671
tp672
a(S'cardonald college'
p673
g2
(g6
S'~\xc5\xfa@\xb52\xd9?'
p674
tp675
Rp676
tp677
a(S'hutchesons aloysians'
p678
g2
(g6
S'\xba\x1f\x14\xa5\xfe*\xd9?'
p679
tp680
Rp681
tp682
a(S'western infirmary'
p683
g2
(g6
S'\xf8\xea\xb0\x7f@%\xd9?'
p684
tp685
Rp686
tp687
a(S'glasgow university mountaineering club'
p688
g2
(g6
S'*\x1d\x7fz\xfb"\xd9?'
p689
tp690
Rp691
tp692
a(S'erin cossey'
p693
g2
(g6
S'\x8c\xa6\xc5A\xe7\x18\xd9?'
p694
tp695
Rp696
tp697
a(S'glasgow green'
p698
g2
(g6
S'x\x06q\x10\x13\n\xd9?'
p699
tp700
Rp701
tp702
a(S'rory coupar'
p703
g2
(g6
S'\xe2TDc\xc4\xfa\xd8?'
p704
tp705
Rp706
tp707
a(S'epb 24/7'
p708
g2
(g6
S'\xa3\xcb\xdf\x00\x8c\xea\xd8?'
p709
tp710
Rp711
tp712
a(S'glasgow flyer'
p713
g2
(g6
S'\rn4\x1cT\xea\xd8?'
p714
tp715
Rp716
tp717
a(S'ss city of glasgow'
p718
g2
(g6
S'\xfe\x16\xc5z\xf3\xe9\xd8?'
p719
tp720
Rp721
tp722
a(S'chad glasgow'
p723
g2
(g6
S'\x97\xeaFC\xbc\xe5\xd8?'
p724
tp725
Rp726
tp727
a(S'david donaldson (artist)'
p728
g2
(g6
S'&\x92\x90\xea\xd0\xe3\xd8?'
p729
tp730
Rp731
tp732
a(S'glasgow university library'
p733
g2
(g6
S'K\xb4v\x1bl\xde\xd8?'
p734
tp735
Rp736
tp737
a(S'matt mcgrandles'
p738
g2
(g6
S'\x1c\xfe\x1d\x88F\xd3\xd8?'
p739
tp740
Rp741
tp742
a(S'alan perrie'
p743
g2
(g6
S'G\x07Tq\xf1\xd1\xd8?'
p744
tp745
Rp746
tp747
a(S'glasgow city and district railway'
p748
g2
(g6
S'\xa7\xbcV\xb3\x88\xd1\xd8?'
p749
tp750
Rp751
tp752
a(S'sauchiehall street'
p753
g2
(g6
S'\xd9\xd1z\x95-\xd1\xd8?'
p754
tp755
Rp756
tp757
a(S'glasgow science festival'
p758
g2
(g6
S'\xa4$\xba!\xf2\xc9\xd8?'
p759
tp760
Rp761
tp762
a(S'robert rait'
p763
g2
(g6
S'z@S\x08\x19\xbf\xd8?'
p764
tp765
Rp766
tp767
a(S'willis glassgow'
p768
g2
(g6
S'\xf9[\x9f\x16o\xbc\xd8?'
p769
tp770
Rp771
tp772
a(S'hector hetherington'
p773
g2
(g6
S'\xce\x1e]+\xac\xba\xd8?'
p774
tp775
Rp776
tp777
a(S'clyde fastlink'
p778
g2
(g6
S'\xd4\xd9S\xb2\xed\xb6\xd8?'
p779
tp780
Rp781
tp782
a(S'john henderson (painter)'
p783
g2
(g6
S'\xe5\x1a=\xf8\xfa\xaf\xd8?'
p784
tp785
Rp786
tp787
a(S'glasgow independent schools'
p788
g2
(g6
S'\xb7/\xb4$\x0e\xa8\xd8?'
p789
tp790
Rp791
tp792
a(S'glasgow central (uk parliament constituency)'
p793
g2
(g6
S'a\x7f\x04\x0b\x84\x9c\xd8?'
p794
tp795
Rp796
tp797
a(S'kelvinbridge'
p798
g2
(g6
S'lB \x88N\x8e\xd8?'
p799
tp800
Rp801
tp802
a(S'thomas mccall anderson'
p803
g2
(g6
S'\xdd\x14\x92\x8a\x0e\x8e\xd8?'
p804
tp805
Rp806
tp807
a(S'brian robertson (rugby union)'
p808
g2
(g6
S'F\xb8*\xde\xee\x88\xd8?'
p809
tp810
Rp811
tp812
a(S'gregor duncan (bishop)'
p813
g2
(g6
S'\x1f\xf6/\x9f\x17\x87\xd8?'
p814
tp815
Rp816
tp817
a(S'glasgow university union'
p818
g2
(g6
S'\xdeavk\xcfw\xd8?'
p819
tp820
Rp821
tp822
a(S'roman catholic archdiocese of glasgow'
p823
g2
(g6
S'\x9a\x15p\x19\xeev\xd8?'
p824
tp825
Rp826
tp827
a(S'alan watt (rugby union)'
p828
g2
(g6
S'\xf3\xaf\xb7\x85\x87l\xd8?'
p829
tp830
Rp831
tp832
a(S'glasgow anniesland (uk parliament constituency)'
p833
g2
(g6
S',;\xe5l\xa1c\xd8?'
p834
tp835
Rp836
tp837
a(S'john glassford'
p838
g2
(g6
S'l\xcc\x07$\xd1b\xd8?'
p839
tp840
Rp841
tp842
a(S'glasgow city mission'
p843
g2
(g6
S'c\xe5\xd8\xf8Q^\xd8?'
p844
tp845
Rp846
tp847
a(S'glasgow university sports association'
p848
g2
(g6
S'\x91\xb6[\xf1\xb4V\xd8?'
p849
tp850
Rp851
tp852
a(S'braidfauld'
p853
g2
(g6
S'\xcb\x13\x17\xc6,Q\xd8?'
p854
tp855
Rp856
tp857
a(S'andrew garry'
p858
g2
(g6
S',TiLxJ\xd8?'
p859
tp860
Rp861
tp862
a(S'glasgow north west (uk parliament constituency)'
p863
g2
(g6
S'\xb6\xdd\xeeZ\xf2A\xd8?'
p864
tp865
Rp866
tp867
a(S'glasgow effect'
p868
g2
(g6
S'\xbc%!\xb3\xeb>\xd8?'
p869
tp870
Rp871
tp872
a(S'glasgow sharks'
p873
g2
(g6
S'^\x9e\xf0V^<\xd8?'
p874
tp875
Rp876
tp877
a(S'glasgow school for business and society'
p878
g2
(g6
S'\xef\xa5\x8bh!:\xd8?'
p879
tp880
Rp881
tp882
a(S'glasgow garscadden (uk parliament constituency)'
p883
g2
(g6
S'n\xf2\x03\xcf\xdc9\xd8?'
p884
tp885
Rp886
tp887
a(S'watson reid'
p888
g2
(g6
S'a\xa0\xa3\xcb+5\xd8?'
p889
tp890
Rp891
tp892
a(S'camlachie'
p893
g2
(g6
S'\xf2\xcf\x98]\xb74\xd8?'
p894
tp895
Rp896
tp897
a(S'glasgow scotstoun (uk parliament constituency)'
p898
g2
(g6
S'\x82\x98\xf1\xb8$4\xd8?'
p899
tp900
Rp901
tp902
a(S'william fleming hoggan jarrett'
p903
g2
(g6
S'\xd4C?\x7fF+\xd8?'
p904
tp905
Rp906
tp907
a(S'archbishop of glasgow'
p908
g2
(g6
S'\xc3\xa6\xb8\x93\xa9!\xd8?'
p909
tp910
Rp911
tp912
a(S'muir russell'
p913
g2
(g6
S' \xac\xa2(\x19\x1e\xd8?'
p914
tp915
Rp916
tp917
a(S"glasgow women's library"
p918
g2
(g6
S'\x7f\xb9\x16\x82-\x19\xd8?'
p919
tp920
Rp921
tp922
a(S'ancient university governance in scotland'
p923
g2
(g6
S'5\ry8\x9d\x12\xd8?'
p924
tp925
Rp926
tp927
a(S'james hedderwick'
p928
g2
(g6
S'\xb4\x1e\xc0\xa8a\x0f\xd8?'
p929
tp930
Rp931
tp932
a(S'william jack (mathematician)'
p933
g2
(g6
S'\xdf\x98R">\r\xd8?'
p934
tp935
Rp936
tp937
a(S'ross haddow'
p938
g2
(g6
S'\xfb,\xc2\x96)\x06\xd8?'
p939
tp940
Rp941
tp942
a(S'scottish national party election results'
p943
g2
(g6
S'\n\x12\xad:\xd2\x02\xd8?'
p944
tp945
Rp946
tp947
a(S'anderston'
p948
g2
(g6
S'3\x13R\xb3\xe5\x01\xd8?'
p949
tp950
Rp951
tp952
a(S'royal faculty of procurators in glasgow'
p953
g2
(g6
S'{\xf5g\xb3\xbf\x00\xd8?'
p954
tp955
Rp956
tp957
a(S'william turnbull (bishop)'
p958
g2
(g6
S'R\xd5S\xaa[\xfd\xd7?'
p959
tp960
Rp961
tp962
a(S'alfred lawson brown'
p963
g2
(g6
S'\xdd\xe3\xf3\xd9Q\xfd\xd7?'
p964
tp965
Rp966
tp967
a(S'john brownlie (hymnist)'
p968
g2
(g6
S'(T\x9c\x86>\xf5\xd7?'
p969
tp970
Rp971
tp972
a(S'glasgow north (uk parliament constituency)'
p973
g2
(g6
S'\rY;\x85\xb9\xf2\xd7?'
p974
tp975
Rp976
tp977
a(S'city of glasgow college'
p978
g2
(g6
S'sq\x05\xc6\xd2\xf1\xd7?'
p979
tp980
Rp981
tp982
a(S'danny ablett'
p983
g2
(g6
S'\xcec\x1a\xca\xeb\xe8\xd7?'
p984
tp985
Rp986
tp987
a(S'james d robertson'
p988
g2
(g6
S'}\x01\xc6\xc9S\xe5\xd7?'
p989
tp990
Rp991
tp992
a(S'hms glasgow (d88)'
p993
g2
(g6
S' \t\x81yt\xdb\xd7?'
p994
tp995
Rp996
tp997
a(S'amateur dramatics in glasgow'
p998
g2
(g6
S'\xbb\xa7+O\xcb\xd6\xd7?'
p999
tp1000
Rp1001
tp1002
a(S'central institution'
p1003
g2
(g6
S'\xde\xd2\x0f\xc3\xba\xd3\xd7?'
p1004
tp1005
Rp1006
tp1007
a(S'glasgow historic district'
p1008
g2
(g6
S'\x9a,\xc7"2\xcf\xd7?'
p1009
tp1010
Rp1011
tp1012
a(S'giffnock'
p1013
g2
(g6
S'TYb\xe5N\xcd\xd7?'
p1014
tp1015
Rp1016
tp1017
a(S'the lighthouse, glasgow'
p1018
g2
(g6
S'{\x87\x01\xd1\x81\xc8\xd7?'
p1019
tp1020
Rp1021
tp1022
a(S'glasgow clinical trials unit'
p1023
g2
(g6
S'\x8f{\xa5\xf0\xff\xc5\xd7?'
p1024
tp1025
Rp1026
tp1027
a(S'carlo di ciacca'
p1028
g2
(g6
S'P\x13\xfe\xea\xe7\xc3\xd7?'
p1029
tp1030
Rp1031
tp1032
a(S'honeyman and keppie'
p1033
g2
(g6
S'\xf4\xf5\x14B\xb6\xc1\xd7?'
p1034
tp1035
Rp1036
tp1037
a(S'cameron little'
p1038
g2
(g6
S'\x11\x05\x9b\xdbm\xbc\xd7?'
p1039
tp1040
Rp1041
tp1042
a(S'alexander robertson macewen'
p1043
g2
(g6
S'U@T\xfe(\xbb\xd7?'
p1044
tp1045
Rp1046
tp1047
a(S'glasgow bid for the 2018 summer youth olympics'
p1048
g2
(g6
S'\xce\xcc\xf1\xdbc\xba\xd7?'
p1049
tp1050
Rp1051
tp1052
a(S'jordanhill'
p1053
g2
(g6
S'\xb9\x9fn\x85\xb6\xb0\xd7?'
p1054
tp1055
Rp1056
tp1057
a(S'barrachnie'
p1058
g2
(g6
S'F@\xacY\x85\xae\xd7?'
p1059
tp1060
Rp1061
tp1062
a(S'glasgow cross railway station'
p1063
g2
(g6
S'\xd7\x83\xb7\xfc\xad\xad\xd7?'
p1064
tp1065
Rp1066
tp1067
a(S'glasgow south (uk parliament constituency)'
p1068
g2
(g6
S'\xffR\x82\xd4\xa1\xa8\xd7?'
p1069
tp1070
Rp1071
tp1072
a(S'glasgow cross'
p1073
g2
(g6
S'\xce\xf0\xbfN\x9a\xa7\xd7?'
p1074
tp1075
Rp1076
tp1077
a(S'next time ned'
p1078
g2
(g6
S'\xfa\xfdH+\xbf\xa6\xd7?'
p1079
tp1080
Rp1081
tp1082
a(S'bruce report'
p1083
g2
(g6
S'\xff\xdf\xc9.S\xa5\xd7?'
p1084
tp1085
Rp1086
tp1087
a(S'archdiocese of glasgow (disambiguation)'
p1088
g2
(g6
S'L\xff_\xc3\x18\xa0\xd7?'
p1089
tp1090
Rp1091
tp1092
a(S'william taylor (minister)'
p1093
g2
(g6
S'\xb42V\xbbV\x9f\xd7?'
p1094
tp1095
Rp1096
tp1097
a(S'helen paxton brown'
p1098
g2
(g6
S'\x1er\xc2\xa8(\x9b\xd7?'
p1099
tp1100
Rp1101
tp1102
a(S'lion chambers'
p1103
g2
(g6
S' \xdb\xfb\xa0_\x8f\xd7?'
p1104
tp1105
Rp1106
tp1107
a(S'edwards professor of medieval history'
p1108
g2
(g6
S'\xafM\x11k,\x8d\xd7?'
p1109
tp1110
Rp1111
tp1112
a(S'carl glasgow'
p1113
g2
(g6
S'vh\x11\xb5\x86\x84\xd7?'
p1114
tp1115
Rp1116
tp1117
a(S'glasgow bridge street railway station'
p1118
g2
(g6
S'\xfbZ\xb2_5\x7f\xd7?'
p1119
tp1120
Rp1121
tp1122
a(S'stepps'
p1123
g2
(g6
S'\xa6e\xdf\xec\xec}\xd7?'
p1124
tp1125
Rp1126
tp1127
a(S'jack house'
p1128
g2
(g6
S'\x04<1\x0c\tw\xd7?'
p1129
tp1130
Rp1131
tp1132
a(S'david mcleish (rugby union)'
p1133
g2
(g6
S'\xf8w\xe2\xc1\xf1r\xd7?'
p1134
tp1135
Rp1136
tp1137
a(S'maurice miller'
p1138
g2
(g6
S'\x02\x89\xcd\xc6pr\xd7?'
p1139
tp1140
Rp1141
tp1142
a(S'glasgow city council election, 1995'
p1143
g2
(g6
S'\xb7\xac=-\xcf_\xd7?'
p1144
tp1145
Rp1146
tp1147
a(S'oscar paterson'
p1148
g2
(g6
S'\x9b\x9f9\x881_\xd7?'
p1149
tp1150
Rp1151
tp1152
a(S'robertson centre for biostatistics'
p1153
g2
(g6
S'R\xda\xbbo\x8d^\xd7?'
p1154
tp1155
Rp1156
tp1157
a(S'scottish police federation'
p1158
g2
(g6
S'JQ,\x7f\xa2W\xd7?'
p1159
tp1160
Rp1161
tp1162
a(S'pollokshields (ward)'
p1163
g2
(g6
S'\\v\xcaL)=\xd7?'
p1164
tp1165
Rp1166
tp1167
a(S"glasgow's miles better"
p1168
g2
(g6
S'O\xf8=\xab\x168\xd7?'
p1169
tp1170
Rp1171
tp1172
a(S'pat lally (politician)'
p1173
g2
(g6
S'\x11NJ\xb3Y3\xd7?'
p1174
tp1175
Rp1176
tp1177
a(S'steve swindall'
p1178
g2
(g6
S'\xba\xf2\xb6\xa2\x8c-\xd7?'
p1179
tp1180
Rp1181
tp1182
a(S'murdoch cameron'
p1183
g2
(g6
S'\xdc\x0e\xa6\xec\xba,\xd7?'
p1184
tp1185
Rp1186
tp1187
a(S'university of the west of scotland'
p1188
g2
(g6
S'\x84E6W\x95(\xd7?'
p1189
tp1190
Rp1191
tp1192
a(S'thomas hopkirk'
p1193
g2
(g6
S'\n]\xaa\x18\x82(\xd7?'
p1194
tp1195
Rp1196
tp1197
a(S'douglas reid'
p1198
g2
(g6
S'[\xc5\xb3\x9fj&\xd7?'
p1199
tp1200
Rp1201
tp1202
a(S'queen margaret union'
p1203
g2
(g6
S'\xca\xd1\xcf\xb4{!\xd7?'
p1204
tp1205
Rp1206
tp1207
a(S'anna dominiczak'
p1208
g2
(g6
S'\x08\x7f\x97\xc2\x05\x1d\xd7?'
p1209
tp1210
Rp1211
tp1212
a(S'astronomical society of glasgow'
p1213
g2
(g6
S'\x10<\x97F\x12\x18\xd7?'
p1214
tp1215
Rp1216
tp1217
a(S'glasgow museum of transport'
p1218
g2
(g6
S'd\xaa\x84\x9bN\x13\xd7?'
p1219
tp1220
Rp1221
tp1222
a(S'glasgow international jazz festival'
p1223
g2
(g6
S'\xfa\x00\x10\x1a\xc4\r\xd7?'
p1224
tp1225
Rp1226
tp1227
a(S'john alexander neilson'
p1228
g2
(g6
S'\xfdT\x96\xa3\xae\r\xd7?'
p1229
tp1230
Rp1231
tp1232
a(S'andrew davidson (rugby union)'
p1233
g2
(g6
S'H\xdd\x00\xfe\x19\x0b\xd7?'
p1234
tp1235
Rp1236
tp1237
a(S'glasgow station (montana)'
p1238
g2
(g6
S'\xbcH\xee\x1c\x8d\xfc\xd6?'
p1239
tp1240
Rp1241
tp1242
a(S'rutherglen (scottish parliament constituency)'
p1243
g2
(g6
S'bX/\x16\xe0\xfa\xd6?'
p1244
tp1245
Rp1246
tp1247
a(S'vinegarhill'
p1248
g2
(g6
S'\xbe\xdbL$%\xf7\xd6?'
p1249
tp1250
Rp1251
tp1252
a(S"allan glen's school"
p1253
g2
(g6
S'\xd7\x00\x7f[a\xf6\xd6?'
p1254
tp1255
Rp1256
tp1257
a(S'alwyn williams (geologist)'
p1258
g2
(g6
S'7-\xeac\xf0\xf3\xd6?'
p1259
tp1260
Rp1261
tp1262
a(S'gavin fraser'
p1263
g2
(g6
S'x\xf8Y\x93+\xeb\xd6?'
p1264
tp1265
Rp1266
tp1267
a(S'list of partick thistle f.c. seasons'
p1268
g2
(g6
S':\x96\x96\xd2\xf4\xe8\xd6?'
p1269
tp1270
Rp1271
tp1272
a(S'5805 glasgow'
p1273
g2
(g6
S'x$\xa8\xe2\xc0\xe4\xd6?'
p1274
tp1275
Rp1276
tp1277
a(S'james glasgow'
p1278
g2
(g6
S'\xf5\x02m\x85\xbc\xe3\xd6?'
p1279
tp1280
Rp1281
tp1282
a(S'2014 commonwealth rankings in athletics'
p1283
g2
(g6
S'\xdc\xc1\xe4\x93N\xdc\xd6?'
p1284
tp1285
Rp1286
tp1287
a(S'kelvin hall'
p1288
g2
(g6
S'n\r\x7f\xc9\xdf\xdb\xd6?'
p1289
tp1290
Rp1291
tp1292
a(S'william hamilton (physician)'
p1293
g2
(g6
S'L\xfaf\xa4\xb6\xd9\xd6?'
p1294
tp1295
Rp1296
tp1297
a(S'agnes dollan'
p1298
g2
(g6
S'\xabxGJ\xe8\xd8\xd6?'
p1299
tp1300
Rp1301
tp1302
a(S'universities scotland'
p1303
g2
(g6
S'Ub\xa5\xe3\x1e\xd8\xd6?'
p1304
tp1305
Rp1306
tp1307
a(S'rory kerr'
p1308
g2
(g6
S'3_\xf0\x05\x11\xd8\xd6?'
p1309
tp1310
Rp1311
tp1312
a(S"students' representative council"
p1313
g2
(g6
S'\xe5XJ;z\xd2\xd6?'
p1314
tp1315
Rp1316
tp1317
a(S'stewart campbell (rugby union)'
p1318
g2
(g6
S'\x85\xd0$T\xb4\xce\xd6?'
p1319
tp1320
Rp1321
tp1322
a(S'north kelvinside'
p1323
g2
(g6
S'\x80\x08\xbaRc\xcd\xd6?'
p1324
tp1325
Rp1326
tp1327
a(S'e. l. g. stones'
p1328
g2
(g6
S'\x90\xaaK\xd4\xe2\xcc\xd6?'
p1329
tp1330
Rp1331
tp1332
a(S'jessie campbell'
p1333
g2
(g6
S'\xbe7\xe1#\x0f\xcc\xd6?'
p1334
tp1335
Rp1336
tp1337
a(S'robert gordon university'
p1338
g2
(g6
S'\xfe\xe6\x9d1o\xcb\xd6?'
p1339
tp1340
Rp1341
tp1342
a(S"glasgow's needy"
p1343
g2
(g6
S'\xcf\xba+-\xa9\xc8\xd6?'
p1344
tp1345
Rp1346
tp1347
a(S'glasgow, oregon'
p1348
g2
(g6
S'\x984\xb0\xdc1\xc4\xd6?'
p1349
tp1350
Rp1351
tp1352
a(S'riverside museum'
p1353
g2
(g6
S',\x94\xdb\x1d\xf7\xc3\xd6?'
p1354
tp1355
Rp1356
tp1357
a(S'john rankin (politician)'
p1358
g2
(g6
S'`O\xe1)\xdf\xc2\xd6?'
p1359
tp1360
Rp1361
tp1362
a(S'dyke white'
p1363
g2
(g6
S';\xc9\x86P\xdc\xbe\xd6?'
p1364
tp1365
Rp1366
tp1367
a(S'glasgow university boat club'
p1368
g2
(g6
S'.\xbd\xc6%N\xba\xd6?'
p1369
tp1370
Rp1371
tp1372
a(S'hugh campbell (rugby union)'
p1373
g2
(g6
S'\xe7\x0e\x9cW\xaf\xb7\xd6?'
p1374
tp1375
Rp1376
tp1377
a(S'cheapside street whisky bond fire'
p1378
g2
(g6
S'\xb9\xea@\x1f6\xae\xd6?'
p1379
tp1380
Rp1381
tp1382
a(S'james white (1812\xe2\x80\x931884)'
p1383
g2
(g6
S'\x81\xe3\xfe\xba\x84\xa7\xd6?'
p1384
tp1385
Rp1386
tp1387
a(S"st andrew's in the square"
p1388
g2
(g6
S'\t!\xd4\x1b\x96\xa6\xd6?'
p1389
tp1390
Rp1391
tp1392
a(S'william walls'
p1393
g2
(g6
S'\x0f\xa5\n\xc6\xa8\xa1\xd6?'
p1394
tp1395
Rp1396
tp1397
a(S'glasgow citybus'
p1398
g2
(g6
S'KJ\xaf5\xd6\xa0\xd6?'
p1399
tp1400
Rp1401
tp1402
a(S'benno schotz'
p1403
g2
(g6
S'\xdc\xdf^\x84\xaf\x8d\xd6?'
p1404
tp1405
Rp1406
tp1407
a(S'hamish macdonald (artist)'
p1408
g2
(g6
S'c\xb8\x14\xe9_\x84\xd6?'
p1409
tp1410
Rp1411
tp1412
a(S'fergus wallace'
p1413
g2
(g6
S'\x8e\xd2\x91@\xa2\x82\xd6?'
p1414
tp1415
Rp1416
tp1417
a(S'jordanhill college'
p1418
g2
(g6
S'\x19\x01\x0c\xadr\x81\xd6?'
p1419
tp1420
Rp1421
tp1422
a(S'gallery of modern art'
p1423
g2
(g6
S'\x95\x9b\xc3\xf8\x03\x81\xd6?'
p1424
tp1425
Rp1426
tp1427
a(S'tollcross'
p1428
g2
(g6
S':\xb0 q\xdf~\xd6?'
p1429
tp1430
Rp1431
tp1432
a(S'glasgow international comedy festival'
p1433
g2
(g6
S'\xad9\x9a\xe0\xbbw\xd6?'
p1434
tp1435
Rp1436
tp1437
a(S'crossrail glasgow'
p1438
g2
(g6
S'\xed!\xf5\x94"w\xd6?'
p1439
tp1440
Rp1441
tp1442
a(S'north glasgow college'
p1443
g2
(g6
S'\x9e\xa4\t\xbc\x1au\xd6?'
p1444
tp1445
Rp1446
tp1447
a(S'john henderson (scottish politician)'
p1448
g2
(g6
S'Dz)\xff#t\xd6?'
p1449
tp1450
Rp1451
tp1452
a(S'seona reid'
p1453
g2
(g6
S'\xd2\xa7\x88\xfdHq\xd6?'
p1454
tp1455
Rp1456
tp1457
a(S'cathedral square, glasgow'
p1458
g2
(g6
S'\xd9\x05\xe5>\x97n\xd6?'
p1459
tp1460
Rp1461
tp1462
a(S'anne mclaughlin'
p1463
g2
(g6
S'\xc2j\xec\x97\xdfm\xd6?'
p1464
tp1465
Rp1466
tp1467
a(S'glasgow mid argyll'
p1468
g2
(g6
S'oK\xe5_]g\xd6?'
p1469
tp1470
Rp1471
tp1472
a(S'list of further education colleges in scotland'
p1473
g2
(g6
S'R\xa1\xc7\xd6\x95d\xd6?'
p1474
tp1475
Rp1476
tp1477
a(S'glasgow clyde college'
p1478
g2
(g6
S'Tp\x88\x8e\xb6c\xd6?'
p1479
tp1480
Rp1481
tp1482
a(S'kenneth calman'
p1483
g2
(g6
S'\xa7\x9f\xecGA`\xd6?'
p1484
tp1485
Rp1486
tp1487
a(S'list of people educated at hamilton academy'
p1488
g2
(g6
S'1^it\x92S\xd6?'
p1489
tp1490
Rp1491
tp1492
a(S'glasgow airport railway station'
p1493
g2
(g6
S'\xbb\x97\x89d\x86Q\xd6?'
p1494
tp1495
Rp1496
tp1497
a(S'media in glasgow'
p1498
g2
(g6
S':\x84O\xa2ZQ\xd6?'
p1499
tp1500
Rp1501
tp1502
a(S'emilio coia'
p1503
g2
(g6
S'7\x89\xc5\xca\xdfO\xd6?'
p1504
tp1505
Rp1506
tp1507
a(S'graham glasgow'
p1508
g2
(g6
S'^$\x87\xfc\xc1N\xd6?'
p1509
tp1510
Rp1511
tp1512
a.