(lp0
(S'universe'
p1
cnumpy.core.multiarray
scalar
p2
(cnumpy
dtype
p3
(S'f8'
p4
I0
I1
tp5
Rp6
(I3
S'<'
p7
NNNI-1
I-1
I0
tp8
bS'\xee\xff\xff\xff\xff\xff\xef?'
p9
tp10
Rp11
tp12
a(S'big bang'
p13
g2
(g6
S'\x86\x01\x984\xb2<\xe9?'
p14
tp15
Rp16
tp17
a(S'ultimate fate of the universe'
p18
g2
(g6
S'\x99%\xc9\xe93\xf7\xe8?'
p19
tp20
Rp21
tp22
a(S'physical cosmology'
p23
g2
(g6
S'\xbf-\xd1\x05\xf6L\xe8?'
p24
tp25
Rp26
tp27
a(S'shape of the universe'
p28
g2
(g6
S'\xfc\\19\xd3\x8e\xe6?'
p29
tp30
Rp31
tp32
a(S'observable universe'
p33
g2
(g6
S'=kU`%=\xe6?'
p34
tp35
Rp36
tp37
a(S'chronology of the universe'
p38
g2
(g6
S'\r\xf4\x03\xdf\x85\x1f\xe6?'
p39
tp40
Rp41
tp42
a(S'age of the universe'
p43
g2
(g6
S'\x98\xdb\xf8"r\x97\xe5?'
p44
tp45
Rp46
tp47
a(S'universe (disambiguation)'
p48
g2
(g6
S'\x0en\xe7n\xa5\x95\xe5?'
p49
tp50
Rp51
tp52
a(S'list of science fiction universes'
p53
g2
(g6
S'\xc7\xbd\n\\\xcbI\xe5?'
p54
tp55
Rp56
tp57
a(S'cosmology'
p58
g2
(g6
S'\xd4#9\x9d\x05F\xe5?'
p59
tp60
Rp61
tp62
a(S'metric expansion of space'
p63
g2
(g6
S']\xcdW&\x80+\xe5?'
p64
tp65
Rp66
tp67
a(S'flatness problem'
p68
g2
(g6
S'\xf5\x9c\xe6&?\r\xe5?'
p69
tp70
Rp71
tp72
a(S'universe (anthology series)'
p73
g2
(g6
S'fN\n\x9b\x18\xe2\xe4?'
p74
tp75
Rp76
tp77
a(S'accelerating expansion of the universe'
p78
g2
(g6
S'\x8b\xeb\xc5\x84,\xcc\xe4?'
p79
tp80
Rp81
tp82
a(S'big crunch'
p83
g2
(g6
S'\x90/\x8a\x8d6,\xe4?'
p84
tp85
Rp86
tp87
a(S'history of the big bang theory'
p88
g2
(g6
S'\xf7\xaa\x8d_\x04\xe3\xe3?'
p89
tp90
Rp91
tp92
a(S'dark energy'
p93
g2
(g6
S'9Ds\x97\x19\xc0\xe3?'
p94
tp95
Rp96
tp97
a(S'initial singularity'
p98
g2
(g6
S'{\x02\xa7\xec\x03m\xe3?'
p99
tp100
Rp101
tp102
a(S'timeline of cosmological theories'
p103
g2
(g6
S'*"j\xe2\x13F\xe3?'
p104
tp105
Rp106
tp107
a(S'structure formation'
p108
g2
(g6
S'\xe4\xa7\x042k\xcb\xe2?'
p109
tp110
Rp111
tp112
a(S'cosmogony'
p113
g2
(g6
S'\x9b/HI\x98\xbe\xe2?'
p114
tp115
Rp116
tp117
a(S'dark universe'
p118
g2
(g6
S'\x99\xa9\xd6\x03\x07\xad\xe2?'
p119
tp120
Rp121
tp122
a(S'shared universe'
p123
g2
(g6
S'\x9d\xad\xf4\x7f\xbe\x9d\xe2?'
p124
tp125
Rp126
tp127
a(S'non-standard cosmology'
p128
g2
(g6
S'O\xd5/\xf3\xba\x87\xe2?'
p129
tp130
Rp131
tp132
a(S'list of places referred to as the center of the universe'
p133
g2
(g6
S'\xc2\xf1\xb3\x03\x1c[\xe2?'
p134
tp135
Rp136
tp137
a(S'baryon acoustic oscillations'
p138
g2
(g6
S'\x89j\x1c\xe0\x8e%\xe2?'
p139
tp140
Rp141
tp142
a(S'thermodynamics of the universe'
p143
g2
(g6
S'g\x8e\xee\xc7\x88\x1a\xe2?'
p144
tp145
Rp146
tp147
a(S'static universe'
p148
g2
(g6
S'\x94u\xe7Wj\x16\xe2?'
p149
tp150
Rp151
tp152
a(S'horizon problem'
p153
g2
(g6
S'\xcd\xdf\x80\xf2\xd0\xf0\xe1?'
p154
tp155
Rp156
tp157
a(S'de sitter universe'
p158
g2
(g6
S'b\x93\x17\x12\xe8\xe0\xe1?'
p159
tp160
Rp161
tp162
a(S'how it began'
p163
g2
(g6
S'9/+8m\xd3\xe1?'
p164
tp165
Rp166
tp167
a(S'scale factor (cosmology)'
p168
g2
(g6
S'[\x15\xd9\xc0\xaf\xd0\xe1?'
p169
tp170
Rp171
tp172
a(S'lambda-cdm model'
p173
g2
(g6
S'$s\xc4\xee"\xae\xe1?'
p174
tp175
Rp176
tp177
a(S'children of the universe (disambiguation)'
p178
g2
(g6
S'c\xb7\x9f\xd2\x8d\xa0\xe1?'
p179
tp180
Rp181
tp182
a(S'across the universe (disambiguation)'
p183
g2
(g6
S'\x01\xf6\xf4\x11\xba\x8d\xe1?'
p184
tp185
Rp186
tp187
a(S'fine-tuned universe'
p188
g2
(g6
S'\xe3*o\x10\xe5}\xe1?'
p189
tp190
Rp191
tp192
a(S'list of cosmologists'
p193
g2
(g6
S'h\x12\xee\xb7Ua\xe1?'
p194
tp195
Rp196
tp197
a(S'extreme universe'
p198
g2
(g6
S'|@\xf1\xa4\xf3T\xe1?'
p199
tp200
Rp201
tp202
a(S'center of the universe'
p203
g2
(g6
S'\x1f \x86\xe2YS\xe1?'
p204
tp205
Rp206
tp207
a(S'friedmann equations'
p208
g2
(g6
S"\x1a'T\xd0N=\xe1?"
p209
tp210
Rp211
tp212
a(S'vacuum genesis'
p213
g2
(g6
S'\xf3f\xde\x98\xb3*\xe1?'
p214
tp215
Rp216
tp217
a(S'phantom energy'
p218
g2
(g6
S'.r/\x7f\xd5\xef\xe0?'
p219
tp220
Rp221
tp222
a(S'mechanical universe'
p223
g2
(g6
S'SfO\xd1Q\xed\xe0?'
p224
tp225
Rp226
tp227
a(S'cosmological principle'
p228
g2
(g6
S'\x7f\xf1\xb7\x10\t\xe6\xe0?'
p229
tp230
Rp231
tp232
a(S'anthropic principle'
p233
g2
(g6
S'\xb09h\\\xa9\xba\xe0?'
p234
tp235
Rp236
tp237
a(S'future of an expanding universe'
p238
g2
(g6
S'ir\xb2\xdc9l\xe0?'
p239
tp240
Rp241
tp242
a(S'physical universe'
p243
g2
(g6
S'\xa7\xe6\xf2\xba\x82U\xe0?'
p244
tp245
Rp246
tp247
a(S'quintessence: the search for missing mass in the universe'
p248
g2
(g6
S'\x82|\xbe(\x14Q\xe0?'
p249
tp250
Rp251
tp252
a(S'the first three minutes'
p253
g2
(g6
S'(\xdf\xd3\x94!O\xe0?'
p254
tp255
Rp256
tp257
a(S'the whole shebang: a state-of-the-universe(s) report'
p258
g2
(g6
S'BB\xa7_\x7f1\xe0?'
p259
tp260
Rp261
tp262
a(S'you are the universe'
p263
g2
(g6
S'\xa6#\xec6\xb0-\xe0?'
p264
tp265
Rp266
tp267
a(S'brian swimme'
p268
g2
(g6
S'm\x13\xa0\xff\x10\x02\xe0?'
p269
tp270
Rp271
tp272
a(S'einstein\xe2\x80\x93de sitter universe'
p273
g2
(g6
S'c\x8d\x97\x90D\xfb\xdf?'
p274
tp275
Rp276
tp277
a(S'child of the universe'
p278
g2
(g6
S'\xe3(5b\xf2\xd6\xdf?'
p279
tp280
Rp281
tp282
a(S'three-torus model of the universe'
p283
g2
(g6
S'5\\\x86\xf0d\xce\xdf?'
p284
tp285
Rp286
tp287
a(S"olbers' paradox"
p288
g2
(g6
S'\x8c\x9cs\xb0\xeb\xc2\xdf?'
p289
tp290
Rp291
tp292
a(S'heat death of the universe'
p293
g2
(g6
S'4t\x8f*A\xaf\xdf?'
p294
tp295
Rp296
tp297
a(S'cyclic model'
p298
g2
(g6
S'\xdf*X\xfc\x9d\xa6\xdf?'
p299
tp300
Rp301
tp302
a(S'photon epoch'
p303
g2
(g6
S'\x0e_\xed9\x7f\x97\xdf?'
p304
tp305
Rp306
tp307
a(S'big bounce'
p308
g2
(g6
S'\xee\teVSW\xdf?'
p309
tp310
Rp311
tp312
a(S'cd universe'
p313
g2
(g6
S'o\x99p\xb8\x8dR\xdf?'
p314
tp315
Rp316
tp317
a(S"einstein's static universe"
p318
g2
(g6
S'\x8f-\xad\x14\x0fF\xdf?'
p319
tp320
Rp321
tp322
a(S'masters of the universe (disambiguation)'
p323
g2
(g6
S'\xa2\xaf\xbb\x89#<\xdf?'
p324
tp325
Rp326
tp327
a(S'mr. universe'
p328
g2
(g6
S'"\xbe\xda;\xe9&\xdf?'
p329
tp330
Rp331
tp332
a(S'cosmological constant'
p333
g2
(g6
S't\xb4\xa27\x7f\x17\xdf?'
p334
tp335
Rp336
tp337
a(S'alpha & omega (book)'
p338
g2
(g6
S',\x03\x99\xe87\xe5\xde?'
p339
tp340
Rp341
tp342
a(S'hartle\xe2\x80\x93hawking state'
p343
g2
(g6
S'\xf4\xeb\xdc*\xbe\xdc\xde?'
p344
tp345
Rp346
tp347
a(S'creationist cosmologies'
p348
g2
(g6
S'1\xad[\xa8\xa4\xd2\xde?'
p349
tp350
Rp351
tp352
a(S'inflation (cosmology)'
p353
g2
(g6
S'\x03I\xbf\xe0C\xa0\xde?'
p354
tp355
Rp356
tp357
a(S'parallel universe (fiction)'
p358
g2
(g6
S'\x8f_\xd2\x98>\x88\xde?'
p359
tp360
Rp361
tp362
a(S'big rip'
p363
g2
(g6
S'\x1c#I\x0f\xe0w\xde?'
p364
tp365
Rp366
tp367
a(S'master of the universe'
p368
g2
(g6
S'S\xc6Hs\xd6$\xde?'
p369
tp370
Rp371
tp372
a(S"dyson's eternal intelligence"
p373
g2
(g6
S'\xf9_3\x1e\xab\x08\xde?'
p374
tp375
Rp376
tp377
a(S'gold universe'
p378
g2
(g6
S'U\xae\xfa\xb7\x8a\x08\xde?'
p379
tp380
Rp381
tp382
a(S'new universe'
p383
g2
(g6
S'\xd6&\xc6(\xa7\xfd\xdd?'
p384
tp385
Rp386
tp387
a(S'expanded universe'
p388
g2
(g6
S'\xa4\xef"\xc1\x99\xf9\xdd?'
p389
tp390
Rp391
tp392
a(S'deceleration parameter'
p393
g2
(g6
S'\xe8\xde\xbeP\xe1\xd1\xdd?'
p394
tp395
Rp396
tp397
a(S'the 4 percent universe'
p398
g2
(g6
S'\xe0\x9f\xf3\x8f\xe5\xa2\xdd?'
p399
tp400
Rp401
tp402
a(S'ekpyrotic universe'
p403
g2
(g6
S'\xdf\x82\x0e\xa6\x95\x92\xdd?'
p404
tp405
Rp406
tp407
a(S'friedmann\xe2\x80\x93lema\xc3\xaetre\xe2\x80\x93robertson\xe2\x80\x93walker metric'
p408
g2
(g6
S'\xb0\xcf\xa4\xde^;\xdd?'
p409
tp410
Rp411
tp412
a(S'history of the center of the universe'
p413
g2
(g6
S'\x96s\xe1/\xd78\xdd?'
p414
tp415
Rp416
tp417
a(S'mother universe'
p418
g2
(g6
S'\xec@A\xd4\x83-\xdd?'
p419
tp420
Rp421
tp422
a(S'list of fictional universes in animation and comics'
p423
g2
(g6
S'\x12L[\xcc)\x11\xdd?'
p424
tp425
Rp426
tp427
a(S'edward tryon'
p428
g2
(g6
S',J\x8b\xba-\xed\xdc?'
p429
tp430
Rp431
tp432
a(S'he-man and the masters of the universe (2012 dc comic)'
p433
g2
(g6
S'f\xad\x1b\xf6"\xdc\xdc?'
p434
tp435
Rp436
tp437
a(S'milne model'
p438
g2
(g6
S'\x94pp\xf0u\xaf\xdc?'
p439
tp440
Rp441
tp442
a(S'timeline of the universe'
p443
g2
(g6
S'"q\xb0\xc1\xef\x98\xdc?'
p444
tp445
Rp446
tp447
a(S'caris tiivel'
p448
g2
(g6
S'\xb8\xf9\xaf\x05Eo\xdc?'
p449
tp450
Rp451
tp452
a(S'dark matter'
p453
g2
(g6
S'\xd1\xae\xd42\xa7I\xdc?'
p454
tp455
Rp456
tp457
a(S'hadron epoch'
p458
g2
(g6
S'\xb9\xd5\xc2I=H\xdc?'
p459
tp460
Rp461
tp462
a(S'dc universe (disambiguation)'
p463
g2
(g6
S'\xc6\x89\x83\xb9\xc3\x1f\xdc?'
p464
tp465
Rp466
tp467
a(S'a brief history of time'
p468
g2
(g6
S'\x1fH%\xa6\xad\x08\xdc?'
p469
tp470
Rp471
tp472
a(S'the farnsworth parabox'
p473
g2
(g6
S'+\xfc\xfa\xc9\x9b\xfc\xdb?'
p474
tp475
Rp476
tp477
a(S'steady state theory'
p478
g2
(g6
S'\\\xd4J6w\xf5\xdb?'
p479
tp480
Rp481
tp482
a(S'electric universe'
p483
g2
(g6
S'\xc7\xcd.\xde(\xe1\xdb?'
p484
tp485
Rp486
tp487
a(S'list of unsolved problems in physics'
p488
g2
(g6
S'\xb0\x10>\xf1\x9a\xd9\xdb?'
p489
tp490
Rp491
tp492
a(S'cold big bang'
p493
g2
(g6
S'9c\x08\x12\xe6\xd2\xdb?'
p494
tp495
Rp496
tp497
a(S'weakless universe'
p498
g2
(g6
S'\x11ju\xc0\x12\xcd\xdb?'
p499
tp500
Rp501
tp502
a(S'inflationary epoch'
p503
g2
(g6
S'g6\x12u(\xb3\xdb?'
p504
tp505
Rp506
tp507
a(S'joanna cooper'
p508
g2
(g6
S'\xab\xee\x8a|:\x95\xdb?'
p509
tp510
Rp511
tp512
a(S'symphony no. 3 "universe"'
p513
g2
(g6
S'\x0c\x86\xeb G\x8c\xdb?'
p514
tp515
Rp516
tp517
a(S'copernican principle'
p518
g2
(g6
S'~b\x12M\xd0y\xdb?'
p519
tp520
Rp521
tp522
a(S'parallel universe'
p523
g2
(g6
S'\x12\xb8\xb7x\x87b\xdb?'
p524
tp525
Rp526
tp527
a(S'kalam cosmological argument'
p528
g2
(g6
S'ZIF\x9dVN\xdb?'
p529
tp530
Rp531
tp532
a(S'talking to the universe'
p533
g2
(g6
S'\xfb\xb3/I\xecL\xdb?'
p534
tp535
Rp536
tp537
a(S'reionization'
p538
g2
(g6
S'E\xca((\xb4F\xdb?'
p539
tp540
Rp541
tp542
a(S'dark ages radio explorer'
p543
g2
(g6
S'\x14\xe0\xb0\x01z*\xdb?'
p544
tp545
Rp546
tp547
a(S'herbrand structure'
p548
g2
(g6
S'\x8cz\xe3\x1b:\x1c\xdb?'
p549
tp550
Rp551
tp552
a(S'the universe (catholic newspaper)'
p553
g2
(g6
S'\xfb.\xd0\xa1\xdb\t\xdb?'
p554
tp555
Rp556
tp557
a(S'lepton epoch'
p558
g2
(g6
S'\xc1\xfdc\xf0\xdd\xd4\xda?'
p559
tp560
Rp561
tp562
a(S'captain universe'
p563
g2
(g6
S'\x96G~\xf0\xa8\xc9\xda?'
p564
tp565
Rp566
tp567
a(S'masters of the universe: the movie'
p568
g2
(g6
S'm\x16\x80\xe0\xd2\x92\xda?'
p569
tp570
Rp571
tp572
a(S'nikodem pop\xc5\x82awski'
p573
g2
(g6
S'\xa6\xf4\x00s\xff\x7f\xda?'
p574
tp575
Rp576
tp577
a(S'the five ages of the universe'
p578
g2
(g6
S'+\xc1\xae=nk\xda?'
p579
tp580
Rp581
tp582
a(S'dark flow'
p583
g2
(g6
S'\x99\x83\xaet\x90`\xda?'
p584
tp585
Rp586
tp587
a(S'the fifth essence'
p588
g2
(g6
S'm\xc6\x81\xd5\xd7P\xda?'
p589
tp590
Rp591
tp592
a(S'pocket universe'
p593
g2
(g6
S'\xd8m\xf6\x8e\x1dP\xda?'
p594
tp595
Rp596
tp597
a(S'list of fiction employing parallel universes'
p598
g2
(g6
S'\xf3\xf7\x13\xf6\x8aJ\xda?'
p599
tp600
Rp601
tp602
a(S'anna vergelskaya'
p603
g2
(g6
S'\x1b>\xc3\xf39B\xda?'
p604
tp605
Rp606
tp607
a(S'celeste marshall'
p608
g2
(g6
S'\x90\xe6BUo3\xda?'
p609
tp610
Rp611
tp612
a(S'silvia proch\xc3\xa1dzkov\xc3\xa1'
p613
g2
(g6
S'\xa3\xa1\x08\x0c/1\xda?'
p614
tp615
Rp616
tp617
a(S'great architect of the universe'
p618
g2
(g6
S'}\xc2\r\xc7K\x1b\xda?'
p619
tp620
Rp621
tp622
a(S'scalar field dark matter'
p623
g2
(g6
S'Fo\x8c\x05\xf8\x11\xda?'
p624
tp625
Rp626
tp627
a(S'life, the universe and everything'
p628
g2
(g6
S'\x0cT"\xdf\xcd\x0f\xda?'
p629
tp630
Rp631
tp632
a(S'cosmic microwave background'
p633
g2
(g6
S'\xf1#I\xa6\xe4\xec\xd9?'
p634
tp635
Rp636
tp637
a(S'baryonic dark matter'
p638
g2
(g6
S'd\xa1s\x06L\xde\xd9?'
p639
tp640
Rp641
tp642
a(S'best: third universe'
p643
g2
(g6
S'\x95"-4M\xda\xd9?'
p644
tp645
Rp646
tp647
a(S"earth's location in the universe"
p648
g2
(g6
S'H\xa3B\xd1\x1b\xd9\xd9?'
p649
tp650
Rp651
tp652
a(S'maiko itai'
p653
g2
(g6
S'\xca|\x1e\xf3\xcd\xd7\xd9?'
p654
tp655
Rp656
tp657
a(S'anna poslavska'
p658
g2
(g6
S'\x89\xdd\xc7<\x16\xc3\xd9?'
p659
tp660
Rp661
tp662
a(S'gaylyne ayugi'
p663
g2
(g6
S'\x80\xd8\xe0U;\xc1\xd9?'
p664
tp665
Rp666
tp667
a(S'marika sav\xc5\xa1ek'
p668
g2
(g6
S'\x01\\!\xcc\x9c\xaf\xd9?'
p669
tp670
Rp671
tp672
a(S'lisa marie white'
p673
g2
(g6
S'\xba\r\xf1\xca\x89\xaa\xd9?'
p674
tp675
Rp676
tp677
a(S'the dark energy survey'
p678
g2
(g6
S'\xa8\x1d\xf8\xb8\x82\x9e\xd9?'
p679
tp680
Rp681
tp682
a(S'dc universe'
p683
g2
(g6
S'\xacc?\x16-\x9e\xd9?'
p684
tp685
Rp686
tp687
a(S'mixmaster universe'
p688
g2
(g6
S'Ba\xeb:.\x9c\xd9?'
p689
tp690
Rp691
tp692
a(S'miss universe latvia'
p693
g2
(g6
S'\x0b\xcc\xf81\xddp\xd9?'
p694
tp695
Rp696
tp697
a(S'tegan martin'
p698
g2
(g6
S'Te\xbc\xaa\xd0Y\xd9?'
p699
tp700
Rp701
tp702
a(S'outer space'
p703
g2
(g6
S'M\xb1T\x8f,T\xd9?'
p704
tp705
Rp706
tp707
a(S'universe (mathematics)'
p708
g2
(g6
S'\xa6\xa6\xe6\x11\x0bP\xd9?'
p709
tp710
Rp711
tp712
a(S'ronnia fornstedt'
p713
g2
(g6
S'\xcfk/\x08\xd8G\xd9?'
p714
tp715
Rp716
tp717
a(S'the universe for beginners'
p718
g2
(g6
S'\xfe\x94~\x82\x0c@\xd9?'
p719
tp720
Rp721
tp722
a(S'moral universe'
p723
g2
(g6
S'"\xeeqD\xa82\xd9?'
p724
tp725
Rp726
tp727
a(S'multiverse'
p728
g2
(g6
S'~^h9</\xd9?'
p729
tp730
Rp731
tp732
a(S'universe: the infinite frontier'
p733
g2
(g6
S'\xec\x8d\xf2o\xa9%\xd9?'
p734
tp735
Rp736
tp737
a(S'dagmar koles\xc3\xa1rov\xc3\xa1'
p738
g2
(g6
S'\x178U\xe0\xf5#\xd9?'
p739
tp740
Rp741
tp742
a(S'yukimi matsuo'
p743
g2
(g6
S'\xbdkv4\x99 \xd9?'
p744
tp745
Rp746
tp747
a(S'wilkinson microwave anisotropy probe'
p748
g2
(g6
S"'\x86\x04\xa3\x1c \xd9?"
p749
tp750
Rp751
tp752
a(S'universal probability bound'
p753
g2
(g6
S'\xf0r3Q/\x14\xd9?'
p754
tp755
Rp756
tp757
a(S'plasma cosmology'
p758
g2
(g6
S'Ae\x03-\xbf\x04\xd9?'
p759
tp760
Rp761
tp762
a(S'masters of the universe: the arcade game'
p763
g2
(g6
S'\x16\x89e\xa3\xff\xfc\xd8?'
p764
tp765
Rp766
tp767
a(S'the universe (tv series)'
p768
g2
(g6
S'C\xfa1p\x86\xf4\xd8?'
p769
tp770
Rp771
tp772
a(S'sarah \xc4\x86osi\xc4\x87'
p773
g2
(g6
S'9QX=\xbb\xf1\xd8?'
p774
tp775
Rp776
tp777
a(S'boss great wall'
p778
g2
(g6
S'\x1d\xe9\x83\x86$\xf1\xd8?'
p779
tp780
Rp781
tp782
a(S'miss universe'
p783
g2
(g6
S'\xea\xab\x1d\x10\xa9\xed\xd8?'
p784
tp785
Rp786
tp787
a(S'digital universe'
p788
g2
(g6
S'\xab\xf5\x8d\xf5V\xcf\xd8?'
p789
tp790
Rp791
tp792
a(S'universe championships'
p793
g2
(g6
S'\x13\xee\xbb\xac5\xbf\xd8?'
p794
tp795
Rp796
tp797
a(S'marvel universe'
p798
g2
(g6
S'\x7fc*\xcbN\xb8\xd8?'
p799
tp800
Rp801
tp802
a(S'a cross the universe (album)'
p803
g2
(g6
S'@\xf6z\x19\xcf\xb4\xd8?'
p804
tp805
Rp806
tp807
a(S'monika radulovic'
p808
g2
(g6
S'y\x86\xe6\xca\xce\xb0\xd8?'
p809
tp810
Rp811
tp812
a(S'cosmic age problem'
p813
g2
(g6
S'\x96:\xa33\xfe\xa7\xd8?'
p814
tp815
Rp816
tp817
a(S'heat death paradox'
p818
g2
(g6
S'\xf0\xa8\x88\x0e,\xa0\xd8?'
p819
tp820
Rp821
tp822
a(S'marvel universe (disambiguation)'
p823
g2
(g6
S'\xc7\x0b\x15Ao\x90\xd8?'
p824
tp825
Rp826
tp827
a(S'ur\xc5\xa1ka bra\xc4\x8dko'
p828
g2
(g6
S'$\xab\xff1=\x87\xd8?'
p829
tp830
Rp831
tp832
a(S'alternative universe (fan fiction)'
p833
g2
(g6
S'T\x83\xf7\xfb\x89}\xd8?'
p834
tp835
Rp836
tp837
a(S'olesya stefanko'
p838
g2
(g6
S'\xb5,i\x9c\x80w\xd8?'
p839
tp840
Rp841
tp842
a(S'qward'
p843
g2
(g6
S'\xe2%\xa5\x94\xaas\xd8?'
p844
tp845
Rp846
tp847
a(S'anastasia chernova'
p848
g2
(g6
S'\xae\x0eZ\x96ai\xd8?'
p849
tp850
Rp851
tp852
a(S'rebeka k\xc3\xa1rp\xc3\xa1ti'
p853
g2
(g6
S'0\x97\xbfoth\xd8?'
p854
tp855
Rp856
tp857
a(S'hildur mar\xc3\xada leifsd\xc3\xb3ttir'
p858
g2
(g6
S'S\x0f\xd1_kR\xd8?'
p859
tp860
Rp861
tp862
a(S'tja\xc5\xa1a kokalj'
p863
g2
(g6
S'\x97u\xb2 \xa4A\xd8?'
p864
tp865
Rp866
tp867
a(S'particle horizon'
p868
g2
(g6
S'\x96L\xcb\x8bB5\xd8?'
p869
tp870
Rp871
tp872
a(S'sergei ogorodnikov (bodybuilder)'
p873
g2
(g6
S'\xaa\xf9\xe3M\x8f*\xd8?'
p874
tp875
Rp876
tp877
a(S'sean m. carroll'
p878
g2
(g6
S'J\x02\xc8\x95_(\xd8?'
p879
tp880
Rp881
tp882
a(S'josefin donat'
p883
g2
(g6
S'\xb7\xd3\x80;\x18(\xd8?'
p884
tp885
Rp886
tp887
a(S'linda bement'
p888
g2
(g6
S"\x9d\x9c7\x8f;'\xd8?"
p889
tp890
Rp891
tp892
a(S'human universe'
p893
g2
(g6
S'\x00\x01\xf2\x8d\xfb\x1f\xd8?'
p894
tp895
Rp896
tp897
a(S'parallel worlds (book)'
p898
g2
(g6
S'\xbfu7IY\x1e\xd8?'
p899
tp900
Rp901
tp902
a(S'nina \xc4\x90ur\xc4\x91evi\xc4\x87'
p903
g2
(g6
S'\x9bT9\xe6?\x1d\xd8?'
p904
tp905
Rp906
tp907
a(S'across the universe (novel)'
p908
g2
(g6
S'P\x1b\xcam0\x1d\xd8?'
p909
tp910
Rp911
tp912
a(S'across the universe (holly johnson song)'
p913
g2
(g6
S'\nWw\x11\xce\x1b\xd8?'
p914
tp915
Rp916
tp917
a(S'narissara france'
p918
g2
(g6
S'\xcc\x81z\x11s\x16\xd8?'
p919
tp920
Rp921
tp922
a(S'protogalaxy'
p923
g2
(g6
S'\xa3RD&\x81\x0f\xd8?'
p924
tp925
Rp926
tp927
a(S'filippo massaroni'
p928
g2
(g6
S'\x01E\x04\xbe\xbe\t\xd8?'
p929
tp930
Rp931
tp932
a(S'quark epoch'
p933
g2
(g6
S'u^\xe0$2\x04\xd8?'
p934
tp935
Rp936
tp937
a(S'wonders of the universe'
p938
g2
(g6
S'\x15\x0c\xf1[%\xfc\xd7?'
p939
tp940
Rp941
tp942
a(S'justine pasek'
p943
g2
(g6
S'\x1c\xb0\xafg\xb9\xea\xd7?'
p944
tp945
Rp946
tp947
a(S'dark energy spectroscopic instrument'
p948
g2
(g6
S'\xd2\xf2J\xd9\\\xe8\xd7?'
p949
tp950
Rp951
tp952
a(S'dibenz(a,j)anthracene'
p953
g2
(g6
S'\t\xb9=19\xd5\xd7?'
p954
tp955
Rp956
tp957
a(S'benzo(a)fluoranthene'
p958
g2
(g6
S'\t\xb9=19\xd5\xd7?'
p959
tp960
Rp961
tp962
a(S'the mechanical universe'
p963
g2
(g6
S']\xd2T\xa0I\xc8\xd7?'
p964
tp965
Rp966
tp967
a(S'cold dark matter'
p968
g2
(g6
S'\xdc+>X\xd5\xba\xd7?'
p969
tp970
Rp971
tp972
a(S"hubble's law"
p973
g2
(g6
S'\x05\xa2sD\xa2\xb1\xd7?'
p974
tp975
Rp976
tp977
a(S'matter'
p978
g2
(g6
S'\xe8\xa6q\xcfT\x9a\xd7?'
p979
tp980
Rp981
tp982
a(S'v\xc3\xb5 ho\xc3\xa0ng y\xe1\xba\xbfn'
p983
g2
(g6
S'\xfc>H\x06:\x8d\xd7?'
p984
tp985
Rp986
tp987
a(S'the grand design (book)'
p988
g2
(g6
S'2\x05F2\x93\x83\xd7?'
p989
tp990
Rp991
tp992
a(S'dijana cvijeti\xc4\x87'
p993
g2
(g6
S'qMx\xb0\x0bv\xd7?'
p994
tp995
Rp996
tp997
a(S'alone in the universe (book)'
p998
g2
(g6
S'\xe65\x1d\xf1[o\xd7?'
p999
tp1000
Rp1001
tp1002
a(S'list of cosmological horizons'
p1003
g2
(g6
S'+_\x0c\xf6Fn\xd7?'
p1004
tp1005
Rp1006
tp1007
a(S'renae ayris'
p1008
g2
(g6
S'\xb8\xa7U*\xf6_\xd7?'
p1009
tp1010
Rp1011
tp1012
a(S'cosmic variance'
p1013
g2
(g6
S'*T\t\xf9\xfbV\xd7?'
p1014
tp1015
Rp1016
tp1017
a(S'fictional universe'
p1018
g2
(g6
S'"\x93\xfb\xc3OU\xd7?'
p1019
tp1020
Rp1021
tp1022
a(S'transformers universe (comic book)'
p1023
g2
(g6
S'\x98\x17\xca\x1bO<\xd7?'
p1024
tp1025
Rp1026
tp1027
a(S'adwoa yamoah'
p1028
g2
(g6
S'\x06\xbfv\xe1\xe2%\xd7?'
p1029
tp1030
Rp1031
tp1032
a(S'equation of state (cosmology)'
p1033
g2
(g6
S'fyD\t\x7f\x14\xd7?'
p1034
tp1035
Rp1036
tp1037
a(S'edward robert harrison'
p1038
g2
(g6
S'~\xa4 \x17#\x10\xd7?'
p1039
tp1040
Rp1041
tp1042
a(S'flatness (cosmology)'
p1043
g2
(g6
S'w\xd8Z\x0f\x01\x02\xd7?'
p1044
tp1045
Rp1046
tp1047
a(S'jenny kim'
p1048
g2
(g6
S'\x07\xdd\xe7{\xe5\xfb\xd6?'
p1049
tp1050
Rp1051
tp1052
a(S'olga storozhenko'
p1053
g2
(g6
S'\xee\xf4\xa6\xc8"\xe9\xd6?'
p1054
tp1055
Rp1056
tp1057
a(S'the life of the cosmos'
p1058
g2
(g6
S'\x9b\x87\x98N`\xdf\xd6?'
p1059
tp1060
Rp1061
tp1062
a(S'jeanette borhyov\xc3\xa1'
p1063
g2
(g6
S'\xd53>\x9e\xa1\xde\xd6?'
p1064
tp1065
Rp1066
tp1067
a(S'hillevi rombin'
p1068
g2
(g6
S'\x8f\x00\xc7G\xd0\xca\xd6?'
p1069
tp1070
Rp1071
tp1072
a(S'lisa madden'
p1073
g2
(g6
S'\x02\x11\xfb\x10W\xc9\xd6?'
p1074
tp1075
Rp1076
tp1077
a(S'mysterious universe'
p1078
g2
(g6
S'\xe6\xfe_\t\xd5\xc6\xd6?'
p1079
tp1080
Rp1081
tp1082
a(S'live from antarctica'
p1083
g2
(g6
S'\xcf*w\x80+\xc0\xd6?'
p1084
tp1085
Rp1086
tp1087
a(S'the friedmann-einstein universe'
p1088
g2
(g6
S'\xf7OA\xc3,\xb8\xd6?'
p1089
tp1090
Rp1091
tp1092
a(S'joshua day'
p1093
g2
(g6
S'\xe9\xd6\xb9\xb5\xff\xb2\xd6?'
p1094
tp1095
Rp1096
tp1097
a(S'miss universe thailand'
p1098
g2
(g6
S'\x94\xd3o\xab\x01\xb1\xd6?'
p1099
tp1100
Rp1101
tp1102
a(S'magali febles'
p1103
g2
(g6
S'\xe5\x80\xda\xaa\x18\xae\xd6?'
p1104
tp1105
Rp1106
tp1107
a(S'universe (kumi koda album)'
p1108
g2
(g6
S'\xb0~\x17\xf6\xfd\xa0\xd6?'
p1109
tp1110
Rp1111
tp1112
a(S'cfa redshift survey'
p1113
g2
(g6
S'\xcb\xb8}\xda>\x9f\xd6?'
p1114
tp1115
Rp1116
tp1117
a(S'miss universe korea'
p1118
g2
(g6
S'\x9c\xd0\x90\x8ch\x9d\xd6?'
p1119
tp1120
Rp1121
tp1122
a(S'miss universe australia'
p1123
g2
(g6
S's\x1e\xc3\xc2`\x9d\xd6?'
p1124
tp1125
Rp1126
tp1127
a(S'iris mittenaere'
p1128
g2
(g6
S"#('\xd2\xf3\x96\xd6?"
p1129
tp1130
Rp1131
tp1132
a(S'henrietta kelemen'
p1133
g2
(g6
S'8o\x96ud\x96\xd6?'
p1134
tp1135
Rp1136
tp1137
a(S'our mathematical universe'
p1138
g2
(g6
S'\xef\xa9\xf88\xc1\x94\xd6?'
p1139
tp1140
Rp1141
tp1142
a(S'jean-fran\xc3\xa7ois gautier'
p1143
g2
(g6
S'u\xbb\xf0\xe4<\x8e\xd6?'
p1144
tp1145
Rp1146
tp1147
a(S'electroweak epoch'
p1148
g2
(g6
S'`\x0b\xaf\x98\xf5\x8c\xd6?'
p1149
tp1150
Rp1151
tp1152
a(S'universe (book)'
p1153
g2
(g6
S'\x83\x0b\x1f\x8f\x81\x88\xd6?'
p1154
tp1155
Rp1156
tp1157
a(S'ekta chowdhry'
p1158
g2
(g6
S'\xb9\x0b\xacEt\x87\xd6?'
p1159
tp1160
Rp1161
tp1162
a(S'quintessence (physics)'
p1163
g2
(g6
S'\xa9X\xa3\x8f\x0e\x83\xd6?'
p1164
tp1165
Rp1166
tp1167
a(S'mest (scientology)'
p1168
g2
(g6
S'P\x0e\xb5\x04\x14\x82\xd6?'
p1169
tp1170
Rp1171
tp1172
a(S'george darwin lectureship'
p1173
g2
(g6
S'A\xaf\xe3\x11X\x80\xd6?'
p1174
tp1175
Rp1176
tp1177
a(S'josephine lena wong'
p1178
g2
(g6
S'p"F\xa9Fv\xd6?'
p1179
tp1180
Rp1181
tp1182
a(S'john lees (bodybuilder)'
p1183
g2
(g6
S'6~\n\x07\x04t\xd6?'
p1184
tp1185
Rp1186
tp1187
a(S'paul s. wesson'
p1188
g2
(g6
S'\xa3\xe7y\xb7\xaak\xd6?'
p1189
tp1190
Rp1191
tp1192
a(S'mythology of fringe'
p1193
g2
(g6
S'\x16Cj\x8e\xffi\xd6?'
p1194
tp1195
Rp1196
tp1197
a(S'paulina brodd'
p1198
g2
(g6
S"'3\x17\xab\xbeW\xd6?"
p1199
tp1200
Rp1201
tp1202
a(S'lincoln lee'
p1203
g2
(g6
S'\x8bc\x14\xd5\xcbN\xd6?'
p1204
tp1205
Rp1206
tp1207
a(S'lee smolin'
p1208
g2
(g6
S'\x93\xbd\x9df\xe5K\xd6?'
p1209
tp1210
Rp1211
tp1212
a(S'the restaurant at the end of the universe'
p1213
g2
(g6
S'SY2D\x88E\xd6?'
p1214
tp1215
Rp1216
tp1217
a(S'zero-energy universe'
p1218
g2
(g6
S'N\xfb(\xa1ZD\xd6?'
p1219
tp1220
Rp1221
tp1222
a(S'venessa fisher'
p1223
g2
(g6
S'{l\xe78\x12D\xd6?'
p1224
tp1225
Rp1226
tp1227
a(S'chanyasorn sakornchan'
p1228
g2
(g6
S'F\x82\x99\xdc\xa09\xd6?'
p1229
tp1230
Rp1231
tp1232
a(S'vanessa tevi'
p1233
g2
(g6
S'\x1a]\x80tE9\xd6?'
p1234
tp1235
Rp1236
tp1237
a(S'time in physics'
p1238
g2
(g6
S'\xf7js\x9fn5\xd6?'
p1239
tp1240
Rp1241
tp1242
a(S'diana donnelly'
p1243
g2
(g6
S'q^\x87\xb5\xb0)\xd6?'
p1244
tp1245
Rp1246
tp1247
a(S'general relativity'
p1248
g2
(g6
S'kU\xec\xd2z"\xd6?'
p1249
tp1250
Rp1251
tp1252
a(S'pimbongkod chankaew'
p1253
g2
(g6
S'\x8d\xbf\x17K\xe8\x1e\xd6?'
p1254
tp1255
Rp1256
tp1257
a(S'far future in religion'
p1258
g2
(g6
S'\x04\x0b\xcc\x86\x1c\x12\xd6?'
p1259
tp1260
Rp1261
tp1262
a(S'\xc3\x87a\xc4\x9f\xc4\xb1l \xc3\x96zge \xc3\x96zkul'
p1263
g2
(g6
S'\xa1|\x08\x1bK\x0b\xd6?'
p1264
tp1265
Rp1266
tp1267
a(S'tony emmott'
p1268
g2
(g6
S'&\x00\xf4\xdd\xfe\t\xd6?'
p1269
tp1270
Rp1271
tp1272
a(S'maria kamiyama'
p1273
g2
(g6
S'WPK\x90;\t\xd6?'
p1274
tp1275
Rp1276
tp1277
a(S"bringin' home the oil"
p1278
g2
(g6
S'\x8b\xf8|\x7f0\x08\xd6?'
p1279
tp1280
Rp1281
tp1282
a(S'affleck\xe2\x80\x93dine mechanism'
p1283
g2
(g6
S'G\xb2^`*\x08\xd6?'
p1284
tp1285
Rp1286
tp1287
a(S'universe (1983 video game)'
p1288
g2
(g6
S'\xfa\xff\xcf\xf6=\xf9\xd5?'
p1289
tp1290
Rp1291
tp1292
a(S'christabelle howie'
p1293
g2
(g6
S'\xe5rK.{\xf2\xd5?'
p1294
tp1295
Rp1296
tp1297
a(S'brane cosmology'
p1298
g2
(g6
S'\x91\xcb\x0c\x9d6\xef\xd5?'
p1299
tp1300
Rp1301
tp1302
a(S'zero sharp'
p1303
g2
(g6
S'\xb2=\xf9|\xfe\xea\xd5?'
p1304
tp1305
Rp1306
tp1307
a(S'universe (slade song)'
p1308
g2
(g6
S'=4sl\x06\xe4\xd5?'
p1309
tp1310
Rp1311
tp1312
a(S'big bang (book)'
p1313
g2
(g6
S'G\x88d\xc0\x11\xdd\xd5?'
p1314
tp1315
Rp1316
tp1317
a(S'astronomy'
p1318
g2
(g6
S'\x00\xd6[9M\xd8\xd5?'
p1319
tp1320
Rp1321
tp1322
a(S'miss universe kenya'
p1323
g2
(g6
S'\xc2\x8b\xe7\x9b\x8c\xd4\xd5?'
p1324
tp1325
Rp1326
tp1327
a(S'universe (economics)'
p1328
g2
(g6
S'GA\x13\xf3\x08\xd2\xd5?'
p1329
tp1330
Rp1331
tp1332
a(S'timeline of the formation of the universe'
p1333
g2
(g6
S'\xc14\x1c\x17\xe9\xd1\xd5?'
p1334
tp1335
Rp1336
tp1337
a(S'digital universe atlas'
p1338
g2
(g6
S'\xfe\x92\x9d\xf4q\xd1\xd5?'
p1339
tp1340
Rp1341
tp1342
a(S'universe today'
p1343
g2
(g6
S'52\x9e\xe7)\xd1\xd5?'
p1344
tp1345
Rp1346
tp1347
a(S'diana avdiu'
p1348
g2
(g6
S'\x8b\xca\x95<w\xca\xd5?'
p1349
tp1350
Rp1351
tp1352
a(S'nora xu'
p1353
g2
(g6
S'i\xd4\xb1oX\xc9\xd5?'
p1354
tp1355
Rp1356
tp1357
a(S'ushoshi sengupta'
p1358
g2
(g6
S'\xd3\x14\xac"x\xbf\xd5?'
p1359
tp1360
Rp1361
tp1362
a(S'black-hole cosmology'
p1363
g2
(g6
S'4R\xcb\x06b\xbc\xd5?'
p1364
tp1365
Rp1366
tp1367
a(S'multiverse (dc comics)'
p1368
g2
(g6
S'\xbcx\xb1a\x8e\xb8\xd5?'
p1369
tp1370
Rp1371
tp1372
a(S'diana harkusha'
p1373
g2
(g6
S'\xcf\xda]\xe6\x94\xb4\xd5?'
p1374
tp1375
Rp1376
tp1377
a(S'tsaone macheng'
p1378
g2
(g6
S'\xd9li\xbb\xaa\xb2\xd5?'
p1379
tp1380
Rp1381
tp1382
a(S'religious interpretations of the big bang theory'
p1383
g2
(g6
S'\xd0@i\xd9)\xb2\xd5?'
p1384
tp1385
Rp1386
tp1387
a(S'religious cosmology'
p1388
g2
(g6
S'\x02?\x8b\x15s\xac\xd5?'
p1389
tp1390
Rp1391
tp1392
a(S'comoving distance'
p1393
g2
(g6
S'\xe1\x8b\x88~\x83\xa1\xd5?'
p1394
tp1395
Rp1396
tp1397
a(S'observational cosmology'
p1398
g2
(g6
S'zj\xb4\x92\xf3\x98\xd5?'
p1399
tp1400
Rp1401
tp1402
a(S'safira de wit'
p1403
g2
(g6
S'\x00\xdb\xa8\x92A\x94\xd5?'
p1404
tp1405
Rp1406
tp1407
a(S'shigeru sugita'
p1408
g2
(g6
S'c\x95\x00\xf1r\x93\xd5?'
p1409
tp1410
Rp1411
tp1412
a(S'particle physics in cosmology'
p1413
g2
(g6
S'\x12/\x91\xc7<\x93\xd5?'
p1414
tp1415
Rp1416
tp1417
a(S'live tour 2010: universe'
p1418
g2
(g6
S'2\xfd\xda\x16\xb4\x8c\xd5?'
p1419
tp1420
Rp1421
tp1422
a(S'kurara chibana'
p1423
g2
(g6
S'|_\xa4f\x03\x8c\xd5?'
p1424
tp1425
Rp1426
tp1427
a(S'i am she\xe2\x80\x93miss universe india'
p1428
g2
(g6
S'\xd3}#C\xf0\x87\xd5?'
p1429
tp1430
Rp1431
tp1432
a(S'introduction to general relativity'
p1433
g2
(g6
S'\xc5\x91\xf0<\x1d|\xd5?'
p1434
tp1435
Rp1436
tp1437
a(S'lindita idrizi'
p1438
g2
(g6
S'A\x97{\xe2\xe5f\xd5?'
p1439
tp1440
Rp1441
tp1442
a(S'jessica xue'
p1443
g2
(g6
S'N\x1f\x81\rL[\xd5?'
p1444
tp1445
Rp1446
tp1447
a(S'2-methylnaphthalene'
p1448
g2
(g6
S'\xbaLB\xb2-Y\xd5?'
p1449
tp1450
Rp1451
tp1452
a(S'melita fabe\xc4\x8di\xc4\x87'
p1453
g2
(g6
S'\x97\x92\nH\xb8W\xd5?'
p1454
tp1455
Rp1456
tp1457
a(S'ivana mi\xc5\xa1ura'
p1458
g2
(g6
S'\x85\xf0z\x1f\xb6J\xd5?'
p1459
tp1460
Rp1461
tp1462
a(S'the universe (dubai)'
p1463
g2
(g6
S'\xb0\xb7\x97\xdc\xa3E\xd5?'
p1464
tp1465
Rp1466
tp1467
a(S'avishai dekel'
p1468
g2
(g6
S'm\x8b\xa0M\x1c;\xd5?'
p1469
tp1470
Rp1471
tp1472
a(S'marcia bartusiak'
p1473
g2
(g6
S'\xebg\x11V\x90+\xd5?'
p1474
tp1475
Rp1476
tp1477
a(S'zhana yaneva'
p1478
g2
(g6
S'\xde$H\\b)\xd5?'
p1479
tp1480
Rp1481
tp1482
a(S'miss universe canada'
p1483
g2
(g6
S'\xaa\x89\tO8(\xd5?'
p1484
tp1485
Rp1486
tp1487
a(S'the atlas of the dc universe'
p1488
g2
(g6
S'=\xc042\xd5&\xd5?'
p1489
tp1490
Rp1491
tp1492
a(S'fractal cosmology'
p1493
g2
(g6
S'\xd2\x89Fbc$\xd5?'
p1494
tp1495
Rp1496
tp1497
a(S'vasuki sunkavalli'
p1498
g2
(g6
S'\x13\x1b\x17J\x89\x1e\xd5?'
p1499
tp1500
Rp1501
tp1502
a(S'samantha tajik'
p1503
g2
(g6
S'kg\xe2\xd3\x97\x0b\xd5?'
p1504
tp1505
Rp1506
tp1507
a(S'miss turks and caicos'
p1508
g2
(g6
S'rA=\xcf\xac\x03\xd5?'
p1509
tp1510
Rp1511
tp1512
a.