(lp0
(S'user (computing)'
p1
cnumpy.core.multiarray
scalar
p2
(cnumpy
dtype
p3
(S'f8'
p4
I0
I1
tp5
Rp6
(I3
S'<'
p7
NNNI-1
I-1
I0
tp8
bS'\xfe\xff\xff\xff\xff\xff\xef?'
p9
tp10
Rp11
tp12
a(S'power user'
p13
g2
(g6
S'DD\x1d)\xefz\xe5?'
p14
tp15
Rp16
tp17
a(S'user modeling'
p18
g2
(g6
S'\r\xcb\x15-\x1aw\xe5?'
p19
tp20
Rp21
tp22
a(S'end user'
p23
g2
(g6
S'I\xd4n\xc8Ni\xe5?'
p24
tp25
Rp26
tp27
a(S'user'
p28
g2
(g6
S'\x89\x89\xa0\x03GR\xe5?'
p29
tp30
Rp31
tp32
a(S'user (system)'
p33
g2
(g6
S'\xb8m|\xbdA\xca\xe4?'
p34
tp35
Rp36
tp37
a(S'luser'
p38
g2
(g6
S'\x0e\x7f\xef26\x9a\xe4?'
p39
tp40
Rp41
tp42
a(S'multi-user'
p43
g2
(g6
S'\xe9\x1d+\x07.&\xe4?'
p44
tp45
Rp46
tp47
a(S'user provisioning software'
p48
g2
(g6
S'5k\xce\xef\xc7!\xe4?'
p49
tp50
Rp51
tp52
a(S'zino'
p53
g2
(g6
S'\n\xe5\xa9%\x14~\xe3?'
p54
tp55
Rp56
tp57
a(S'user activity monitoring'
p58
g2
(g6
S'\xe2\xaf\x9aoTb\xe3?'
p59
tp60
Rp61
tp62
a(S'user interface design'
p63
g2
(g6
S'\xe55\xa7L\x8d!\xe3?'
p64
tp65
Rp66
tp67
a(S'adaptive user interface'
p68
g2
(g6
S'\xd7O\x85\xb0` \xe3?'
p69
tp70
Rp71
tp72
a(S'end-user development'
p73
g2
(g6
S'9\xe9\xf6\xb9\xf1\x0f\xe3?'
p74
tp75
Rp76
tp77
a(S"users' group"
p78
g2
(g6
S'\x06,$\x18F\xfe\xe2?'
p79
tp80
Rp81
tp82
a(S'user story'
p83
g2
(g6
S't\x0b5\xb0\x99\xf4\xe2?'
p84
tp85
Rp86
tp87
a(S'registered user'
p88
g2
(g6
S'+\xb1^\xcd\x9f\xd7\xe2?'
p89
tp90
Rp91
tp92
a(S'user assistance'
p93
g2
(g6
S'\x1dA\xd72&\xb4\xe2?'
p94
tp95
Rp96
tp97
a(S'user onboarding'
p98
g2
(g6
S'\x18\xa0\xf73Z\x9b\xe2?'
p99
tp100
Rp101
tp102
a(S'first-time user experience'
p103
g2
(g6
S's\xa8Y@\xd7\x96\xe2?'
p104
tp105
Rp106
tp107
a(S'user experience'
p108
g2
(g6
S'\x92\x91w^\xf8\x80\xe2?'
p109
tp110
Rp111
tp112
a(S'kokontei shinba'
p113
g2
(g6
S'4\x0f\xf7,\xc2\x0e\xe2?'
p114
tp115
Rp116
tp117
a(S'association of personal computer user groups'
p118
g2
(g6
S'X.u,!\x0b\xe2?'
p119
tp120
Rp121
tp122
a(S'user journey'
p123
g2
(g6
S'\xa6\xf9\x9e\xe3\xb5\x00\xe2?'
p124
tp125
Rp126
tp127
a(S'runas'
p128
g2
(g6
S'BE\xbc&(\xbd\xe1?'
p129
tp130
Rp131
tp132
a(S'permission-driven user interface'
p133
g2
(g6
S'\x90\x04\xb8\x12g\xa9\xe1?'
p134
tp135
Rp136
tp137
a(S'yatchy'
p138
g2
(g6
S'\xce-\xae\x14W\x9d\xe1?'
p139
tp140
Rp141
tp142
a(S'home directory'
p143
g2
(g6
S'U\xf5\xf4z>N\xe1?'
p144
tp145
Rp146
tp147
a(S'cold start'
p148
g2
(g6
S'\xbb\xba0\x88\xc3\x12\xe1?'
p149
tp150
Rp151
tp152
a(S'user advocacy'
p153
g2
(g6
S'+UX\x80\xc3\x00\xe1?'
p154
tp155
Rp156
tp157
a(S'tea rose \xe2\x80\x93 rectanus doctrine'
p158
g2
(g6
S'\x87\xea\xe5k&\xff\xe0?'
p159
tp160
Rp161
tp162
a(S'sitekey'
p163
g2
(g6
S'\xb4+\x94a=\xbe\xe0?'
p164
tp165
Rp166
tp167
a(S'user analysis'
p168
g2
(g6
S'a\xdfkm\x9a\xa3\xe0?'
p169
tp170
Rp171
tp172
a(S'user interface'
p173
g2
(g6
S'\xd6,\xd9Fzm\xe0?'
p174
tp175
Rp176
tp177
a(S'lead user'
p178
g2
(g6
S' \xc8\x04\xd6OJ\xe0?'
p179
tp180
Rp181
tp182
a(S'wheel (unix term)'
p183
g2
(g6
S'\x8e\xe1\x87\xf6\xb6C\xe0?'
p184
tp185
Rp186
tp187
a(S'user interface modeling'
p188
g2
(g6
S'\xfb\x17\xb1\x8dB\x1e\xe0?'
p189
tp190
Rp191
tp192
a(S'adaptation (computer science)'
p193
g2
(g6
S'\xd8\x02\xd2\xe8\xa9\x1d\xe0?'
p194
tp195
Rp196
tp197
a(S'user review'
p198
g2
(g6
S'\x96\x0f\xec\xe3h\x13\xe0?'
p199
tp200
Rp201
tp202
a(S'10-foot user interface'
p203
g2
(g6
S'\x12c\xd4G-\x11\xe0?'
p204
tp205
Rp206
tp207
a(S'user environment management'
p208
g2
(g6
S'\x83H\n\x157\t\xe0?'
p209
tp210
Rp211
tp212
a(S'lazy user model'
p213
g2
(g6
S'\xbb\x0ex%\xd7\x04\xe0?'
p214
tp215
Rp216
tp217
a(S'newsvine'
p218
g2
(g6
S'\xae\xe0\xc15X\xee\xdf?'
p219
tp220
Rp221
tp222
a(S'fast user switching'
p223
g2
(g6
S'\xa4\xbc\xb0M\x83\xe2\xdf?'
p224
tp225
Rp226
tp227
a(S'superuser'
p228
g2
(g6
S'\x861\x0f\x11\xde\xd8\xdf?'
p229
tp230
Rp231
tp232
a(S'su (unix)'
p233
g2
(g6
S'\xa13\xaaAT\xab\xdf?'
p234
tp235
Rp236
tp237
a(S'minid'
p238
g2
(g6
S'\x05\xfe1\xa7\xb6\xa5\xdf?'
p239
tp240
Rp241
tp242
a(S'4mations'
p243
g2
(g6
S'qR\x10\xa9\x10\x8c\xdf?'
p244
tp245
Rp246
tp247
a(S'erol user'
p248
g2
(g6
S'\x83d\xec\xc1\xf5\x85\xdf?'
p249
tp250
Rp251
tp252
a(S'user experience design'
p253
g2
(g6
S'\x9a\xe6\xbf!|f\xdf?'
p254
tp255
Rp256
tp257
a(S'3d user interaction'
p258
g2
(g6
S'\x0f,\x1a\xcc6_\xdf?'
p259
tp260
Rp261
tp262
a(S'closed user group'
p263
g2
(g6
S'a@\xd2RAX\xdf?'
p264
tp265
Rp266
tp267
a(S'logical security'
p268
g2
(g6
S'\x9b\xbf\xa9\x89X/\xdf?'
p269
tp270
Rp271
tp272
a(S'user (telecommunications)'
p273
g2
(g6
S'o{\x16\xb9\xc9\x1b\xdf?'
p274
tp275
Rp276
tp277
a(S'rocks (php)'
p278
g2
(g6
S'\xb2\xeb\x18\xabI\x08\xdf?'
p279
tp280
Rp281
tp282
a(S'recommender system'
p283
g2
(g6
S'!\xed\x1d\x94@\xfa\xde?'
p284
tp285
Rp286
tp287
a(S'pixiv'
p288
g2
(g6
S'\xaen\xd7\x16q\xda\xde?'
p289
tp290
Rp291
tp292
a(S'user innovation'
p293
g2
(g6
S'\x03\xf8k\xdaA\xb2\xde?'
p294
tp295
Rp296
tp297
a(S'user virtualization'
p298
g2
(g6
S'CY\x04\xb1\x1e\x9e\xde?'
p299
tp300
Rp301
tp302
a(S'web browsing history'
p303
g2
(g6
S'\xbeo\x0fC\x1fV\xde?'
p304
tp305
Rp306
tp307
a(S'd3.ru'
p308
g2
(g6
S'\x0b-7\xa5\xc3B\xde?'
p309
tp310
Rp311
tp312
a(S'uxr'
p313
g2
(g6
S'N\x98\x01}e.\xde?'
p314
tp315
Rp316
tp317
a(S'fair-share scheduling'
p318
g2
(g6
S'x\xa3\r\x97\xad\x1c\xde?'
p319
tp320
Rp321
tp322
a(S'per-seat license'
p323
g2
(g6
S'\xd5\x13\n\xc0+\x14\xde?'
p324
tp325
Rp326
tp327
a(S'mooky (app)'
p328
g2
(g6
S'\xfb\x0b\x06\xd5\xac\xf0\xdd?'
p329
tp330
Rp331
tp332
a(S'computer user'
p333
g2
(g6
S'A\xaa\x14J\xe6\xdc\xdd?'
p334
tp335
Rp336
tp337
a(S'user profiles in microsoft windows'
p338
g2
(g6
S'f\xe1\xe5i\xa2\xd0\xdd?'
p339
tp340
Rp341
tp342
a(S'user identifier'
p343
g2
(g6
S'\x0ekQ\xf5\xfc\xc2\xdd?'
p344
tp345
Rp346
tp347
a(S'user friendly (disambiguation)'
p348
g2
(g6
S'9\xfa\xb8\xac:\xbc\xdd?'
p349
tp350
Rp351
tp352
a(S'comparison of privilege authorization features'
p353
g2
(g6
S'\xb1y\x7f^0\x99\xdd?'
p354
tp355
Rp356
tp357
a(S'adaptive website'
p358
g2
(g6
S'G0e\x90\x18\x85\xdd?'
p359
tp360
Rp361
tp362
a(S'history of automated adaptive instruction in computer applications'
p363
g2
(g6
S'\xf7\x06\x8e\xf9Z\x82\xdd?'
p364
tp365
Rp366
tp367
a(S'whoami'
p368
g2
(g6
S'\xca\x89\xc1\xa2\x0eh\xdd?'
p369
tp370
Rp371
tp372
a(S'nobody (username)'
p373
g2
(g6
S'\xff\xb4\x01\xd7\x80V\xdd?'
p374
tp375
Rp376
tp377
a(S'privilege (computing)'
p378
g2
(g6
S'\xc4M\xa9\x9b\xfa@\xdd?'
p379
tp380
Rp381
tp382
a(S'user guide'
p383
g2
(g6
S'"\x80\x10+\x086\xdd?'
p384
tp385
Rp386
tp387
a(S'decus'
p388
g2
(g6
S'\x8du\x06\xd5\xe0,\xdd?'
p389
tp390
Rp391
tp392
a(S'transparency (telecommunication)'
p393
g2
(g6
S'\x81\xe6\x83bp\x11\xdd?'
p394
tp395
Rp396
tp397
a(S'soft ergonomics'
p398
g2
(g6
S'\x00\x90\xba\x10\xa3\xff\xdc?'
p399
tp400
Rp401
tp402
a(S'user profile'
p403
g2
(g6
S'w\xdb\x15\x15e\xfd\xdc?'
p404
tp405
Rp406
tp407
a(S'toor (unix)'
p408
g2
(g6
S'\x85\xa4Q\xc7\xec\xf9\xdc?'
p409
tp410
Rp411
tp412
a(S'experience model'
p413
g2
(g6
S'p.\xc3\xbf\xfe\xed\xdc?'
p414
tp415
Rp416
tp417
a(S'graphical user interface'
p418
g2
(g6
S'\xfc\xf3\xc0O\xb1\xd6\xdc?'
p419
tp420
Rp421
tp422
a(S'user research'
p423
g2
(g6
S'\xdb;\xd5\x99\xd9\x93\xdc?'
p424
tp425
Rp426
tp427
a(S'runlevel'
p428
g2
(g6
S'k4\xe3\xe2\xcc\x93\xdc?'
p429
tp430
Rp431
tp432
a(S'computer user satisfaction'
p433
g2
(g6
S'\xec\xeb\x0b{$}\xdc?'
p434
tp435
Rp436
tp437
a(S'heuristic evaluation'
p438
g2
(g6
S'c\x8c\r\xdb\x93y\xdc?'
p439
tp440
Rp441
tp442
a(S'mention (blogging)'
p443
g2
(g6
S'.B\xf2L\xb4w\xdc?'
p444
tp445
Rp446
tp447
a(S'user-generated content'
p448
g2
(g6
S'w#\xa3\x08\xab]\xdc?'
p449
tp450
Rp451
tp452
a(S'user charge'
p453
g2
(g6
S'\xef\xb7\x14\x01\xa8P\xdc?'
p454
tp455
Rp456
tp457
a(S'smart as...'
p458
g2
(g6
S'\xf4wjGmL\xdc?'
p459
tp460
Rp461
tp462
a(S'tvshow time'
p463
g2
(g6
S'b\x1dV\nN\x1e\xdc?'
p464
tp465
Rp466
tp467
a(S'design-oriented programming'
p468
g2
(g6
S'L\xac\xe5\x15<\xf6\xdb?'
p469
tp470
Rp471
tp472
a(S'concurrent user'
p473
g2
(g6
S'fOs\xb3\x14\xf1\xdb?'
p474
tp475
Rp476
tp477
a(S'user expectations'
p478
g2
(g6
S'\x9a\x14\xa8\x10\x8d\xee\xdb?'
p479
tp480
Rp481
tp482
a(S'plazes'
p483
g2
(g6
S'\xe8\xcf\x82\xd3d\xba\xdb?'
p484
tp485
Rp486
tp487
a(S'multiple accounts'
p488
g2
(g6
S'\xea\xdb\xbcW\xa7\x90\xdb?'
p489
tp490
Rp491
tp492
a(S'systems architect'
p493
g2
(g6
S'\x97\xc8\xb1\xec\x16\x8e\xdb?'
p494
tp495
Rp496
tp497
a(S'uiml'
p498
g2
(g6
S'\x8f\x82\xf8S\x91\x8c\xdb?'
p499
tp500
Rp501
tp502
a(S'list of kanohi'
p503
g2
(g6
S'\xe1M\xa3yN\x87\xdb?'
p504
tp505
Rp506
tp507
a(S'ibm current'
p508
g2
(g6
S'|R\xbe\xe7W|\xdb?'
p509
tp510
Rp511
tp512
a(S'taltopia'
p513
g2
(g6
S'\xc4\xd8p\x9aS/\xdb?'
p514
tp515
Rp516
tp517
a(S'common'
p518
g2
(g6
S'J\xf7\xbb\xcc\x01+\xdb?'
p519
tp520
Rp521
tp522
a(S'implicit data collection'
p523
g2
(g6
S'\xb2\xa6\x8a\xe7\xc1\x1a\xdb?'
p524
tp525
Rp526
tp527
a(S'user-centered design'
p528
g2
(g6
S'$k\xe1d\xb8\x0b\xdb?'
p529
tp530
Rp531
tp532
a(S'construction field computing'
p533
g2
(g6
S'\xcb>\xf6\xdd\xbb\xfc\xda?'
p534
tp535
Rp536
tp537
a(S'needs analysis'
p538
g2
(g6
S'\xa3\x0f\x15\x08\xd7\xfb\xda?'
p539
tp540
Rp541
tp542
a(S'logdog'
p543
g2
(g6
S'T\x9e\xcd\xf0\x00\xd5\xda?'
p544
tp545
Rp546
tp547
a(S'natural user interface'
p548
g2
(g6
S'22Y\xf7\x04\xb1\xda?'
p549
tp550
Rp551
tp552
a(S'sudo'
p553
g2
(g6
S'\x9e\xa6\x87\x99\x9e\xab\xda?'
p554
tp555
Rp556
tp557
a(S'list of graphical user interface elements'
p558
g2
(g6
S'>Fe\x07Z\xaa\xda?'
p559
tp560
Rp561
tp562
a(S'center for functional nanomaterials'
p563
g2
(g6
S'\xb9@^\x84\xd9\x98\xda?'
p564
tp565
Rp566
tp567
a(S'username'
p568
g2
(g6
S'J\xda\x1e\x97\x0c\x98\xda?'
p569
tp570
Rp571
tp572
a(S'unclick'
p573
g2
(g6
S'7\x06}\xae-}\xda?'
p574
tp575
Rp576
tp577
a(S'roaming user profile'
p578
g2
(g6
S'\xb4\x8c\x17=\xfdS\xda?'
p579
tp580
Rp581
tp582
a(S'end-user computing'
p583
g2
(g6
S'\xe7\xb6\xa1@qO\xda?'
p584
tp585
Rp586
tp587
a(S'zinstall winwin'
p588
g2
(g6
S"\x9ce'\xa3\x98H\xda?"
p589
tp590
Rp591
tp592
a(S'database seeding'
p593
g2
(g6
S'I\x88!QM)\xda?'
p594
tp595
Rp596
tp597
a(S'nexopia'
p598
g2
(g6
S"*\xd4C'\x18(\xda?"
p599
tp600
Rp601
tp602
a(S'incentive-centered design'
p603
g2
(g6
S'\x11\n2\xea\x97 \xda?'
p604
tp605
Rp606
tp607
a(S'attentive user interface'
p608
g2
(g6
S'\xe0{P5\x1c\x16\xda?'
p609
tp610
Rp611
tp612
a(S'secure by default'
p613
g2
(g6
S'>ag\x97\xf3\x04\xda?'
p614
tp615
Rp616
tp617
a(S'taringa!'
p618
g2
(g6
S'\xd6\xde,\xaf?\xf3\xd9?'
p619
tp620
Rp621
tp622
a(S'individual communication services and tariffs'
p623
g2
(g6
S'\xa6\x0e\x1ec\xe3\xe7\xd9?'
p624
tp625
Rp626
tp627
a(S'jet fighters (video game)'
p628
g2
(g6
S'\xcfD#\xcf\xa4\xe4\xd9?'
p629
tp630
Rp631
tp632
a(S'privilege escalation'
p633
g2
(g6
S'\xd9\xaa\xa8\xa0\xa1\xd7\xd9?'
p634
tp635
Rp636
tp637
a(S"list of users' groups"
p638
g2
(g6
S'\xbf\xdc\xd7\xe9\xb0\xd4\xd9?'
p639
tp640
Rp641
tp642
a(S'orkut'
p643
g2
(g6
S'(J\n\x01\xe8\xd1\xd9?'
p644
tp645
Rp646
tp647
a(S'object-oriented user interface'
p648
g2
(g6
S'\x97\xea\xa3\xab\xed\xb7\xd9?'
p649
tp650
Rp651
tp652
a(S'greenware (computing)'
p653
g2
(g6
S'\xdfZ\x97io\xa5\xd9?'
p654
tp655
Rp656
tp657
a(S'usixml'
p658
g2
(g6
S'\xa5a\x84\x05:\x97\xd9?'
p659
tp660
Rp661
tp662
a(S'cookiejacking'
p663
g2
(g6
S'\x1a\x85A\xb6<\x8d\xd9?'
p664
tp665
Rp666
tp667
a(S'active setup'
p668
g2
(g6
S'={@\xeb~\x8b\xd9?'
p669
tp670
Rp671
tp672
a(S'context awareness'
p673
g2
(g6
S'P\xb1D\xd1\xa8\x85\xd9?'
p674
tp675
Rp676
tp677
a(S'race or die'
p678
g2
(g6
S'\xd8Sy)Eb\xd9?'
p679
tp680
Rp681
tp682
a(S'single user mode'
p683
g2
(g6
S'\xb4\x11E\xb7>\\\xd9?'
p684
tp685
Rp686
tp687
a(S'text-free user interface'
p688
g2
(g6
S'\xed\xdd\x08G\x88G\xd9?'
p689
tp690
Rp691
tp692
a(S'human\xe2\x80\x93computer interaction'
p693
g2
(g6
S'6\xcc*\xb0\xd9A\xd9?'
p694
tp695
Rp696
tp697
a(S'chatroulette'
p698
g2
(g6
S'\xed\xff\xc7x\xd6;\xd9?'
p699
tp700
Rp701
tp702
a(S'chown'
p703
g2
(g6
S',\x0b\r\x80\xb83\xd9?'
p704
tp705
Rp706
tp707
a(S'talk (software)'
p708
g2
(g6
S'q%\x004+#\xd9?'
p709
tp710
Rp711
tp712
a(S'collaborative filtering'
p713
g2
(g6
S'\x0f?\xed\xfb\x92\x0c\xd9?'
p714
tp715
Rp716
tp717
a(S'active directory federation services'
p718
g2
(g6
S'V~\x97$\x7f\xf5\xd8?'
p719
tp720
Rp721
tp722
a(S'user-in-the-loop'
p723
g2
(g6
S'\x15F2\xeb\xbf\xe8\xd8?'
p724
tp725
Rp726
tp727
a(S'principles of user interface design'
p728
g2
(g6
S'\xe3w\xf9\x03\x9c\xe8\xd8?'
p729
tp730
Rp731
tp732
a(S'archive (magazine)'
p733
g2
(g6
S'\xba:bu\x7f\xe7\xd8?'
p734
tp735
Rp736
tp737
a(S'nucleonica'
p738
g2
(g6
S'\xea\xb8^_s\xdf\xd8?'
p739
tp740
Rp741
tp742
a(S'knoa software'
p743
g2
(g6
S'c&\x02_.\xcb\xd8?'
p744
tp745
Rp746
tp747
a(S'jv16 powertools'
p748
g2
(g6
S'=\xa6\xcf\xff\x8e\xaf\xd8?'
p749
tp750
Rp751
tp752
a(S'certificateless cryptography'
p753
g2
(g6
S'\x1ct\xa6\xd3;\xad\xd8?'
p754
tp755
Rp756
tp757
a(S'incompatible timesharing system'
p758
g2
(g6
S'@\xd9\xf0mt\xa1\xd8?'
p759
tp760
Rp761
tp762
a(S'workplace by facebook'
p763
g2
(g6
S")Q\x03\x9d'o\xd8?"
p764
tp765
Rp766
tp767
a(S'kanagram'
p768
g2
(g6
S'\xddcy\x03\xc5_\xd8?'
p769
tp770
Rp771
tp772
a(S'dwim'
p773
g2
(g6
S"T\xc5\x0fy'T\xd8?"
p774
tp775
Rp776
tp777
a(S'federated identity'
p778
g2
(g6
S'\xa3\x92 F\x9cK\xd8?'
p779
tp780
Rp781
tp782
a(S'iup portfolio functional specifications'
p783
g2
(g6
S'^\xe8h\x07\x9bB\xd8?'
p784
tp785
Rp786
tp787
a(S'me2day'
p788
g2
(g6
S'\x8a\x06/\x9b\xf73\xd8?'
p789
tp790
Rp791
tp792
a(S'object\xe2\x80\x93action interface'
p793
g2
(g6
S'#Yw\x92\xde0\xd8?'
p794
tp795
Rp796
tp797
a(S'magic pushbutton'
p798
g2
(g6
S'S\xd7\xe9h@*\xd8?'
p799
tp800
Rp801
tp802
a(S'soulseek'
p803
g2
(g6
S"\x1c\x81r\xd7\xdd'\xd8?"
p804
tp805
Rp806
tp807
a(S'passwd'
p808
g2
(g6
S"\xb7\xa2Z\xb31'\xd8?"
p809
tp810
Rp811
tp812
a(S'user agent'
p813
g2
(g6
S'\xd2\xf4\xe0}7\x1b\xd8?'
p814
tp815
Rp816
tp817
a(S'unix security'
p818
g2
(g6
S'%e\xc8O\x01\x1a\xd8?'
p819
tp820
Rp821
tp822
a(S'intelligent user interface'
p823
g2
(g6
S'\x9c\x12\x19S\x95\x15\xd8?'
p824
tp825
Rp826
tp827
a(S'user experience evaluation'
p828
g2
(g6
S'\x01:\x89\xf0\xcc\x11\xd8?'
p829
tp830
Rp831
tp832
a(S'clickable'
p833
g2
(g6
S'\x8c\x7fH]\x03\r\xd8?'
p834
tp835
Rp836
tp837
a(S'chsh'
p838
g2
(g6
S't\xd2W\xaa\x92\x01\xd8?'
p839
tp840
Rp841
tp842
a(S'reference interview'
p843
g2
(g6
S'\x9a\xee@\x9b@\xf3\xd7?'
p844
tp845
Rp846
tp847
a(S'login'
p848
g2
(g6
S'\xe0\x8d{\x83\xd2\xed\xd7?'
p849
tp850
Rp851
tp852
a(S'useware'
p853
g2
(g6
S'R6\xf7"\xb2\xe3\xd7?'
p854
tp855
Rp856
tp857
a(S'xnee'
p858
g2
(g6
S'\xa7\x8c\xc4\xa4\x8a\xe0\xd7?'
p859
tp860
Rp861
tp862
a(S'z user group'
p863
g2
(g6
S'\x1en\x06\xde\xf5\xde\xd7?'
p864
tp865
Rp866
tp867
a(S'camfrog'
p868
g2
(g6
S'\t\xa2\xbe{\xf9\xcf\xd7?'
p869
tp870
Rp871
tp872
a(S'openid'
p873
g2
(g6
S'\xe6F\x92\xde\x91\xcf\xd7?'
p874
tp875
Rp876
tp877
a(S'kik messenger'
p878
g2
(g6
S'vvE\x91q\xc7\xd7?'
p879
tp880
Rp881
tp882
a(S'usability'
p883
g2
(g6
S'\xe8E\x0b1\x83\xc1\xd7?'
p884
tp885
Rp886
tp887
a(S'eccky'
p888
g2
(g6
S'.\x9e\xbd\xc2\xcf\xb1\xd7?'
p889
tp890
Rp891
tp892
a(S'pycassa'
p893
g2
(g6
S'\xf8\xf2\xb8\xeb\x19\x9d\xd7?'
p894
tp895
Rp896
tp897
a(S'springpad'
p898
g2
(g6
S'H\xfe@\x8e\xd2\x9c\xd7?'
p899
tp900
Rp901
tp902
a(S'semantic url attack'
p903
g2
(g6
S'y+n\xbcv\x95\xd7?'
p904
tp905
Rp906
tp907
a(S'gallery software'
p908
g2
(g6
S'\x0b\x1a\xc0\xef\x14\x93\xd7?'
p909
tp910
Rp911
tp912
a(S'user error'
p913
g2
(g6
S'?g\x07H\xeb\x8f\xd7?'
p914
tp915
Rp916
tp917
a(S'micromation'
p918
g2
(g6
S'\x07\x82\x93\x07\n\x8a\xd7?'
p919
tp920
Rp921
tp922
a(S'sharethemusic'
p923
g2
(g6
S'\xb7\xf2dH\xd4z\xd7?'
p924
tp925
Rp926
tp927
a(S'human action cycle'
p928
g2
(g6
S'\xf0\xb3\x10[\xadr\xd7?'
p929
tp930
Rp931
tp932
a(S'synergy teleconferencing system'
p933
g2
(g6
S'O\xb6\x0689q\xd7?'
p934
tp935
Rp936
tp937
a(S'unique user'
p938
g2
(g6
S'e#\x1f:3q\xd7?'
p939
tp940
Rp941
tp942
a(S'vs/9'
p943
g2
(g6
S'\xea\x93\x80\xec\xafn\xd7?'
p944
tp945
Rp946
tp947
a(S'furl'
p948
g2
(g6
S'8$\t\x80_i\xd7?'
p949
tp950
Rp951
tp952
a(S'experience architecture'
p953
g2
(g6
S'\x93\x90\xb2K\x9e[\xd7?'
p954
tp955
Rp956
tp957
a(S'text-based (computing)'
p958
g2
(g6
S'\x98\xaf\xdd\x7f;X\xd7?'
p959
tp960
Rp961
tp962
a(S'reactive user interface'
p963
g2
(g6
S'x\x88\xb62qS\xd7?'
p964
tp965
Rp966
tp967
a(S'pearltrees'
p968
g2
(g6
S'\xab\xd3\n\x04\xaaD\xd7?'
p969
tp970
Rp971
tp972
a(S'memoranda (software)'
p973
g2
(g6
S'&\t\xb6\xd6\xee?\xd7?'
p974
tp975
Rp976
tp977
a(S'windows user'
p978
g2
(g6
S'%\xed)\x05\x14>\xd7?'
p979
tp980
Rp981
tp982
a(S'movielens'
p983
g2
(g6
S'\xd2\xd7\x87\n\x8e2\xd7?'
p984
tp985
Rp986
tp987
a(S'personal mobility'
p988
g2
(g6
S'J\r\rcF/\xd7?'
p989
tp990
Rp991
tp992
a(S'credential lag'
p993
g2
(g6
S'\xb8\x91\x19\xef|+\xd7?'
p994
tp995
Rp996
tp997
a(S'nemid'
p998
g2
(g6
S'\xa2\xac\xa27\\\x10\xd7?'
p999
tp1000
Rp1001
tp1002
a(S'spatial contextual awareness'
p1003
g2
(g6
S'Rp\x94\x80\xe0\x0e\xd7?'
p1004
tp1005
Rp1006
tp1007
a(S'filevault'
p1008
g2
(g6
S'wLSh>\x06\xd7?'
p1009
tp1010
Rp1011
tp1012
a(S'trustwave securebrowsing'
p1013
g2
(g6
S'\xc8\xf2\xd8N\r\xfb\xd6?'
p1014
tp1015
Rp1016
tp1017
a(S'infobar'
p1018
g2
(g6
S'r\x1b0\xd3#\xfa\xd6?'
p1019
tp1020
Rp1021
tp1022
a(S'exocentric environment'
p1023
g2
(g6
S'VHP\xde#\xf0\xd6?'
p1024
tp1025
Rp1026
tp1027
a(S'automounter'
p1028
g2
(g6
S'\xb8\x8c\x8a\x9as\xed\xd6?'
p1029
tp1030
Rp1031
tp1032
a(S'progress indicator'
p1033
g2
(g6
S'\x13\xb4\xce\x86\x97\xd0\xd6?'
p1034
tp1035
Rp1036
tp1037
a(S'mailwasher'
p1038
g2
(g6
S'\xa3\xd9\xed\xd3\x19\xca\xd6?'
p1039
tp1040
Rp1041
tp1042
a(S'adaptive hypermedia'
p1043
g2
(g6
S'\xdar\xdb\xfd\xf2\xc3\xd6?'
p1044
tp1045
Rp1046
tp1047
a(S'ktouch'
p1048
g2
(g6
S'\xc2\xf8\x1bv\x85\xc0\xd6?'
p1049
tp1050
Rp1051
tp1052
a(S'http+html form-based authentication'
p1053
g2
(g6
S'\xf3J[\x1d\xbe\xbd\xd6?'
p1054
tp1055
Rp1056
tp1057
a(S'wordq+speakq'
p1058
g2
(g6
S'\xaa>F\xe4\xea\xb6\xd6?'
p1059
tp1060
Rp1061
tp1062
a(S'identity correlation'
p1063
g2
(g6
S'\x95\xf8\x94\x8b\x86\xb3\xd6?'
p1064
tp1065
Rp1066
tp1067
a(S'context-aware services'
p1068
g2
(g6
S'\xf1@\n\x90\xc0\xa9\xd6?'
p1069
tp1070
Rp1071
tp1072
a(S"jojo's bizarre adventure: eyes of heaven"
p1073
g2
(g6
S'\xfd\xb7\xe2\xcc\x8d\xa3\xd6?'
p1074
tp1075
Rp1076
tp1077
a(S'rsts/e'
p1078
g2
(g6
S'#\xe6#K\xa5\xa0\xd6?'
p1079
tp1080
Rp1081
tp1082
a(S'gowalla'
p1083
g2
(g6
S'S\xb8\tF\xc6\x9d\xd6?'
p1084
tp1085
Rp1086
tp1087
a(S'gps for the visually impaired'
p1088
g2
(g6
S'G\x9e~<\xb2\x95\xd6?'
p1089
tp1090
Rp1091
tp1092
a(S'dragon user'
p1093
g2
(g6
S'33\xca\x18\xbb\x89\xd6?'
p1094
tp1095
Rp1096
tp1097
a(S'heello'
p1098
g2
(g6
S'\x96\xac\xb4\xd1\x80\x89\xd6?'
p1099
tp1100
Rp1101
tp1102
a(S'icq'
p1103
g2
(g6
S'A\x18\xd9\xd5\xf5\x86\xd6?'
p1104
tp1105
Rp1106
tp1107
a(S'macintosh user groups'
p1108
g2
(g6
S'SI\xf5\xb5\xb4\x82\xd6?'
p1109
tp1110
Rp1111
tp1112
a(S'single sign-on'
p1113
g2
(g6
S'\xa0\xc5f}\xb3~\xd6?'
p1114
tp1115
Rp1116
tp1117
a(S'ez word'
p1118
g2
(g6
S'\xa4V\xed\xd7\xe9y\xd6?'
p1119
tp1120
Rp1121
tp1122
a(S'hardware architect'
p1123
g2
(g6
S'~qD\xd9\x97u\xd6?'
p1124
tp1125
Rp1126
tp1127
a(S'libre.fm'
p1128
g2
(g6
S'0\xcb\x7f\xfd\xcbo\xd6?'
p1129
tp1130
Rp1131
tp1132
a(S'usability lab'
p1133
g2
(g6
S'\xa7\x1c\xa9W6n\xd6?'
p1134
tp1135
Rp1136
tp1137
a(S'okcupid'
p1138
g2
(g6
S'\xbf]\x10\xff\xbam\xd6?'
p1139
tp1140
Rp1141
tp1142
a(S'universal usability'
p1143
g2
(g6
S'\xbcf\x9c,\x90i\xd6?'
p1144
tp1145
Rp1146
tp1147
a(S'wintomatix'
p1148
g2
(g6
S'f\x9d\xf3-\xfdg\xd6?'
p1149
tp1150
Rp1151
tp1152
a(S'platinnetz'
p1153
g2
(g6
S'R\x19\xc6\x8dze\xd6?'
p1154
tp1155
Rp1156
tp1157
a(S'wikidot'
p1158
g2
(g6
S'\xe3N\xb0k\x9e]\xd6?'
p1159
tp1160
Rp1161
tp1162
a(S'lde(x)'
p1163
g2
(g6
S'\xacC\xbb\x9eKR\xd6?'
p1164
tp1165
Rp1166
tp1167
a(S'eyetap'
p1168
g2
(g6
S'\xc5\xect_\x15D\xd6?'
p1169
tp1170
Rp1171
tp1172
a(S'renren'
p1173
g2
(g6
S'V\xb5&\xed\xda@\xd6?'
p1174
tp1175
Rp1176
tp1177
a(S'techlife'
p1178
g2
(g6
S'\x82J\x0fa\xda=\xd6?'
p1179
tp1180
Rp1181
tp1182
a(S'user pays'
p1183
g2
(g6
S'\xb0\x94$\x98\xbb4\xd6?'
p1184
tp1185
Rp1186
tp1187
a(S'paperworks'
p1188
g2
(g6
S'\x88H\xc1\xc6\x192\xd6?'
p1189
tp1190
Rp1191
tp1192
a(S'aui'
p1193
g2
(g6
S'\xe8\x11\xb7\x97\x98(\xd6?'
p1194
tp1195
Rp1196
tp1197
a(S'clock (application)'
p1198
g2
(g6
S'\xec\x83{i0#\xd6?'
p1199
tp1200
Rp1201
tp1202
a(S'pydio'
p1203
g2
(g6
S'\x03k\x8d[\x8a\x18\xd6?'
p1204
tp1205
Rp1206
tp1207
a(S'user account control'
p1208
g2
(g6
S'\xb3[\xcdOu\n\xd6?'
p1209
tp1210
Rp1211
tp1212
a(S'aardvark (search engine)'
p1213
g2
(g6
S'\xe40\x13^\xbf\x06\xd6?'
p1214
tp1215
Rp1216
tp1217
a(S'talehunt'
p1218
g2
(g6
S'\xff\x1f\x14\x14\x8d\x03\xd6?'
p1219
tp1220
Rp1221
tp1222
a(S'system for cross-domain identity management'
p1223
g2
(g6
S'\xb0u?\x0f9\x02\xd6?'
p1224
tp1225
Rp1226
tp1227
a(S'bync'
p1228
g2
(g6
S'\x87\x7f\xa6\xf0\x8e\x00\xd6?'
p1229
tp1230
Rp1231
tp1232
a(S'personal knowledge base'
p1233
g2
(g6
S'\x94\xfa[\xc2\x96\xf9\xd5?'
p1234
tp1235
Rp1236
tp1237
a(S'atari st user'
p1238
g2
(g6
S']\xfa\xcf\xe4\xdf\xf8\xd5?'
p1239
tp1240
Rp1241
tp1242
a(S'overhead information'
p1243
g2
(g6
S'$\x98M\xe9\xaa\xf8\xd5?'
p1244
tp1245
Rp1246
tp1247
a(S'vanish (computer science)'
p1248
g2
(g6
S'\xb6\xaapS\xc2\xf5\xd5?'
p1249
tp1250
Rp1251
tp1252
a(S'eric von hippel'
p1253
g2
(g6
S'\x99e$\x9e\xf0\xf4\xd5?'
p1254
tp1255
Rp1256
tp1257
a(S'nielsen norman group'
p1258
g2
(g6
S'\xaes\xe96Y\xf2\xd5?'
p1259
tp1260
Rp1261
tp1262
a(S'one-time authorization code'
p1263
g2
(g6
S'j?\xb5\x83\x05\xed\xd5?'
p1264
tp1265
Rp1266
tp1267
a(S'shell (computing)'
p1268
g2
(g6
S')\xe0\x17\x7f\xa8\xe9\xd5?'
p1269
tp1270
Rp1271
tp1272
a(S'phpgroupware'
p1273
g2
(g6
S'\x89V\xb2\xe8y\xe6\xd5?'
p1274
tp1275
Rp1276
tp1277
a(S'at ease'
p1278
g2
(g6
S'@\xbc\xf7\x90|\xdb\xd5?'
p1279
tp1280
Rp1281
tp1282
a(S'uise'
p1283
g2
(g6
S'F\x8cR\xde\xaa\xc8\xd5?'
p1284
tp1285
Rp1286
tp1287
a(S'infone'
p1288
g2
(g6
S'3\x93R\x1f#\xc3\xd5?'
p1289
tp1290
Rp1291
tp1292
a(S'centsports'
p1293
g2
(g6
S'\xcbZ\xe9\xd5\x94\xc1\xd5?'
p1294
tp1295
Rp1296
tp1297
a(S'spotsetter'
p1298
g2
(g6
S'12\xbd!\xb8\xc0\xd5?'
p1299
tp1300
Rp1301
tp1302
a(S'transparency (human\xe2\x80\x93computer interaction)'
p1303
g2
(g6
S'\x1f%kT\xec\xbf\xd5?'
p1304
tp1305
Rp1306
tp1307
a(S'endocentric environment'
p1308
g2
(g6
S'A\xd9A\x15\xd5\xbd\xd5?'
p1309
tp1310
Rp1311
tp1312
a(S'basic access authentication'
p1313
g2
(g6
S'\xfa%\xae\x87\x07\xb6\xd5?'
p1314
tp1315
Rp1316
tp1317
a(S'atari user'
p1318
g2
(g6
S'\tZ/E)\xa6\xd5?'
p1319
tp1320
Rp1321
tp1322
a(S'comparison of internet forum software'
p1323
g2
(g6
S'K\xeeU\xc1\x18\x99\xd5?'
p1324
tp1325
Rp1326
tp1327
a(S'hands-on computing'
p1328
g2
(g6
S'\xc3e\x12i\xf6\x90\xd5?'
p1329
tp1330
Rp1331
tp1332
a(S'vipps'
p1333
g2
(g6
S'\x02\x1a*\xcd\x12\x8f\xd5?'
p1334
tp1335
Rp1336
tp1337
a(S'perceived performance'
p1338
g2
(g6
S'\x08\xacE\x0e\xd0\x8a\xd5?'
p1339
tp1340
Rp1341
tp1342
a(S'magic string'
p1343
g2
(g6
S'\xa5\xd9\x03\xcf\x91\x8a\xd5?'
p1344
tp1345
Rp1346
tp1347
a(S'responsiveness'
p1348
g2
(g6
S'\x8dz\x8d\x04\x1a\x89\xd5?'
p1349
tp1350
Rp1351
tp1352
a(S'faroo'
p1353
g2
(g6
S'\xc6/\xdf9\xfe\x86\xd5?'
p1354
tp1355
Rp1356
tp1357
a(S'nagware'
p1358
g2
(g6
S'\x03\x7f\xe88}\x85\xd5?'
p1359
tp1360
Rp1361
tp1362
a(S'winmx'
p1363
g2
(g6
S'"I\xf5F\xd8\x82\xd5?'
p1364
tp1365
Rp1366
tp1367
a(S'call-processing language'
p1368
g2
(g6
S'\x93\x05\xf7\xcb\\|\xd5?'
p1369
tp1370
Rp1371
tp1372
a(S'fabio patern\xc3\xb2'
p1373
g2
(g6
S'\x10\x1e\xfcU=t\xd5?'
p1374
tp1375
Rp1376
tp1377
a(S'security and safety features new to windows vista'
p1378
g2
(g6
S'|\x91^\t\xefo\xd5?'
p1379
tp1380
Rp1381
tp1382
a(S'gecos field'
p1383
g2
(g6
S'U\x01|\xd4]o\xd5?'
p1384
tp1385
Rp1386
tp1387
a(S'fuel project'
p1388
g2
(g6
S'\x9fIr\xfb\x9dl\xd5?'
p1389
tp1390
Rp1391
tp1392
a(S'fantage'
p1393
g2
(g6
S'J\xe0\x0e\x8d*_\xd5?'
p1394
tp1395
Rp1396
tp1397
a(S'maphook'
p1398
g2
(g6
S'\x87-\xf4\xf9\xc9[\xd5?'
p1399
tp1400
Rp1401
tp1402
a(S'v-model (software development)'
p1403
g2
(g6
S'\x7fq\xbc)*Z\xd5?'
p1404
tp1405
Rp1406
tp1407
a(S'telecommunications service'
p1408
g2
(g6
S'\x1dK\xb93\xbbT\xd5?'
p1409
tp1410
Rp1411
tp1412
a(S'identity driven networking'
p1413
g2
(g6
S'\x92p\x97\xb0\xe8R\xd5?'
p1414
tp1415
Rp1416
tp1417
a(S'data protection api'
p1418
g2
(g6
S'\xd1\xe4\xa6\xd0\x02O\xd5?'
p1419
tp1420
Rp1421
tp1422
a(S'mode (computer interface)'
p1423
g2
(g6
S'\xa6\xa3\xd2\x8c\x19L\xd5?'
p1424
tp1425
Rp1426
tp1427
a(S'web access management'
p1428
g2
(g6
S'\x979\xe7}\xb6@\xd5?'
p1429
tp1430
Rp1431
tp1432
a(S'dwell time (information retrieval)'
p1433
g2
(g6
S'\xac\x91\xcch\r>\xd5?'
p1434
tp1435
Rp1436
tp1437
a(S'filmow'
p1438
g2
(g6
S'yA\xc6\xbcz2\xd5?'
p1439
tp1440
Rp1441
tp1442
a(S'qype'
p1443
g2
(g6
S"\xadU\xe1\xb4)'\xd5?"
p1444
tp1445
Rp1446
tp1447
a(S'user revolt'
p1448
g2
(g6
S'\x14|\x84\x0e\xfb\x1c\xd5?'
p1449
tp1450
Rp1451
tp1452
a(S'speech-generating device'
p1453
g2
(g6
S'\xaaX\xcfN\x1d\x1c\xd5?'
p1454
tp1455
Rp1456
tp1457
a(S'sharenow'
p1458
g2
(g6
S'\xd7\x88\x95\x1c\x89\x15\xd5?'
p1459
tp1460
Rp1461
tp1462
a(S'yerdle'
p1463
g2
(g6
S'\x05.6x\x1e\x11\xd5?'
p1464
tp1465
Rp1466
tp1467
a(S'any key'
p1468
g2
(g6
S'CS\x92\x96(\x10\xd5?'
p1469
tp1470
Rp1471
tp1472
a(S'end-user license agreement'
p1473
g2
(g6
S'\x0f\xc7\xbc\xf9d\x08\xd5?'
p1474
tp1475
Rp1476
tp1477
a(S'selection-based search'
p1478
g2
(g6
S'\xf4Ng,;\xfc\xd4?'
p1479
tp1480
Rp1481
tp1482
a(S'oracle user group'
p1483
g2
(g6
S'\x92\xb93$\xb9\xfa\xd4?'
p1484
tp1485
Rp1486
tp1487
a(S'unified modeling language for interactive systems'
p1488
g2
(g6
S'jK*\x95\xd9\xf5\xd4?'
p1489
tp1490
Rp1491
tp1492
a(S'sparsh (software)'
p1493
g2
(g6
S'f\x90\xa9E]\xf0\xd4?'
p1494
tp1495
Rp1496
tp1497
a(S'cisco nac appliance'
p1498
g2
(g6
S'h\xb17G\xbe\xee\xd4?'
p1499
tp1500
Rp1501
tp1502
a(S'aigaion'
p1503
g2
(g6
S'\x1e\xa4%\x07\t\xec\xd4?'
p1504
tp1505
Rp1506
tp1507
a(S'software brittleness'
p1508
g2
(g6
S'\xe0r\x1c\x9c\xb4\xea\xd4?'
p1509
tp1510
Rp1511
tp1512
a.