(lp0
(S'user interface'
p1
cnumpy.core.multiarray
scalar
p2
(cnumpy
dtype
p3
(S'f8'
p4
I0
I1
tp5
Rp6
(I3
S'<'
p7
NNNI-1
I-1
I0
tp8
bS'\x01\x00\x00\x00\x00\x00\xf0?'
p9
tp10
Rp11
tp12
a(S'graphical user interface'
p13
g2
(g6
S'\xa1>L0L\xd5\xe6?'
p14
tp15
Rp16
tp17
a(S'user interface design'
p18
g2
(g6
S'\x0f\xdd\xfcWR\xb4\xe5?'
p19
tp20
Rp21
tp22
a(S'natural user interface'
p23
g2
(g6
S'K\xadm\xa7\xff\xb9\xe4?'
p24
tp25
Rp26
tp27
a(S'user interface modeling'
p28
g2
(g6
S'V\xcf\xf0\xb0>\xa6\xe4?'
p29
tp30
Rp31
tp32
a(S'interface (computing)'
p33
g2
(g6
S'\xc7\x0c\x04\xe1\xac^\xe4?'
p34
tp35
Rp36
tp37
a(S'10-foot user interface'
p38
g2
(g6
S'B\xb6W\xfd\xc9\xe5\xe3?'
p39
tp40
Rp41
tp42
a(S'uiml'
p43
g2
(g6
S'C\xb1H\x18{\xd5\xe2?'
p44
tp45
Rp46
tp47
a(S'interface design (disambiguation)'
p48
g2
(g6
S'\x96\x14\x84\xda\xc3\xc3\xe2?'
p49
tp50
Rp51
tp52
a(S'soft ergonomics'
p53
g2
(g6
S'\xe3\xa1\x90\xdaDv\xe2?'
p54
tp55
Rp56
tp57
a(S'human\xe2\x80\x93computer interaction'
p58
g2
(g6
S'\xc5q\x14\xc5KF\xe2?'
p59
tp60
Rp61
tp62
a(S'usixml'
p63
g2
(g6
S'\xf6\x12\xd9\xd3(C\xe2?'
p64
tp65
Rp66
tp67
a(S'adaptive user interface'
p68
g2
(g6
S'e^G\x811\x13\xe2?'
p69
tp70
Rp71
tp72
a(S'ludic interface'
p73
g2
(g6
S'\x07\xe2\xa0\x0cx\xfe\xe1?'
p74
tp75
Rp76
tp77
a(S'attentive user interface'
p78
g2
(g6
S'y\xa0\x91\xf9\xc1\xf7\xe1?'
p79
tp80
Rp81
tp82
a(S'interface metaphor'
p83
g2
(g6
S'S\x1e\xdc\x192\xe6\xe1?'
p84
tp85
Rp86
tp87
a(S'object-oriented user interface'
p88
g2
(g6
S'_\x1b\xd2|\x8f\xca\xe1?'
p89
tp90
Rp91
tp92
a(S'interface'
p93
g2
(g6
S'}\xa4[x\x9e\xbf\xe1?'
p94
tp95
Rp96
tp97
a(S'virtual network interface'
p98
g2
(g6
S'\xdd\xd5\xeb\xe5b/\xe1?'
p99
tp100
Rp101
tp102
a(S'post-wimp'
p103
g2
(g6
S'\x98T\x95\x8a\x8f*\xe1?'
p104
tp105
Rp106
tp107
a(S'organic user interface'
p108
g2
(g6
S'\xa1\xb9\x01\x96%*\xe1?'
p109
tp110
Rp111
tp112
a(S'social interface'
p113
g2
(g6
S'\xf2\xd8\xd5\n7\xe9\xe0?'
p114
tp115
Rp116
tp117
a(S'design-oriented programming'
p118
g2
(g6
S'\x1dI0\xc9F\xe8\xe0?'
p119
tp120
Rp121
tp122
a(S'enactive interfaces'
p123
g2
(g6
S'\xed,<L\x8d\xdc\xe0?'
p124
tp125
Rp126
tp127
a(S'outline of human\xe2\x80\x93computer interaction'
p128
g2
(g6
S'!3\xaf\xa5\xc3\xcf\xe0?'
p129
tp130
Rp131
tp132
a(S'3d user interaction'
p133
g2
(g6
S'Q0\xbd\xca\xe4\xa8\xe0?'
p134
tp135
Rp136
tp137
a(S'intelligent user interface'
p138
g2
(g6
S'\x1ed\xd3\xe7\x8e\x90\xe0?'
p139
tp140
Rp141
tp142
a(S'user interface markup language'
p143
g2
(g6
S'\x9fI\xdd\x98\x1d\x85\xe0?'
p144
tp145
Rp146
tp147
a(S'user (computing)'
p148
g2
(g6
S'\xd6,\xd9Fzm\xe0?'
p149
tp150
Rp151
tp152
a(S'permission-driven user interface'
p153
g2
(g6
S'\x18Ur3Cm\xe0?'
p154
tp155
Rp156
tp157
a(S'sonic user interface'
p158
g2
(g6
S'\x1c%\x13\xe0\xb3g\xe0?'
p159
tp160
Rp161
tp162
a(S't interface'
p163
g2
(g6
S'\x9aT5\xc9\xbb\x1c\xe0?'
p164
tp165
Rp166
tp167
a(S'list of graphical user interface elements'
p168
g2
(g6
S'_h^\x13%\xf0\xdf?'
p169
tp170
Rp171
tp172
a(S'interface-based programming'
p173
g2
(g6
S'}"\x19\x1a!\xd6\xdf?'
p174
tp175
Rp176
tp177
a(S'iunknown'
p178
g2
(g6
S'\xf2/I\x98\xfa\xc3\xdf?'
p179
tp180
Rp181
tp182
a(S'user (system)'
p183
g2
(g6
S'aw:"?\xb9\xdf?'
p184
tp185
Rp186
tp187
a(S'interface (java)'
p188
g2
(g6
S'\xe7\xc3\xc6o\xfe\xa9\xdf?'
p189
tp190
Rp191
tp192
a(S'aui'
p193
g2
(g6
S'\xda?\x18\x03s\x92\xdf?'
p194
tp195
Rp196
tp197
a(S'northbound interface'
p198
g2
(g6
S'\x1b*\xcd\x11\x99\xbc\xde?'
p199
tp200
Rp201
tp202
a(S'as-international'
p203
g2
(g6
S'\xa8\xeb\xdf\xe0h\xa5\xde?'
p204
tp205
Rp206
tp207
a(S'user interface management systems'
p208
g2
(g6
S'u\xd4\xce\xdd\xfat\xde?'
p209
tp210
Rp211
tp212
a(S'progress indicator'
p213
g2
(g6
S'6\xde\x9b\xe3]Z\xde?'
p214
tp215
Rp216
tp217
a(S'archy'
p218
g2
(g6
S'\x86&Z\xf7?+\xde?'
p219
tp220
Rp221
tp222
a(S'fabio patern\xc3\xb2'
p223
g2
(g6
S'\x0e\xa3\x82\xf0\x17\xb9\xdd?'
p224
tp225
Rp226
tp227
a(S'maria xml'
p228
g2
(g6
S'8\x12\xe2~\xcd\x97\xdd?'
p229
tp230
Rp231
tp232
a(S'hardware interface design'
p233
g2
(g6
S'\xf6\xba\xd6\xad\x07^\xdd?'
p234
tp235
Rp236
tp237
a(S'object\xe2\x80\x93action interface'
p238
g2
(g6
S'\xe7\xe4\x1b\n\x8bJ\xdd?'
p239
tp240
Rp241
tp242
a(S'public interface'
p243
g2
(g6
S';p{\xcf\xb29\xdd?'
p244
tp245
Rp246
tp247
a(S'unified modeling language for interactive systems'
p248
g2
(g6
S']\xc0\x9b\xd8m2\xdd?'
p249
tp250
Rp251
tp252
a(S'user assistance'
p253
g2
(g6
S'\xc0F\x01\xac\xd3)\xdd?'
p254
tp255
Rp256
tp257
a(S'user'
p258
g2
(g6
S'\x93\x9dpW\xac\x13\xdd?'
p259
tp260
Rp261
tp262
a(S'history of the graphical user interface'
p263
g2
(g6
S'\x043\xde\xd4\x08\x13\xdd?'
p264
tp265
Rp266
tp267
a(S'universal remote console'
p268
g2
(g6
S'\xe0\xb3\x10B\x9c\x08\xdd?'
p269
tp270
Rp271
tp272
a(S'skin (computing)'
p273
g2
(g6
S'Q\x12o\x12\n\xc9\xdc?'
p274
tp275
Rp276
tp277
a(S's interface'
p278
g2
(g6
S'\xe8\xab\xf2m\xd9\xc7\xdc?'
p279
tp280
Rp281
tp282
a(S'wimp (computing)'
p283
g2
(g6
S'Jg\t\x97a\xc1\xdc?'
p284
tp285
Rp286
tp287
a(S'human media lab'
p288
g2
(g6
S'\x8c\xafL\xba\xe0^\xdc?'
p289
tp290
Rp291
tp292
a(S'interface bloat'
p293
g2
(g6
S'\xb4jn<\xe1N\xdc?'
p294
tp295
Rp296
tp297
a(S'shell (computing)'
p298
g2
(g6
S'\xe1N\x15\n\x07*\xdc?'
p299
tp300
Rp301
tp302
a(S'magic pushbutton'
p303
g2
(g6
S'Hd\xd9\xc7\x9a\xfb\xdb?'
p304
tp305
Rp306
tp307
a(S'text-free user interface'
p308
g2
(g6
S'\n&\xaf\x81\x04\xf2\xdb?'
p309
tp310
Rp311
tp312
a(S'useware'
p313
g2
(g6
S'\x94\xc3\x86A\xe4\xca\xdb?'
p314
tp315
Rp316
tp317
a(S'interface builder'
p318
g2
(g6
S'\x9b\xd9\xd2\xf9~\xc4\xdb?'
p319
tp320
Rp321
tp322
a(S'voice user interface'
p323
g2
(g6
S'\xae\xb4\x88\xd1\x95\xb8\xdb?'
p324
tp325
Rp326
tp327
a(S'ez word'
p328
g2
(g6
S'T\x9e\x16y\n\xb1\xdb?'
p329
tp330
Rp331
tp332
a(S'optical internetworking forum'
p333
g2
(g6
S'\x91z\xbdG\x05\xb1\xdb?'
p334
tp335
Rp336
tp337
a(S'roel vertegaal'
p338
g2
(g6
S'\xf0a\x1d\x1aKp\xdb?'
p339
tp340
Rp341
tp342
a(S'user modeling'
p343
g2
(g6
S'\x93\x94\x8b4\x81n\xdb?'
p344
tp345
Rp346
tp347
a(S'mode (computer interface)'
p348
g2
(g6
S'\x05\xb9\x90\x86\xb0j\xdb?'
p349
tp350
Rp351
tp352
a(S'user experience'
p353
g2
(g6
S'\xe0!\xdb\xe9ZT\xdb?'
p354
tp355
Rp356
tp357
a(S'direct manipulation interface'
p358
g2
(g6
S'\xfd\x8b\xf3\x10\xc8;\xdb?'
p359
tp360
Rp361
tp362
a(S'hands-on computing'
p363
g2
(g6
S'\x1f\xb8~j\xa2:\xdb?'
p364
tp365
Rp366
tp367
a(S'nesc'
p368
g2
(g6
S'\xd7\xb1}[\x03$\xdb?'
p369
tp370
Rp371
tp372
a(S'interaction design'
p373
g2
(g6
S'\x0cdf\xcc\xf0\x19\xdb?'
p374
tp375
Rp376
tp377
a(S'text-based (computing)'
p378
g2
(g6
S'\xb7\xf2\x8b\n\x0c\xfa\xda?'
p379
tp380
Rp381
tp382
a(S'tangible user interface'
p383
g2
(g6
S'-\xd7\xbd\xdb\xe3\xea\xda?'
p384
tp385
Rp386
tp387
a(S'end user'
p388
g2
(g6
S'r\xad\xf9\xc8\x9c\xea\xda?'
p389
tp390
Rp391
tp392
a(S'user experience design'
p393
g2
(g6
S'\xb3F\x14\x9e\xb2\xe1\xda?'
p394
tp395
Rp396
tp397
a(S'human interface guidelines'
p398
g2
(g6
S'lh\xa5\x87\xa3\xd7\xda?'
p399
tp400
Rp401
tp402
a(S'principles of user interface design'
p403
g2
(g6
S'\xee\xe1C\x8eG\xc1\xda?'
p404
tp405
Rp406
tp407
a(S'interface segregation principle'
p408
g2
(g6
S'cJd{\xe6\xb7\xda?'
p409
tp410
Rp411
tp412
a(S'marker interface pattern'
p413
g2
(g6
S'A\x90\xc1\xd9\x81\xb7\xda?'
p414
tp415
Rp416
tp417
a(S'user interface style sheet language'
p418
g2
(g6
S'}Wb\xc6\x90\x9c\xda?'
p419
tp420
Rp421
tp422
a(S'list of user interface markup languages'
p423
g2
(g6
S'\xe9\x86\xd9Ys\x9a\xda?'
p424
tp425
Rp426
tp427
a(S'platform-independent gui library'
p428
g2
(g6
S'\x17\xc1W<\t\x85\xda?'
p429
tp430
Rp431
tp432
a(S'ultrid'
p433
g2
(g6
S'\x166n\x12CQ\xda?'
p434
tp435
Rp436
tp437
a(S'the humane interface'
p438
g2
(g6
S'G\xdb\xd5\x86\xd4I\xda?'
p439
tp440
Rp441
tp442
a(S'wintomatix'
p443
g2
(g6
S'\x1a\xf8<\xe5,A\xda?'
p444
tp445
Rp446
tp447
a(S'3d interaction'
p448
g2
(g6
S'n\xea\xc3\x84\x1e9\xda?'
p449
tp450
Rp451
tp452
a(S'association of personal computer user groups'
p453
g2
(g6
S'=\xbb\xf4jY&\xda?'
p454
tp455
Rp456
tp457
a(S'user activity monitoring'
p458
g2
(g6
S'\xbfj\x98\xaf\xd8"\xda?'
p459
tp460
Rp461
tp462
a(S'multi-user'
p463
g2
(g6
S'f\x8b\xa6\x96"\x1b\xda?'
p464
tp465
Rp466
tp467
a(S'idispatch'
p468
g2
(g6
S'\x95\xbf\xbbR.\x08\xda?'
p469
tp470
Rp471
tp472
a(S'extensible user interface protocol'
p473
g2
(g6
S'\xd8\xf0fH\xad\x03\xda?'
p474
tp475
Rp476
tp477
a(S'power user'
p478
g2
(g6
S'\xa3\xdb\xaf7\xcb\xf5\xd9?'
p479
tp480
Rp481
tp482
a(S'kokontei shinba'
p483
g2
(g6
S"\x8d\xca'\xa8\x8a\xe6\xd9?"
p484
tp485
Rp486
tp487
a(S'luser'
p488
g2
(g6
S'\x05P\xda\xb8~\xdb\xd9?'
p489
tp490
Rp491
tp492
a(S'rightware'
p493
g2
(g6
S'\xdfrh\xd9\x8b\xca\xd9?'
p494
tp495
Rp496
tp497
a(S'interface apparency'
p498
g2
(g6
S'\xfb\x0c\x87D\x01\xb4\xd9?'
p499
tp500
Rp501
tp502
a(S'user story'
p503
g2
(g6
S'\x8b%\xd8\xc71\xab\xd9?'
p504
tp505
Rp506
tp507
a(S'heuristic evaluation'
p508
g2
(g6
S'p\xf8\x17O\x0b\xa2\xd9?'
p509
tp510
Rp511
tp512
a(S'uise'
p513
g2
(g6
S'\xcd_*\x1e\xca\x9d\xd9?'
p514
tp515
Rp516
tp517
a(S'open service interface definitions'
p518
g2
(g6
S'\xff\x94!\xcbXY\xd9?'
p519
tp520
Rp521
tp522
a(S'nielsen norman group'
p523
g2
(g6
S'\x8eF@\x900U\xd9?'
p524
tp525
Rp526
tp527
a(S'look-aside interface'
p528
g2
(g6
S'\x9f\xd0\xe2a\x15R\xd9?'
p529
tp530
Rp531
tp532
a(S'three-pane interface'
p533
g2
(g6
S'T\xb2\xc4DEP\xd9?'
p534
tp535
Rp536
tp537
a(S"users' group"
p538
g2
(g6
S'\x06Z_q\x84O\xd9?'
p539
tp540
Rp541
tp542
a(S'network interface'
p543
g2
(g6
S'\xacp\x08)\xecD\xd9?'
p544
tp545
Rp546
tp547
a(S'interface control document'
p548
g2
(g6
S'l~\xf0\xe5\\9\xd9?'
p549
tp550
Rp551
tp552
a(S'rich user interaction'
p553
g2
(g6
S'\xd0\x7f\xa1\x14q\xfe\xd8?'
p554
tp555
Rp556
tp557
a(S'first-time user experience'
p558
g2
(g6
S'\x02\xfc/!2\xed\xd8?'
p559
tp560
Rp561
tp562
a(S'mapbender'
p563
g2
(g6
S'a\xf1\xb4\x17\xbb\xde\xd8?'
p564
tp565
Rp566
tp567
a(S'history of automated adaptive instruction in computer applications'
p568
g2
(g6
S'w\x85\x8a\xff\xf2\xdd\xd8?'
p569
tp570
Rp571
tp572
a(S'user research'
p573
g2
(g6
S']\xb5\xd8\x00`\xda\xd8?'
p574
tp575
Rp576
tp577
a(S'runas'
p578
g2
(g6
S'\x9f]\xb4\xbe\x95\xd5\xd8?'
p579
tp580
Rp581
tp582
a(S'graphical user interface builder'
p583
g2
(g6
S'\x92\x1dgWk\xc6\xd8?'
p584
tp585
Rp586
tp587
a(S'end-user development'
p588
g2
(g6
S'\x04\xd4\xb5Pl\x93\xd8?'
p589
tp590
Rp591
tp592
a(S'bridging systems interface'
p593
g2
(g6
S'\xca-\xe5\x92\xb2~\xd8?'
p594
tp595
Rp596
tp597
a(S'cold start'
p598
g2
(g6
S'\xc8\xa8\xf0\xad\xcfo\xd8?'
p599
tp600
Rp601
tp602
a(S'state management'
p603
g2
(g6
S'\xc8v\x96d\x93k\xd8?'
p604
tp605
Rp606
tp607
a(S'operating environment'
p608
g2
(g6
S'\xd4\xe1<\xfd\xf4e\xd8?'
p609
tp610
Rp611
tp612
a(S'interaction technique'
p613
g2
(g6
S'O_\r\x98ad\xd8?'
p614
tp615
Rp616
tp617
a(S'console application'
p618
g2
(g6
S'S\x1c?\x14G_\xd8?'
p619
tp620
Rp621
tp622
a(S'mldonkey'
p623
g2
(g6
S'\xf9\xfa"\xdb\xa8\\\xd8?'
p624
tp625
Rp626
tp627
a(S'fxml'
p628
g2
(g6
S'p\x1au\xf9\xc2S\xd8?'
p629
tp630
Rp631
tp632
a(S'user provisioning software'
p633
g2
(g6
S'N\x0c\xa3\x97\xedG\xd8?'
p634
tp635
Rp636
tp637
a(S'command verb'
p638
g2
(g6
S'\xca\x97\xb5\xad\xe4E\xd8?'
p639
tp640
Rp641
tp642
a(S'single document interface'
p643
g2
(g6
S'\xbe\xf6\x14\xc9\xce4\xd8?'
p644
tp645
Rp646
tp647
a(S'logisim'
p648
g2
(g6
S"\xc2\x9a\xadV\xaf'\xd8?"
p649
tp650
Rp651
tp652
a(S'tea rose \xe2\x80\x93 rectanus doctrine'
p653
g2
(g6
S'\x0f5\xc3\xb2=!\xd8?'
p654
tp655
Rp656
tp657
a(S'x window system'
p658
g2
(g6
S'\xab(\x16\x8eR\x0c\xd8?'
p659
tp660
Rp661
tp662
a(S'interface, inc.'
p663
g2
(g6
S'b]\xbfr \xfe\xd7?'
p664
tp665
Rp666
tp667
a(S'construction field computing'
p668
g2
(g6
S'\xcb\x1cO\xdaf\xf9\xd7?'
p669
tp670
Rp671
tp672
a(S'clickable'
p673
g2
(g6
S'd\xf6e[s\xee\xd7?'
p674
tp675
Rp676
tp677
a(S'interface description language'
p678
g2
(g6
S'\xf0v\xc5\x85\x88\xeb\xd7?'
p679
tp680
Rp681
tp682
a(S'user journey'
p683
g2
(g6
S'\xe9\x84\xc2\xa1r\xe1\xd7?'
p684
tp685
Rp686
tp687
a(S'navigation controls'
p688
g2
(g6
S'\xbc\xdb\xa7\xd8\xe9\xbc\xd7?'
p689
tp690
Rp691
tp692
a(S'browser user interface'
p693
g2
(g6
S',G)j\xe2\xba\xd7?'
p694
tp695
Rp696
tp697
a(S'protocol (object-oriented programming)'
p698
g2
(g6
S'\x83F\x14\x90\x89\xab\xd7?'
p699
tp700
Rp701
tp702
a(S'website wireframe'
p703
g2
(g6
S'\xed\xd4{?\x08\x95\xd7?'
p704
tp705
Rp706
tp707
a(S'reactive user interface'
p708
g2
(g6
S'\xe2\xfaOP\xb7\x8f\xd7?'
p709
tp710
Rp711
tp712
a(S'input port'
p713
g2
(g6
S'\xe0\xdc\x9fGC\x81\xd7?'
p714
tp715
Rp716
tp717
a(S'ribbon (computing)'
p718
g2
(g6
S'\xb9E")\x83{\xd7?'
p719
tp720
Rp721
tp722
a(S'jaus tool set'
p723
g2
(g6
S'\x1er\xc5\xc5\xd4w\xd7?'
p724
tp725
Rp726
tp727
a(S'computer user'
p728
g2
(g6
S'\x84F\xc5\x9c\xec`\xd7?'
p729
tp730
Rp731
tp732
a(S'memoranda (software)'
p733
g2
(g6
S'\x9e\x07k~=R\xd7?'
p734
tp735
Rp736
tp737
a(S'text-based user interface'
p738
g2
(g6
S'Sb\x0f(\x10D\xd7?'
p739
tp740
Rp741
tp742
a(S'lazy user model'
p743
g2
(g6
S'\xf9\xb38\x9f\xe19\xd7?'
p744
tp745
Rp746
tp747
a(S'uxr'
p748
g2
(g6
S'K\xfc\x19J\xd90\xd7?'
p749
tp750
Rp751
tp752
a(S'experience model'
p753
g2
(g6
S'\x10\xdbr\x85\xda/\xd7?'
p754
tp755
Rp756
tp757
a(S'xview'
p758
g2
(g6
S'\xecdG\xc6\xd9.\xd7?'
p759
tp760
Rp761
tp762
a(S'rvu protocol'
p763
g2
(g6
S'z\xd3\xf1\xf9\xa1.\xd7?'
p764
tp765
Rp766
tp767
a(S'zino'
p768
g2
(g6
S'\xb9RdzU)\xd7?'
p769
tp770
Rp771
tp772
a(S'icinga'
p773
g2
(g6
S'\xd3%\x8d\xf1V(\xd7?'
p774
tp775
Rp776
tp777
a(S'launchbar'
p778
g2
(g6
S'\xdd\xa8S\xc4U\x1d\xd7?'
p779
tp780
Rp781
tp782
a(S'user onboarding'
p783
g2
(g6
S'\xa8\xb5m\x8e\x1e\x07\xd7?'
p784
tp785
Rp786
tp787
a(S'yatchy'
p788
g2
(g6
S'N[\xf2\xfbo\x06\xd7?'
p789
tp790
Rp791
tp792
a(S'user (telecommunications)'
p793
g2
(g6
S'\x84`,\x13\xcf\x01\xd7?'
p794
tp795
Rp796
tp797
a(S'sakura hypermedia desktop'
p798
g2
(g6
S'*\xc5E\x1a"\xf7\xd6?'
p799
tp800
Rp801
tp802
a(S'adaptive website'
p803
g2
(g6
S'\x90Kc](\xe8\xd6?'
p804
tp805
Rp806
tp807
a(S'implicit data collection'
p808
g2
(g6
S'{`\xbd\xdf\xd7\xdf\xd6?'
p809
tp810
Rp811
tp812
a(S'erol user'
p813
g2
(g6
S'\x81i\\\xfa\xa8\xc5\xd6?'
p814
tp815
Rp816
tp817
a(S'lde(x)'
p818
g2
(g6
S'\xa4\xa1\x9d\x8fX\xb6\xd6?'
p819
tp820
Rp821
tp822
a(S'task-focused interface'
p823
g2
(g6
S'n!^\xc0\xbf\xb4\xd6?'
p824
tp825
Rp826
tp827
a(S'boopsi'
p828
g2
(g6
S'=^\xf7G\xd5\xb3\xd6?'
p829
tp830
Rp831
tp832
a(S'vector-based graphical user interface'
p833
g2
(g6
S'F\x96X_\xd3\xa4\xd6?'
p834
tp835
Rp836
tp837
a(S'kanagram'
p838
g2
(g6
S',O~R\x96}\xd6?'
p839
tp840
Rp841
tp842
a(S'natural language user interface'
p843
g2
(g6
S'\xf84+\xa2`y\xd6?'
p844
tp845
Rp846
tp847
a(S'window (computing)'
p848
g2
(g6
S'C\x1c\xfd\x17\x04v\xd6?'
p849
tp850
Rp851
tp852
a(S'user environment management'
p853
g2
(g6
S'\x8dv\xbcx\xa8q\xd6?'
p854
tp855
Rp856
tp857
a(S'maneesh agrawala'
p858
g2
(g6
S'\x1c@C\x00\x1ac\xd6?'
p859
tp860
Rp861
tp862
a(S'grayed out'
p863
g2
(g6
S'4\xfcBy\xdc_\xd6?'
p864
tp865
Rp866
tp867
a(S'fast user switching'
p868
g2
(g6
S'\xcf\xf0\xf7\xad7U\xd6?'
p869
tp870
Rp871
tp872
a(S'exocentric environment'
p873
g2
(g6
S'=\x83Dj\x7fR\xd6?'
p874
tp875
Rp876
tp877
a(S'command-line interface'
p878
g2
(g6
S'\xc0\x92\x98\xbd\x94K\xd6?'
p879
tp880
Rp881
tp882
a(S'ben shneiderman'
p883
g2
(g6
S'\x0e\xa8\xc1\x7f\x86J\xd6?'
p884
tp885
Rp886
tp887
a(S'transparency (telecommunication)'
p888
g2
(g6
S'\x95t\xc1rs=\xd6?'
p889
tp890
Rp891
tp892
a(S'multiple document interface'
p893
g2
(g6
S'\xd2\xe3\xb0l\x017\xd6?'
p894
tp895
Rp896
tp897
a(S'interface focus'
p898
g2
(g6
S'\xf3z\xb8C\xdc!\xd6?'
p899
tp900
Rp901
tp902
a(S'user expectations'
p903
g2
(g6
S'\xd9\x08\xaeJ\xb4 \xd6?'
p904
tp905
Rp906
tp907
a(S'genicam'
p908
g2
(g6
S'\xf6\x9a\xa3\xe2\x9d\x0e\xd6?'
p909
tp910
Rp911
tp912
a(S'web browsing history'
p913
g2
(g6
S"\xb5\xce\xeb\xac'\x0c\xd6?"
p914
tp915
Rp916
tp917
a(S'user virtualization'
p918
g2
(g6
S'\x1a\x07\n\xad\xbd\t\xd6?'
p919
tp920
Rp921
tp922
a(S'protcid'
p923
g2
(g6
S'\xc6r\xf2\x16T\x07\xd6?'
p924
tp925
Rp926
tp927
a(S'gnustep'
p928
g2
(g6
S'V\xc0\xa1h\x8c\xfd\xd5?'
p929
tp930
Rp931
tp932
a(S'windows user'
p933
g2
(g6
S'\xc4e)@G\xf2\xd5?'
p934
tp935
Rp936
tp937
a(S'ispf'
p938
g2
(g6
S'\xf2\x1b\xe4\xb5\xdf\xee\xd5?'
p939
tp940
Rp941
tp942
a(S'interface (matter)'
p943
g2
(g6
S'O\xa0\x12\x14\x82\xee\xd5?'
p944
tp945
Rp946
tp947
a(S'ibm common user access'
p948
g2
(g6
S'\xf9>>`\xb1\xdc\xd5?'
p949
tp950
Rp951
tp952
a(S'closed user group'
p953
g2
(g6
S'\x16\xdb\xff\x9dQ\xd4\xd5?'
p954
tp955
Rp956
tp957
a(S'openxc'
p958
g2
(g6
S'F\x94\xdf\x0c+\xcd\xd5?'
p959
tp960
Rp961
tp962
a(S'dwim'
p963
g2
(g6
S'\xeb\x8dpo\xa4\xc9\xd5?'
p964
tp965
Rp966
tp967
a(S'diamondtouch'
p968
g2
(g6
S'\x9f\x1f\xa7\x9cR\xc4\xd5?'
p969
tp970
Rp971
tp972
a(S'oblong industries'
p973
g2
(g6
S'\xf3\xc13\x92\xdd\xc3\xd5?'
p974
tp975
Rp976
tp977
a(S'list of alternative shells for windows'
p978
g2
(g6
S'\x9f\xbd^\xa3\t\xbf\xd5?'
p979
tp980
Rp981
tp982
a(S'ecological interface design'
p983
g2
(g6
S'\x9f\xf5?\xa7\xca\xbd\xd5?'
p984
tp985
Rp986
tp987
a(S'end-user computing'
p988
g2
(g6
S'Y\xf8S\xe9T\xbb\xd5?'
p989
tp990
Rp991
tp992
a(S'project digits'
p993
g2
(g6
S'\xad\x88IhU\xb2\xd5?'
p994
tp995
Rp996
tp997
a(S'unclick'
p998
g2
(g6
S'\x8c\xab\x12\x02\x8e\xa6\xd5?'
p999
tp1000
Rp1001
tp1002
a(S'panasonic cd interface'
p1003
g2
(g6
S'\xed\xb5B.-\xa0\xd5?'
p1004
tp1005
Rp1006
tp1007
a(S'user guide'
p1008
g2
(g6
S'\xa7\x01\xe7i\xa7\x92\xd5?'
p1009
tp1010
Rp1011
tp1012
a(S'text object model'
p1013
g2
(g6
S'\x01\x81\xc0\x8c\x14~\xd5?'
p1014
tp1015
Rp1016
tp1017
a(S'user review'
p1018
g2
(g6
S'\xbd\xddI\xa1Vx\xd5?'
p1019
tp1020
Rp1021
tp1022
a(S'ibm current'
p1023
g2
(g6
S'\xecr\xc9@1m\xd5?'
p1024
tp1025
Rp1026
tp1027
a(S'user friendly (disambiguation)'
p1028
g2
(g6
S'\xc4\xba\t\xd9"J\xd5?'
p1029
tp1030
Rp1031
tp1032
a(S'enodeb'
p1033
g2
(g6
S'!\x07\xd7\xec\xc0C\xd5?'
p1034
tp1035
Rp1036
tp1037
a(S'non-virtual interface pattern'
p1038
g2
(g6
S'Md\x8cE@@\xd5?'
p1039
tp1040
Rp1041
tp1042
a(S'smart as...'
p1043
g2
(g6
S'$\x803o\xff4\xd5?'
p1044
tp1045
Rp1046
tp1047
a(S'interaction flow modeling language'
p1048
g2
(g6
S'a\xe2p\xe3\xb4(\xd5?'
p1049
tp1050
Rp1051
tp1052
a(S'component object model'
p1053
g2
(g6
S'r?e\x0b\x01%\xd5?'
p1054
tp1055
Rp1056
tp1057
a(S'experience architecture'
p1058
g2
(g6
S'\x9b\t\xd7\xc3\xee!\xd5?'
p1059
tp1060
Rp1061
tp1062
a(S'context-sensitive user interface'
p1063
g2
(g6
S'\xc0\x92\xa1\x9a|\x1b\xd5?'
p1064
tp1065
Rp1066
tp1067
a(S'talk (software)'
p1068
g2
(g6
S'\x95\x16\x8c\xa9\xed\x13\xd5?'
p1069
tp1070
Rp1071
tp1072
a(S'wicd'
p1073
g2
(g6
S'\x1fgb4\xbc\t\xd5?'
p1074
tp1075
Rp1076
tp1077
a(S'systems architect'
p1078
g2
(g6
S'\xe5\x81\xf1\xa5q\t\xd5?'
p1079
tp1080
Rp1081
tp1082
a(S'record management system'
p1083
g2
(g6
S'.\xe1\x83\x88<\x05\xd5?'
p1084
tp1085
Rp1086
tp1087
a(S'runlevel'
p1088
g2
(g6
S'Za\xe1\x80\xb7\xf5\xd4?'
p1089
tp1090
Rp1091
tp1092
a(S'endocentric environment'
p1093
g2
(g6
S'\x0e\xe8KZ\xa9\xe5\xd4?'
p1094
tp1095
Rp1096
tp1097
a(S'virtual interface architecture'
p1098
g2
(g6
S'\x01\x16\xcb>Z\xe4\xd4?'
p1099
tp1100
Rp1101
tp1102
a(S'openvibe'
p1103
g2
(g6
S'\x0c\x800\x1c\x1a\xe4\xd4?'
p1104
tp1105
Rp1106
tp1107
a(S'responsiveness'
p1108
g2
(g6
S'\xbfN\xb5\xfaQ\xd6\xd4?'
p1109
tp1110
Rp1111
tp1112
a(S'xml resource'
p1113
g2
(g6
S'e\xad\xfb\x90\x96\xc2\xd4?'
p1114
tp1115
Rp1116
tp1117
a(S'language interface pack'
p1118
g2
(g6
S'o\xc5(\x00\x0e\xbe\xd4?'
p1119
tp1120
Rp1121
tp1122
a(S'^txt2regex$'
p1123
g2
(g6
S'\xa3`\xcf\xff[\xb3\xd4?'
p1124
tp1125
Rp1126
tp1127
a(S'omnitouch'
p1128
g2
(g6
S'\xd0?\xcaT\x0b\xa8\xd4?'
p1129
tp1130
Rp1131
tp1132
a(S'iterative design'
p1133
g2
(g6
S'\xc4\x8c\x89gj\xa7\xd4?'
p1134
tp1135
Rp1136
tp1137
a(S'arcobjects'
p1138
g2
(g6
S'\xb7\x89a\x8d\x1c\x9f\xd4?'
p1139
tp1140
Rp1141
tp1142
a(S'pmod interface'
p1143
g2
(g6
S'\xaa\xa9\x87\x87\xc5\x9d\xd4?'
p1144
tp1145
Rp1146
tp1147
a(S'litl'
p1148
g2
(g6
S'D\x10\xb4c\xac\x9a\xd4?'
p1149
tp1150
Rp1151
tp1152
a(S'computer user satisfaction'
p1153
g2
(g6
S'\xc4\x0e"P\xa1\x9a\xd4?'
p1154
tp1155
Rp1156
tp1157
a(S'wheel (unix term)'
p1158
g2
(g6
S'\x11\xad\x8f\xbf:\x94\xd4?'
p1159
tp1160
Rp1161
tp1162
a(S'loopback'
p1163
g2
(g6
S'\x1d\xb8\x05Lk\x8c\xd4?'
p1164
tp1165
Rp1166
tp1167
a(S'solaris ip network multipathing'
p1168
g2
(g6
S'tw\x04\xaa\xc0\x8b\xd4?'
p1169
tp1170
Rp1171
tp1172
a(S'opencms'
p1173
g2
(g6
S'\xbd\x19\x1d\xe9\xa6p\xd4?'
p1174
tp1175
Rp1176
tp1177
a(S'microsoft scandisk'
p1178
g2
(g6
S'\xf7\xa9\x1fR\x17k\xd4?'
p1179
tp1180
Rp1181
tp1182
a(S'newt (programming library)'
p1183
g2
(g6
S'\x93\xf9\x9aB\xa6f\xd4?'
p1184
tp1185
Rp1186
tp1187
a(S'open data-link interface'
p1188
g2
(g6
S'*\xb2E\xdf\xf4R\xd4?'
p1189
tp1190
Rp1191
tp1192
a(S'decus'
p1193
g2
(g6
S'\xd8\xd2\xd2\xef\x1eH\xd4?'
p1194
tp1195
Rp1196
tp1197
a(S'concurtasktrees'
p1198
g2
(g6
S'\xc5\xa6/\xd7\xf7@\xd4?'
p1199
tp1200
Rp1201
tp1202
a(S'itsy pocket computer'
p1203
g2
(g6
S'\x86*"L\xdb=\xd4?'
p1204
tp1205
Rp1206
tp1207
a(S'windowing system'
p1208
g2
(g6
S'\xa7\xf8\xa2\x1b57\xd4?'
p1209
tp1210
Rp1211
tp1212
a(S'speech interface guideline'
p1213
g2
(g6
S'\x9dx\xaf\xd407\xd4?'
p1214
tp1215
Rp1216
tp1217
a(S'foswiki'
p1218
g2
(g6
S'+\x0c\xd6\x19\xdc2\xd4?'
p1219
tp1220
Rp1221
tp1222
a(S'crossing-based interface'
p1223
g2
(g6
S']4\xdf*\xa5/\xd4?'
p1224
tp1225
Rp1226
tp1227
a(S'user profile'
p1228
g2
(g6
S'\xa3\x02\xf6\xee\x05 \xd4?'
p1229
tp1230
Rp1231
tp1232
a(S'hard disk drive interface'
p1233
g2
(g6
S'p\xaej\xc2\xc0\x11\xd4?'
p1234
tp1235
Rp1236
tp1237
a(S'db for dummies'
p1238
g2
(g6
S'\x14\n\xf8\xf5\x83\x0c\xd4?'
p1239
tp1240
Rp1241
tp1242
a(S'camera interface'
p1243
g2
(g6
S'.X\xe6\x84\x97\x04\xd4?'
p1244
tp1245
Rp1246
tp1247
a(S'magic string'
p1248
g2
(g6
S'\x00~\xa2\xd7\xf7\xfa\xd3?'
p1249
tp1250
Rp1251
tp1252
a(S'registered user'
p1253
g2
(g6
S'\x98\xbe\x1b\xc4\xad\xf4\xd3?'
p1254
tp1255
Rp1256
tp1257
a(S'delimited search'
p1258
g2
(g6
S'ky\r;!\xf3\xd3?'
p1259
tp1260
Rp1261
tp1262
a(S'control panel (software)'
p1263
g2
(g6
S"'\xa1S\xf8\x95\xf2\xd3?"
p1264
tp1265
Rp1266
tp1267
a(S'idl specification language'
p1268
g2
(g6
S'\xb6\x9d\\@\x91\xf2\xd3?'
p1269
tp1270
Rp1271
tp1272
a(S'as-interface'
p1273
g2
(g6
S'\xef\xe7r\xb3S\xe9\xd3?'
p1274
tp1275
Rp1276
tp1277
a(S'interface (band)'
p1278
g2
(g6
S'\xd5X\x1a\\#\xdf\xd3?'
p1279
tp1280
Rp1281
tp1282
a(S'openni'
p1283
g2
(g6
S'}\xbb\xbd\x08\x14\xda\xd3?'
p1284
tp1285
Rp1286
tp1287
a(S'mipi alliance'
p1288
g2
(g6
S'\xe97\xb0\xe4\x14\xd7\xd3?'
p1289
tp1290
Rp1291
tp1292
a(S'management interface'
p1293
g2
(g6
S'Z)\xa7Q\xf6\xd2\xd3?'
p1294
tp1295
Rp1296
tp1297
a(S'list of kanohi'
p1298
g2
(g6
S'\x11\xe7d\x15\x8d\xcd\xd3?'
p1299
tp1300
Rp1301
tp1302
a(S'voice interface card'
p1303
g2
(g6
S'i\x19f\x88\xec\xc4\xd3?'
p1304
tp1305
Rp1306
tp1307
a(S'bill fernandez'
p1308
g2
(g6
S'H\xe50"Y\xc3\xd3?'
p1309
tp1310
Rp1311
tp1312
a(S'user experience evaluation'
p1313
g2
(g6
S':\xc7\xf3\x80S\xc1\xd3?'
p1314
tp1315
Rp1316
tp1317
a(S'rocks (php)'
p1318
g2
(g6
S'<\xfb\x87\xdek\xc0\xd3?'
p1319
tp1320
Rp1321
tp1322
a(S'user innovation'
p1323
g2
(g6
S'zL\x9bt\x1e\xbc\xd3?'
p1324
tp1325
Rp1326
tp1327
a(S'linkinus'
p1328
g2
(g6
S'Hi\xc4u:\xbb\xd3?'
p1329
tp1330
Rp1331
tp1332
a(S'bill verplank'
p1333
g2
(g6
S'\xa7\xa4\xa34\x06\xb7\xd3?'
p1334
tp1335
Rp1336
tp1337
a(S'textadept'
p1338
g2
(g6
S'e \x1e\x8bO\xaf\xd3?'
p1339
tp1340
Rp1341
tp1342
a(S'common lisp interface manager'
p1343
g2
(g6
S'=6\xff\x1e$\xae\xd3?'
p1344
tp1345
Rp1346
tp1347
a(S'ujml'
p1348
g2
(g6
S'\x9a\xba\x81F\t\xac\xd3?'
p1349
tp1350
Rp1351
tp1352
a(S'user charge'
p1353
g2
(g6
S'\xdf\xd9\x02j\x1a\xaa\xd3?'
p1354
tp1355
Rp1356
tp1357
a(S'marti hearst'
p1358
g2
(g6
S'\x1d\xd3\xc7\x85\xde\xa6\xd3?'
p1359
tp1360
Rp1361
tp1362
a(S'user advocacy'
p1363
g2
(g6
S'&\x08\xc1Z\x86\xa1\xd3?'
p1364
tp1365
Rp1366
tp1367
a(S'distributed application specification language'
p1368
g2
(g6
S'\xa9\\\xcb\x0c\x04\xa1\xd3?'
p1369
tp1370
Rp1371
tp1372
a(S'widget toolkit'
p1373
g2
(g6
S'.V\x91\xdbv\x99\xd3?'
p1374
tp1375
Rp1376
tp1377
a(S'marlett'
p1378
g2
(g6
S'\xe5\xdd\x13\x10\x87\x98\xd3?'
p1379
tp1380
Rp1381
tp1382
a(S'nd-notis'
p1383
g2
(g6
S'\xcb*\xd1\xf1`\x94\xd3?'
p1384
tp1385
Rp1386
tp1387
a(S'adaptation (computer science)'
p1388
g2
(g6
S'\x8c\x06A\xad\x95\x90\xd3?'
p1389
tp1390
Rp1391
tp1392
a(S'user-centered design'
p1393
g2
(g6
S'\xdf\xefe\xf4`\x8b\xd3?'
p1394
tp1395
Rp1396
tp1397
a(S'lanthanum aluminate-strontium titanate interface'
p1398
g2
(g6
S'\n\xc7\x9e\xc7\xea\x85\xd3?'
p1399
tp1400
Rp1401
tp1402
a(S'franca idl'
p1403
g2
(g6
S'MB\x18\xe9\xf6\x84\xd3?'
p1404
tp1405
Rp1406
tp1407
a(S'front and back ends'
p1408
g2
(g6
S'X3\xd0\xa4L\x83\xd3?'
p1409
tp1410
Rp1411
tp1412
a(S'paper prototyping'
p1413
g2
(g6
S'A9\xd3\x1c5v\xd3?'
p1414
tp1415
Rp1416
tp1417
a(S'sudo'
p1418
g2
(g6
S'\xf0Cd<\xd8q\xd3?'
p1419
tp1420
Rp1421
tp1422
a(S'mark malamud'
p1423
g2
(g6
S'KG\x92\x99\x1dp\xd3?'
p1424
tp1425
Rp1426
tp1427
a(S'veveo'
p1428
g2
(g6
S'\xceQ\xd9\xc8:l\xd3?'
p1429
tp1430
Rp1431
tp1432
a(S'pl-3'
p1433
g2
(g6
S'\xdd\xd1`\xae\xc8e\xd3?'
p1434
tp1435
Rp1436
tp1437
a(S'smartmontools'
p1438
g2
(g6
S'K\xe8\x03\x0bje\xd3?'
p1439
tp1440
Rp1441
tp1442
a(S'username'
p1443
g2
(g6
S'\xe3m\x0b\xde\xb8c\xd3?'
p1444
tp1445
Rp1446
tp1447
a(S'human action cycle'
p1448
g2
(g6
S'\x00EX\xcd\x9bb\xd3?'
p1449
tp1450
Rp1451
tp1452
a(S'dexos'
p1453
g2
(g6
S'\xf8\xba\x17\xe1\xab]\xd3?'
p1454
tp1455
Rp1456
tp1457
a(S'linuxconf'
p1458
g2
(g6
S',&\xc0\x03 O\xd3?'
p1459
tp1460
Rp1461
tp1462
a(S'eyetap'
p1463
g2
(g6
S'\x02L\xa8\xd4\xddM\xd3?'
p1464
tp1465
Rp1466
tp1467
a(S'integrated software'
p1468
g2
(g6
S'ck\xf4:\xf8G\xd3?'
p1469
tp1470
Rp1471
tp1472
a(S'open base station architecture initiative'
p1473
g2
(g6
S'\xf1q\x08(\xe3F\xd3?'
p1474
tp1475
Rp1476
tp1477
a(S'networkmanager'
p1478
g2
(g6
S'@]\xe2\x1fkE\xd3?'
p1479
tp1480
Rp1481
tp1482
a(S'any key'
p1483
g2
(g6
S'\xd5\x06fN\xe4D\xd3?'
p1484
tp1485
Rp1486
tp1487
a(S'home directory'
p1488
g2
(g6
S'\xcc\x03\xb0[iB\xd3?'
p1489
tp1490
Rp1491
tp1492
a(S'comparison of privilege authorization features'
p1493
g2
(g6
S'\x15\xe9\x1eGD>\xd3?'
p1494
tp1495
Rp1496
tp1497
a(S'scholte wave'
p1498
g2
(g6
S'\xa4\r\xb6|n:\xd3?'
p1499
tp1500
Rp1501
tp1502
a(S'widget (gui)'
p1503
g2
(g6
S'/\xc77\xab?:\xd3?'
p1504
tp1505
Rp1506
tp1507
a(S'ifconfig'
p1508
g2
(g6
S'\xf9\xcae\xc9\xb66\xd3?'
p1509
tp1510
Rp1511
tp1512
a.