(lp0
(S'web search engine'
p1
cnumpy.core.multiarray
scalar
p2
(cnumpy
dtype
p3
(S'f8'
p4
I0
I1
tp5
Rp6
(I3
S'<'
p7
NNNI-1
I-1
I0
tp8
bS'\xfe\xff\xff\xff\xff\xff\xef?'
p9
tp10
Rp11
tp12
a(S'timeline of web search engines'
p13
g2
(g6
S'c\xcbq\xe6\xd0\xd8\xeb?'
p14
tp15
Rp16
tp17
a(S'outline of search engines'
p18
g2
(g6
S'\xf7q\x0f`\xe4n\xeb?'
p19
tp20
Rp21
tp22
a(S'search engine optimization'
p23
g2
(g6
S'\xe8\xc6\x8e\xa3,Q\xe9?'
p24
tp25
Rp26
tp27
a(S'search engine technology'
p28
g2
(g6
S'\x92\xd1\x82\xd5YL\xe9?'
p29
tp30
Rp31
tp32
a(S'metasearch engine'
p33
g2
(g6
S'\xac\xf6\xdfR\xe06\xe9?'
p34
tp35
Rp36
tp37
a(S'yacy'
p38
g2
(g6
S'\xdfK>\x01@\x14\xe9?'
p39
tp40
Rp41
tp42
a(S'dogpile'
p43
g2
(g6
S'\x04\xef\x8e\x13M\xd5\xe8?'
p44
tp45
Rp46
tp47
a(S'search engine (computing)'
p48
g2
(g6
S'\xf1\xc4\x1a\xfa\xcb\xbd\xe8?'
p49
tp50
Rp51
tp52
a(S'local search (internet)'
p53
g2
(g6
S'\xde\x82\x10\x00\x04\x92\xe8?'
p54
tp55
Rp56
tp57
a(S'polycola'
p58
g2
(g6
S'\x12:\xd6E\x14\x84\xe8?'
p59
tp60
Rp61
tp62
a(S'walhello'
p63
g2
(g6
S'j\xb5w\x8c\x9d)\xe8?'
p64
tp65
Rp66
tp67
a(S'wikia search'
p68
g2
(g6
S'\xd3\xfe\x84\xd6\x8e\xe7\xe7?'
p69
tp70
Rp71
tp72
a(S'search engine (disambiguation)'
p73
g2
(g6
S'\xbf\xe5/"\xd8\xa1\xe7?'
p74
tp75
Rp76
tp77
a(S'search as a service'
p78
g2
(g6
S'p\x9a\x82\xae\x8cc\xe7?'
p79
tp80
Rp81
tp82
a(S'social search'
p83
g2
(g6
S'\xd1s\n\xc0\xdb\\\xe7?'
p84
tp85
Rp86
tp87
a(S'genieknows'
p88
g2
(g6
S'\x8f\xc1V!Z\xdd\xe6?'
p89
tp90
Rp91
tp92
a(S'webcrawler'
p93
g2
(g6
S'V\xfb\xf1\x86\x8a\x95\xe6?'
p94
tp95
Rp96
tp97
a(S'list of search engines'
p98
g2
(g6
S'[\x96[\x1dQh\xe6?'
p99
tp100
Rp101
tp102
a(S'multisearch'
p103
g2
(g6
S'i<\xaf\xb4.f\xe6?'
p104
tp105
Rp106
tp107
a(S'search neutrality'
p108
g2
(g6
S'\xd8\xc2\xdd\xb1\x852\xe6?'
p109
tp110
Rp111
tp112
a(S'wisenut'
p113
g2
(g6
S'\xe6Q%b\x85#\xe6?'
p114
tp115
Rp116
tp117
a(S'search box'
p118
g2
(g6
S'k\xe6\x9b\x99\xe9\x00\xe6?'
p119
tp120
Rp121
tp122
a(S'search analytics'
p123
g2
(g6
S'\xc0qm\x06\x02\xc0\xe5?'
p124
tp125
Rp126
tp127
a(S'visual search engine'
p128
g2
(g6
S'\x84r\x1cI:\xbe\xe5?'
p129
tp130
Rp131
tp132
a(S'yandex search'
p133
g2
(g6
S'\xd7\x80\xc7\xab\xf9\x94\xe5?'
p134
tp135
Rp136
tp137
a(S'danny sullivan (technologist)'
p138
g2
(g6
S'h@W\xa3\xe3\x89\xe5?'
p139
tp140
Rp141
tp142
a(S'hotbot'
p143
g2
(g6
S'\xe6\xe1=u\x07\x84\xe5?'
p144
tp145
Rp146
tp147
a(S'duckduckgo'
p148
g2
(g6
S'\x0b\x80\xe9\x84I\x82\xe5?'
p149
tp150
Rp151
tp152
a(S'direct hit technologies'
p153
g2
(g6
S'{\x94\x19\xd1\xbep\xe5?'
p154
tp155
Rp156
tp157
a(S'image meta search'
p158
g2
(g6
S'\xda\xb7\x16\xce\xfam\xe5?'
p159
tp160
Rp161
tp162
a(S'distributed search engine'
p163
g2
(g6
S'\xfa[L\x9f\xe2Y\xe5?'
p164
tp165
Rp166
tp167
a(S'search engine results page'
p168
g2
(g6
S'\x15\xc3\xae\x99\xd6I\xe5?'
p169
tp170
Rp171
tp172
a(S'video search engine'
p173
g2
(g6
S'x\xc4A\xbb\xcd\x17\xe5?'
p174
tp175
Rp176
tp177
a(S'search engine marketing'
p178
g2
(g6
S'\xe9\x92\x91\x15\x87\xee\xe4?'
p179
tp180
Rp181
tp182
a(S'algolia'
p183
g2
(g6
S'\x81Y*\x08\xf2\xd3\xe4?'
p184
tp185
Rp186
tp187
a(S'rollyo'
p188
g2
(g6
S'@\xf3|\xe8\xb1\xd3\xe4?'
p189
tp190
Rp191
tp192
a(S'google personalized search'
p193
g2
(g6
S'\xd1\x9a\x8d.w\xbc\xe4?'
p194
tp195
Rp196
tp197
a(S'alltheweb'
p198
g2
(g6
S'\xb3\x80\xc1YK\xb2\xe4?'
p199
tp200
Rp201
tp202
a(S'yebol'
p203
g2
(g6
S'\x8e9`\xc9\xd5\xa9\xe4?'
p204
tp205
Rp206
tp207
a(S'myallsearch'
p208
g2
(g6
S'\xa0\xe4\xc2\xa5j\x9d\xe4?'
p209
tp210
Rp211
tp212
a(S'selection-based search'
p213
g2
(g6
S'\xcd\xb0\xab\x81\xea\x8b\xe4?'
p214
tp215
Rp216
tp217
a(S'twing'
p218
g2
(g6
S'\x12_\xc1Oz|\xe4?'
p219
tp220
Rp221
tp222
a(S'google search'
p223
g2
(g6
S'\xf3\xf0r&>z\xe4?'
p224
tp225
Rp226
tp227
a(S'database search engine'
p228
g2
(g6
S'm\x81\x00\x96\xb9q\xe4?'
p229
tp230
Rp231
tp232
a(S'munax'
p233
g2
(g6
S'\xd3\xe4\xe2\xc1\xe2K\xe4?'
p234
tp235
Rp236
tp237
a(S'human search engine'
p238
g2
(g6
S'X\x08\xee\xba\r4\xe4?'
p239
tp240
Rp241
tp242
a(S'myriad search'
p243
g2
(g6
S'\x00\x8d<\xd2d1\xe4?'
p244
tp245
Rp246
tp247
a(S'zuula'
p248
g2
(g6
S'\xd3\x92;\xca1\x16\xe4?'
p249
tp250
Rp251
tp252
a(S'organic search'
p253
g2
(g6
S'\xa4>\x96\x97V\x0c\xe4?'
p254
tp255
Rp256
tp257
a(S'blekko'
p258
g2
(g6
S'L\xcbWaf\xfd\xe3?'
p259
tp260
Rp261
tp262
a(S'vertical search'
p263
g2
(g6
S'\xaf7\xec\x82\xe2\xe2\xe3?'
p264
tp265
Rp266
tp267
a(S'schnitzelmitkartoffelsalat'
p268
g2
(g6
S'\xee\xbc9\xd0T\xe2\xe3?'
p269
tp270
Rp271
tp272
a(S'search engine watch'
p273
g2
(g6
S'l\x8f\xf1\x1c\x81\xd8\xe3?'
p274
tp275
Rp276
tp277
a(S'personalized search'
p278
g2
(g6
S'\x1c!\xf0\x88\x87\xb9\xe3?'
p279
tp280
Rp281
tp282
a(S'yahoo! search'
p283
g2
(g6
S'\xa1!\xb2\xeea\xb4\xe3?'
p284
tp285
Rp286
tp287
a(S'yasni'
p288
g2
(g6
S'\xdf27n\xf2\xa7\xe3?'
p289
tp290
Rp291
tp292
a(S'full-text search'
p293
g2
(g6
S'\xf2M*Z\x86~\xe3?'
p294
tp295
Rp296
tp297
a(S'ixquick'
p298
g2
(g6
S'N\xc7\x1b\x81Yr\xe3?'
p299
tp300
Rp301
tp302
a(S'google custom search'
p303
g2
(g6
S'\xcaY\x05\xc2mq\xe3?'
p304
tp305
Rp306
tp307
a(S'mugurdy'
p308
g2
(g6
S'{Y\x0c\xcf\xf2d\xe3?'
p309
tp310
Rp311
tp312
a(S'sesam'
p313
g2
(g6
S'\x14\x15\xdd\\FO\xe3?'
p314
tp315
Rp316
tp317
a(S'cuil'
p318
g2
(g6
S'\xab\x7fx>GL\xe3?'
p319
tp320
Rp321
tp322
a(S'yandex'
p323
g2
(g6
S'P\xa8\xc8\xd0s$\xe3?'
p324
tp325
Rp326
tp327
a(S'imhalal'
p328
g2
(g6
S'erLy3\xfa\xe2?'
p329
tp330
Rp331
tp332
a(S'volunia'
p333
g2
(g6
S'\xcdGd\x07\x96\xe8\xe2?'
p334
tp335
Rp336
tp337
a(S'multimedia search'
p338
g2
(g6
S'\xdfhH*\xac\xe1\xe2?'
p339
tp340
Rp341
tp342
a(S'multimodal search'
p343
g2
(g6
S'=\x8e\xed!2\xc7\xe2?'
p344
tp345
Rp346
tp347
a(S'the search (disambiguation)'
p348
g2
(g6
S'\xd5\xc6\xfe\x85p\xbd\xe2?'
p349
tp350
Rp351
tp352
a(S'bilingual search engine'
p353
g2
(g6
S'\x86\xc3\n?\x0e\xbd\xe2?'
p354
tp355
Rp356
tp357
a(S'audio search engine'
p358
g2
(g6
S'\xbb\x0c\xf7D\xd9\xb0\xe2?'
p359
tp360
Rp361
tp362
a(S'barry schwartz (technologist)'
p363
g2
(g6
S'H\xf0\x02\x1a\xa9\x9f\xe2?'
p364
tp365
Rp366
tp367
a(S'internet research'
p368
g2
(g6
S'(\xbd\x8a\xa3\x9e\x9c\xe2?'
p369
tp370
Rp371
tp372
a(S'truveo'
p373
g2
(g6
S'\x83\x91\x08\x90Yl\xe2?'
p374
tp375
Rp376
tp377
a(S'leit.is'
p378
g2
(g6
S'\xb8\x00\xc4\x9c7i\xe2?'
p379
tp380
Rp381
tp382
a(S'phrase search'
p383
g2
(g6
S'\xf9\x05\xa8\x906\\\xe2?'
p384
tp385
Rp386
tp387
a(S'search technologies'
p388
g2
(g6
S'\xe5Hq\xfc\xafH\xe2?'
p389
tp390
Rp391
tp392
a(S'egerin'
p393
g2
(g6
S'\xb0\xea\x1bY\xf4E\xe2?'
p394
tp395
Rp396
tp397
a(S'search retargeting'
p398
g2
(g6
S'\xc2"\xf8\xcc@=\xe2?'
p399
tp400
Rp401
tp402
a(S'boogami'
p403
g2
(g6
S"'&\xc6\xa2L;\xe2?"
p404
tp405
Rp406
tp407
a(S'comparison of web search engines'
p408
g2
(g6
S'\xc2\xd9\x9a\xcf)5\xe2?'
p409
tp410
Rp411
tp412
a(S'backlink'
p413
g2
(g6
S'\x82\xbcn\xe0\xa02\xe2?'
p414
tp415
Rp416
tp417
a(S'swiftype'
p418
g2
(g6
S'G\xfa\xea\xe7\xe0!\xe2?'
p419
tp420
Rp421
tp422
a(S'forestle'
p423
g2
(g6
S'\x1e\xe4\x8b$S\x1c\xe2?'
p424
tp425
Rp426
tp427
a(S'ecosia'
p428
g2
(g6
S'\xec\x9fS\x14a\x19\xe2?'
p429
tp430
Rp431
tp432
a(S'altavista'
p433
g2
(g6
S'\xeb-L}\x07\x15\xe2?'
p434
tp435
Rp436
tp437
a(S'seeks'
p438
g2
(g6
S'<Kf\x12\xef\x11\xe2?'
p439
tp440
Rp441
tp442
a(S'live search academic'
p443
g2
(g6
S'\xeb\x05h\x9d2\x0c\xe2?'
p444
tp445
Rp446
tp447
a(S'enterprise search'
p448
g2
(g6
S'S\x1dT\xeaM\xdf\xe1?'
p449
tp450
Rp451
tp452
a(S'contextual searching'
p453
g2
(g6
S'\xea_/v\xa2\xdc\xe1?'
p454
tp455
Rp456
tp457
a(S'namazu (search engine)'
p458
g2
(g6
S"8~'7\xd1\xc6\xe1?"
p459
tp460
Rp461
tp462
a(S'bing health'
p463
g2
(g6
S'\xc28GV\x98\xc0\xe1?'
p464
tp465
Rp466
tp467
a(S'bing (search engine)'
p468
g2
(g6
S'5c\x134T\xad\xe1?'
p469
tp470
Rp471
tp472
a(S'search aggregator'
p473
g2
(g6
S'\x98\xa5\x1d1z\xa5\xe1?'
p474
tp475
Rp476
tp477
a(S'yossarianlives'
p478
g2
(g6
S'\xc4\x12U\xf3\x84\x80\xe1?'
p479
tp480
Rp481
tp482
a(S'yahoo! search boss'
p483
g2
(g6
S'\x07T+K\xaez\xe1?'
p484
tp485
Rp486
tp487
a(S'proximity search (text)'
p488
g2
(g6
S'e\x9d\x0b\x03\xc9y\xe1?'
p489
tp490
Rp491
tp492
a(S'search plugin'
p493
g2
(g6
S'!\xc9\xc0kwv\xe1?'
p494
tp495
Rp496
tp497
a(S'egosurfing'
p498
g2
(g6
S'\xdb8\x0ehdv\xe1?'
p499
tp500
Rp501
tp502
a(S'picollator'
p503
g2
(g6
S'+\xdf\x85\x10gk\xe1?'
p504
tp505
Rp506
tp507
a(S'a9.com'
p508
g2
(g6
S'"\x03y\xdaAj\xe1?'
p509
tp510
Rp511
tp512
a(S'facebook graph search'
p513
g2
(g6
S'\xae\xbb\x7f\x95\x8eh\xe1?'
p514
tp515
Rp516
tp517
a(S'qwant'
p518
g2
(g6
S'\xd2\xc1\x90\xb6(>\xe1?'
p519
tp520
Rp521
tp522
a(S'google web history'
p523
g2
(g6
S'\x8d\xc8\xd7}\xe97\xe1?'
p524
tp525
Rp526
tp527
a(S'findability'
p528
g2
(g6
S'\xaexVEj)\xe1?'
p529
tp530
Rp531
tp532
a(S'search engine strategies'
p533
g2
(g6
S'E\x9b\xe7\xae\xeb\x1c\xe1?'
p534
tp535
Rp536
tp537
a(S'leapfish'
p538
g2
(g6
S'\x8a26\xfe|\x1c\xe1?'
p539
tp540
Rp541
tp542
a(S'searchteam'
p543
g2
(g6
S'\xc1{\xc3\xfc\x00\x04\xe1?'
p544
tp545
Rp546
tp547
a(S'tafiti'
p548
g2
(g6
S'V\xe6F4N\x03\xe1?'
p549
tp550
Rp551
tp552
a(S'instant indexing'
p553
g2
(g6
S'\xdcR\x88\xb5\x8d\x02\xe1?'
p554
tp555
Rp556
tp557
a(S'retina medical search'
p558
g2
(g6
S'i\xa0\xc2yW\xfc\xe0?'
p559
tp560
Rp561
tp562
a(S'jumpstation'
p563
g2
(g6
S'_\xf4\x0c#\xec\xf3\xe0?'
p564
tp565
Rp566
tp567
a(S'federated search'
p568
g2
(g6
S'@\xe0=\x849\xf2\xe0?'
p569
tp570
Rp571
tp572
a(S'search advertising'
p573
g2
(g6
S'\xfbZ\xab\xe3\xf5\xec\xe0?'
p574
tp575
Rp576
tp577
a(S'google search console'
p578
g2
(g6
S'\xa1\x93\x05\x90\r\xbf\xe0?'
p579
tp580
Rp581
tp582
a(S'bush search and rescue victoria'
p583
g2
(g6
S'D\xe9\x08\xe8\xae\xaf\xe0?'
p584
tp585
Rp586
tp587
a(S'golden triangle (internet marketing)'
p588
g2
(g6
S'\x82L}yL\xad\xe0?'
p589
tp590
Rp591
tp592
a(S'deep web'
p593
g2
(g6
S'N\xe9\x90\xd8h\xa4\xe0?'
p594
tp595
Rp596
tp597
a(S'google images'
p598
g2
(g6
S'\x13\xb7{2\xa8\xa3\xe0?'
p599
tp600
Rp601
tp602
a(S'link farm'
p603
g2
(g6
S'\xb3\xa6T\xf5\x1d\xa0\xe0?'
p604
tp605
Rp606
tp607
a(S'sproose'
p608
g2
(g6
S'}\xc1\xb4Q\x9e\x9e\xe0?'
p609
tp610
Rp611
tp612
a(S'searchme'
p613
g2
(g6
S'\x0bo\xc4F\xfb\x94\xe0?'
p614
tp615
Rp616
tp617
a(S'espew'
p618
g2
(g6
S'Tv\xb4DN\x8c\xe0?'
p619
tp620
Rp621
tp622
a(S'thefind.com'
p623
g2
(g6
S'\xec\xcc\xbbN\xda\x83\xe0?'
p624
tp625
Rp626
tp627
a(S'hybrid search engine'
p628
g2
(g6
S'\xd7\xe3\x9e\x97\x97z\xe0?'
p629
tp630
Rp631
tp632
a(S'search engine roundtable'
p633
g2
(g6
S'\xdaF\xed\xee\x0em\xe0?'
p634
tp635
Rp636
tp637
a(S'base (search engine)'
p638
g2
(g6
S'\xb1\x86-\xe6bf\xe0?'
p639
tp640
Rp641
tp642
a(S'desktop search'
p643
g2
(g6
S'\x02\x03);le\xe0?'
p644
tp645
Rp646
tp647
a(S'microsoft search server'
p648
g2
(g6
S'\x1e\x8b5\xd3\x7fH\xe0?'
p649
tp650
Rp651
tp652
a(S'eb-eye'
p653
g2
(g6
S'$l\x9f;TA\xe0?'
p654
tp655
Rp656
tp657
a(S'webinfo'
p658
g2
(g6
S'p\x1b\xc7Iq;\xe0?'
p659
tp660
Rp661
tp662
a(S'parsijoo'
p663
g2
(g6
S'\xe0:\xaan\x1e#\xe0?'
p664
tp665
Rp666
tp667
a(S'mindbreeze'
p668
g2
(g6
S'A\x85?\xa5\x94\x10\xe0?'
p669
tp670
Rp671
tp672
a(S'exponential search'
p673
g2
(g6
S'\xc0\x11\x07z\x16\x0c\xe0?'
p674
tp675
Rp676
tp677
a(S'hyper search'
p678
g2
(g6
S'\x93\x89o\xdfw\xfc\xdf?'
p679
tp680
Rp681
tp682
a(S'prospective search'
p683
g2
(g6
S'\xc1\xc1\xed\xb5\xc5\xee\xdf?'
p684
tp685
Rp686
tp687
a(S'user intent'
p688
g2
(g6
S'p\xe1\n\x1f6\xe8\xdf?'
p689
tp690
Rp691
tp692
a(S'white fonting'
p693
g2
(g6
S'\x8f\xa9\x12v\x1b\xdf\xdf?'
p694
tp695
Rp696
tp697
a(S'incremental heuristic search'
p698
g2
(g6
S'\xab-d\x0c\x0b\xdb\xdf?'
p699
tp700
Rp701
tp702
a(S're/search'
p703
g2
(g6
S'\xaff\xc8\x9c\x15\xd6\xdf?'
p704
tp705
Rp706
tp707
a(S'wazap!'
p708
g2
(g6
S'M\x0ca\xbd\x8e\xd5\xdf?'
p709
tp710
Rp711
tp712
a(S'ifilter'
p713
g2
(g6
S'\xdd\xc4\xf5\xfd&\xd3\xdf?'
p714
tp715
Rp716
tp717
a(S'usage data'
p718
g2
(g6
S'\x80+!JA\xd2\xdf?'
p719
tp720
Rp721
tp722
a(S'lookeen'
p723
g2
(g6
S'^\x95z\x17\x03\xcd\xdf?'
p724
tp725
Rp726
tp727
a(S'linear search'
p728
g2
(g6
S'\x0c9t\xa0g\xc0\xdf?'
p729
tp730
Rp731
tp732
a(S'comparison of enterprise search software'
p733
g2
(g6
S'\x03+~\x08`\xb3\xdf?'
p734
tp735
Rp736
tp737
a(S'searchdaimon'
p738
g2
(g6
S'\x07%`"\xbf\xa9\xdf?'
p739
tp740
Rp741
tp742
a(S'searching'
p743
g2
(g6
S'f\x120\xafO\xa5\xdf?'
p744
tp745
Rp746
tp747
a(S'windows search'
p748
g2
(g6
S'\x8ehr\x9fp\x9d\xdf?'
p749
tp750
Rp751
tp752
a(S'search algorithm'
p753
g2
(g6
S'r2\xe2\xe6\xc7\x94\xdf?'
p754
tp755
Rp756
tp757
a(S'search party'
p758
g2
(g6
S'\x9e\xd71\x19!\x87\xdf?'
p759
tp760
Rp761
tp762
a(S'dogreatgood'
p763
g2
(g6
S'\xbf~\xb6\x81[f\xdf?'
p764
tp765
Rp766
tp767
a(S'mobile local search'
p768
g2
(g6
S'562\x85 `\xdf?'
p769
tp770
Rp771
tp772
a(S'deeperweb'
p773
g2
(g6
S'S\xc4\xe5G\x9fZ\xdf?'
p774
tp775
Rp776
tp777
a(S'search engine manipulation effect'
p778
g2
(g6
S'\xfa\xfc\x92\xd1uD\xdf?'
p779
tp780
Rp781
tp782
a(S'spamdexing'
p783
g2
(g6
S'I\xc80\xa5r\x0e\xdf?'
p784
tp785
Rp786
tp787
a(S'jump search'
p788
g2
(g6
S'\xfb\xa7%$\x88\xef\xde?'
p789
tp790
Rp791
tp792
a(S'simpli'
p793
g2
(g6
S'\xa7r\xf8\x8e\x05\xde\xde?'
p794
tp795
Rp796
tp797
a(S'snotunes'
p798
g2
(g6
S'\x8e\xc3#;\x90\xd2\xde?'
p799
tp800
Rp801
tp802
a(S'mozdex'
p803
g2
(g6
S'\x16G5\x0b\x81\xc4\xde?'
p804
tp805
Rp806
tp807
a(S'joint agency coordination centre'
p808
g2
(g6
S'74\xe0:Y\xbf\xde?'
p809
tp810
Rp811
tp812
a(S'search engine optimization, inc.'
p813
g2
(g6
S'\x9b\xf8^\x99\x84\xb9\xde?'
p814
tp815
Rp816
tp817
a(S'jessie stricchiola'
p818
g2
(g6
S'\xed\x17\x84nk\xac\xde?'
p819
tp820
Rp821
tp822
a(S'zanran'
p823
g2
(g6
S'e!\x9c\xed,\x94\xde?'
p824
tp825
Rp826
tp827
a(S'pixsta'
p828
g2
(g6
S'\xf0\x00\x88\x99\xf3v\xde?'
p829
tp830
Rp831
tp832
a(S'text engine'
p833
g2
(g6
S'\x97\xb3\xadj\x92s\xde?'
p834
tp835
Rp836
tp837
a(S'million short'
p838
g2
(g6
S'\xbeV\x1d\xd0\xa7c\xde?'
p839
tp840
Rp841
tp842
a(S'nofollow'
p843
g2
(g6
S'i\xcc.\x8f\xb5W\xde?'
p844
tp845
Rp846
tp847
a(S'google ranking'
p848
g2
(g6
S'\xdd\x0fY\xd6\x1dJ\xde?'
p849
tp850
Rp851
tp852
a(S'masterseek'
p853
g2
(g6
S'=\xca\x99 \xa6C\xde?'
p854
tp855
Rp856
tp857
a(S'fast web media'
p858
g2
(g6
S'\xc6\x1b\xf3\xde\xef@\xde?'
p859
tp860
Rp861
tp862
a(S'viewzi'
p863
g2
(g6
S'\xca\xff\x18\xcch?\xde?'
p864
tp865
Rp866
tp867
a(S'location search optimization'
p868
g2
(g6
S'@B\x8e\x1a\x9b7\xde?'
p869
tp870
Rp871
tp872
a(S'list of search engine software'
p873
g2
(g6
S'\xe7<FZ\xcc3\xde?'
p874
tp875
Rp876
tp877
a(S'unreasonable search and seizure in new zealand'
p878
g2
(g6
S"\xcb#0\xb4\r'\xde?"
p879
tp880
Rp881
tp882
a(S'search.ch'
p883
g2
(g6
S'\xb7~\x18\xd4\xff\x1b\xde?'
p884
tp885
Rp886
tp887
a(S'google real-time search'
p888
g2
(g6
S'^\xf2\xb8\xc0\x8f\x14\xde?'
p889
tp890
Rp891
tp892
a(S'search-oriented architecture'
p893
g2
(g6
S"H\x8cu}'\x14\xde?"
p894
tp895
Rp896
tp897
a(S'new england search and rescue'
p898
g2
(g6
S']\x90\xe6\xa86\x11\xde?'
p899
tp900
Rp901
tp902
a(S'quaero'
p903
g2
(g6
S'L\x04\xc3\x93\x06\r\xde?'
p904
tp905
Rp906
tp907
a(S'teoma'
p908
g2
(g6
S'i\xf6\xd3w\xd4\x0c\xde?'
p909
tp910
Rp911
tp912
a(S'negative search'
p913
g2
(g6
S'\xdb\x17\x92^\xa6\t\xde?'
p914
tp915
Rp916
tp917
a(S'norconex'
p918
g2
(g6
S'\xec\xc2\x16i\x9e\xe1\xdd?'
p919
tp920
Rp921
tp922
a(S'web indexing'
p923
g2
(g6
S']A\x0e\xaa\xa4\xda\xdd?'
p924
tp925
Rp926
tp927
a(S'intergator'
p928
g2
(g6
S'v\xa6RK\x99\xd1\xdd?'
p929
tp930
Rp931
tp932
a(S'google blog search'
p933
g2
(g6
S'\xbbL\xfbZ6\xbc\xdd?'
p934
tp935
Rp936
tp937
a(S'saved search (disambiguation)'
p938
g2
(g6
S'\xcd\xc4\xbd\xeaZ\xb3\xdd?'
p939
tp940
Rp941
tp942
a(S'search syndication'
p943
g2
(g6
S'o\xd0 qY\xa7\xdd?'
p944
tp945
Rp946
tp947
a(S'meta element'
p948
g2
(g6
S'\x82j\n\xf2\xc0\xa2\xdd?'
p949
tp950
Rp951
tp952
a(S'underwater search and recovery'
p953
g2
(g6
S'\xdc\x99\xd7\xb1<\x9d\xdd?'
p954
tp955
Rp956
tp957
a(S'instant answer'
p958
g2
(g6
S'\x1eRl\xa4\xa4\x99\xdd?'
p959
tp960
Rp961
tp962
a(S'newslookup'
p963
g2
(g6
S'\x82\x01\xad\xac\xb1\x8a\xdd?'
p964
tp965
Rp966
tp967
a(S'gigablast'
p968
g2
(g6
S'D\x1f\xac\xff\xf4\x85\xdd?'
p969
tp970
Rp971
tp972
a(S'onkosh'
p973
g2
(g6
S' \x0e\xb8\\\x8c\x7f\xdd?'
p974
tp975
Rp976
tp977
a(S'list of most popular websites'
p978
g2
(g6
S'M\x0f\xf0]-\x7f\xdd?'
p979
tp980
Rp981
tp982
a(S'list of enterprise search vendors'
p983
g2
(g6
S'\x9b]\xd0@\xe2t\xdd?'
p984
tp985
Rp986
tp987
a(S'cloaking'
p988
g2
(g6
S'\xb1(\x81\x0b\x06t\xdd?'
p989
tp990
Rp991
tp992
a(S'site map'
p993
g2
(g6
S'|\xf8\xaad\xb6r\xdd?'
p994
tp995
Rp996
tp997
a(S'search and rescue (disambiguation)'
p998
g2
(g6
S'\xc9\xa5\xdd*\xb2[\xdd?'
p999
tp1000
Rp1001
tp1002
a(S'exalead'
p1003
g2
(g6
S'\x81oa\x84\xa3[\xdd?'
p1004
tp1005
Rp1006
tp1007
a(S'index term'
p1008
g2
(g6
S'\xe0\xcc9)\xcfJ\xdd?'
p1009
tp1010
Rp1011
tp1012
a(S'search appliance'
p1013
g2
(g6
S'$@\xfcA\xb3E\xdd?'
p1014
tp1015
Rp1016
tp1017
a(S'mahalo.com'
p1018
g2
(g6
S'\xbb\xf6B\x80!D\xdd?'
p1019
tp1020
Rp1021
tp1022
a(S'google bomb'
p1023
g2
(g6
S'w\rD\x0c\x89&\xdd?'
p1024
tp1025
Rp1026
tp1027
a(S'podscope'
p1028
g2
(g6
S'\xb8+\xd6\x13\xa4%\xdd?'
p1029
tp1030
Rp1031
tp1032
a(S'martijn koster'
p1033
g2
(g6
S'}\xd4*8=\x13\xdd?'
p1034
tp1035
Rp1036
tp1037
a(S'tagoo'
p1038
g2
(g6
S'\x8c\xdb>\x0cg\x05\xdd?'
p1039
tp1040
Rp1041
tp1042
a(S'sascon'
p1043
g2
(g6
S'ld\xc7\xf5\x92\xff\xdc?'
p1044
tp1045
Rp1046
tp1047
a(S'best-first search'
p1048
g2
(g6
S'fB\xf6t\xfc\xfc\xdc?'
p1049
tp1050
Rp1051
tp1052
a(S'online presence management'
p1053
g2
(g6
S'7\x12z\x80\x1e\xf8\xdc?'
p1054
tp1055
Rp1056
tp1057
a(S'filter bubble'
p1058
g2
(g6
S'|U\x85q\x9e\xdc\xdc?'
p1059
tp1060
Rp1061
tp1062
a(S'taganode local search engine'
p1063
g2
(g6
S'\x03JF\x9e\xac\xd7\xdc?'
p1064
tp1065
Rp1066
tp1067
a(S'local search (optimization)'
p1068
g2
(g6
S'\x85R\xde\x03\x8b\xd4\xdc?'
p1069
tp1070
Rp1071
tp1072
a(S'deeppeep'
p1073
g2
(g6
S'\xc3i\x9cN5\xd1\xdc?'
p1074
tp1075
Rp1076
tp1077
a(S'azure search'
p1078
g2
(g6
S'hl0{n\xcc\xdc?'
p1079
tp1080
Rp1081
tp1082
a(S'human flesh search engine'
p1083
g2
(g6
S'\x12GR\x9e\x7f\xc6\xdc?'
p1084
tp1085
Rp1086
tp1087
a(S'finger search'
p1088
g2
(g6
S'4\xe5\xbb\x12\x84\xc4\xdc?'
p1089
tp1090
Rp1091
tp1092
a(S'geliyoo'
p1093
g2
(g6
S'\\\xd6\xdeVX\xbf\xdc?'
p1094
tp1095
Rp1096
tp1097
a(S'alleba'
p1098
g2
(g6
S'\xcf\xf6\n\xd0\x06\xb3\xdc?'
p1099
tp1100
Rp1101
tp1102
a(S'quixey'
p1103
g2
(g6
S'\x17\x92+\xb6\x81\xb0\xdc?'
p1104
tp1105
Rp1106
tp1107
a(S'executive search'
p1108
g2
(g6
S'\xf5\r\x8d<f\xad\xdc?'
p1109
tp1110
Rp1111
tp1112
a(S'search-based application'
p1113
g2
(g6
S'\xdcHJ@w\x97\xdc?'
p1114
tp1115
Rp1116
tp1117
a(S'singingfish'
p1118
g2
(g6
S'&\xef\x13G\xaa\x94\xdc?'
p1119
tp1120
Rp1121
tp1122
a(S'late move reductions'
p1123
g2
(g6
S'\xfb\x9a\xcbu&\x8c\xdc?'
p1124
tp1125
Rp1126
tp1127
a(S'get into bed with google'
p1128
g2
(g6
S'\xcf\xf0\xcd\xc5\x06\x82\xdc?'
p1129
tp1130
Rp1131
tp1132
a(S'list of emergency organizations in british columbia'
p1133
g2
(g6
S'\xad.\xd5\xae\xb5~\xdc?'
p1134
tp1135
Rp1136
tp1137
a(S'lee giles'
p1138
g2
(g6
S'o1.Y\x0e}\xdc?'
p1139
tp1140
Rp1141
tp1142
a(S'google searchology'
p1143
g2
(g6
S'\x07G\x80\x8a\xbe{\xdc?'
p1144
tp1145
Rp1146
tp1147
a(S'search suggest drop-down list'
p1148
g2
(g6
S'\xa7\x19o\xe0\xf5r\xdc?'
p1149
tp1150
Rp1151
tp1152
a(S'reverse image search'
p1153
g2
(g6
S'\xc6F?7\x8al\xdc?'
p1154
tp1155
Rp1156
tp1157
a(S'metacrawler'
p1158
g2
(g6
S'\xea\xf8\xca\xf5\xbcN\xdc?'
p1159
tp1160
Rp1161
tp1162
a(S'songr'
p1163
g2
(g6
S'\x832\x17\x08\xf8G\xdc?'
p1164
tp1165
Rp1166
tp1167
a(S'brs/search'
p1168
g2
(g6
S'P\x99Q\xcf\x06;\xdc?'
p1169
tp1170
Rp1171
tp1172
a(S'timeline of google search'
p1173
g2
(g6
S'\xff\xbf\x08\xac\xd39\xdc?'
p1174
tp1175
Rp1176
tp1177
a(S'eurekster'
p1178
g2
(g6
S'\x88\x93a\x13\x8f#\xdc?'
p1179
tp1180
Rp1181
tp1182
a(S'localeze'
p1183
g2
(g6
S'\xd7t$\x03\xa7\x1e\xdc?'
p1184
tp1185
Rp1186
tp1187
a(S'lexxe'
p1188
g2
(g6
S'\x14`\x08\xfdw\x10\xdc?'
p1189
tp1190
Rp1191
tp1192
a(S'strip search (disambiguation)'
p1193
g2
(g6
S'`T\xb2%|\x0b\xdc?'
p1194
tp1195
Rp1196
tp1197
a(S'organic linking'
p1198
g2
(g6
S'\xf8\x10\xe7\x99\x7f\x06\xdc?'
p1199
tp1200
Rp1201
tp1202
a(S'search engine indexing'
p1203
g2
(g6
S'B\xb0\xcb\xb2\x8e\xfc\xdb?'
p1204
tp1205
Rp1206
tp1207
a(S'submit express'
p1208
g2
(g6
S'\x99(\x1aUS\xef\xdb?'
p1209
tp1210
Rp1211
tp1212
a(S'google code search'
p1213
g2
(g6
S'x\xb7\xef\xbf\x1d\xe7\xdb?'
p1214
tp1215
Rp1216
tp1217
a(S'timway'
p1218
g2
(g6
S'\x03\x18\xa9"H\xdd\xdb?'
p1219
tp1220
Rp1221
tp1222
a(S'yooz'
p1223
g2
(g6
S'-K\x7f3\xf8\xd5\xdb?'
p1224
tp1225
Rp1226
tp1227
a(S'sitelink'
p1228
g2
(g6
S'_>\xceZ1\xbc\xdb?'
p1229
tp1230
Rp1231
tp1232
a(S'dieselpoint, inc.'
p1233
g2
(g6
S'\xb9\xa0`\x9b,\xbc\xdb?'
p1234
tp1235
Rp1236
tp1237
a(S'google pigeon'
p1238
g2
(g6
S'\x87\xdbs}m\xbb\xdb?'
p1239
tp1240
Rp1241
tp1242
a(S'world-wide web worm'
p1243
g2
(g6
S'@\xd4O\xc5-\xb1\xdb?'
p1244
tp1245
Rp1246
tp1247
a(S'delimited search'
p1248
g2
(g6
S'\x8b\xf7\x18\x17\r\xae\xdb?'
p1249
tp1250
Rp1251
tp1252
a(S'local search group'
p1253
g2
(g6
S'L\x0f_\x13K\xa6\xdb?'
p1254
tp1255
Rp1256
tp1257
a(S'admarketplace'
p1258
g2
(g6
S'\xf9ty\x12M\x94\xdb?'
p1259
tp1260
Rp1261
tp1262
a(S'underwater searches'
p1263
g2
(g6
S'\xfc\xcby\x9eI\x8a\xdb?'
p1264
tp1265
Rp1266
tp1267
a(S'sogou'
p1268
g2
(g6
S'\x90cs@<\x85\xdb?'
p1269
tp1270
Rp1271
tp1272
a(S'like.com'
p1273
g2
(g6
S'\xe3\t\x02wLd\xdb?'
p1274
tp1275
Rp1276
tp1277
a(S'surchur'
p1278
g2
(g6
S'(\xd8]\xd8\xeaa\xdb?'
p1279
tp1280
Rp1281
tp1282
a(S'isys search software'
p1283
g2
(g6
S'\xddR\xde%&_\xdb?'
p1284
tp1285
Rp1286
tp1287
a(S'beam search'
p1288
g2
(g6
S'j\x01\xea\xf97^\xdb?'
p1289
tp1290
Rp1291
tp1292
a(S'tek search engine'
p1293
g2
(g6
S'=\xe7\xb3\x81x]\xdb?'
p1294
tp1295
Rp1296
tp1297
a(S'binary search algorithm'
p1298
g2
(g6
S'H\xb8H\xf3UL\xdb?'
p1299
tp1300
Rp1301
tp1302
a(S'visual search'
p1303
g2
(g6
S'\x93\xb3\x0e\xdc\xd8G\xdb?'
p1304
tp1305
Rp1306
tp1307
a(S'tigerlogic'
p1308
g2
(g6
S'@lA\xbc\xefA\xdb?'
p1309
tp1310
Rp1311
tp1312
a(S'link building'
p1313
g2
(g6
S'z\x8c\xdd\xd2\x0eA\xdb?'
p1314
tp1315
Rp1316
tp1317
a(S'faroo'
p1318
g2
(g6
S'+\xe3\xe4\x07M5\xdb?'
p1319
tp1320
Rp1321
tp1322
a(S'search for malaysia airlines flight 370'
p1323
g2
(g6
S'?\x0f\xb9\xfe\xa5\x1c\xdb?'
p1324
tp1325
Rp1326
tp1327
a(S'google voice search'
p1328
g2
(g6
S'@\x01\x8bX/\x19\xdb?'
p1329
tp1330
Rp1331
tp1332
a(S'keyword stuffing'
p1333
g2
(g6
S'{\xc8\x9bY\xe4\x11\xdb?'
p1334
tp1335
Rp1336
tp1337
a(S'bing xrank'
p1338
g2
(g6
S'-@\xcaO[\r\xdb?'
p1339
tp1340
Rp1341
tp1342
a(S'web traffic'
p1343
g2
(g6
S'-\n\xe4\x96_\x04\xdb?'
p1344
tp1345
Rp1346
tp1347
a(S'opensearch'
p1348
g2
(g6
S'\x9e\x11\x8a\xa5\x1d\xf9\xda?'
p1349
tp1350
Rp1351
tp1352
a(S'incremental search'
p1353
g2
(g6
S'\xe6\xd0[1\x00\xf9\xda?'
p1354
tp1355
Rp1356
tp1357
a(S'state space planning'
p1358
g2
(g6
S'*\xd6t_\xe8\xee\xda?'
p1359
tp1360
Rp1361
tp1362
a(S'voice search'
p1363
g2
(g6
S'6%\xb8\xe3[\xe9\xda?'
p1364
tp1365
Rp1366
tp1367
a(S'mobile search'
p1368
g2
(g6
S'\x12\xcc\x05Al\xe3\xda?'
p1369
tp1370
Rp1371
tp1372
a(S'local authority search'
p1373
g2
(g6
S'z(\xb3b(\xe1\xda?'
p1374
tp1375
Rp1376
tp1377
a(S'seo contest'
p1378
g2
(g6
S'%\x1b\xf11\xa6\xc6\xda?'
p1379
tp1380
Rp1381
tp1382
a(S'semantic search'
p1383
g2
(g6
S'\xacK\xf2\x18&\xc2\xda?'
p1384
tp1385
Rp1386
tp1387
a(S'snapstream tv monitoring software'
p1388
g2
(g6
S'\xd0}\xa6\tU\xb9\xda?'
p1389
tp1390
Rp1391
tp1392
a(S'apache solr'
p1393
g2
(g6
S'\xd5\xb7^\x03\xeb\x8d\xda?'
p1394
tp1395
Rp1396
tp1397
a(S'icerocket'
p1398
g2
(g6
S'@\xbeP\x17\xa7\x87\xda?'
p1399
tp1400
Rp1401
tp1402
a(S'vivisimo'
p1403
g2
(g6
S'\xa8%m\xc0\xc7\x83\xda?'
p1404
tp1405
Rp1406
tp1407
a(S'chemxseer'
p1408
g2
(g6
S'q<e\xed%u\xda?'
p1409
tp1410
Rp1411
tp1412
a(S'halifax regional search and rescue'
p1413
g2
(g6
S'\x0f\x08T\xf7\xf0p\xda?'
p1414
tp1415
Rp1416
tp1417
a(S'nestoria'
p1418
g2
(g6
S'HC\xbdO,n\xda?'
p1419
tp1420
Rp1421
tp1422
a(S'globrix'
p1423
g2
(g6
S'\xb6\xca\xd8\xbe\x9eg\xda?'
p1424
tp1425
Rp1426
tp1427
a(S'intelligent medical search engine'
p1428
g2
(g6
S'\xc8>pD_e\xda?'
p1429
tp1430
Rp1431
tp1432
a(S'picsearch'
p1433
g2
(g6
S'\x80T\x061KU\xda?'
p1434
tp1435
Rp1436
tp1437
a(S'accoona'
p1438
g2
(g6
S'\x03\xc4g(kO\xda?'
p1439
tp1440
Rp1441
tp1442
a(S'google insights for search'
p1443
g2
(g6
S'7Q\xbdD\xdbF\xda?'
p1444
tp1445
Rp1446
tp1447
a(S'michael wood (historian)'
p1448
g2
(g6
S'\x1dr.\xf9\x840\xda?'
p1449
tp1450
Rp1451
tp1452
a(S'paglo'
p1453
g2
(g6
S'\xe1\x85n\x9d\x1b,\xda?'
p1454
tp1455
Rp1456
tp1457
a(S'opengrok'
p1458
g2
(g6
S"T\x19\xcf\xd5\xce'\xda?"
p1459
tp1460
Rp1461
tp1462
a(S'list of mesh codes (b06)'
p1463
g2
(g6
S'\xbbs1\x15c\x18\xda?'
p1464
tp1465
Rp1466
tp1467
a(S'wikiseek'
p1468
g2
(g6
S'\xc0\x835n\x19\x16\xda?'
p1469
tp1470
Rp1471
tp1472
a(S'anna patterson'
p1473
g2
(g6
S'+\xf2\xcb\xc7\x85\x15\xda?'
p1474
tp1475
Rp1476
tp1477
a(S'block-matching algorithm'
p1478
g2
(g6
S'&\xcc\x89\xcb\x1d\n\xda?'
p1479
tp1480
Rp1481
tp1482
a(S'x1 (software company)'
p1483
g2
(g6
S'\xef\x93V\x9b{\x07\xda?'
p1484
tp1485
Rp1486
tp1487
a(S'pattern search (optimization)'
p1488
g2
(g6
S'\x15\r\xd5\xca\x92\xec\xd9?'
p1489
tp1490
Rp1491
tp1492
a(S'trexy'
p1493
g2
(g6
S'\x11]\x9aW\x1c\xec\xd9?'
p1494
tp1495
Rp1496
tp1497
a(S'surface web'
p1498
g2
(g6
S'\xf8\x97\xb7\x8fw\xeb\xd9?'
p1499
tp1500
Rp1501
tp1502
a(S'automated content access protocol'
p1503
g2
(g6
S'lKO\x8c\xf9\xe6\xd9?'
p1504
tp1505
Rp1506
tp1507
a(S'real-time web'
p1508
g2
(g6
S'$\xb45\x96\x18\xde\xd9?'
p1509
tp1510
Rp1511
tp1512
a.