(lp0
(S'yann lecun'
p1
cnumpy.core.multiarray
scalar
p2
(cnumpy
dtype
p3
(S'f8'
p4
I0
I1
tp5
Rp6
(I3
S'<'
p7
NNNI-1
I-1
I0
tp8
bS'\x03\x00\x00\x00\x00\x00\xf0?'
p9
tp10
Rp11
tp12
a(S'yann'
p13
g2
(g6
S'\r\xb9\x9a\xd7\x80P\xdd?'
p14
tp15
Rp16
tp17
a(S'artificial neural network'
p18
g2
(g6
S'C\x8e\xad3\x83\x92\xdc?'
p19
tp20
Rp21
tp22
a(S'l\xc3\xa9on bottou'
p23
g2
(g6
S"8\xad\xcc'\xe0:\xdc?"
p24
tp25
Rp26
tp27
a(S'random neural network'
p28
g2
(g6
S'\xd6\xed\xa1H\xa0\x13\xd9?'
p29
tp30
Rp31
tp32
a(S'deep learning'
p33
g2
(g6
S'\xf0\xca\xa9\xc2\xfa\xb8\xd8?'
p34
tp35
Rp36
tp37
a(S'stephen grossberg'
p38
g2
(g6
S'\xfe?\x06\xc4\xf4\xad\xd8?'
p39
tp40
Rp41
tp42
a(S'vladimir vapnik'
p43
g2
(g6
S'\xe0\xd3\xbb\x0e\xe7\xfc\xd7?'
p44
tp45
Rp46
tp47
a(S'encog'
p48
g2
(g6
S'\xb5\xa5z\x97?\xe6\xd7?'
p49
tp50
Rp51
tp52
a(S'ronald j. williams'
p53
g2
(g6
S'\xe0\x9bf\xc0F\x81\xd7?'
p54
tp55
Rp56
tp57
a(S'geoffrey hinton'
p58
g2
(g6
S'd \x9e\x88Qz\xd7?'
p59
tp60
Rp61
tp62
a(S'neural network software'
p63
g2
(g6
S'\xb8\xe9R\x94$\xea\xd6?'
p64
tp65
Rp66
tp67
a(S'timeline of machine learning'
p68
g2
(g6
S'\xef\x98\xd7\xdcv\x82\xd6?'
p69
tp70
Rp71
tp72
a(S'neural lab'
p73
g2
(g6
S'l\xcd\xb3\xf6\xb6D\xd6?'
p74
tp75
Rp76
tp77
a(S'michael a. arbib'
p78
g2
(g6
S'p\xf8\xfc\x14\xd4@\xd6?'
p79
tp80
Rp81
tp82
a(S'neuroph'
p83
g2
(g6
S'\x82\x91\x19\xf1c\x96\xd5?'
p84
tp85
Rp86
tp87
a(S'joone'
p88
g2
(g6
S'#\xfd\x7f\x8e]k\xd5?'
p89
tp90
Rp91
tp92
a(S"artur d'avila garcez"
p93
g2
(g6
S'h\n\xaad\x180\xd5?'
p94
tp95
Rp96
tp97
a(S'yoshua bengio'
p98
g2
(g6
S'\x87a&p\xf7 \xd5?'
p99
tp100
Rp101
tp102
a(S'massimiliano versace'
p103
g2
(g6
S'5\x10s\xe8\xef\x0e\xd5?'
p104
tp105
Rp106
tp107
a(S'erol gelenbe'
p108
g2
(g6
S'\x19\x97\xf0\x08F\xe9\xd4?'
p109
tp110
Rp111
tp112
a(S'physical neural network'
p113
g2
(g6
S'\xd0@T\x08\x12\xb5\xd4?'
p114
tp115
Rp116
tp117
a(S'neural engineering'
p118
g2
(g6
S'8\xc1~\xc3j\x9e\xd4?'
p119
tp120
Rp121
tp122
a(S'kumpati s. narendra'
p123
g2
(g6
S'\x90*t\xfc\xcc\x90\xd4?'
p124
tp125
Rp126
tp127
a(S'yeo yann yann'
p128
g2
(g6
S'bF#Q\xe9\x81\xd4?'
p129
tp130
Rp131
tp132
a(S'paul werbos'
p133
g2
(g6
S'\xb4\xdd|VJE\xd4?'
p134
tp135
Rp136
tp137
a(S'optical neural network'
p138
g2
(g6
S'\x9au\x15\xa1\x04D\xd4?'
p139
tp140
Rp141
tp142
a(S'spiking neural network'
p143
g2
(g6
S'\xdc\xa0c\\80\xd4?'
p144
tp145
Rp146
tp147
a(S'lee giles'
p148
g2
(g6
S'\x8e\xab\x1a"\xf4\xe2\xd3?'
p149
tp150
Rp151
tp152
a(S'neural networks (journal)'
p153
g2
(g6
S'[\x80/^O\xbd\xd3?'
p154
tp155
Rp156
tp157
a(S'christoph von der malsburg'
p158
g2
(g6
S';\x9ey\x00\x8f\xb2\xd3?'
p159
tp160
Rp161
tp162
a(S'yann borgstedt'
p163
g2
(g6
S'F!Pd\xd0\xac\xd3?'
p164
tp165
Rp166
tp167
a(S'connectionism'
p168
g2
(g6
S'\x12\xb0K\x08Dn\xd3?'
p169
tp170
Rp171
tp172
a(S'time delay neural network'
p173
g2
(g6
S'q\xce\x15\xc3\xa6g\xd3?'
p174
tp175
Rp176
tp177
a(S'neural gas'
p178
g2
(g6
S'>~\xb3\xde\xf1^\xd3?'
p179
tp180
Rp181
tp182
a(S'neurosolutions'
p183
g2
(g6
S'\xb2\xea\xd8\xd6\xc4[\xd3?'
p184
tp185
Rp186
tp187
a(S'james a. anderson'
p188
g2
(g6
S'\xb0_\xa1\xadiY\xd3?'
p189
tp190
Rp191
tp192
a(S'neural plate'
p193
g2
(g6
S'\x13\xa8\xea\xbd\xd4E\xd3?'
p194
tp195
Rp196
tp197
a(S'ieee transactions on neural networks and learning systems'
p198
g2
(g6
S'\xe0\x07\xe1(\xa86\xd3?'
p199
tp200
Rp201
tp202
a(S'recurrent neural network'
p203
g2
(g6
S'<\xe8>\x10\x92%\xd3?'
p204
tp205
Rp206
tp207
a(S'gail carpenter'
p208
g2
(g6
S'\xf9\xe5\xa8\x96b\t\xd3?'
p209
tp210
Rp211
tp212
a(S'types of artificial neural networks'
p213
g2
(g6
S'f\xf8\xb4\x02\x9a\xf8\xd2?'
p214
tp215
Rp216
tp217
a(S'modular neural network'
p218
g2
(g6
S'\xf0(\xf9Pd\xf5\xd2?'
p219
tp220
Rp221
tp222
a(S'\xc5\xa0ar\xc5\xabnas raudys'
p223
g2
(g6
S's\xdf\x98\x88\xcd\xf0\xd2?'
p224
tp225
Rp226
tp227
a(S'terry sejnowski'
p228
g2
(g6
S'$x|BV\xa5\xd2?'
p229
tp230
Rp231
tp232
a(S'klaus-robert m\xc3\xbcller'
p233
g2
(g6
S'y\xe4e\xa89\x99\xd2?'
p234
tp235
Rp236
tp237
a(S'center for sensorimotor neural engineering'
p238
g2
(g6
S'\x8b=H\xf3;\x8d\xd2?'
p239
tp240
Rp241
tp242
a(S'yann beuron'
p243
g2
(g6
S'c{\xe6\xb2B\x80\xd2?'
p244
tp245
Rp246
tp247
a(S'hava siegelmann'
p248
g2
(g6
S'\xc9\x1b{I\x9az\xd2?'
p249
tp250
Rp251
tp252
a(S'robert kozma'
p253
g2
(g6
S'Y\x8a\xf1\xbc\xcar\xd2?'
p254
tp255
Rp256
tp257
a(S'university of colorado boulder computer science department'
p258
g2
(g6
S'X\xac\xc0\x1d\xc4p\xd2?'
p259
tp260
Rp261
tp262
a(S'neural crest'
p263
g2
(g6
S'\x91\xc5V\xd7\xc3X\xd2?'
p264
tp265
Rp266
tp267
a(S'vanishing gradient problem'
p268
g2
(g6
S')\xef\rV\xfdU\xd2?'
p269
tp270
Rp271
tp272
a(S'computational neurogenetic modeling'
p273
g2
(g6
S'\x81\x04e\xa9\xd7U\xd2?'
p274
tp275
Rp276
tp277
a(S'neurulation'
p278
g2
(g6
S'&\xae\xbd\xbf\x02U\xd2?'
p279
tp280
Rp281
tp282
a(S'neurodimension'
p283
g2
(g6
S'm\x1e\x9cV\xa8R\xd2?'
p284
tp285
Rp286
tp287
a(S'confabulation (neural networks)'
p288
g2
(g6
S'\x08K\xa3R\x9c<\xd2?'
p289
tp290
Rp291
tp292
a(S'conference on neural information processing systems'
p293
g2
(g6
S'\x9d\xe8X\xa5z.\xd2?'
p294
tp295
Rp296
tp297
a(S'neural fold'
p298
g2
(g6
S'\x8b\xafv\x9c\x06%\xd2?'
p299
tp300
Rp301
tp302
a(S'teuvo kohonen'
p303
g2
(g6
S'\x11\x08\xe7\x12A\x12\xd2?'
p304
tp305
Rp306
tp307
a(S'courant institute of mathematical sciences'
p308
g2
(g6
S'\xa0Ex\xec\x13\n\xd2?'
p309
tp310
Rp311
tp312
a(S'ken perlin'
p313
g2
(g6
S'$\t\xda\xa7\xa6\x03\xd2?'
p314
tp315
Rp316
tp317
a(S'neural cryptography'
p318
g2
(g6
S'\xea\xdb\xeeC\x92\x02\xd2?'
p319
tp320
Rp321
tp322
a(S'neural tube'
p323
g2
(g6
S'\xe7B\xfb8\xb8\xf9\xd1?'
p324
tp325
Rp326
tp327
a(S'opennn'
p328
g2
(g6
S'rZv9U\xe4\xd1?'
p329
tp330
Rp331
tp332
a(S'machine learning'
p333
g2
(g6
S'\xbb\x8cU3\xcc\xd5\xd1?'
p334
tp335
Rp336
tp337
a(S'jacek m. zurada'
p338
g2
(g6
S'\xfe\xea\xbc0U\xae\xd1?'
p339
tp340
Rp341
tp342
a(S'paul glimcher'
p343
g2
(g6
S'\xae\x95\x16\x80\x15\xa8\xd1?'
p344
tp345
Rp346
tp347
a(S'neural groove'
p348
g2
(g6
S'\xee+\xd8\xd9g\xa7\xd1?'
p349
tp350
Rp351
tp352
a(S'european neural network society'
p353
g2
(g6
S'\x92<\x19\xfa}\x95\xd1?'
p354
tp355
Rp356
tp357
a(S'yann mabella'
p358
g2
(g6
S'(\x13\xca\x10N\x84\xd1?'
p359
tp360
Rp361
tp362
a(S'the red necklace'
p363
g2
(g6
S'\xbc\x83\xb7twv\xd1?'
p364
tp365
Rp366
tp367
a(S'david heeger'
p368
g2
(g6
S'M\x8e\xe0(\xa8Z\xd1?'
p369
tp370
Rp371
tp372
a(S'door on the left as you leave the elevator'
p373
g2
(g6
S'"aR\xd9\x8fJ\xd1?'
p374
tp375
Rp376
tp377
a(S'yann tiersen & shannon wright'
p378
g2
(g6
S'F\xcc\xf6\x92\x1fA\xd1?'
p379
tp380
Rp381
tp382
a(S'neurosecurity'
p383
g2
(g6
S'\x0besNg8\xd1?'
p384
tp385
Rp386
tp387
a(S'darkforest'
p388
g2
(g6
S'\x0f\x1f$\xb8q)\xd1?'
p389
tp390
Rp391
tp392
a(S'carnegie mellon school of computer science'
p393
g2
(g6
S"\r\xae\xa3'C#\xd1?"
p394
tp395
Rp396
tp397
a(S'department of computer science (university of toronto)'
p398
g2
(g6
S'\xd3\xd8\\\xbf\xb2\x04\xd1?'
p399
tp400
Rp401
tp402
a(S'neurorobotics'
p403
g2
(g6
S'\xe2\xb6\x0c9\x05\xf6\xd0?'
p404
tp405
Rp406
tp407
a(S'demetri terzopoulos'
p408
g2
(g6
S'\xd4Cx\xc3\xf8\xf5\xd0?'
p409
tp410
Rp411
tp412
a(S'neural designer'
p413
g2
(g6
S'\x1cS"K\x13\xf1\xd0?'
p414
tp415
Rp416
tp417
a(S'steve omohundro'
p418
g2
(g6
S'\xf4mJ!P\xe9\xd0?'
p419
tp420
Rp421
tp422
a(S'radford m. neal'
p423
g2
(g6
S'\xb8hf#K\xdf\xd0?'
p424
tp425
Rp426
tp427
a(S'leonid perlovsky'
p428
g2
(g6
S'z\xdb\xd1\xe8N\xcc\xd0?'
p429
tp430
Rp431
tp432
a(S'new york university'
p433
g2
(g6
S'e\xd3\xfdw\xdc\xc7\xd0?'
p434
tp435
Rp436
tp437
a(S'karim ouazzane'
p438
g2
(g6
S'b\xf3`\x90\xb7\xc7\xd0?'
p439
tp440
Rp441
tp442
a(S'neural network synchronization protocol'
p443
g2
(g6
S'\x88(\x84^z\xc4\xd0?'
p444
tp445
Rp446
tp447
a(S'andrew barto'
p448
g2
(g6
S'v\x9d\x10\xea\xaa\xaa\xd0?'
p449
tp450
Rp451
tp452
a(S'recursive neural network'
p453
g2
(g6
S'\x9cR\x8b\x10R\x9c\xd0?'
p454
tp455
Rp456
tp457
a(S'learning sciences'
p458
g2
(g6
S'\xd9\x02\xc5\xea\x8e\x9a\xd0?'
p459
tp460
Rp461
tp462
a(S'mnist database'
p463
g2
(g6
S'\xd7B\xf8?\x10\x97\xd0?'
p464
tp465
Rp466
tp467
a(S'differentiable neural computer'
p468
g2
(g6
S'*p\x1b\xa9\x01\x83\xd0?'
p469
tp470
Rp471
tp472
a(S'thomas g. dietterich'
p473
g2
(g6
S'\xdfw\xc1\xdc\xa0o\xd0?'
p474
tp475
Rp476
tp477
a(S'winner-take-all (computing)'
p478
g2
(g6
S'QO\xba\xf5\xe7m\xd0?'
p479
tp480
Rp481
tp482
a(S'cellular neural network'
p483
g2
(g6
S'\xe2I\x95\r\xe8j\xd0?'
p484
tp485
Rp486
tp487
a(S'neocognitron'
p488
g2
(g6
S'\xd5\xa9\xb2\xf9\xb3D\xd0?'
p489
tp490
Rp491
tp492
a(S'department of computer science, university of illinois at urbana\xe2\x80\x93champaign'
p493
g2
(g6
S'\xef\x17N\xcf\x8cB\xd0?'
p494
tp495
Rp496
tp497
a(S'frank h. guenther'
p498
g2
(g6
S'\xe1Kk\xa9\x0e@\xd0?'
p499
tp500
Rp501
tp502
a(S'ingemar cox'
p503
g2
(g6
S'\x96}\x87\x16\x86;\xd0?'
p504
tp505
Rp506
tp507
a(S'computation and neural systems'
p508
g2
(g6
S'\xb0\x03\xaa\xb5\x858\xd0?'
p509
tp510
Rp511
tp512
a(S'neuroectoderm'
p513
g2
(g6
S')>\x93\nm1\xd0?'
p514
tp515
Rp516
tp517
a(S'computer vision'
p518
g2
(g6
S'Z+\xb8F\x93/\xd0?'
p519
tp520
Rp521
tp522
a(S'convolutional neural network'
p523
g2
(g6
S'?\x9593T\x16\xd0?'
p524
tp525
Rp526
tp527
a(S'neurula'
p528
g2
(g6
S'\x90\xd4\x18=\x04\x11\xd0?'
p529
tp530
Rp531
tp532
a(S'computational neuroscience'
p533
g2
(g6
S'.\xa9\xc8C<\xf4\xcf?'
p534
tp535
Rp536
tp537
a(S'dana h. ballard'
p538
g2
(g6
S'\x009b\xdb\xb5\xe2\xcf?'
p539
tp540
Rp541
tp542
a(S'computer science'
p543
g2
(g6
S']\xbe\xb4N\xae\xd9\xcf?'
p544
tp545
Rp546
tp547
a(S'anastasios venetsanopoulos'
p548
g2
(g6
S'p\x7f\xff\x97k\xb9\xcf?'
p549
tp550
Rp551
tp552
a(S'neural machine translation'
p553
g2
(g6
S'\x89i[\x98e\xb8\xcf?'
p554
tp555
Rp556
tp557
a(S'list of machine learning concepts'
p558
g2
(g6
S'\xfe\xb0x\x8f\xd0\xaf\xcf?'
p559
tp560
Rp561
tp562
a(S'neural turing machine'
p563
g2
(g6
S'\xb7g~\x17`\x97\xcf?'
p564
tp565
Rp566
tp567
a(S'intelligent flight control system'
p568
g2
(g6
S'\xf2\x9c_gi\x82\xcf?'
p569
tp570
Rp571
tp572
a(S'biological neural network'
p573
g2
(g6
S'\xad\xf7\x05Pez\xcf?'
p574
tp575
Rp576
tp577
a(S'ilo ilo'
p578
g2
(g6
S'\x7f\x08\xc7\x0c\xcct\xcf?'
p579
tp580
Rp581
tp582
a(S'krasnow institute for advanced study'
p583
g2
(g6
S'+m\xde\x95O^\xcf?'
p584
tp585
Rp586
tp587
a(S'samuel williamson (scientist)'
p588
g2
(g6
S'\x8a\xb4\xe9\x88\x0bX\xcf?'
p589
tp590
Rp591
tp592
a(S'yann le bohec'
p593
g2
(g6
S'\xcc\x9c\xd9\xba\x08R\xcf?'
p594
tp595
Rp596
tp597
a(S'aaron bobick'
p598
g2
(g6
S'\x98\xae\x1ck\xd5P\xcf?'
p599
tp600
Rp601
tp602
a(S'j. anthony movshon'
p603
g2
(g6
S'\xd4T_r\xd87\xcf?'
p604
tp605
Rp606
tp607
a(S'richard mammone'
p608
g2
(g6
S'&\xa9\xff;\x0f.\xcf?'
p609
tp610
Rp611
tp612
a(S'jennifer tour chayes'
p613
g2
(g6
S'\\8{\xc3\xe8#\xcf?'
p614
tp615
Rp616
tp617
a(S'neural substrate'
p618
g2
(g6
S'\xa8\xccma4\x08\xcf?'
p619
tp620
Rp621
tp622
a(S'snns'
p623
g2
(g6
S'\x9b"\\\xa5\xd4\x03\xcf?'
p624
tp625
Rp626
tp627
a(S'yann wehrling'
p628
g2
(g6
S'\xcc\xd1\xe9\xf7f\xfa\xce?'
p629
tp630
Rp631
tp632
a(S'quantum neural network'
p633
g2
(g6
S'q\xd7\xdds\xc5\xef\xce?'
p634
tp635
Rp636
tp637
a(S'ruzena bajcsy'
p638
g2
(g6
S'\xf2\xf3v\xebO\xc5\xce?'
p639
tp640
Rp641
tp642
a(S'j\xc3\xbcrgen schmidhuber'
p643
g2
(g6
S'\x9c=\xd4c\xd5\xb1\xce?'
p644
tp645
Rp646
tp647
a(S'john hopfield'
p648
g2
(g6
S'?\x8c\x19\x95\x9a\xa2\xce?'
p649
tp650
Rp651
tp652
a(S'neural clique'
p653
g2
(g6
S'\xe6$\x14O2\x94\xce?'
p654
tp655
Rp656
tp657
a(S'decoded neurofeedback'
p658
g2
(g6
S'\xbb\x96}\x1c\xf9l\xce?'
p659
tp660
Rp661
tp662
a(S'outline of computer vision'
p663
g2
(g6
S'\xa50\x170\x1f3\xce?'
p664
tp665
Rp666
tp667
a(S'erkki oja'
p668
g2
(g6
S'\x8e\x07\xf2\x83\xac(\xce?'
p669
tp670
Rp671
tp672
a(S'neural engineering object'
p673
g2
(g6
S"\x90\xf6\xfe\x00='\xce?"
p674
tp675
Rp676
tp677
a(S'feedforward neural network'
p678
g2
(g6
S'\xeb0?\x00\x0b\xfa\xcd?'
p679
tp680
Rp681
tp682
a(S'ilya sutskever'
p683
g2
(g6
S'\xb1\xa2bG\xe9\xe1\xcd?'
p684
tp685
Rp686
tp687
a(S'larry s. davis'
p688
g2
(g6
S'~:-\xbf\xee\xdb\xcd?'
p689
tp690
Rp691
tp692
a(S'regulatory feedback network'
p693
g2
(g6
S'L\x143\xd3\xff\xd8\xcd?'
p694
tp695
Rp696
tp697
a(S'caroline haythornthwaite'
p698
g2
(g6
S'\xc3v\x9c~\xe7\xcd\xcd?'
p699
tp700
Rp701
tp702
a(S'university of edinburgh school of informatics'
p703
g2
(g6
S'\x99\x12\xf0\x99\x98\xbd\xcd?'
p704
tp705
Rp706
tp707
a(S'unsupervised learning'
p708
g2
(g6
S'l\x9a\xc8J\xc7\xb9\xcd?'
p709
tp710
Rp711
tp712
a(S'department of computer science, university of oxford'
p713
g2
(g6
S'\xdf\x8f/\x96!\xb3\xcd?'
p714
tp715
Rp716
tp717
a(S'u. b. desai'
p718
g2
(g6
S'\xaf\xae\xe5\xa8j\xa9\xcd?'
p719
tp720
Rp721
tp722
a(S'marketing and artificial intelligence'
p723
g2
(g6
S'\xcc\x83|\x05u\x95\xcd?'
p724
tp725
Rp726
tp727
a(S'campus of new york university'
p728
g2
(g6
S'\x8c<q\xbb\xf7\x8b\xcd?'
p729
tp730
Rp731
tp732
a(S'up diliman department of computer science'
p733
g2
(g6
S'\xb8\x84\xc2A\xd9\x84\xcd?'
p734
tp735
Rp736
tp737
a(S'nyu wireless'
p738
g2
(g6
S'\x02\xb1\xadIw\x83\xcd?'
p739
tp740
Rp741
tp742
a(S'david poeppel'
p743
g2
(g6
S'\x1d\xce\xd9\xd6\xe4r\xcd?'
p744
tp745
Rp746
tp747
a(S'yann richter'
p748
g2
(g6
S'\xc3\xbe:\xb2\x15d\xcd?'
p749
tp750
Rp751
tp752
a(S'handwriting recognition'
p753
g2
(g6
S'h\x7f\x1c\x00za\xcd?'
p754
tp755
Rp756
tp757
a(S'history of new york university'
p758
g2
(g6
S'\xff\x91\xdeG\x1c_\xcd?'
p759
tp760
Rp761
tp762
a(S'david forsyth (computer scientist)'
p763
g2
(g6
S'\xdd\xfd\x8a%\x85\\\xcd?'
p764
tp765
Rp766
tp767
a(S'igor aleksander'
p768
g2
(g6
S'K\x05\x12-bP\xcd?'
p769
tp770
Rp771
tp772
a(S'peltarion'
p773
g2
(g6
S'?8\x1f%\x12O\xcd?'
p774
tp775
Rp776
tp777
a(S'yann kersal\xc3\xa9'
p778
g2
(g6
S's,\xb7X[\x1b\xcd?'
p779
tp780
Rp781
tp782
a(S'modjo'
p783
g2
(g6
S'Zm\xf4\xc61\xff\xcc?'
p784
tp785
Rp786
tp787
a(S'artificial intelligence'
p788
g2
(g6
S'\xb29\xa2>\x1b\xfd\xcc?'
p789
tp790
Rp791
tp792
a(S'hyperneat'
p793
g2
(g6
S'rJ^\xdc\xa2\xf4\xcc?'
p794
tp795
Rp796
tp797
a(S'christopher i. moore'
p798
g2
(g6
S'\xb7P\x15\xcdG\xf2\xcc?'
p799
tp800
Rp801
tp802
a(S"yann dall'aglio"
p803
g2
(g6
S'8\xd9\xc2\x7f\xf7\xf1\xcc?'
p804
tp805
Rp806
tp807
a(S'keras'
p808
g2
(g6
S'l\x0f\xbb\xd3\x0e\xef\xcc?'
p809
tp810
Rp811
tp812
a(S'speech recognition'
p813
g2
(g6
S'\xdas\xb3\xaa\x15\xe8\xcc?'
p814
tp815
Rp816
tp817
a(S'nyu local'
p818
g2
(g6
S'}h\x82\xdfA\xcc\xcc?'
p819
tp820
Rp821
tp822
a(S'rui de figueiredo'
p823
g2
(g6
S'\xdb1S\xe3\x19\xb4\xcc?'
p824
tp825
Rp826
tp827
a(S'sankar kumar pal'
p828
g2
(g6
S'\xe5\x88)z\xe9\x9f\xcc?'
p829
tp830
Rp831
tp832
a(S'rice university electrical and computer engineering'
p833
g2
(g6
S'N\xac\x1c-\xd6\x82\xcc?'
p834
tp835
Rp836
tp837
a(S'list of new york university faculty'
p838
g2
(g6
S'G\xa1\x94\xc2\xf4\x80\xcc?'
p839
tp840
Rp841
tp842
a(S'new york university shanghai'
p843
g2
(g6
S'\x02\x98s\xfa\xb8\x7f\xcc?'
p844
tp845
Rp846
tp847
a(S'claudio silva (computer scientist)'
p848
g2
(g6
S'wN\xc0\xbe\xd0c\xcc?'
p849
tp850
Rp851
tp852
a(S'john colagioia'
p853
g2
(g6
S'\x15 \xf0M\xbeb\xcc?'
p854
tp855
Rp856
tp857
a(S'connectomics'
p858
g2
(g6
S'\x0e\xd1\x81b\xb1\\\xcc?'
p859
tp860
Rp861
tp862
a(S'pietro perona'
p863
g2
(g6
S'\xdcg\x0c\x8b\xa8W\xcc?'
p864
tp865
Rp866
tp867
a(S'jonathan s. turner'
p868
g2
(g6
S'\xbc\n)\xa6\xd2P\xcc?'
p869
tp870
Rp871
tp872
a(S'comparison of deep learning software/resources'
p873
g2
(g6
S'\xba\xb3\x9f\xd3\xbdL\xcc?'
p874
tp875
Rp876
tp877
a(S'tshilidzi marwala'
p878
g2
(g6
S'\xb7\x89\xae\x13\x9c@\xcc?'
p879
tp880
Rp881
tp882
a(S'michael i. jordan'
p883
g2
(g6
S'\xcf\xb1\xea\x87\x1f?\xcc?'
p884
tp885
Rp886
tp887
a(S'brendan frey'
p888
g2
(g6
S'\xe4j\x88\x9d\xf0>\xcc?'
p889
tp890
Rp891
tp892
a(S'didier conrad'
p893
g2
(g6
S'\x16\x8f\x8dF\xab=\xcc?'
p894
tp895
Rp896
tp897
a(S'fei-fei li'
p898
g2
(g6
S'\xa4\xfe3\x18\xbf<\xcc?'
p899
tp900
Rp901
tp902
a(S'robert haralick'
p903
g2
(g6
S'\xca\xcc~\xa6\x16\x1f\xcc?'
p904
tp905
Rp906
tp907
a(S'ieee transactions on learning technologies'
p908
g2
(g6
S'\n\xe0\xbf\x12\x87\x1e\xcc?'
p909
tp910
Rp911
tp912
a(S'tri yann'
p913
g2
(g6
S'R\xc1\xf9\xda-\x1e\xcc?'
p914
tp915
Rp916
tp917
a(S'nyu paris'
p918
g2
(g6
S'>w\xc7\xd7=\x16\xcc?'
p919
tp920
Rp921
tp922
a(S'amnon shashua'
p923
g2
(g6
S'\xec\x89\xf5\x99:\x16\xcc?'
p924
tp925
Rp926
tp927
a(S'neural development'
p928
g2
(g6
S'3\xa7\xaa\x86c\x12\xcc?'
p929
tp930
Rp931
tp932
a(S'branko sou\xc4\x8dek'
p933
g2
(g6
S'\xea\n\xde:\xef\r\xcc?'
p934
tp935
Rp936
tp937
a(S'steve lawrence (computer scientist)'
p938
g2
(g6
S'\xe7\x11\xc2\xe9?\x02\xcc?'
p939
tp940
Rp941
tp942
a(S'neural correlate'
p943
g2
(g6
S'\xb3\xfao6\xb8\xf7\xcb?'
p944
tp945
Rp946
tp947
a(S'bir bhanu'
p948
g2
(g6
S'd\xad+M\xd4\xf1\xcb?'
p949
tp950
Rp951
tp952
a(S'evolutionary acquisition of neural topologies'
p953
g2
(g6
S'\xa9,\x8a\xe0\x83\xe8\xcb?'
p954
tp955
Rp956
tp957
a(S'nyu violets football'
p958
g2
(g6
S'?\x1cp\x87\\\xe8\xcb?'
p959
tp960
Rp961
tp962
a(S'jim kurose'
p963
g2
(g6
S'\xbbV4U\xbb\xe5\xcb?'
p964
tp965
Rp966
tp967
a(S'thomas binford'
p968
g2
(g6
S'\xe6\xa1\xeb\xca\x88\xe4\xcb?'
p969
tp970
Rp971
tp972
a(S'richard zemel'
p973
g2
(g6
S'g\x95\x94\x9d\xd9\xe0\xcb?'
p974
tp975
Rp976
tp977
a(S'the computer journal'
p978
g2
(g6
S'\xe9\xa6\xeah\xbd\xcb\xcb?'
p979
tp980
Rp981
tp982
a(S'kristen sosulski'
p983
g2
(g6
S'K"\x86\xb44\xca\xcb?'
p984
tp985
Rp986
tp987
a(S'neuromorphic engineering'
p988
g2
(g6
S'.\x86\x07\x12\xdd\xc4\xcb?'
p989
tp990
Rp991
tp992
a(S'bcpnn'
p993
g2
(g6
S'\x1b\x13\xfcXq\xbb\xcb?'
p994
tp995
Rp996
tp997
a(S'new york university school of medicine'
p998
g2
(g6
S'A{\xf6\xf8\x03\xae\xcb?'
p999
tp1000
Rp1001
tp1002
a(S'network: computation in neural systems'
p1003
g2
(g6
S'\xa0\x00C\x7f\x18\xac\xcb?'
p1004
tp1005
Rp1006
tp1007
a(S'konrad kording'
p1008
g2
(g6
S'\x1d9\xad\xd2\xaa\xa5\xcb?'
p1009
tp1010
Rp1011
tp1012
a(S'ofer dekel (researcher)'
p1013
g2
(g6
S'j:q\x8d\xfe\xa4\xcb?'
p1014
tp1015
Rp1016
tp1017
a(S'history of virtual learning environments'
p1018
g2
(g6
S'=S\xf0)\xbd\x96\xcb?'
p1019
tp1020
Rp1021
tp1022
a(S'neurogammon'
p1023
g2
(g6
S'\xd1\xb0P\x15\xc9\x95\xcb?'
p1024
tp1025
Rp1026
tp1027
a(S'sepp hochreiter'
p1028
g2
(g6
S'\xca\x19\xa0\x94o\x8a\xcb?'
p1029
tp1030
Rp1031
tp1032
a(S'neurally controlled animat'
p1033
g2
(g6
S'\x17o\xa5\x87\xba\x86\xcb?'
p1034
tp1035
Rp1036
tp1037
a(S'robot learning'
p1038
g2
(g6
S'\xb9f\x18jy\x83\xcb?'
p1039
tp1040
Rp1041
tp1042
a(S'university of maryland department of computer science'
p1043
g2
(g6
S'\x0b\xdcZ\xce\x0ez\xcb?'
p1044
tp1045
Rp1046
tp1047
a(S'michael kearns (computer scientist)'
p1048
g2
(g6
S'U\x0f\x92q\xb8v\xcb?'
p1049
tp1050
Rp1051
tp1052
a(S'ai accelerator'
p1053
g2
(g6
S'\xf4\x85\x8eq\xd1r\xcb?'
p1054
tp1055
Rp1056
tp1057
a(S'artificial neural membrane'
p1058
g2
(g6
S'Y\x10\xefH\xa1f\xcb?'
p1059
tp1060
Rp1061
tp1062
a(S'vasant honavar'
p1063
g2
(g6
S'b\x91:\x9aUf\xcb?'
p1064
tp1065
Rp1066
tp1067
a(S'interdisciplinary center for neural computation'
p1068
g2
(g6
S'\x02\xb9\xde\x19C[\xcb?'
p1069
tp1070
Rp1071
tp1072
a(S'michale fee'
p1073
g2
(g6
S'\x90N\x9c\xdaZU\xcb?'
p1074
tp1075
Rp1076
tp1077
a(S'andrew furco'
p1078
g2
(g6
S'F\x00\xbd\x97\xafT\xcb?'
p1079
tp1080
Rp1081
tp1082
a(S'dario floreano'
p1083
g2
(g6
S'E\x0b\xef\r{P\xcb?'
p1084
tp1085
Rp1086
tp1087
a(S'nust school of electrical engineering and computer science'
p1088
g2
(g6
S'\x83\xd1I\xfb\xdfM\xcb?'
p1089
tp1090
Rp1091
tp1092
a(S'tout est calme'
p1093
g2
(g6
S'\xacY\xa2\xd4hE\xcb?'
p1094
tp1095
Rp1096
tp1097
a(S'computational intelligence'
p1098
g2
(g6
S'\x89\x96\x1d\x02\xc0:\xcb?'
p1099
tp1100
Rp1101
tp1102
a(S'kaisa sere'
p1103
g2
(g6
S'u\xec\xbd\xd0\x869\xcb?'
p1104
tp1105
Rp1106
tp1107
a(S'bernard widrow'
p1108
g2
(g6
S'\x9b\xf3#\x94\xd20\xcb?'
p1109
tp1110
Rp1111
tp1112
a(S'kak neural network'
p1113
g2
(g6
S'd\x93g\xe1E0\xcb?'
p1114
tp1115
Rp1116
tp1117
a(S'raj reddy'
p1118
g2
(g6
S'D\x14\xd1\xaa\xe0\x16\xcb?'
p1119
tp1120
Rp1121
tp1122
a(S'vijay vaishnavi'
p1123
g2
(g6
S'B\x9f\x11\xdcn\x16\xcb?'
p1124
tp1125
Rp1126
tp1127
a(S'rnn'
p1128
g2
(g6
S'\x9d\xa8\x01\xf8\x19\x14\xcb?'
p1129
tp1130
Rp1131
tp1132
a(S'policypitch'
p1133
g2
(g6
S'\x11E\x1575\x0f\xcb?'
p1134
tp1135
Rp1136
tp1137
a(S'krzysztof cios'
p1138
g2
(g6
S'\xc5\x8f\x91\xec\x19\x0e\xcb?'
p1139
tp1140
Rp1141
tp1142
a(S'ron sun'
p1143
g2
(g6
S'\xc6\xa3^\x8a\xd0\n\xcb?'
p1144
tp1145
Rp1146
tp1147
a(S'christopher bishop'
p1148
g2
(g6
S'\xb8\xbe\x95\x96[\n\xcb?'
p1149
tp1150
Rp1151
tp1152
a(S'zero instruction set computer'
p1153
g2
(g6
S'\x10^\xd6I\x83\x02\xcb?'
p1154
tp1155
Rp1156
tp1157
a(S'ed posner'
p1158
g2
(g6
S'\xe4 f\x0c\xe9\xfe\xca?'
p1159
tp1160
Rp1161
tp1162
a(S'rice center for neuroengineering'
p1163
g2
(g6
S'\xab\xb8:\x02\x1f\xee\xca?'
p1164
tp1165
Rp1166
tp1167
a(S'nyu violets'
p1168
g2
(g6
S'\xb6\xb8-\xc9\xc9\xeb\xca?'
p1169
tp1170
Rp1171
tp1172
a(S'roberto battiti'
p1173
g2
(g6
S'\xd92\x83\xeeq\xe7\xca?'
p1174
tp1175
Rp1176
tp1177
a(S'backpropagation through time'
p1178
g2
(g6
S'%}"\x9f\xf6\xe3\xca?'
p1179
tp1180
Rp1181
tp1182
a(S'nando de freitas'
p1183
g2
(g6
S'\x9c\xaf\x02\xc6\xa2\xdd\xca?'
p1184
tp1185
Rp1186
tp1187
a(S'list of artificial intelligence projects'
p1188
g2
(g6
S'\xff&W]J\xdd\xca?'
p1189
tp1190
Rp1191
tp1192
a(S'ellen w. zegura'
p1193
g2
(g6
S'g\x96\x97\xa1\x1c\xd8\xca?'
p1194
tp1195
Rp1196
tp1197
a(S'stochastic neural network'
p1198
g2
(g6
S'{3k\xdaR\xd3\xca?'
p1199
tp1200
Rp1201
tp1202
a(S'\xc3\x89ternelle'
p1203
g2
(g6
S'\xdcg,hq\xd0\xca?'
p1204
tp1205
Rp1206
tp1207
a(S'toyota technological institute at chicago'
p1208
g2
(g6
S'*\xaa\x1f<0\xc5\xca?'
p1209
tp1210
Rp1211
tp1212
a(S'neural adaptation'
p1213
g2
(g6
S'(\x01~\xe4D\xc4\xca?'
p1214
tp1215
Rp1216
tp1217
a(S'information and computer science'
p1218
g2
(g6
S'7\x8cs\xb9\xb1\xbc\xca?'
p1219
tp1220
Rp1221
tp1222
a(S'university of computer studies, yangon'
p1223
g2
(g6
S'\x90\xdaOR\xa5\xbc\xca?'
p1224
tp1225
Rp1226
tp1227
a(S'isabelle delannoy'
p1228
g2
(g6
S'\x9d[O\xd5\x85\xbb\xca?'
p1229
tp1230
Rp1231
tp1232
a(S'nyu tandon online'
p1233
g2
(g6
S'\x87\xa6&\x0c\xd8\xb9\xca?'
p1234
tp1235
Rp1236
tp1237
a(S'educational technology'
p1238
g2
(g6
S'\xddmi\xf7\x0e\xb8\xca?'
p1239
tp1240
Rp1241
tp1242
a(S'george cybenko'
p1243
g2
(g6
S'\xc1\xa1n\xa3\xf5\xb7\xca?'
p1244
tp1245
Rp1246
tp1247
a(S'chalermek intanagonwiwat'
p1248
g2
(g6
S':\x95\x03\xa8\xc8\xb6\xca?'
p1249
tp1250
Rp1251
tp1252
a(S'sorin draghici'
p1253
g2
(g6
S'fO\xe2\x0f\x90\xb5\xca?'
p1254
tp1255
Rp1256
tp1257
a(S'computer university, pyay'
p1258
g2
(g6
S'3\x8aR\xe2\t\xaf\xca?'
p1259
tp1260
Rp1261
tp1262
a(S'michael hausser'
p1263
g2
(g6
S'\xf0J\xb2\xb3\xc1\xae\xca?'
p1264
tp1265
Rp1266
tp1267
a(S'tensorflow'
p1268
g2
(g6
S']\xa2\x0f\np\x9a\xca?'
p1269
tp1270
Rp1271
tp1272
a(S'neural audio corporation'
p1273
g2
(g6
S'\x87J{\x8b\xd4\x97\xca?'
p1274
tp1275
Rp1276
tp1277
a(S'anu college of engineering and computer science'
p1278
g2
(g6
S'\xc9\xdd\xe0F\x9d\x94\xca?'
p1279
tp1280
Rp1281
tp1282
a(S'feedforward'
p1283
g2
(g6
S'\x03\xe3\xde\x1eh\x90\xca?'
p1284
tp1285
Rp1286
tp1287
a(S'one heart (r.i.o. song)'
p1288
g2
(g6
S'\xa3\xb49J\x81\x8d\xca?'
p1289
tp1290
Rp1291
tp1292
a(S'li huatian'
p1293
g2
(g6
S'\x90\xf6Y\x1d\xd0\x88\xca?'
p1294
tp1295
Rp1296
tp1297
a(S'uo computer and information science department'
p1298
g2
(g6
S'\xa5\x1fBT\xc1\x83\xca?'
p1299
tp1300
Rp1301
tp1302
a(S'john langford (computer scientist)'
p1303
g2
(g6
S'\x9c\xf3\xb8\xa0y\x7f\xca?'
p1304
tp1305
Rp1306
tp1307
a(S'snn'
p1308
g2
(g6
S'\x0c\xa3v\x92\xc5q\xca?'
p1309
tp1310
Rp1311
tp1312
a(S'cortica'
p1313
g2
(g6
S'n\xba%N\x15d\xca?'
p1314
tp1315
Rp1316
tp1317
a(S'thomas e. anderson'
p1318
g2
(g6
S'8\xfcH\x06fW\xca?'
p1319
tp1320
Rp1321
tp1322
a(S'david r. cheriton school of computer science'
p1323
g2
(g6
S'\xf0\xf6\xf9,\x00W\xca?'
p1324
tp1325
Rp1326
tp1327
a(S'randal a. koene'
p1328
g2
(g6
S'\x02\x03f\xd4\x91T\xca?'
p1329
tp1330
Rp1331
tp1332
a(S'steve furber'
p1333
g2
(g6
S'\x86\xe9E\xa1\xb0R\xca?'
p1334
tp1335
Rp1336
tp1337
a(S'deeplearning4j'
p1338
g2
(g6
S'\xd49\xd4\xc6\x82P\xca?'
p1339
tp1340
Rp1341
tp1342
a(S'john sexton'
p1343
g2
(g6
S'\x01]\x07\xbc\x17N\xca?'
p1344
tp1345
Rp1346
tp1347
a(S'nicol\xc3\xb2 cesa-bianchi'
p1348
g2
(g6
S'\x96\x1d\xa9\xada>\xca?'
p1349
tp1350
Rp1351
tp1352
a(S'alfred inselberg'
p1353
g2
(g6
S'8Nd\x8c?=\xca?'
p1354
tp1355
Rp1356
tp1357
a(S'yasuo matsuyama'
p1358
g2
(g6
S'\xb980\xd8\x13:\xca?'
p1359
tp1360
Rp1361
tp1362
a(S'ben taskar'
p1363
g2
(g6
S';+@pc7\xca?'
p1364
tp1365
Rp1366
tp1367
a(S'rostral neuropore'
p1368
g2
(g6
S'\xe3\xd3-p\x1e\x11\xca?'
p1369
tp1370
Rp1371
tp1372
a(S'mung chiang'
p1373
g2
(g6
S'\xe7=\xa9\xfe\xb1\x0c\xca?'
p1374
tp1375
Rp1376
tp1377
a(S'tamar schlick'
p1378
g2
(g6
S'\xa7\xe2a\x91\x8c\t\xca?'
p1379
tp1380
Rp1381
tp1382
a(S'computer laboratory, university of cambridge'
p1383
g2
(g6
S'_\xb4\xeaV\xb4\x08\xca?'
p1384
tp1385
Rp1386
tp1387
a(S'john o. limb'
p1388
g2
(g6
S'\x06\xf4\xda\xe0\x81\xf7\xc9?'
p1389
tp1390
Rp1391
tp1392
a(S'paul horn (computer scientist)'
p1393
g2
(g6
S'\x01\x91B\xb1\x82\xf6\xc9?'
p1394
tp1395
Rp1396
tp1397
a(S'stanford learning lab'
p1398
g2
(g6
S'!c=\x10\x94\xed\xc9?'
p1399
tp1400
Rp1401
tp1402
a(S'dehaene\xe2\x80\x93changeux model'
p1403
g2
(g6
S'!\x16\xa8$<\xe1\xc9?'
p1404
tp1405
Rp1406
tp1407
a(S'neurocybernetics'
p1408
g2
(g6
S'\x80\xf2\x10\xdf\xfb\xda\xc9?'
p1409
tp1410
Rp1411
tp1412
a(S'timo honkela'
p1413
g2
(g6
S'\xd3=\x88\x0c\x19\xd7\xc9?'
p1414
tp1415
Rp1416
tp1417
a(S'monroe d. donsker'
p1418
g2
(g6
S'Rn\xdc2p\xd6\xc9?'
p1419
tp1420
Rp1421
tp1422
a(S'institute for systems neuroscience'
p1423
g2
(g6
S'\xa9\xa6\xd0c\x85\xd0\xc9?'
p1424
tp1425
Rp1426
tp1427
a(S'zhi-hua zhou'
p1428
g2
(g6
S'\x18\xb3\xd8 \xd6\xce\xc9?'
p1429
tp1430
Rp1431
tp1432
a(S'de la salle university college of computer studies'
p1433
g2
(g6
S'0\xfce\xd0\xa9\xc8\xc9?'
p1434
tp1435
Rp1436
tp1437
a(S'mcgill university school of computer science'
p1438
g2
(g6
S'\xbb*\xbf\x0c|\xc1\xc9?'
p1439
tp1440
Rp1441
tp1442
a(S'kurt bollacker'
p1443
g2
(g6
S'\xe8,l\x8bm\xbb\xc9?'
p1444
tp1445
Rp1446
tp1447
a(S'generalization error'
p1448
g2
(g6
S'T\x06CQ\xd6\xb9\xc9?'
p1449
tp1450
Rp1451
tp1452
a(S'zeroth (software)'
p1453
g2
(g6
S'4\xfa\xd7v\xd4\xb7\xc9?'
p1454
tp1455
Rp1456
tp1457
a(S'john shawe-taylor'
p1458
g2
(g6
S'\x94!{QV\xb6\xc9?'
p1459
tp1460
Rp1461
tp1462
a(S'neural dust'
p1463
g2
(g6
S'\xf3\xba\xd4\xf7\xfe\xaf\xc9?'
p1464
tp1465
Rp1466
tp1467
a(S'pulse-coupled networks'
p1468
g2
(g6
S'\x02\xb2\xb2\xc4\x90\xaf\xc9?'
p1469
tp1470
Rp1471
tp1472
a(S'university of computer studies, mandalay'
p1473
g2
(g6
S"3=r'\xb3\xab\xc9?"
p1474
tp1475
Rp1476
tp1477
a(S'john d. bransford'
p1478
g2
(g6
S'\xb6o\x91\x16\xef\xa9\xc9?'
p1479
tp1480
Rp1481
tp1482
a(S'neuromimetic intelligence'
p1483
g2
(g6
S'\x8a\x0e\xe6\xea\xe3\xa7\xc9?'
p1484
tp1485
Rp1486
tp1487
a(S'dalhousie university faculty of computer science'
p1488
g2
(g6
S'\x90\xd7\x94\x16\x86\xa7\xc9?'
p1489
tp1490
Rp1491
tp1492
a(S'holographic associative memory'
p1493
g2
(g6
S']\xc8\xecM\xd2\xa2\xc9?'
p1494
tp1495
Rp1496
tp1497
a(S'andrew ng'
p1498
g2
(g6
S'\xd3\xca\xc4\xd3\x8d\x93\xc9?'
p1499
tp1500
Rp1501
tp1502
a(S'instituto de investigaciones en matem\xc3\xa1ticas aplicadas y sistemas'
p1503
g2
(g6
S'ez\xady?\x8c\xc9?'
p1504
tp1505
Rp1506
tp1507
a(S'neural decoding'
p1508
g2
(g6
S':\x98\x16\xf3e\x89\xc9?'
p1509
tp1510
Rp1511
tp1512
a.